ARM GAS  C:\Users\Austina\AppData\Local\Temp\ccDxfDNu.s 			page 1


   1              		.syntax unified
   2              		.cpu cortex-m4
   3              		.eabi_attribute 27, 1
   4              		.fpu fpv4-sp-d16
   5              		.eabi_attribute 20, 1
   6              		.eabi_attribute 21, 1
   7              		.eabi_attribute 23, 3
   8              		.eabi_attribute 24, 1
   9              		.eabi_attribute 25, 1
  10              		.eabi_attribute 26, 1
  11              		.eabi_attribute 30, 1
  12              		.eabi_attribute 34, 1
  13              		.eabi_attribute 18, 4
  14              		.thumb
  15              		.syntax unified
  16              		.file	"capSenseTask.c"
  17              		.text
  18              	.Ltext0:
  19              		.cfi_sections	.debug_frame
  20              		.section	.text.capsenseTask,"ax",%progbits
  21              		.align	2
  22              		.global	capsenseTask
  23              		.thumb
  24              		.thumb_func
  25              		.type	capsenseTask, %function
  26              	capsenseTask:
  27              	.LFB740:
  28              		.file 1 "SOURCE\\capSenseTask.c"
   1:SOURCE/capSenseTask.c **** /* ========================================
   2:SOURCE/capSenseTask.c ****  *
   3:SOURCE/capSenseTask.c ****  * Copyright YOUR COMPANY, THE YEAR
   4:SOURCE/capSenseTask.c ****  * All Rights Reserved
   5:SOURCE/capSenseTask.c ****  * UNPUBLISHED, LICENSED SOFTWARE.
   6:SOURCE/capSenseTask.c ****  *
   7:SOURCE/capSenseTask.c ****  * CONFIDENTIAL AND PROPRIETARY INFORMATION
   8:SOURCE/capSenseTask.c ****  * WHICH IS THE PROPERTY OF your company.
   9:SOURCE/capSenseTask.c ****  *
  10:SOURCE/capSenseTask.c ****  * ========================================
  11:SOURCE/capSenseTask.c **** */
  12:SOURCE/capSenseTask.c **** 
  13:SOURCE/capSenseTask.c **** #include "capSenseTask.h"
  14:SOURCE/capSenseTask.c **** #include "motorTask.h"
  15:SOURCE/capSenseTask.c **** 
  16:SOURCE/capSenseTask.c **** void capsenseTask(void *arg)
  17:SOURCE/capSenseTask.c **** {
  29              		.loc 1 17 0
  30              		.cfi_startproc
  31              		@ args = 0, pretend = 0, frame = 8
  32              		@ frame_needed = 0, uses_anonymous_args = 0
  33              	.LVL0:
  34 0000 30B5     		push	{r4, r5, lr}
  35              		.cfi_def_cfa_offset 12
  36              		.cfi_offset 4, -12
  37              		.cfi_offset 5, -8
  38              		.cfi_offset 14, -4
  39 0002 83B0     		sub	sp, sp, #12
  40              		.cfi_def_cfa_offset 24
ARM GAS  C:\Users\Austina\AppData\Local\Temp\ccDxfDNu.s 			page 2


  41              	.LVL1:
  18:SOURCE/capSenseTask.c ****     (void) arg;
  19:SOURCE/capSenseTask.c ****     
  20:SOURCE/capSenseTask.c ****     motors_t currentMotor = M1;
  21:SOURCE/capSenseTask.c ****     PWM_Message_t myMessage;
  22:SOURCE/capSenseTask.c ****     
  23:SOURCE/capSenseTask.c ****     CapSense_Start();
  42              		.loc 1 23 0
  43 0004 FFF7FEFF 		bl	CapSense_Start
  44              	.LVL2:
  24:SOURCE/capSenseTask.c ****     CapSense_ScanAllWidgets();
  45              		.loc 1 24 0
  46 0008 FFF7FEFF 		bl	CapSense_ScanAllWidgets
  47              	.LVL3:
  25:SOURCE/capSenseTask.c ****     
  26:SOURCE/capSenseTask.c ****     cap_print("Capsense Task Started")
  48              		.loc 1 26 0
  49 000c 2C48     		ldr	r0, .L9
  50 000e FFF7FEFF 		bl	printf
  51              	.LVL4:
  52 0012 2C48     		ldr	r0, .L9+4
  53 0014 FFF7FEFF 		bl	printf
  54              	.LVL5:
  55 0018 2B48     		ldr	r0, .L9+8
  56 001a FFF7FEFF 		bl	puts
  57              	.LVL6:
  20:SOURCE/capSenseTask.c ****     PWM_Message_t myMessage;
  58              		.loc 1 20 0
  59 001e 0125     		movs	r5, #1
  60              	.LVL7:
  61              	.L2:
  27:SOURCE/capSenseTask.c ****     
  28:SOURCE/capSenseTask.c ****     for(;;)
  29:SOURCE/capSenseTask.c ****     {
  30:SOURCE/capSenseTask.c ****         if(!CapSense_IsBusy())
  62              		.loc 1 30 0
  63 0020 FFF7FEFF 		bl	CapSense_IsBusy
  64              	.LVL8:
  65 0024 0028     		cmp	r0, #0
  66 0026 46D1     		bne	.L3
  67              	.LBB2:
  31:SOURCE/capSenseTask.c ****         {
  32:SOURCE/capSenseTask.c ****             CapSense_ProcessAllWidgets();
  68              		.loc 1 32 0
  69 0028 FFF7FEFF 		bl	CapSense_ProcessAllWidgets
  70              	.LVL9:
  33:SOURCE/capSenseTask.c ****             int pos;
  34:SOURCE/capSenseTask.c ****             pos = CapSense_GetCentroidPos(CapSense_LINEARSLIDER0_WDGT_ID);
  71              		.loc 1 34 0
  72 002c 0220     		movs	r0, #2
  73 002e FFF7FEFF 		bl	CapSense_GetCentroidPos
  74              	.LVL10:
  75 0032 0446     		mov	r4, r0
  76              	.LVL11:
  35:SOURCE/capSenseTask.c ****             
  36:SOURCE/capSenseTask.c ****             if(pos < 0xFFFF)
  77              		.loc 1 36 0
ARM GAS  C:\Users\Austina\AppData\Local\Temp\ccDxfDNu.s 			page 3


  78 0034 4FF6FE73 		movw	r3, #65534
  79 0038 9842     		cmp	r0, r3
  80 003a 1BDC     		bgt	.L4
  37:SOURCE/capSenseTask.c ****             {
  38:SOURCE/capSenseTask.c ****                 cap_printf("M%d PWM : %d",currentMotor,pos);
  81              		.loc 1 38 0
  82 003c 2048     		ldr	r0, .L9
  83              	.LVL12:
  84 003e FFF7FEFF 		bl	printf
  85              	.LVL13:
  86 0042 2246     		mov	r2, r4
  87 0044 2946     		mov	r1, r5
  88 0046 2148     		ldr	r0, .L9+12
  89 0048 FFF7FEFF 		bl	printf
  90              	.LVL14:
  91 004c 1E48     		ldr	r0, .L9+8
  92 004e FFF7FEFF 		bl	puts
  93              	.LVL15:
  39:SOURCE/capSenseTask.c ****                 myMessage.motor = currentMotor;
  94              		.loc 1 39 0
  95 0052 8DF80050 		strb	r5, [sp]
  40:SOURCE/capSenseTask.c ****                 myMessage.percent = pos;
  96              		.loc 1 40 0
  97 0056 0194     		str	r4, [sp, #4]
  41:SOURCE/capSenseTask.c ****                 xQueueSend(pwmQueue,&myMessage,0);
  98              		.loc 1 41 0
  99 0058 0023     		movs	r3, #0
 100 005a 1A46     		mov	r2, r3
 101 005c 6946     		mov	r1, sp
 102 005e 1C48     		ldr	r0, .L9+16
 103 0060 0068     		ldr	r0, [r0]
 104 0062 FFF7FEFF 		bl	xQueueGenericSend
 105              	.LVL16:
  42:SOURCE/capSenseTask.c ****                 xQueueSend(servoControlQueue,&myMessage,0);
 106              		.loc 1 42 0
 107 0066 0023     		movs	r3, #0
 108 0068 1A46     		mov	r2, r3
 109 006a 6946     		mov	r1, sp
 110 006c 1948     		ldr	r0, .L9+20
 111 006e 0068     		ldr	r0, [r0]
 112 0070 FFF7FEFF 		bl	xQueueGenericSend
 113              	.LVL17:
 114              	.L4:
  43:SOURCE/capSenseTask.c ****             }
  44:SOURCE/capSenseTask.c ****             
  45:SOURCE/capSenseTask.c ****             if(CapSense_IsWidgetActive(CapSense_BUTTON0_WDGT_ID))
 115              		.loc 1 45 0
 116 0074 0020     		movs	r0, #0
 117 0076 FFF7FEFF 		bl	CapSense_IsWidgetActive
 118              	.LVL18:
 119 007a 48B1     		cbz	r0, .L5
  46:SOURCE/capSenseTask.c ****             {
  47:SOURCE/capSenseTask.c ****                 cap_print("Motor M1 selected");
 120              		.loc 1 47 0
 121 007c 1048     		ldr	r0, .L9
 122 007e FFF7FEFF 		bl	printf
 123              	.LVL19:
ARM GAS  C:\Users\Austina\AppData\Local\Temp\ccDxfDNu.s 			page 4


 124 0082 1548     		ldr	r0, .L9+24
 125 0084 FFF7FEFF 		bl	printf
 126              	.LVL20:
 127 0088 0F48     		ldr	r0, .L9+8
 128 008a FFF7FEFF 		bl	puts
 129              	.LVL21:
  48:SOURCE/capSenseTask.c ****                 currentMotor = M1;   
 130              		.loc 1 48 0
 131 008e 0125     		movs	r5, #1
 132              	.LVL22:
 133              	.L5:
  49:SOURCE/capSenseTask.c ****             }
  50:SOURCE/capSenseTask.c ****             
  51:SOURCE/capSenseTask.c ****             if(CapSense_IsWidgetActive(CapSense_BUTTON1_WDGT_ID))
 134              		.loc 1 51 0
 135 0090 0120     		movs	r0, #1
 136 0092 FFF7FEFF 		bl	CapSense_IsWidgetActive
 137              	.LVL23:
 138 0096 48B1     		cbz	r0, .L6
  52:SOURCE/capSenseTask.c ****             {
  53:SOURCE/capSenseTask.c ****                 cap_print("Motor M2 Selected");
 139              		.loc 1 53 0
 140 0098 0948     		ldr	r0, .L9
 141 009a FFF7FEFF 		bl	printf
 142              	.LVL24:
 143 009e 0F48     		ldr	r0, .L9+28
 144 00a0 FFF7FEFF 		bl	printf
 145              	.LVL25:
 146 00a4 0848     		ldr	r0, .L9+8
 147 00a6 FFF7FEFF 		bl	puts
 148              	.LVL26:
  54:SOURCE/capSenseTask.c ****                 currentMotor = M2;   
 149              		.loc 1 54 0
 150 00aa 0225     		movs	r5, #2
 151              	.LVL27:
 152              	.L6:
  55:SOURCE/capSenseTask.c ****             }
  56:SOURCE/capSenseTask.c ****             CapSense_UpdateAllBaselines();
 153              		.loc 1 56 0
 154 00ac FFF7FEFF 		bl	CapSense_UpdateAllBaselines
 155              	.LVL28:
  57:SOURCE/capSenseTask.c ****             CapSense_ScanAllWidgets();
 156              		.loc 1 57 0
 157 00b0 FFF7FEFF 		bl	CapSense_ScanAllWidgets
 158              	.LVL29:
 159              	.LBE2:
 160 00b4 B4E7     		b	.L2
 161              	.LVL30:
 162              	.L3:
  58:SOURCE/capSenseTask.c ****         }
  59:SOURCE/capSenseTask.c ****         else
  60:SOURCE/capSenseTask.c ****         {
  61:SOURCE/capSenseTask.c ****             vTaskDelay(50);
 163              		.loc 1 61 0
 164 00b6 3220     		movs	r0, #50
 165 00b8 FFF7FEFF 		bl	vTaskDelay
 166              	.LVL31:
ARM GAS  C:\Users\Austina\AppData\Local\Temp\ccDxfDNu.s 			page 5


 167 00bc B0E7     		b	.L2
 168              	.L10:
 169 00be 00BF     		.align	2
 170              	.L9:
 171 00c0 00000000 		.word	.LC0
 172 00c4 10000000 		.word	.LC1
 173 00c8 28000000 		.word	.LC2
 174 00cc 2C000000 		.word	.LC3
 175 00d0 00000000 		.word	pwmQueue
 176 00d4 00000000 		.word	servoControlQueue
 177 00d8 3C000000 		.word	.LC4
 178 00dc 50000000 		.word	.LC5
 179              		.cfi_endproc
 180              	.LFE740:
 181              		.size	capsenseTask, .-capsenseTask
 182              		.comm	temp,100,4
 183              		.section	.rodata.str1.4,"aMS",%progbits,1
 184              		.align	2
 185              	.LC0:
 186 0000 5B204341 		.ascii	"[ CAP TASK ] : \000"
 186      50205441 
 186      534B205D 
 186      203A2000 
 187              	.LC1:
 188 0010 43617073 		.ascii	"Capsense Task Started\000"
 188      656E7365 
 188      20546173 
 188      6B205374 
 188      61727465 
 189 0026 0000     		.space	2
 190              	.LC2:
 191 0028 0D00     		.ascii	"\015\000"
 192 002a 0000     		.space	2
 193              	.LC3:
 194 002c 4D256420 		.ascii	"M%d PWM : %d\000"
 194      50574D20 
 194      3A202564 
 194      00
 195 0039 000000   		.space	3
 196              	.LC4:
 197 003c 4D6F746F 		.ascii	"Motor M1 selected\000"
 197      72204D31 
 197      2073656C 
 197      65637465 
 197      6400
 198 004e 0000     		.space	2
 199              	.LC5:
 200 0050 4D6F746F 		.ascii	"Motor M2 Selected\000"
 200      72204D32 
 200      2053656C 
 200      65637465 
 200      6400
 201              		.text
 202              	.Letext0:
 203              		.file 2 "c:\\program files (x86)\\cypress\\psoc creator\\4.4\\psoc creator\\import\\gnu\\arm\\5.4.
 204              		.file 3 "c:\\program files (x86)\\cypress\\psoc creator\\4.4\\psoc creator\\import\\gnu\\arm\\5.4.
 205              		.file 4 "Generated_Source\\PSoC6\\pdl\\drivers/peripheral/device/cy_device.h"
ARM GAS  C:\Users\Austina\AppData\Local\Temp\ccDxfDNu.s 			page 6


 206              		.file 5 "Generated_Source\\PSoC6\\pdl\\drivers/peripheral/syslib/cy_syslib.h"
 207              		.file 6 "Generated_Source\\PSoC6\\pdl\\rtos/FreeRTOS/10.0.1/Source/portable/GCC/CM4F/portmacro.h"
 208              		.file 7 "Generated_Source\\PSoC6\\pdl\\drivers/peripheral/scb/cy_scb_i2c.h"
 209              		.file 8 "Generated_Source\\PSoC6\\pdl\\drivers/peripheral/scb/cy_scb_ezi2c.h"
 210              		.file 9 "Generated_Source\\PSoC6\\pdl\\drivers/peripheral/scb/cy_scb_uart.h"
 211              		.file 10 "Generated_Source\\PSoC6\\pdl\\drivers/peripheral/tcpwm/cy_tcpwm_pwm.h"
 212              		.file 11 "Generated_Source\\PSoC6\\pdl\\middleware/ble/cy_ble_stack.h"
 213              		.file 12 "Generated_Source\\PSoC6\\pdl\\middleware/ble/cy_ble_stack_host_main.h"
 214              		.file 13 "Generated_Source\\PSoC6\\pdl\\middleware/ble/cy_ble_gap.h"
 215              		.file 14 "Generated_Source\\PSoC6\\pdl\\rtos/FreeRTOS/10.0.1/Source/include/queue.h"
 216              		.file 15 "SOURCE\\motorTask.h"
 217              		.file 16 "Generated_Source\\PSoC6\\pdl\\cmsis/include/core_cm4.h"
 218              		.file 17 "Generated_Source\\PSoC6/UART.h"
 219              		.file 18 "Generated_Source\\PSoC6/PWM_1.h"
 220              		.file 19 "Generated_Source\\PSoC6/PWM_RED.h"
 221              		.file 20 "Generated_Source\\PSoC6/EZI2C.h"
 222              		.file 21 "Generated_Source\\PSoC6/LEDBlink.h"
 223              		.file 22 "Generated_Source\\PSoC6/PWM_2.h"
 224              		.file 23 "Generated_Source\\PSoC6/Dimmer.h"
 225              		.file 24 "Generated_Source\\PSoC6/I2C_ARD.h"
 226              		.file 25 "SOURCE\\common.h"
 227              		.file 26 "Generated_Source\\PSoC6/CapSense_Control.h"
 228              		.file 27 "Generated_Source\\PSoC6/CapSense_Structure.h"
 229              		.file 28 "c:\\program files (x86)\\cypress\\psoc creator\\4.4\\psoc creator\\import\\gnu\\arm\\5.4
 230              		.file 29 "Generated_Source\\PSoC6/CapSense_Filter.h"
 231              		.file 30 "Generated_Source\\PSoC6/CapSense_Sensing.h"
 232              		.file 31 "Generated_Source\\PSoC6\\pdl\\rtos/FreeRTOS/10.0.1/Source/include/task.h"
 233              		.file 32 "<built-in>"