ARM GAS  C:\Users\Austina\AppData\Local\Temp\cchgQTEX.s 			page 1


   1              		.syntax unified
   2              		.cpu cortex-m4
   3              		.eabi_attribute 27, 1
   4              		.fpu fpv4-sp-d16
   5              		.eabi_attribute 20, 1
   6              		.eabi_attribute 21, 1
   7              		.eabi_attribute 23, 3
   8              		.eabi_attribute 24, 1
   9              		.eabi_attribute 25, 1
  10              		.eabi_attribute 26, 1
  11              		.eabi_attribute 30, 1
  12              		.eabi_attribute 34, 1
  13              		.eabi_attribute 18, 4
  14              		.thumb
  15              		.syntax unified
  16              		.file	"motorTask.c"
  17              		.text
  18              	.Ltext0:
  19              		.cfi_sections	.debug_frame
  20              		.section	.text.compareToPercent,"ax",%progbits
  21              		.align	2
  22              		.global	compareToPercent
  23              		.thumb
  24              		.thumb_func
  25              		.type	compareToPercent, %function
  26              	compareToPercent:
  27              	.LFB744:
  28              		.file 1 "SOURCE\\motorTask.c"
   1:SOURCE/motorTask.c **** /* ========================================
   2:SOURCE/motorTask.c ****  *
   3:SOURCE/motorTask.c ****  * Copyright YOUR COMPANY, THE YEAR
   4:SOURCE/motorTask.c ****  * All Rights Reserved
   5:SOURCE/motorTask.c ****  * UNPUBLISHED, LICENSED SOFTWARE.
   6:SOURCE/motorTask.c ****  *
   7:SOURCE/motorTask.c ****  * CONFIDENTIAL AND PROPRIETARY INFORMATION
   8:SOURCE/motorTask.c ****  * WHICH IS THE PROPERTY OF your company.
   9:SOURCE/motorTask.c ****  *
  10:SOURCE/motorTask.c ****  * ========================================
  11:SOURCE/motorTask.c **** */
  12:SOURCE/motorTask.c **** 
  13:SOURCE/motorTask.c **** #include "motorTask.h"
  14:SOURCE/motorTask.c **** 
  15:SOURCE/motorTask.c **** //Range of pulses for servo motor in uS
  16:SOURCE/motorTask.c **** #define MIN_US  1000
  17:SOURCE/motorTask.c **** #define MAX_US  2000
  18:SOURCE/motorTask.c **** 
  19:SOURCE/motorTask.c **** //Parameters of PWM must be same as schematic
  20:SOURCE/motorTask.c **** #define PWM_CLK         4000000
  21:SOURCE/motorTask.c **** #define PWM_DIV         4   
  22:SOURCE/motorTask.c **** #define US_PER_SEC      1000000
  23:SOURCE/motorTask.c **** #define PWMTICK_PER_US  (PWM_CLK/PWM_DIV/US_PER_SEC)
  24:SOURCE/motorTask.c **** 
  25:SOURCE/motorTask.c **** 
  26:SOURCE/motorTask.c **** //Turn a percent (0--->100) to a pulse width in microseconds
  27:SOURCE/motorTask.c **** static int inline percentToPulse(int percent)
  28:SOURCE/motorTask.c **** {
  29:SOURCE/motorTask.c ****     int pulse;
ARM GAS  C:\Users\Austina\AppData\Local\Temp\cchgQTEX.s 			page 2


  30:SOURCE/motorTask.c ****     pulse = percent * (MAX_US - MIN_US ) / (100 - 0) + MIN_US ;
  31:SOURCE/motorTask.c ****     return pulse;
  32:SOURCE/motorTask.c **** }
  33:SOURCE/motorTask.c **** 
  34:SOURCE/motorTask.c **** static int inline pulseToPercent(int pulse)
  35:SOURCE/motorTask.c **** {
  36:SOURCE/motorTask.c ****     int percent = 0;
  37:SOURCE/motorTask.c ****     percent = pulse * (100 - 0) / (MAX_US - MIN_US) - 100;
  38:SOURCE/motorTask.c ****     return percent;
  39:SOURCE/motorTask.c **** }
  40:SOURCE/motorTask.c **** 
  41:SOURCE/motorTask.c **** //Turn a PWM compare value into pulse width in us
  42:SOURCE/motorTask.c **** static int inline compareToPulse(int compare)
  43:SOURCE/motorTask.c **** {
  44:SOURCE/motorTask.c ****     int pulse;
  45:SOURCE/motorTask.c ****     pulse = compare / PWMTICK_PER_US;
  46:SOURCE/motorTask.c ****     return pulse;
  47:SOURCE/motorTask.c **** }
  48:SOURCE/motorTask.c **** //Turn a pulse width in us to a PWM compare value
  49:SOURCE/motorTask.c **** static int inline pulseToCompare(int pulse)
  50:SOURCE/motorTask.c **** {
  51:SOURCE/motorTask.c ****     int compare;
  52:SOURCE/motorTask.c ****     compare = pulse * PWMTICK_PER_US;
  53:SOURCE/motorTask.c ****     return compare;
  54:SOURCE/motorTask.c **** }
  55:SOURCE/motorTask.c **** 
  56:SOURCE/motorTask.c **** //Turn pwm compare value into percent
  57:SOURCE/motorTask.c **** int compareToPercent(int compare)
  58:SOURCE/motorTask.c **** {
  29              		.loc 1 58 0
  30              		.cfi_startproc
  31              		@ args = 0, pretend = 0, frame = 0
  32              		@ frame_needed = 0, uses_anonymous_args = 0
  33              		@ link register save eliminated.
  34              	.LVL0:
  35              	.LBB20:
  36              	.LBB21:
  37:SOURCE/motorTask.c ****     return percent;
  37              		.loc 1 37 0
  38 0000 6423     		movs	r3, #100
  39 0002 03FB00F0 		mul	r0, r3, r0
  40              	.LVL1:
  41 0006 044B     		ldr	r3, .L2
  42 0008 83FB0023 		smull	r2, r3, r3, r0
  43 000c C017     		asrs	r0, r0, #31
  44 000e C0EBA310 		rsb	r0, r0, r3, asr #6
  45              	.LVL2:
  46              	.LBE21:
  47              	.LBE20:
  59:SOURCE/motorTask.c ****     int pulse;
  60:SOURCE/motorTask.c ****     int percent;
  61:SOURCE/motorTask.c ****     pulse = compareToPulse(compare);
  62:SOURCE/motorTask.c ****     percent = pulseToPercent(pulse);
  63:SOURCE/motorTask.c ****     return percent;
  64:SOURCE/motorTask.c **** }
  48              		.loc 1 64 0
  49 0012 6438     		subs	r0, r0, #100
ARM GAS  C:\Users\Austina\AppData\Local\Temp\cchgQTEX.s 			page 3


  50 0014 7047     		bx	lr
  51              	.L3:
  52 0016 00BF     		.align	2
  53              	.L2:
  54 0018 D34D6210 		.word	274877907
  55              		.cfi_endproc
  56              	.LFE744:
  57              		.size	compareToPercent, .-compareToPercent
  58              		.section	.text.getMotorPercent,"ax",%progbits
  59              		.align	2
  60              		.global	getMotorPercent
  61              		.thumb
  62              		.thumb_func
  63              		.type	getMotorPercent, %function
  64              	getMotorPercent:
  65              	.LFB745:
  65:SOURCE/motorTask.c **** 
  66:SOURCE/motorTask.c **** 
  67:SOURCE/motorTask.c **** int getMotorPercent(motors_t motors)
  68:SOURCE/motorTask.c **** {
  66              		.loc 1 68 0
  67              		.cfi_startproc
  68              		@ args = 0, pretend = 0, frame = 0
  69              		@ frame_needed = 0, uses_anonymous_args = 0
  70              	.LVL3:
  71 0000 08B5     		push	{r3, lr}
  72              		.cfi_def_cfa_offset 8
  73              		.cfi_offset 3, -8
  74              		.cfi_offset 14, -4
  69:SOURCE/motorTask.c ****     int compare = Cy_TCPWM_PWM_GetCompare0(
  75              		.loc 1 69 0
  76 0002 0128     		cmp	r0, #1
  77 0004 01D1     		bne	.L6
  78 0006 0123     		movs	r3, #1
  79 0008 00E0     		b	.L5
  80              	.L6:
  81 000a 0A23     		movs	r3, #10
  82              	.L5:
  83              	.LVL4:
  84              	.LBB22:
  85              	.LBB23:
  86              		.file 2 "Generated_Source\\PSoC6\\pdl\\drivers/peripheral/tcpwm/cy_tcpwm_pwm.h"
   1:Generated_Source\PSoC6\pdl\drivers/peripheral/tcpwm/cy_tcpwm_pwm.h **** /***************************************************************************//**
   2:Generated_Source\PSoC6\pdl\drivers/peripheral/tcpwm/cy_tcpwm_pwm.h **** * \file cy_tcpwm_pwm.h
   3:Generated_Source\PSoC6\pdl\drivers/peripheral/tcpwm/cy_tcpwm_pwm.h **** * \version 1.10
   4:Generated_Source\PSoC6\pdl\drivers/peripheral/tcpwm/cy_tcpwm_pwm.h **** *
   5:Generated_Source\PSoC6\pdl\drivers/peripheral/tcpwm/cy_tcpwm_pwm.h **** * \brief
   6:Generated_Source\PSoC6\pdl\drivers/peripheral/tcpwm/cy_tcpwm_pwm.h **** * The header file of the TCPWM PWM driver.
   7:Generated_Source\PSoC6\pdl\drivers/peripheral/tcpwm/cy_tcpwm_pwm.h **** *
   8:Generated_Source\PSoC6\pdl\drivers/peripheral/tcpwm/cy_tcpwm_pwm.h **** ********************************************************************************
   9:Generated_Source\PSoC6\pdl\drivers/peripheral/tcpwm/cy_tcpwm_pwm.h **** * \copyright
  10:Generated_Source\PSoC6\pdl\drivers/peripheral/tcpwm/cy_tcpwm_pwm.h **** * Copyright 2016-2018, Cypress Semiconductor Corporation. All rights reserved.
  11:Generated_Source\PSoC6\pdl\drivers/peripheral/tcpwm/cy_tcpwm_pwm.h **** * You may use this file only in accordance with the license, terms, conditions,
  12:Generated_Source\PSoC6\pdl\drivers/peripheral/tcpwm/cy_tcpwm_pwm.h **** * disclaimers, and limitations in the end user license agreement accompanying
  13:Generated_Source\PSoC6\pdl\drivers/peripheral/tcpwm/cy_tcpwm_pwm.h **** * the software package with which this file was provided.
  14:Generated_Source\PSoC6\pdl\drivers/peripheral/tcpwm/cy_tcpwm_pwm.h **** *******************************************************************************/
  15:Generated_Source\PSoC6\pdl\drivers/peripheral/tcpwm/cy_tcpwm_pwm.h **** 
ARM GAS  C:\Users\Austina\AppData\Local\Temp\cchgQTEX.s 			page 4


  16:Generated_Source\PSoC6\pdl\drivers/peripheral/tcpwm/cy_tcpwm_pwm.h **** #if !defined(CY_TCPWM_PWM_H)
  17:Generated_Source\PSoC6\pdl\drivers/peripheral/tcpwm/cy_tcpwm_pwm.h **** #define CY_TCPWM_PWM_H
  18:Generated_Source\PSoC6\pdl\drivers/peripheral/tcpwm/cy_tcpwm_pwm.h **** 
  19:Generated_Source\PSoC6\pdl\drivers/peripheral/tcpwm/cy_tcpwm_pwm.h **** #include "cy_tcpwm.h"
  20:Generated_Source\PSoC6\pdl\drivers/peripheral/tcpwm/cy_tcpwm_pwm.h **** 
  21:Generated_Source\PSoC6\pdl\drivers/peripheral/tcpwm/cy_tcpwm_pwm.h **** #if defined(__cplusplus)
  22:Generated_Source\PSoC6\pdl\drivers/peripheral/tcpwm/cy_tcpwm_pwm.h **** extern "C" {
  23:Generated_Source\PSoC6\pdl\drivers/peripheral/tcpwm/cy_tcpwm_pwm.h **** #endif
  24:Generated_Source\PSoC6\pdl\drivers/peripheral/tcpwm/cy_tcpwm_pwm.h **** 
  25:Generated_Source\PSoC6\pdl\drivers/peripheral/tcpwm/cy_tcpwm_pwm.h **** /**
  26:Generated_Source\PSoC6\pdl\drivers/peripheral/tcpwm/cy_tcpwm_pwm.h **** * \addtogroup group_tcpwm_pwm
  27:Generated_Source\PSoC6\pdl\drivers/peripheral/tcpwm/cy_tcpwm_pwm.h **** * Driver API for PWM.
  28:Generated_Source\PSoC6\pdl\drivers/peripheral/tcpwm/cy_tcpwm_pwm.h **** *
  29:Generated_Source\PSoC6\pdl\drivers/peripheral/tcpwm/cy_tcpwm_pwm.h **** * The functions and other declarations used in this part of the driver are in cy_tcpwm_pwm.h. 
  30:Generated_Source\PSoC6\pdl\drivers/peripheral/tcpwm/cy_tcpwm_pwm.h **** * You can also include cy_pdl.h (ModusToolbox only) to get access to all  
  31:Generated_Source\PSoC6\pdl\drivers/peripheral/tcpwm/cy_tcpwm_pwm.h **** * functions and declarations in the PDL.
  32:Generated_Source\PSoC6\pdl\drivers/peripheral/tcpwm/cy_tcpwm_pwm.h **** * \{
  33:Generated_Source\PSoC6\pdl\drivers/peripheral/tcpwm/cy_tcpwm_pwm.h **** */
  34:Generated_Source\PSoC6\pdl\drivers/peripheral/tcpwm/cy_tcpwm_pwm.h **** 
  35:Generated_Source\PSoC6\pdl\drivers/peripheral/tcpwm/cy_tcpwm_pwm.h **** /**
  36:Generated_Source\PSoC6\pdl\drivers/peripheral/tcpwm/cy_tcpwm_pwm.h **** * \defgroup group_tcpwm_macros_pwm          Macros
  37:Generated_Source\PSoC6\pdl\drivers/peripheral/tcpwm/cy_tcpwm_pwm.h **** * \defgroup group_tcpwm_functions_pwm       Functions
  38:Generated_Source\PSoC6\pdl\drivers/peripheral/tcpwm/cy_tcpwm_pwm.h **** * \defgroup group_tcpwm_data_structures_pwm Data Structures
  39:Generated_Source\PSoC6\pdl\drivers/peripheral/tcpwm/cy_tcpwm_pwm.h **** * \} */
  40:Generated_Source\PSoC6\pdl\drivers/peripheral/tcpwm/cy_tcpwm_pwm.h **** 
  41:Generated_Source\PSoC6\pdl\drivers/peripheral/tcpwm/cy_tcpwm_pwm.h **** /**
  42:Generated_Source\PSoC6\pdl\drivers/peripheral/tcpwm/cy_tcpwm_pwm.h **** * \addtogroup group_tcpwm_data_structures_pwm
  43:Generated_Source\PSoC6\pdl\drivers/peripheral/tcpwm/cy_tcpwm_pwm.h **** * \{
  44:Generated_Source\PSoC6\pdl\drivers/peripheral/tcpwm/cy_tcpwm_pwm.h **** */
  45:Generated_Source\PSoC6\pdl\drivers/peripheral/tcpwm/cy_tcpwm_pwm.h **** 
  46:Generated_Source\PSoC6\pdl\drivers/peripheral/tcpwm/cy_tcpwm_pwm.h **** /** PWM configuration structure */
  47:Generated_Source\PSoC6\pdl\drivers/peripheral/tcpwm/cy_tcpwm_pwm.h **** typedef struct cy_stc_tcpwm_pwm_config
  48:Generated_Source\PSoC6\pdl\drivers/peripheral/tcpwm/cy_tcpwm_pwm.h **** {
  49:Generated_Source\PSoC6\pdl\drivers/peripheral/tcpwm/cy_tcpwm_pwm.h ****     uint32_t    pwmMode;            /**< Sets the PWM mode. See \ref group_tcpwm_pwm_modes */
  50:Generated_Source\PSoC6\pdl\drivers/peripheral/tcpwm/cy_tcpwm_pwm.h ****     /** Sets the clock prescaler inside the TCWPM block. See \ref group_tcpwm_pwm_clk_prescalers */
  51:Generated_Source\PSoC6\pdl\drivers/peripheral/tcpwm/cy_tcpwm_pwm.h ****     uint32_t     clockPrescaler;
  52:Generated_Source\PSoC6\pdl\drivers/peripheral/tcpwm/cy_tcpwm_pwm.h ****     uint32_t    pwmAlignment;       /**< Sets the PWM alignment. See \ref group_tcpwm_pwm_alignment
  53:Generated_Source\PSoC6\pdl\drivers/peripheral/tcpwm/cy_tcpwm_pwm.h ****     uint32_t    deadTimeClocks;     /**< The number of dead time-clocks if PWM with dead time is ch
  54:Generated_Source\PSoC6\pdl\drivers/peripheral/tcpwm/cy_tcpwm_pwm.h ****     uint32_t    runMode;            /**< Sets the PWM run mode. See \ref group_tcpwm_pwm_run_modes 
  55:Generated_Source\PSoC6\pdl\drivers/peripheral/tcpwm/cy_tcpwm_pwm.h ****     uint32_t    period0;            /**< Sets the period0 of the pwm */
  56:Generated_Source\PSoC6\pdl\drivers/peripheral/tcpwm/cy_tcpwm_pwm.h ****     uint32_t    period1;            /**< Sets the period1 of the pwm */
  57:Generated_Source\PSoC6\pdl\drivers/peripheral/tcpwm/cy_tcpwm_pwm.h ****     bool        enablePeriodSwap;   /**< Enables swapping of period 0 and period 1 on terminal coun
  58:Generated_Source\PSoC6\pdl\drivers/peripheral/tcpwm/cy_tcpwm_pwm.h ****     uint32_t    compare0;           /**< Sets the value for Compare0 */
  59:Generated_Source\PSoC6\pdl\drivers/peripheral/tcpwm/cy_tcpwm_pwm.h ****     uint32_t    compare1;           /**< Sets the value for Compare1 */
  60:Generated_Source\PSoC6\pdl\drivers/peripheral/tcpwm/cy_tcpwm_pwm.h ****     bool        enableCompareSwap;  /**< If enabled, the compare values are swapped on the terminal
  61:Generated_Source\PSoC6\pdl\drivers/peripheral/tcpwm/cy_tcpwm_pwm.h ****     /** Enables an interrupt on the terminal count, capture or compare. See \ref group_tcpwm_interr
  62:Generated_Source\PSoC6\pdl\drivers/peripheral/tcpwm/cy_tcpwm_pwm.h ****     uint32_t    interruptSources;
  63:Generated_Source\PSoC6\pdl\drivers/peripheral/tcpwm/cy_tcpwm_pwm.h ****     uint32_t    invertPWMOut;       /**< Inverts the PWM output */
  64:Generated_Source\PSoC6\pdl\drivers/peripheral/tcpwm/cy_tcpwm_pwm.h ****     uint32_t    invertPWMOutN;      /**< Inverts the PWM_n output */
  65:Generated_Source\PSoC6\pdl\drivers/peripheral/tcpwm/cy_tcpwm_pwm.h ****     uint32_t    killMode;           /**< Configures the PWM kill modes. See \ref group_tcpwm_pwm_ki
  66:Generated_Source\PSoC6\pdl\drivers/peripheral/tcpwm/cy_tcpwm_pwm.h ****     uint32_t    swapInputMode;      /**< Configures how the swap input behaves. See \ref group_tcpw
  67:Generated_Source\PSoC6\pdl\drivers/peripheral/tcpwm/cy_tcpwm_pwm.h ****     /** Selects which input the swap uses. Inputs are device-specific. See \ref group_tcpwm_input_s
  68:Generated_Source\PSoC6\pdl\drivers/peripheral/tcpwm/cy_tcpwm_pwm.h ****     uint32_t    swapInput;
  69:Generated_Source\PSoC6\pdl\drivers/peripheral/tcpwm/cy_tcpwm_pwm.h ****     uint32_t    reloadInputMode;    /**< Configures how the reload input behaves. See \ref group_tc
  70:Generated_Source\PSoC6\pdl\drivers/peripheral/tcpwm/cy_tcpwm_pwm.h ****     /** Selects which input the reload uses. The inputs are device-specific. See \ref group_tcpwm_i
  71:Generated_Source\PSoC6\pdl\drivers/peripheral/tcpwm/cy_tcpwm_pwm.h ****     uint32_t    reloadInput;            
  72:Generated_Source\PSoC6\pdl\drivers/peripheral/tcpwm/cy_tcpwm_pwm.h ****     uint32_t    startInputMode;     /**< Configures how the start input behaves. See \ref group_tcp
ARM GAS  C:\Users\Austina\AppData\Local\Temp\cchgQTEX.s 			page 5


  73:Generated_Source\PSoC6\pdl\drivers/peripheral/tcpwm/cy_tcpwm_pwm.h ****     /** Selects which input the start uses. The inputs are device-specific. See \ref group_tcpwm_in
  74:Generated_Source\PSoC6\pdl\drivers/peripheral/tcpwm/cy_tcpwm_pwm.h ****     uint32_t    startInput;                
  75:Generated_Source\PSoC6\pdl\drivers/peripheral/tcpwm/cy_tcpwm_pwm.h ****     uint32_t    killInputMode;      /**< Configures how the kill input behaves. See \ref group_tcpw
  76:Generated_Source\PSoC6\pdl\drivers/peripheral/tcpwm/cy_tcpwm_pwm.h ****     /** Selects which input the kill uses. The inputs are device-specific. See \ref group_tcpwm_inp
  77:Generated_Source\PSoC6\pdl\drivers/peripheral/tcpwm/cy_tcpwm_pwm.h ****     uint32_t    killInput;
  78:Generated_Source\PSoC6\pdl\drivers/peripheral/tcpwm/cy_tcpwm_pwm.h ****     uint32_t    countInputMode;     /**< Configures how the count input behaves. See \ref group_tcp
  79:Generated_Source\PSoC6\pdl\drivers/peripheral/tcpwm/cy_tcpwm_pwm.h ****     /** Selects which input the count uses. The inputs are device-specific. See \ref group_tcpwm_in
  80:Generated_Source\PSoC6\pdl\drivers/peripheral/tcpwm/cy_tcpwm_pwm.h ****     uint32_t    countInput;
  81:Generated_Source\PSoC6\pdl\drivers/peripheral/tcpwm/cy_tcpwm_pwm.h **** }cy_stc_tcpwm_pwm_config_t;
  82:Generated_Source\PSoC6\pdl\drivers/peripheral/tcpwm/cy_tcpwm_pwm.h **** /** \} group_tcpwm_data_structures_pwm */
  83:Generated_Source\PSoC6\pdl\drivers/peripheral/tcpwm/cy_tcpwm_pwm.h **** 
  84:Generated_Source\PSoC6\pdl\drivers/peripheral/tcpwm/cy_tcpwm_pwm.h **** /**
  85:Generated_Source\PSoC6\pdl\drivers/peripheral/tcpwm/cy_tcpwm_pwm.h **** * \addtogroup group_tcpwm_macros_pwm
  86:Generated_Source\PSoC6\pdl\drivers/peripheral/tcpwm/cy_tcpwm_pwm.h **** * \{
  87:Generated_Source\PSoC6\pdl\drivers/peripheral/tcpwm/cy_tcpwm_pwm.h **** * \defgroup group_tcpwm_pwm_run_modes PWM run modes
  88:Generated_Source\PSoC6\pdl\drivers/peripheral/tcpwm/cy_tcpwm_pwm.h **** * \{
  89:Generated_Source\PSoC6\pdl\drivers/peripheral/tcpwm/cy_tcpwm_pwm.h **** * Run modes for the pwm timer.
  90:Generated_Source\PSoC6\pdl\drivers/peripheral/tcpwm/cy_tcpwm_pwm.h **** */
  91:Generated_Source\PSoC6\pdl\drivers/peripheral/tcpwm/cy_tcpwm_pwm.h **** #define CY_TCPWM_PWM_ONESHOT            (1U)    /**< Counter runs once and then stops */
  92:Generated_Source\PSoC6\pdl\drivers/peripheral/tcpwm/cy_tcpwm_pwm.h **** #define CY_TCPWM_PWM_CONTINUOUS         (0U)    /**< Counter runs forever */
  93:Generated_Source\PSoC6\pdl\drivers/peripheral/tcpwm/cy_tcpwm_pwm.h **** /** \} group_tcpwm_pwm_run_modes */
  94:Generated_Source\PSoC6\pdl\drivers/peripheral/tcpwm/cy_tcpwm_pwm.h **** 
  95:Generated_Source\PSoC6\pdl\drivers/peripheral/tcpwm/cy_tcpwm_pwm.h **** /** \defgroup group_tcpwm_pwm_modes PWM modes 
  96:Generated_Source\PSoC6\pdl\drivers/peripheral/tcpwm/cy_tcpwm_pwm.h **** * \{
  97:Generated_Source\PSoC6\pdl\drivers/peripheral/tcpwm/cy_tcpwm_pwm.h **** * Sets the PWM modes.
  98:Generated_Source\PSoC6\pdl\drivers/peripheral/tcpwm/cy_tcpwm_pwm.h **** */
  99:Generated_Source\PSoC6\pdl\drivers/peripheral/tcpwm/cy_tcpwm_pwm.h **** #define CY_TCPWM_PWM_MODE_PWM           (4U) /**< Standard PWM Mode*/
 100:Generated_Source\PSoC6\pdl\drivers/peripheral/tcpwm/cy_tcpwm_pwm.h **** #define CY_TCPWM_PWM_MODE_DEADTIME      (5U)    /**< PWM with deadtime mode*/
 101:Generated_Source\PSoC6\pdl\drivers/peripheral/tcpwm/cy_tcpwm_pwm.h **** #define CY_TCPWM_PWM_MODE_PSEUDORANDOM  (6U)    /**< Pseudo Random PWM */
 102:Generated_Source\PSoC6\pdl\drivers/peripheral/tcpwm/cy_tcpwm_pwm.h **** /** \} group_tcpwm_pwm_modes */
 103:Generated_Source\PSoC6\pdl\drivers/peripheral/tcpwm/cy_tcpwm_pwm.h **** 
 104:Generated_Source\PSoC6\pdl\drivers/peripheral/tcpwm/cy_tcpwm_pwm.h **** /** \defgroup group_tcpwm_pwm_alignment PWM Alignment
 105:Generated_Source\PSoC6\pdl\drivers/peripheral/tcpwm/cy_tcpwm_pwm.h **** * Sets the alignment of the PWM.
 106:Generated_Source\PSoC6\pdl\drivers/peripheral/tcpwm/cy_tcpwm_pwm.h **** * \{
 107:Generated_Source\PSoC6\pdl\drivers/peripheral/tcpwm/cy_tcpwm_pwm.h **** */
 108:Generated_Source\PSoC6\pdl\drivers/peripheral/tcpwm/cy_tcpwm_pwm.h **** #define CY_TCPWM_PWM_LEFT_ALIGN         (0U)     /**< PWM is left aligned, meaning it starts high *
 109:Generated_Source\PSoC6\pdl\drivers/peripheral/tcpwm/cy_tcpwm_pwm.h **** #define CY_TCPWM_PWM_RIGHT_ALIGN        (1U)        /**< PWM is right aligned, meaning it starts lo
 110:Generated_Source\PSoC6\pdl\drivers/peripheral/tcpwm/cy_tcpwm_pwm.h **** /** PWM is centered aligned, terminal count only occurs on underflow */
 111:Generated_Source\PSoC6\pdl\drivers/peripheral/tcpwm/cy_tcpwm_pwm.h **** #define CY_TCPWM_PWM_CENTER_ALIGN       (2U)
 112:Generated_Source\PSoC6\pdl\drivers/peripheral/tcpwm/cy_tcpwm_pwm.h **** /** PWM is asymmetrically aligned, terminal count occurs on overflow and underflow */
 113:Generated_Source\PSoC6\pdl\drivers/peripheral/tcpwm/cy_tcpwm_pwm.h **** #define CY_TCPWM_PWM_ASYMMETRIC_ALIGN   (3U)
 114:Generated_Source\PSoC6\pdl\drivers/peripheral/tcpwm/cy_tcpwm_pwm.h **** /** \} group_tcpwm_pwm_alignment */
 115:Generated_Source\PSoC6\pdl\drivers/peripheral/tcpwm/cy_tcpwm_pwm.h **** 
 116:Generated_Source\PSoC6\pdl\drivers/peripheral/tcpwm/cy_tcpwm_pwm.h **** /** \defgroup group_tcpwm_pwm_kill_modes PWM kill modes
 117:Generated_Source\PSoC6\pdl\drivers/peripheral/tcpwm/cy_tcpwm_pwm.h **** * Sets the kill mode for the PWM.
 118:Generated_Source\PSoC6\pdl\drivers/peripheral/tcpwm/cy_tcpwm_pwm.h **** * \{
 119:Generated_Source\PSoC6\pdl\drivers/peripheral/tcpwm/cy_tcpwm_pwm.h **** */
 120:Generated_Source\PSoC6\pdl\drivers/peripheral/tcpwm/cy_tcpwm_pwm.h **** #define CY_TCPWM_PWM_STOP_ON_KILL       (2U)    /**< PWM stops counting on kill */
 121:Generated_Source\PSoC6\pdl\drivers/peripheral/tcpwm/cy_tcpwm_pwm.h **** #define CY_TCPWM_PWM_SYNCH_KILL         (1U)    /**< PWM output is killed after next TC*/
 122:Generated_Source\PSoC6\pdl\drivers/peripheral/tcpwm/cy_tcpwm_pwm.h **** #define CY_TCPWM_PWM_ASYNC_KILL         (0U)    /**< PWM output is killed instantly */
 123:Generated_Source\PSoC6\pdl\drivers/peripheral/tcpwm/cy_tcpwm_pwm.h **** /** \} group_tcpwm_pwm_kill_modes */
 124:Generated_Source\PSoC6\pdl\drivers/peripheral/tcpwm/cy_tcpwm_pwm.h **** 
 125:Generated_Source\PSoC6\pdl\drivers/peripheral/tcpwm/cy_tcpwm_pwm.h **** /** \defgroup group_tcpwm_pwm_clk_prescalers PWM CLK Prescaler values
 126:Generated_Source\PSoC6\pdl\drivers/peripheral/tcpwm/cy_tcpwm_pwm.h **** * \{
 127:Generated_Source\PSoC6\pdl\drivers/peripheral/tcpwm/cy_tcpwm_pwm.h **** * Clock prescaler values.
 128:Generated_Source\PSoC6\pdl\drivers/peripheral/tcpwm/cy_tcpwm_pwm.h **** */
 129:Generated_Source\PSoC6\pdl\drivers/peripheral/tcpwm/cy_tcpwm_pwm.h **** #define CY_TCPWM_PWM_PRESCALER_DIVBY_1      (0U) /**< Divide by 1 */
ARM GAS  C:\Users\Austina\AppData\Local\Temp\cchgQTEX.s 			page 6


 130:Generated_Source\PSoC6\pdl\drivers/peripheral/tcpwm/cy_tcpwm_pwm.h **** #define CY_TCPWM_PWM_PRESCALER_DIVBY_2      (1U) /**< Divide by 2 */
 131:Generated_Source\PSoC6\pdl\drivers/peripheral/tcpwm/cy_tcpwm_pwm.h **** #define CY_TCPWM_PWM_PRESCALER_DIVBY_4      (2U) /**< Divide by 4 */
 132:Generated_Source\PSoC6\pdl\drivers/peripheral/tcpwm/cy_tcpwm_pwm.h **** #define CY_TCPWM_PWM_PRESCALER_DIVBY_8      (3U) /**< Divide by 8 */
 133:Generated_Source\PSoC6\pdl\drivers/peripheral/tcpwm/cy_tcpwm_pwm.h **** #define CY_TCPWM_PWM_PRESCALER_DIVBY_16     (4U) /**< Divide by 16 */
 134:Generated_Source\PSoC6\pdl\drivers/peripheral/tcpwm/cy_tcpwm_pwm.h **** #define CY_TCPWM_PWM_PRESCALER_DIVBY_32     (5U) /**< Divide by 32 */
 135:Generated_Source\PSoC6\pdl\drivers/peripheral/tcpwm/cy_tcpwm_pwm.h **** #define CY_TCPWM_PWM_PRESCALER_DIVBY_64     (6U) /**< Divide by 64 */
 136:Generated_Source\PSoC6\pdl\drivers/peripheral/tcpwm/cy_tcpwm_pwm.h **** #define CY_TCPWM_PWM_PRESCALER_DIVBY_128    (7U) /**< Divide by 128 */
 137:Generated_Source\PSoC6\pdl\drivers/peripheral/tcpwm/cy_tcpwm_pwm.h **** /** \} group_tcpwm_pwm_clk_prescalers */
 138:Generated_Source\PSoC6\pdl\drivers/peripheral/tcpwm/cy_tcpwm_pwm.h **** 
 139:Generated_Source\PSoC6\pdl\drivers/peripheral/tcpwm/cy_tcpwm_pwm.h **** /** \defgroup group_tcpwm_pwm_output_invert PWM output invert
 140:Generated_Source\PSoC6\pdl\drivers/peripheral/tcpwm/cy_tcpwm_pwm.h **** * \{
 141:Generated_Source\PSoC6\pdl\drivers/peripheral/tcpwm/cy_tcpwm_pwm.h **** * Output invert modes.
 142:Generated_Source\PSoC6\pdl\drivers/peripheral/tcpwm/cy_tcpwm_pwm.h **** */
 143:Generated_Source\PSoC6\pdl\drivers/peripheral/tcpwm/cy_tcpwm_pwm.h **** #define CY_TCPWM_PWM_INVERT_ENABLE          (1U)  /**< Invert the output mode */
 144:Generated_Source\PSoC6\pdl\drivers/peripheral/tcpwm/cy_tcpwm_pwm.h **** #define CY_TCPWM_PWM_INVERT_DISABLE         (0U)  /**< Do not invert the output mode */
 145:Generated_Source\PSoC6\pdl\drivers/peripheral/tcpwm/cy_tcpwm_pwm.h **** /** \} group_tcpwm_pwm_output_invert */
 146:Generated_Source\PSoC6\pdl\drivers/peripheral/tcpwm/cy_tcpwm_pwm.h **** 
 147:Generated_Source\PSoC6\pdl\drivers/peripheral/tcpwm/cy_tcpwm_pwm.h **** /** \defgroup group_tcpwm_pwm_status PWM Status
 148:Generated_Source\PSoC6\pdl\drivers/peripheral/tcpwm/cy_tcpwm_pwm.h **** * \{
 149:Generated_Source\PSoC6\pdl\drivers/peripheral/tcpwm/cy_tcpwm_pwm.h **** * The counter status.
 150:Generated_Source\PSoC6\pdl\drivers/peripheral/tcpwm/cy_tcpwm_pwm.h **** */
 151:Generated_Source\PSoC6\pdl\drivers/peripheral/tcpwm/cy_tcpwm_pwm.h **** #define CY_TCPWM_PWM_STATUS_DOWN_COUNTING   (0x1UL)        /**< PWM is down counting */
 152:Generated_Source\PSoC6\pdl\drivers/peripheral/tcpwm/cy_tcpwm_pwm.h **** #define CY_TCPWM_PWM_STATUS_UP_COUNTING     (0x2UL)        /**< PWM is up counting */
 153:Generated_Source\PSoC6\pdl\drivers/peripheral/tcpwm/cy_tcpwm_pwm.h **** #define CY_TCPWM_PWM_STATUS_COUNTER_RUNNING (TCPWM_CNT_STATUS_RUNNING_Msk)     /**< PWM counter is 
 154:Generated_Source\PSoC6\pdl\drivers/peripheral/tcpwm/cy_tcpwm_pwm.h **** /** \} group_tcpwm_pwm_status */
 155:Generated_Source\PSoC6\pdl\drivers/peripheral/tcpwm/cy_tcpwm_pwm.h **** /** \} group_tcpwm_macros_pwm */
 156:Generated_Source\PSoC6\pdl\drivers/peripheral/tcpwm/cy_tcpwm_pwm.h **** 
 157:Generated_Source\PSoC6\pdl\drivers/peripheral/tcpwm/cy_tcpwm_pwm.h **** 
 158:Generated_Source\PSoC6\pdl\drivers/peripheral/tcpwm/cy_tcpwm_pwm.h **** /***************************************
 159:Generated_Source\PSoC6\pdl\drivers/peripheral/tcpwm/cy_tcpwm_pwm.h **** *        Registers Constants
 160:Generated_Source\PSoC6\pdl\drivers/peripheral/tcpwm/cy_tcpwm_pwm.h **** ***************************************/
 161:Generated_Source\PSoC6\pdl\drivers/peripheral/tcpwm/cy_tcpwm_pwm.h **** 
 162:Generated_Source\PSoC6\pdl\drivers/peripheral/tcpwm/cy_tcpwm_pwm.h **** /** \cond INTERNAL */
 163:Generated_Source\PSoC6\pdl\drivers/peripheral/tcpwm/cy_tcpwm_pwm.h **** #define CY_TCPWM_PWM_CTRL_SYNC_KILL_OR_STOP_ON_KILL_POS  (2U)
 164:Generated_Source\PSoC6\pdl\drivers/peripheral/tcpwm/cy_tcpwm_pwm.h **** #define CY_TCPWM_PWM_CTRL_SYNC_KILL_OR_STOP_ON_KILL_MASK (0x3UL << CY_TCPWM_PWM_CTRL_SYNC_KILL_OR_S
 165:Generated_Source\PSoC6\pdl\drivers/peripheral/tcpwm/cy_tcpwm_pwm.h **** 
 166:Generated_Source\PSoC6\pdl\drivers/peripheral/tcpwm/cy_tcpwm_pwm.h **** #define CY_TCPWM_PWM_TR_CTRL2_SET           (0UL) /**< Set define for PWM output signal configurati
 167:Generated_Source\PSoC6\pdl\drivers/peripheral/tcpwm/cy_tcpwm_pwm.h **** #define CY_TCPWM_PWM_TR_CTRL2_CLEAR         (1UL) /**< Clear define for PWM output signal configura
 168:Generated_Source\PSoC6\pdl\drivers/peripheral/tcpwm/cy_tcpwm_pwm.h **** #define CY_TCPWM_PWM_TR_CTRL2_INVERT        (2UL) /**< Invert define for PWM output signal configur
 169:Generated_Source\PSoC6\pdl\drivers/peripheral/tcpwm/cy_tcpwm_pwm.h **** #define CY_TCPWM_PWM_TR_CTRL2_NO_CHANGE     (3UL) /**< No change define for PWM output signal confi
 170:Generated_Source\PSoC6\pdl\drivers/peripheral/tcpwm/cy_tcpwm_pwm.h **** 
 171:Generated_Source\PSoC6\pdl\drivers/peripheral/tcpwm/cy_tcpwm_pwm.h **** /** The configuration of PWM output signal in Pseudo Random Mode */
 172:Generated_Source\PSoC6\pdl\drivers/peripheral/tcpwm/cy_tcpwm_pwm.h **** #define CY_TCPWM_PWM_MODE_PR         (_VAL2FLD(TCPWM_CNT_TR_CTRL2_CC_MATCH_MODE, CY_TCPWM_PWM_TR_CT
 173:Generated_Source\PSoC6\pdl\drivers/peripheral/tcpwm/cy_tcpwm_pwm.h ****                                       _VAL2FLD(TCPWM_CNT_TR_CTRL2_OVERFLOW_MODE, CY_TCPWM_PWM_TR_CT
 174:Generated_Source\PSoC6\pdl\drivers/peripheral/tcpwm/cy_tcpwm_pwm.h ****                                       _VAL2FLD(TCPWM_CNT_TR_CTRL2_UNDERFLOW_MODE, CY_TCPWM_PWM_TR_C
 175:Generated_Source\PSoC6\pdl\drivers/peripheral/tcpwm/cy_tcpwm_pwm.h **** 
 176:Generated_Source\PSoC6\pdl\drivers/peripheral/tcpwm/cy_tcpwm_pwm.h **** /** The configuration of PWM output signal for Left alignment */
 177:Generated_Source\PSoC6\pdl\drivers/peripheral/tcpwm/cy_tcpwm_pwm.h **** #define CY_TCPWM_PWM_MODE_LEFT       (_VAL2FLD(TCPWM_CNT_TR_CTRL2_CC_MATCH_MODE, CY_TCPWM_PWM_TR_CT
 178:Generated_Source\PSoC6\pdl\drivers/peripheral/tcpwm/cy_tcpwm_pwm.h ****                                       _VAL2FLD(TCPWM_CNT_TR_CTRL2_OVERFLOW_MODE, CY_TCPWM_PWM_TR_CT
 179:Generated_Source\PSoC6\pdl\drivers/peripheral/tcpwm/cy_tcpwm_pwm.h ****                                       _VAL2FLD(TCPWM_CNT_TR_CTRL2_UNDERFLOW_MODE, CY_TCPWM_PWM_TR_C
 180:Generated_Source\PSoC6\pdl\drivers/peripheral/tcpwm/cy_tcpwm_pwm.h **** 
 181:Generated_Source\PSoC6\pdl\drivers/peripheral/tcpwm/cy_tcpwm_pwm.h **** /** The configuration of PWM output signal for Right alignment */
 182:Generated_Source\PSoC6\pdl\drivers/peripheral/tcpwm/cy_tcpwm_pwm.h **** #define CY_TCPWM_PWM_MODE_RIGHT      (_VAL2FLD(TCPWM_CNT_TR_CTRL2_CC_MATCH_MODE, CY_TCPWM_PWM_TR_CT
 183:Generated_Source\PSoC6\pdl\drivers/peripheral/tcpwm/cy_tcpwm_pwm.h ****                                       _VAL2FLD(TCPWM_CNT_TR_CTRL2_OVERFLOW_MODE, CY_TCPWM_PWM_TR_CT
 184:Generated_Source\PSoC6\pdl\drivers/peripheral/tcpwm/cy_tcpwm_pwm.h ****                                       _VAL2FLD(TCPWM_CNT_TR_CTRL2_UNDERFLOW_MODE, CY_TCPWM_PWM_TR_C
 185:Generated_Source\PSoC6\pdl\drivers/peripheral/tcpwm/cy_tcpwm_pwm.h **** 
 186:Generated_Source\PSoC6\pdl\drivers/peripheral/tcpwm/cy_tcpwm_pwm.h **** /** The configuration of PWM output signal for Center and Asymmetric alignment */
ARM GAS  C:\Users\Austina\AppData\Local\Temp\cchgQTEX.s 			page 7


 187:Generated_Source\PSoC6\pdl\drivers/peripheral/tcpwm/cy_tcpwm_pwm.h **** #define CY_TCPWM_PWM_MODE_CNTR_OR_ASYMM (_VAL2FLD(TCPWM_CNT_TR_CTRL2_CC_MATCH_MODE, CY_TCPWM_PWM_TR
 188:Generated_Source\PSoC6\pdl\drivers/peripheral/tcpwm/cy_tcpwm_pwm.h ****                                          _VAL2FLD(TCPWM_CNT_TR_CTRL2_OVERFLOW_MODE, CY_TCPWM_PWM_TR
 189:Generated_Source\PSoC6\pdl\drivers/peripheral/tcpwm/cy_tcpwm_pwm.h ****                                          _VAL2FLD(TCPWM_CNT_TR_CTRL2_UNDERFLOW_MODE, CY_TCPWM_PWM_T
 190:Generated_Source\PSoC6\pdl\drivers/peripheral/tcpwm/cy_tcpwm_pwm.h **** /** \endcond */
 191:Generated_Source\PSoC6\pdl\drivers/peripheral/tcpwm/cy_tcpwm_pwm.h **** 
 192:Generated_Source\PSoC6\pdl\drivers/peripheral/tcpwm/cy_tcpwm_pwm.h **** 
 193:Generated_Source\PSoC6\pdl\drivers/peripheral/tcpwm/cy_tcpwm_pwm.h **** /*******************************************************************************
 194:Generated_Source\PSoC6\pdl\drivers/peripheral/tcpwm/cy_tcpwm_pwm.h **** *        Function Prototypes
 195:Generated_Source\PSoC6\pdl\drivers/peripheral/tcpwm/cy_tcpwm_pwm.h **** *******************************************************************************/
 196:Generated_Source\PSoC6\pdl\drivers/peripheral/tcpwm/cy_tcpwm_pwm.h **** 
 197:Generated_Source\PSoC6\pdl\drivers/peripheral/tcpwm/cy_tcpwm_pwm.h **** /**
 198:Generated_Source\PSoC6\pdl\drivers/peripheral/tcpwm/cy_tcpwm_pwm.h **** * \addtogroup group_tcpwm_functions_pwm
 199:Generated_Source\PSoC6\pdl\drivers/peripheral/tcpwm/cy_tcpwm_pwm.h **** * \{
 200:Generated_Source\PSoC6\pdl\drivers/peripheral/tcpwm/cy_tcpwm_pwm.h **** */
 201:Generated_Source\PSoC6\pdl\drivers/peripheral/tcpwm/cy_tcpwm_pwm.h **** 
 202:Generated_Source\PSoC6\pdl\drivers/peripheral/tcpwm/cy_tcpwm_pwm.h **** cy_en_tcpwm_status_t Cy_TCPWM_PWM_Init(TCPWM_Type *base, uint32_t cntNum, cy_stc_tcpwm_pwm_config_t
 203:Generated_Source\PSoC6\pdl\drivers/peripheral/tcpwm/cy_tcpwm_pwm.h **** void Cy_TCPWM_PWM_DeInit(TCPWM_Type *base, uint32_t cntNum, cy_stc_tcpwm_pwm_config_t const *config
 204:Generated_Source\PSoC6\pdl\drivers/peripheral/tcpwm/cy_tcpwm_pwm.h **** __STATIC_INLINE void Cy_TCPWM_PWM_Enable(TCPWM_Type *base, uint32_t cntNum);
 205:Generated_Source\PSoC6\pdl\drivers/peripheral/tcpwm/cy_tcpwm_pwm.h **** __STATIC_INLINE void Cy_TCPWM_PWM_Disable(TCPWM_Type *base, uint32_t cntNum);
 206:Generated_Source\PSoC6\pdl\drivers/peripheral/tcpwm/cy_tcpwm_pwm.h **** __STATIC_INLINE uint32_t Cy_TCPWM_PWM_GetStatus(TCPWM_Type const *base, uint32_t cntNum);
 207:Generated_Source\PSoC6\pdl\drivers/peripheral/tcpwm/cy_tcpwm_pwm.h **** __STATIC_INLINE void Cy_TCPWM_PWM_SetCompare0(TCPWM_Type *base, uint32_t cntNum, uint32_t compare0)
 208:Generated_Source\PSoC6\pdl\drivers/peripheral/tcpwm/cy_tcpwm_pwm.h **** __STATIC_INLINE uint32_t Cy_TCPWM_PWM_GetCompare0(TCPWM_Type const *base, uint32_t cntNum);
 209:Generated_Source\PSoC6\pdl\drivers/peripheral/tcpwm/cy_tcpwm_pwm.h **** __STATIC_INLINE void Cy_TCPWM_PWM_SetCompare1(TCPWM_Type *base, uint32_t cntNum, uint32_t compare1)
 210:Generated_Source\PSoC6\pdl\drivers/peripheral/tcpwm/cy_tcpwm_pwm.h **** __STATIC_INLINE uint32_t Cy_TCPWM_PWM_GetCompare1(TCPWM_Type const *base, uint32_t cntNum);
 211:Generated_Source\PSoC6\pdl\drivers/peripheral/tcpwm/cy_tcpwm_pwm.h **** __STATIC_INLINE void Cy_TCPWM_PWM_EnableCompareSwap(TCPWM_Type *base, uint32_t cntNum, bool enable)
 212:Generated_Source\PSoC6\pdl\drivers/peripheral/tcpwm/cy_tcpwm_pwm.h **** __STATIC_INLINE void Cy_TCPWM_PWM_SetCounter(TCPWM_Type *base, uint32_t cntNum, uint32_t count);
 213:Generated_Source\PSoC6\pdl\drivers/peripheral/tcpwm/cy_tcpwm_pwm.h **** __STATIC_INLINE uint32_t Cy_TCPWM_PWM_GetCounter(TCPWM_Type const *base, uint32_t cntNum);
 214:Generated_Source\PSoC6\pdl\drivers/peripheral/tcpwm/cy_tcpwm_pwm.h **** __STATIC_INLINE void Cy_TCPWM_PWM_SetPeriod0(TCPWM_Type *base, uint32_t cntNum, uint32_t period0);
 215:Generated_Source\PSoC6\pdl\drivers/peripheral/tcpwm/cy_tcpwm_pwm.h **** __STATIC_INLINE uint32_t Cy_TCPWM_PWM_GetPeriod0(TCPWM_Type const *base, uint32_t cntNum);
 216:Generated_Source\PSoC6\pdl\drivers/peripheral/tcpwm/cy_tcpwm_pwm.h **** __STATIC_INLINE void Cy_TCPWM_PWM_SetPeriod1(TCPWM_Type *base, uint32_t cntNum, uint32_t period1);
 217:Generated_Source\PSoC6\pdl\drivers/peripheral/tcpwm/cy_tcpwm_pwm.h **** __STATIC_INLINE uint32_t Cy_TCPWM_PWM_GetPeriod1(TCPWM_Type const *base, uint32_t cntNum);
 218:Generated_Source\PSoC6\pdl\drivers/peripheral/tcpwm/cy_tcpwm_pwm.h **** __STATIC_INLINE void Cy_TCPWM_PWM_EnablePeriodSwap(TCPWM_Type *base, uint32_t cntNum, bool enable);
 219:Generated_Source\PSoC6\pdl\drivers/peripheral/tcpwm/cy_tcpwm_pwm.h **** 
 220:Generated_Source\PSoC6\pdl\drivers/peripheral/tcpwm/cy_tcpwm_pwm.h **** 
 221:Generated_Source\PSoC6\pdl\drivers/peripheral/tcpwm/cy_tcpwm_pwm.h **** /*******************************************************************************
 222:Generated_Source\PSoC6\pdl\drivers/peripheral/tcpwm/cy_tcpwm_pwm.h **** * Function Name: Cy_TCPWM_PWM_Enable
 223:Generated_Source\PSoC6\pdl\drivers/peripheral/tcpwm/cy_tcpwm_pwm.h **** ****************************************************************************//**
 224:Generated_Source\PSoC6\pdl\drivers/peripheral/tcpwm/cy_tcpwm_pwm.h **** *
 225:Generated_Source\PSoC6\pdl\drivers/peripheral/tcpwm/cy_tcpwm_pwm.h **** * Enables the counter in the TCPWM block for the PWM operation.
 226:Generated_Source\PSoC6\pdl\drivers/peripheral/tcpwm/cy_tcpwm_pwm.h **** *
 227:Generated_Source\PSoC6\pdl\drivers/peripheral/tcpwm/cy_tcpwm_pwm.h **** * \param base
 228:Generated_Source\PSoC6\pdl\drivers/peripheral/tcpwm/cy_tcpwm_pwm.h **** * The pointer to a TCPWM instance.
 229:Generated_Source\PSoC6\pdl\drivers/peripheral/tcpwm/cy_tcpwm_pwm.h **** *
 230:Generated_Source\PSoC6\pdl\drivers/peripheral/tcpwm/cy_tcpwm_pwm.h **** * \param cntNum 
 231:Generated_Source\PSoC6\pdl\drivers/peripheral/tcpwm/cy_tcpwm_pwm.h **** * The Counter instance number in the selected TCPWM.
 232:Generated_Source\PSoC6\pdl\drivers/peripheral/tcpwm/cy_tcpwm_pwm.h **** *
 233:Generated_Source\PSoC6\pdl\drivers/peripheral/tcpwm/cy_tcpwm_pwm.h **** * \funcusage
 234:Generated_Source\PSoC6\pdl\drivers/peripheral/tcpwm/cy_tcpwm_pwm.h **** * \snippet tcpwm\1.10\pwm\snippet\main.c snippet_Cy_TCPWM_PWM_Init
 235:Generated_Source\PSoC6\pdl\drivers/peripheral/tcpwm/cy_tcpwm_pwm.h **** *
 236:Generated_Source\PSoC6\pdl\drivers/peripheral/tcpwm/cy_tcpwm_pwm.h **** *******************************************************************************/
 237:Generated_Source\PSoC6\pdl\drivers/peripheral/tcpwm/cy_tcpwm_pwm.h **** __STATIC_INLINE void Cy_TCPWM_PWM_Enable(TCPWM_Type *base, uint32_t cntNum)
 238:Generated_Source\PSoC6\pdl\drivers/peripheral/tcpwm/cy_tcpwm_pwm.h **** {
 239:Generated_Source\PSoC6\pdl\drivers/peripheral/tcpwm/cy_tcpwm_pwm.h ****     TCPWM_CTRL_SET(base) = (1UL << cntNum);
 240:Generated_Source\PSoC6\pdl\drivers/peripheral/tcpwm/cy_tcpwm_pwm.h **** }
 241:Generated_Source\PSoC6\pdl\drivers/peripheral/tcpwm/cy_tcpwm_pwm.h **** 
 242:Generated_Source\PSoC6\pdl\drivers/peripheral/tcpwm/cy_tcpwm_pwm.h **** /*******************************************************************************
 243:Generated_Source\PSoC6\pdl\drivers/peripheral/tcpwm/cy_tcpwm_pwm.h **** * Function Name: Cy_TCPWM_PWM_Disable
ARM GAS  C:\Users\Austina\AppData\Local\Temp\cchgQTEX.s 			page 8


 244:Generated_Source\PSoC6\pdl\drivers/peripheral/tcpwm/cy_tcpwm_pwm.h **** ****************************************************************************//**
 245:Generated_Source\PSoC6\pdl\drivers/peripheral/tcpwm/cy_tcpwm_pwm.h **** *
 246:Generated_Source\PSoC6\pdl\drivers/peripheral/tcpwm/cy_tcpwm_pwm.h **** * Disables the counter in the TCPWM block.
 247:Generated_Source\PSoC6\pdl\drivers/peripheral/tcpwm/cy_tcpwm_pwm.h **** *
 248:Generated_Source\PSoC6\pdl\drivers/peripheral/tcpwm/cy_tcpwm_pwm.h **** * \param base
 249:Generated_Source\PSoC6\pdl\drivers/peripheral/tcpwm/cy_tcpwm_pwm.h **** * The pointer to a TCPWM instance.
 250:Generated_Source\PSoC6\pdl\drivers/peripheral/tcpwm/cy_tcpwm_pwm.h **** *
 251:Generated_Source\PSoC6\pdl\drivers/peripheral/tcpwm/cy_tcpwm_pwm.h **** * \param cntNum 
 252:Generated_Source\PSoC6\pdl\drivers/peripheral/tcpwm/cy_tcpwm_pwm.h **** * The Counter instance number in the selected TCPWM.
 253:Generated_Source\PSoC6\pdl\drivers/peripheral/tcpwm/cy_tcpwm_pwm.h **** *
 254:Generated_Source\PSoC6\pdl\drivers/peripheral/tcpwm/cy_tcpwm_pwm.h **** * \funcusage
 255:Generated_Source\PSoC6\pdl\drivers/peripheral/tcpwm/cy_tcpwm_pwm.h **** * \snippet tcpwm\1.10\pwm\snippet\main.c snippet_Cy_TCPWM_PWM_DeInit
 256:Generated_Source\PSoC6\pdl\drivers/peripheral/tcpwm/cy_tcpwm_pwm.h **** *
 257:Generated_Source\PSoC6\pdl\drivers/peripheral/tcpwm/cy_tcpwm_pwm.h **** *******************************************************************************/
 258:Generated_Source\PSoC6\pdl\drivers/peripheral/tcpwm/cy_tcpwm_pwm.h **** __STATIC_INLINE void Cy_TCPWM_PWM_Disable(TCPWM_Type *base, uint32_t cntNum)
 259:Generated_Source\PSoC6\pdl\drivers/peripheral/tcpwm/cy_tcpwm_pwm.h **** {
 260:Generated_Source\PSoC6\pdl\drivers/peripheral/tcpwm/cy_tcpwm_pwm.h ****     TCPWM_CTRL_CLR(base) = (1UL << cntNum);
 261:Generated_Source\PSoC6\pdl\drivers/peripheral/tcpwm/cy_tcpwm_pwm.h **** }
 262:Generated_Source\PSoC6\pdl\drivers/peripheral/tcpwm/cy_tcpwm_pwm.h **** 
 263:Generated_Source\PSoC6\pdl\drivers/peripheral/tcpwm/cy_tcpwm_pwm.h **** 
 264:Generated_Source\PSoC6\pdl\drivers/peripheral/tcpwm/cy_tcpwm_pwm.h **** /*******************************************************************************
 265:Generated_Source\PSoC6\pdl\drivers/peripheral/tcpwm/cy_tcpwm_pwm.h **** * Function Name: Cy_TCPWM_PWM_GetStatus
 266:Generated_Source\PSoC6\pdl\drivers/peripheral/tcpwm/cy_tcpwm_pwm.h **** ****************************************************************************//**
 267:Generated_Source\PSoC6\pdl\drivers/peripheral/tcpwm/cy_tcpwm_pwm.h **** *
 268:Generated_Source\PSoC6\pdl\drivers/peripheral/tcpwm/cy_tcpwm_pwm.h **** * Returns the status of the PWM.
 269:Generated_Source\PSoC6\pdl\drivers/peripheral/tcpwm/cy_tcpwm_pwm.h **** *
 270:Generated_Source\PSoC6\pdl\drivers/peripheral/tcpwm/cy_tcpwm_pwm.h **** * \param base
 271:Generated_Source\PSoC6\pdl\drivers/peripheral/tcpwm/cy_tcpwm_pwm.h **** * The pointer to a TCPWM instance.
 272:Generated_Source\PSoC6\pdl\drivers/peripheral/tcpwm/cy_tcpwm_pwm.h **** *
 273:Generated_Source\PSoC6\pdl\drivers/peripheral/tcpwm/cy_tcpwm_pwm.h **** * \param cntNum 
 274:Generated_Source\PSoC6\pdl\drivers/peripheral/tcpwm/cy_tcpwm_pwm.h **** * The Counter instance number in the selected TCPWM.
 275:Generated_Source\PSoC6\pdl\drivers/peripheral/tcpwm/cy_tcpwm_pwm.h **** *
 276:Generated_Source\PSoC6\pdl\drivers/peripheral/tcpwm/cy_tcpwm_pwm.h **** * \return
 277:Generated_Source\PSoC6\pdl\drivers/peripheral/tcpwm/cy_tcpwm_pwm.h **** * The status. See \ref group_tcpwm_pwm_status
 278:Generated_Source\PSoC6\pdl\drivers/peripheral/tcpwm/cy_tcpwm_pwm.h **** *
 279:Generated_Source\PSoC6\pdl\drivers/peripheral/tcpwm/cy_tcpwm_pwm.h **** * \funcusage
 280:Generated_Source\PSoC6\pdl\drivers/peripheral/tcpwm/cy_tcpwm_pwm.h **** * \snippet tcpwm\1.10\pwm\snippet\main.c snippet_Cy_TCPWM_PWM_GetStatus
 281:Generated_Source\PSoC6\pdl\drivers/peripheral/tcpwm/cy_tcpwm_pwm.h **** *
 282:Generated_Source\PSoC6\pdl\drivers/peripheral/tcpwm/cy_tcpwm_pwm.h **** *******************************************************************************/
 283:Generated_Source\PSoC6\pdl\drivers/peripheral/tcpwm/cy_tcpwm_pwm.h **** __STATIC_INLINE uint32_t Cy_TCPWM_PWM_GetStatus(TCPWM_Type const *base, uint32_t cntNum)
 284:Generated_Source\PSoC6\pdl\drivers/peripheral/tcpwm/cy_tcpwm_pwm.h **** {
 285:Generated_Source\PSoC6\pdl\drivers/peripheral/tcpwm/cy_tcpwm_pwm.h ****     uint32_t status = TCPWM_CNT_STATUS(base, cntNum);
 286:Generated_Source\PSoC6\pdl\drivers/peripheral/tcpwm/cy_tcpwm_pwm.h ****     
 287:Generated_Source\PSoC6\pdl\drivers/peripheral/tcpwm/cy_tcpwm_pwm.h ****     /* Generates proper up counting status, does not generated by HW */
 288:Generated_Source\PSoC6\pdl\drivers/peripheral/tcpwm/cy_tcpwm_pwm.h ****     status &= ~CY_TCPWM_PWM_STATUS_UP_COUNTING;
 289:Generated_Source\PSoC6\pdl\drivers/peripheral/tcpwm/cy_tcpwm_pwm.h ****     status |= ((~status & CY_TCPWM_PWM_STATUS_DOWN_COUNTING & (status >> TCPWM_CNT_STATUS_RUNNING_P
 290:Generated_Source\PSoC6\pdl\drivers/peripheral/tcpwm/cy_tcpwm_pwm.h ****                CY_TCPWM_CNT_STATUS_UP_POS);
 291:Generated_Source\PSoC6\pdl\drivers/peripheral/tcpwm/cy_tcpwm_pwm.h ****     
 292:Generated_Source\PSoC6\pdl\drivers/peripheral/tcpwm/cy_tcpwm_pwm.h ****     return(status);
 293:Generated_Source\PSoC6\pdl\drivers/peripheral/tcpwm/cy_tcpwm_pwm.h **** }
 294:Generated_Source\PSoC6\pdl\drivers/peripheral/tcpwm/cy_tcpwm_pwm.h **** 
 295:Generated_Source\PSoC6\pdl\drivers/peripheral/tcpwm/cy_tcpwm_pwm.h **** 
 296:Generated_Source\PSoC6\pdl\drivers/peripheral/tcpwm/cy_tcpwm_pwm.h **** /*******************************************************************************
 297:Generated_Source\PSoC6\pdl\drivers/peripheral/tcpwm/cy_tcpwm_pwm.h **** * Function Name: Cy_TCPWM_PWM_SetCompare0
 298:Generated_Source\PSoC6\pdl\drivers/peripheral/tcpwm/cy_tcpwm_pwm.h **** ****************************************************************************//**
 299:Generated_Source\PSoC6\pdl\drivers/peripheral/tcpwm/cy_tcpwm_pwm.h **** *
 300:Generated_Source\PSoC6\pdl\drivers/peripheral/tcpwm/cy_tcpwm_pwm.h **** * Sets the compare value for Compare0 when the compare mode enabled.
ARM GAS  C:\Users\Austina\AppData\Local\Temp\cchgQTEX.s 			page 9


 301:Generated_Source\PSoC6\pdl\drivers/peripheral/tcpwm/cy_tcpwm_pwm.h **** *
 302:Generated_Source\PSoC6\pdl\drivers/peripheral/tcpwm/cy_tcpwm_pwm.h **** * \param base
 303:Generated_Source\PSoC6\pdl\drivers/peripheral/tcpwm/cy_tcpwm_pwm.h **** * The pointer to a TCPWM instance.
 304:Generated_Source\PSoC6\pdl\drivers/peripheral/tcpwm/cy_tcpwm_pwm.h **** *
 305:Generated_Source\PSoC6\pdl\drivers/peripheral/tcpwm/cy_tcpwm_pwm.h **** * \param cntNum 
 306:Generated_Source\PSoC6\pdl\drivers/peripheral/tcpwm/cy_tcpwm_pwm.h **** * The Counter instance number in the selected TCPWM.
 307:Generated_Source\PSoC6\pdl\drivers/peripheral/tcpwm/cy_tcpwm_pwm.h **** *
 308:Generated_Source\PSoC6\pdl\drivers/peripheral/tcpwm/cy_tcpwm_pwm.h **** * \param compare0
 309:Generated_Source\PSoC6\pdl\drivers/peripheral/tcpwm/cy_tcpwm_pwm.h **** * The Compare0 value.
 310:Generated_Source\PSoC6\pdl\drivers/peripheral/tcpwm/cy_tcpwm_pwm.h **** *
 311:Generated_Source\PSoC6\pdl\drivers/peripheral/tcpwm/cy_tcpwm_pwm.h **** * \funcusage
 312:Generated_Source\PSoC6\pdl\drivers/peripheral/tcpwm/cy_tcpwm_pwm.h **** * \snippet tcpwm\1.10\pwm\snippet\main.c snippet_Cy_TCPWM_PWM_SetCompare0
 313:Generated_Source\PSoC6\pdl\drivers/peripheral/tcpwm/cy_tcpwm_pwm.h **** *
 314:Generated_Source\PSoC6\pdl\drivers/peripheral/tcpwm/cy_tcpwm_pwm.h **** *******************************************************************************/
 315:Generated_Source\PSoC6\pdl\drivers/peripheral/tcpwm/cy_tcpwm_pwm.h **** __STATIC_INLINE void Cy_TCPWM_PWM_SetCompare0(TCPWM_Type *base, uint32_t cntNum,  uint32_t compare0
 316:Generated_Source\PSoC6\pdl\drivers/peripheral/tcpwm/cy_tcpwm_pwm.h **** {
 317:Generated_Source\PSoC6\pdl\drivers/peripheral/tcpwm/cy_tcpwm_pwm.h ****     TCPWM_CNT_CC(base, cntNum) = compare0;
 318:Generated_Source\PSoC6\pdl\drivers/peripheral/tcpwm/cy_tcpwm_pwm.h **** }
 319:Generated_Source\PSoC6\pdl\drivers/peripheral/tcpwm/cy_tcpwm_pwm.h **** 
 320:Generated_Source\PSoC6\pdl\drivers/peripheral/tcpwm/cy_tcpwm_pwm.h **** 
 321:Generated_Source\PSoC6\pdl\drivers/peripheral/tcpwm/cy_tcpwm_pwm.h **** /*******************************************************************************
 322:Generated_Source\PSoC6\pdl\drivers/peripheral/tcpwm/cy_tcpwm_pwm.h **** * Function Name: Cy_TCPWM_PWM_GetCompare0
 323:Generated_Source\PSoC6\pdl\drivers/peripheral/tcpwm/cy_tcpwm_pwm.h **** ****************************************************************************//**
 324:Generated_Source\PSoC6\pdl\drivers/peripheral/tcpwm/cy_tcpwm_pwm.h **** *
 325:Generated_Source\PSoC6\pdl\drivers/peripheral/tcpwm/cy_tcpwm_pwm.h **** * Returns compare value 0.
 326:Generated_Source\PSoC6\pdl\drivers/peripheral/tcpwm/cy_tcpwm_pwm.h **** *
 327:Generated_Source\PSoC6\pdl\drivers/peripheral/tcpwm/cy_tcpwm_pwm.h **** * \param base
 328:Generated_Source\PSoC6\pdl\drivers/peripheral/tcpwm/cy_tcpwm_pwm.h **** * The pointer to a TCPWM instance.
 329:Generated_Source\PSoC6\pdl\drivers/peripheral/tcpwm/cy_tcpwm_pwm.h **** *
 330:Generated_Source\PSoC6\pdl\drivers/peripheral/tcpwm/cy_tcpwm_pwm.h **** * \param cntNum 
 331:Generated_Source\PSoC6\pdl\drivers/peripheral/tcpwm/cy_tcpwm_pwm.h **** * The Counter instance number in the selected TCPWM.
 332:Generated_Source\PSoC6\pdl\drivers/peripheral/tcpwm/cy_tcpwm_pwm.h **** *
 333:Generated_Source\PSoC6\pdl\drivers/peripheral/tcpwm/cy_tcpwm_pwm.h **** * \return
 334:Generated_Source\PSoC6\pdl\drivers/peripheral/tcpwm/cy_tcpwm_pwm.h **** * Compare value 0.
 335:Generated_Source\PSoC6\pdl\drivers/peripheral/tcpwm/cy_tcpwm_pwm.h **** *
 336:Generated_Source\PSoC6\pdl\drivers/peripheral/tcpwm/cy_tcpwm_pwm.h **** * \funcusage
 337:Generated_Source\PSoC6\pdl\drivers/peripheral/tcpwm/cy_tcpwm_pwm.h **** * \snippet tcpwm\1.10\pwm\snippet\main.c snippet_Cy_TCPWM_PWM_SetCompare0
 338:Generated_Source\PSoC6\pdl\drivers/peripheral/tcpwm/cy_tcpwm_pwm.h **** *
 339:Generated_Source\PSoC6\pdl\drivers/peripheral/tcpwm/cy_tcpwm_pwm.h **** *******************************************************************************/
 340:Generated_Source\PSoC6\pdl\drivers/peripheral/tcpwm/cy_tcpwm_pwm.h **** __STATIC_INLINE uint32_t Cy_TCPWM_PWM_GetCompare0(TCPWM_Type const *base, uint32_t cntNum)
 341:Generated_Source\PSoC6\pdl\drivers/peripheral/tcpwm/cy_tcpwm_pwm.h **** {
 342:Generated_Source\PSoC6\pdl\drivers/peripheral/tcpwm/cy_tcpwm_pwm.h ****     return(TCPWM_CNT_CC(base, cntNum));
  87              		.loc 2 342 0 discriminator 4
  88 000c 9B01     		lsls	r3, r3, #6
  89              	.LVL5:
  90 000e 03F18043 		add	r3, r3, #1073741824
  91 0012 03F56413 		add	r3, r3, #3735552
  92 0016 D3F80C01 		ldr	r0, [r3, #268]
  93              	.LVL6:
  94              	.LBE23:
  95              	.LBE22:
  70:SOURCE/motorTask.c ****         (motors == M1)?PWM_1_HW:PWM_2_HW,
  71:SOURCE/motorTask.c ****         (motors == M1)?PWM_1_CNT_NUM:PWM_2_CNT_NUM);
  72:SOURCE/motorTask.c ****     
  73:SOURCE/motorTask.c ****         return compareToPercent(compare);
  96              		.loc 1 73 0 discriminator 4
  97 001a FFF7FEFF 		bl	compareToPercent
ARM GAS  C:\Users\Austina\AppData\Local\Temp\cchgQTEX.s 			page 10


  98              	.LVL7:
  74:SOURCE/motorTask.c ****         
  75:SOURCE/motorTask.c **** }
  99              		.loc 1 75 0 discriminator 4
 100 001e 08BD     		pop	{r3, pc}
 101              		.cfi_endproc
 102              	.LFE745:
 103              		.size	getMotorPercent, .-getMotorPercent
 104              		.section	.text.motorTask,"ax",%progbits
 105              		.align	2
 106              		.global	motorTask
 107              		.thumb
 108              		.thumb_func
 109              		.type	motorTask, %function
 110              	motorTask:
 111              	.LFB747:
  76:SOURCE/motorTask.c **** //Turn percent into compare value
  77:SOURCE/motorTask.c **** static int inline percentToCompare(int percent)
  78:SOURCE/motorTask.c **** {
  79:SOURCE/motorTask.c ****     int pulse;
  80:SOURCE/motorTask.c ****     int compare;
  81:SOURCE/motorTask.c ****     pulse = percentToPulse(percent);
  82:SOURCE/motorTask.c ****     compare = pulseToCompare(pulse);
  83:SOURCE/motorTask.c ****     return compare;
  84:SOURCE/motorTask.c **** }
  85:SOURCE/motorTask.c **** 
  86:SOURCE/motorTask.c **** void motorTask(void* arg)
  87:SOURCE/motorTask.c **** {
 112              		.loc 1 87 0
 113              		.cfi_startproc
 114              		@ args = 0, pretend = 0, frame = 8
 115              		@ frame_needed = 0, uses_anonymous_args = 0
 116              	.LVL8:
 117 0000 70B5     		push	{r4, r5, r6, lr}
 118              		.cfi_def_cfa_offset 16
 119              		.cfi_offset 4, -16
 120              		.cfi_offset 5, -12
 121              		.cfi_offset 6, -8
 122              		.cfi_offset 14, -4
 123 0002 82B0     		sub	sp, sp, #8
 124              		.cfi_def_cfa_offset 24
 125              	.LVL9:
  88:SOURCE/motorTask.c ****     (void )arg;
  89:SOURCE/motorTask.c ****     PWM_Message_t pwmMessage;
  90:SOURCE/motorTask.c ****     TCPWM_Type *hw   = NULL;
  91:SOURCE/motorTask.c ****     int cntrNum = 0;
  92:SOURCE/motorTask.c ****     int compareTmp = 0;
  93:SOURCE/motorTask.c ****     int percentTmp = 0;
  94:SOURCE/motorTask.c ****     PWM_1_Start();
 126              		.loc 1 94 0
 127 0004 FFF7FEFF 		bl	PWM_1_Start
 128              	.LVL10:
  95:SOURCE/motorTask.c ****     PWM_2_Start();
 129              		.loc 1 95 0
 130 0008 FFF7FEFF 		bl	PWM_2_Start
 131              	.LVL11:
  96:SOURCE/motorTask.c ****     motorPrint("Motor Task Started ...");
ARM GAS  C:\Users\Austina\AppData\Local\Temp\cchgQTEX.s 			page 11


 132              		.loc 1 96 0
 133 000c 2948     		ldr	r0, .L20
 134 000e FFF7FEFF 		bl	printf
 135              	.LVL12:
 136 0012 2948     		ldr	r0, .L20+4
 137 0014 FFF7FEFF 		bl	printf
 138              	.LVL13:
 139 0018 2848     		ldr	r0, .L20+8
 140 001a FFF7FEFF 		bl	puts
 141              	.LVL14:
  91:SOURCE/motorTask.c ****     int compareTmp = 0;
 142              		.loc 1 91 0
 143 001e 0025     		movs	r5, #0
  90:SOURCE/motorTask.c ****     int cntrNum = 0;
 144              		.loc 1 90 0
 145 0020 2E46     		mov	r6, r5
 146              	.LVL15:
 147              	.L15:
  97:SOURCE/motorTask.c ****     
  98:SOURCE/motorTask.c ****     while(1)
  99:SOURCE/motorTask.c ****     {
 100:SOURCE/motorTask.c ****         //wait for someone to ask for the motors to change
 101:SOURCE/motorTask.c ****         xQueueReceive(pwmQueue,&pwmMessage,portMAX_DELAY);
 148              		.loc 1 101 0
 149 0022 4FF0FF32 		mov	r2, #-1
 150 0026 6946     		mov	r1, sp
 151 0028 254B     		ldr	r3, .L20+12
 152 002a 1868     		ldr	r0, [r3]
 153 002c FFF7FEFF 		bl	xQueueReceive
 154              	.LVL16:
 102:SOURCE/motorTask.c ****         
 103:SOURCE/motorTask.c ****         //Identify which PWM to change
 104:SOURCE/motorTask.c ****         switch(pwmMessage.motor)
 155              		.loc 1 104 0
 156 0030 9DF80030 		ldrb	r3, [sp]	@ zero_extendqisi2
 157 0034 012B     		cmp	r3, #1
 158 0036 04D0     		beq	.L16
 159 0038 022B     		cmp	r3, #2
 160 003a 04D1     		bne	.L10
 161              	.LVL17:
 105:SOURCE/motorTask.c ****         {
 106:SOURCE/motorTask.c ****             case M1:
 107:SOURCE/motorTask.c ****                 hw = PWM_1_HW;
 108:SOURCE/motorTask.c ****                 cntrNum = PWM_1_CNT_NUM;
 109:SOURCE/motorTask.c ****             break;
 110:SOURCE/motorTask.c ****             case M2:
 111:SOURCE/motorTask.c ****                 hw = PWM_2_HW;
 112:SOURCE/motorTask.c ****                 cntrNum = PWM_2_CNT_NUM;
 162              		.loc 1 112 0
 163 003c 0A25     		movs	r5, #10
 111:SOURCE/motorTask.c ****                 cntrNum = PWM_2_CNT_NUM;
 164              		.loc 1 111 0
 165 003e 214E     		ldr	r6, .L20+16
 113:SOURCE/motorTask.c ****             break;
 166              		.loc 1 113 0
 167 0040 01E0     		b	.L10
 168              	.LVL18:
ARM GAS  C:\Users\Austina\AppData\Local\Temp\cchgQTEX.s 			page 12


 169              	.L16:
 108:SOURCE/motorTask.c ****             break;
 170              		.loc 1 108 0
 171 0042 0125     		movs	r5, #1
 172              	.LVL19:
 107:SOURCE/motorTask.c ****                 cntrNum = PWM_1_CNT_NUM;
 173              		.loc 1 107 0
 174 0044 1F4E     		ldr	r6, .L20+16
 175              	.LVL20:
 176              	.L10:
 114:SOURCE/motorTask.c ****             default:
 115:SOURCE/motorTask.c ****             break;
 116:SOURCE/motorTask.c ****         }
 117:SOURCE/motorTask.c ****         
 118:SOURCE/motorTask.c ****         //Check if relative or absolute .. if relative, get current % 
 119:SOURCE/motorTask.c ****         if(pwmMessage.changeType == POS_RELATIVE)
 177              		.loc 1 119 0
 178 0046 9DF80130 		ldrb	r3, [sp, #1]	@ zero_extendqisi2
 179 004a 012B     		cmp	r3, #1
 180 004c 0CD1     		bne	.L12
 181              	.LVL21:
 182              	.LBB24:
 183              	.LBB25:
 184              		.loc 2 342 0
 185 004e 06EB8513 		add	r3, r6, r5, lsl #6
 186 0052 D3F80C01 		ldr	r0, [r3, #268]
 187              	.LVL22:
 188              	.LBE25:
 189              	.LBE24:
 120:SOURCE/motorTask.c ****         {
 121:SOURCE/motorTask.c ****             compareTmp = Cy_TCPWM_PWM_GetCompare0(hw,cntrNum);
 122:SOURCE/motorTask.c ****             percentTmp = compareToPercent(compareTmp) + pwmMessage.percent;
 190              		.loc 1 122 0
 191 0056 FFF7FEFF 		bl	compareToPercent
 192              	.LVL23:
 193 005a 019A     		ldr	r2, [sp, #4]
 194              	.LVL24:
 123:SOURCE/motorTask.c ****             
 124:SOURCE/motorTask.c ****             //Make sure % is not below 0 or above 100%
 125:SOURCE/motorTask.c ****             if(percentTmp < 0)
 195              		.loc 1 125 0
 196 005c 8418     		adds	r4, r0, r2
 197              	.LVL25:
 198 005e 00D5     		bpl	.L13
 126:SOURCE/motorTask.c ****             {
 127:SOURCE/motorTask.c ****                 percentTmp = 0;
 199              		.loc 1 127 0
 200 0060 0024     		movs	r4, #0
 201              	.LVL26:
 202              	.L13:
 128:SOURCE/motorTask.c ****             }
 129:SOURCE/motorTask.c ****             if(percentTmp > 100)
 203              		.loc 1 129 0
 204 0062 642C     		cmp	r4, #100
 205 0064 02DC     		bgt	.L18
 206 0066 02E0     		b	.L14
 207              	.LVL27:
ARM GAS  C:\Users\Austina\AppData\Local\Temp\cchgQTEX.s 			page 13


 208              	.L12:
 130:SOURCE/motorTask.c ****             {
 131:SOURCE/motorTask.c ****                 percentTmp = 100;
 132:SOURCE/motorTask.c ****             }
 133:SOURCE/motorTask.c ****         }
 134:SOURCE/motorTask.c ****         else
 135:SOURCE/motorTask.c ****         {
 136:SOURCE/motorTask.c ****             percentTmp = pwmMessage.percent;
 209              		.loc 1 136 0
 210 0068 019C     		ldr	r4, [sp, #4]
 211              	.LVL28:
 212 006a 00E0     		b	.L14
 213              	.L18:
 131:SOURCE/motorTask.c ****             }
 214              		.loc 1 131 0
 215 006c 6424     		movs	r4, #100
 216              	.LVL29:
 217              	.L14:
 137:SOURCE/motorTask.c ****         }
 138:SOURCE/motorTask.c **** 		
 139:SOURCE/motorTask.c **** 		motorPrintf("Motor %d : %d %%",pwmMessage.motor,percentTmp);
 218              		.loc 1 139 0
 219 006e 1148     		ldr	r0, .L20
 220 0070 FFF7FEFF 		bl	printf
 221              	.LVL30:
 222 0074 2246     		mov	r2, r4
 223 0076 9DF80010 		ldrb	r1, [sp]	@ zero_extendqisi2
 224 007a 1348     		ldr	r0, .L20+20
 225 007c FFF7FEFF 		bl	printf
 226              	.LVL31:
 227 0080 0E48     		ldr	r0, .L20+8
 228 0082 FFF7FEFF 		bl	puts
 229              	.LVL32:
 230              	.LBB26:
 231              	.LBB27:
 232              	.LBB28:
 233              	.LBB29:
  30:SOURCE/motorTask.c ****     return pulse;
 234              		.loc 1 30 0
 235 0086 4FF47A72 		mov	r2, #1000
 236 008a 02FB04F2 		mul	r2, r2, r4
 237 008e 0F4B     		ldr	r3, .L20+24
 238 0090 83FB0213 		smull	r1, r3, r3, r2
 239 0094 D217     		asrs	r2, r2, #31
 240 0096 C2EB6312 		rsb	r2, r2, r3, asr #5
 241 009a 02F57A72 		add	r2, r2, #1000
 242              	.LVL33:
 243              	.LBE29:
 244              	.LBE28:
 245              	.LBE27:
 246              	.LBE26:
 247              	.LBB30:
 248              	.LBB31:
 317:Generated_Source\PSoC6\pdl\drivers/peripheral/tcpwm/cy_tcpwm_pwm.h **** }
 249              		.loc 2 317 0
 250 009e 06EB8513 		add	r3, r6, r5, lsl #6
 251 00a2 C3F80C21 		str	r2, [r3, #268]
ARM GAS  C:\Users\Austina\AppData\Local\Temp\cchgQTEX.s 			page 14


 252              	.LVL34:
 253              	.LBE31:
 254              	.LBE30:
 140:SOURCE/motorTask.c ****         
 141:SOURCE/motorTask.c ****         //xQueueSend(servoControlQueue,&pwmMessage,0);
 142:SOURCE/motorTask.c ****         //Change the PWM of motor
 143:SOURCE/motorTask.c ****         Cy_TCPWM_PWM_SetCompare0(hw,cntrNum,percentToCompare(percentTmp));
 144:SOURCE/motorTask.c ****         xEventGroupSetBits(pwmEventGroup,PWM_EVENT_ALL);
 255              		.loc 1 144 0
 256 00a6 0321     		movs	r1, #3
 257 00a8 094B     		ldr	r3, .L20+28
 258 00aa 1868     		ldr	r0, [r3]
 259 00ac FFF7FEFF 		bl	xEventGroupSetBits
 260              	.LVL35:
 145:SOURCE/motorTask.c ****     }
 261              		.loc 1 145 0
 262 00b0 B7E7     		b	.L15
 263              	.L21:
 264 00b2 00BF     		.align	2
 265              	.L20:
 266 00b4 00000000 		.word	.LC0
 267 00b8 14000000 		.word	.LC1
 268 00bc 2C000000 		.word	.LC2
 269 00c0 00000000 		.word	pwmQueue
 270 00c4 00003940 		.word	1077477376
 271 00c8 30000000 		.word	.LC3
 272 00cc 1F85EB51 		.word	1374389535
 273 00d0 00000000 		.word	pwmEventGroup
 274              		.cfi_endproc
 275              	.LFE747:
 276              		.size	motorTask, .-motorTask
 277              		.comm	temp,100,4
 278              		.section	.rodata.str1.4,"aMS",%progbits,1
 279              		.align	2
 280              	.LC0:
 281 0000 5B204D4F 		.ascii	"[ MOTOR TASK ] : \000"
 281      544F5220 
 281      5441534B 
 281      205D203A 
 281      2000
 282 0012 0000     		.space	2
 283              	.LC1:
 284 0014 4D6F746F 		.ascii	"Motor Task Started ...\000"
 284      72205461 
 284      736B2053 
 284      74617274 
 284      6564202E 
 285 002b 00       		.space	1
 286              	.LC2:
 287 002c 0D00     		.ascii	"\015\000"
 288 002e 0000     		.space	2
 289              	.LC3:
 290 0030 4D6F746F 		.ascii	"Motor %d : %d %%\000"
 290      72202564 
 290      203A2025 
 290      64202525 
 290      00
ARM GAS  C:\Users\Austina\AppData\Local\Temp\cchgQTEX.s 			page 15


 291              		.text
 292              	.Letext0:
 293              		.file 3 "c:\\program files (x86)\\cypress\\psoc creator\\4.4\\psoc creator\\import\\gnu\\arm\\5.4.
 294              		.file 4 "c:\\program files (x86)\\cypress\\psoc creator\\4.4\\psoc creator\\import\\gnu\\arm\\5.4.
 295              		.file 5 "Generated_Source\\PSoC6\\pdl\\drivers/peripheral/device/cy_device.h"
 296              		.file 6 "Generated_Source\\PSoC6\\pdl\\devices/psoc6/include/ip/cyip_tcpwm.h"
 297              		.file 7 "Generated_Source\\PSoC6\\pdl\\devices/psoc6/include/psoc6_01_config.h"
 298              		.file 8 "Generated_Source\\PSoC6\\pdl\\drivers/peripheral/syslib/cy_syslib.h"
 299              		.file 9 "Generated_Source\\PSoC6\\pdl\\rtos/FreeRTOS/10.0.1/Source/portable/GCC/CM4F/portmacro.h"
 300              		.file 10 "Generated_Source\\PSoC6\\pdl\\drivers/peripheral/scb/cy_scb_i2c.h"
 301              		.file 11 "Generated_Source\\PSoC6\\pdl\\drivers/peripheral/scb/cy_scb_ezi2c.h"
 302              		.file 12 "Generated_Source\\PSoC6\\pdl\\drivers/peripheral/scb/cy_scb_uart.h"
 303              		.file 13 "Generated_Source\\PSoC6\\pdl\\middleware/ble/cy_ble_stack.h"
 304              		.file 14 "Generated_Source\\PSoC6\\pdl\\middleware/ble/cy_ble_stack_host_main.h"
 305              		.file 15 "Generated_Source\\PSoC6\\pdl\\middleware/ble/cy_ble_gap.h"
 306              		.file 16 "Generated_Source\\PSoC6\\pdl\\rtos/FreeRTOS/10.0.1/Source/include/queue.h"
 307              		.file 17 "Generated_Source\\PSoC6\\pdl\\rtos/FreeRTOS/10.0.1/Source/include/event_groups.h"
 308              		.file 18 "SOURCE\\motorTask.h"
 309              		.file 19 "Generated_Source\\PSoC6\\pdl\\cmsis/include/core_cm4.h"
 310              		.file 20 "Generated_Source\\PSoC6/UART.h"
 311              		.file 21 "Generated_Source\\PSoC6/PWM_1.h"
 312              		.file 22 "Generated_Source\\PSoC6/PWM_RED.h"
 313              		.file 23 "Generated_Source\\PSoC6/EZI2C.h"
 314              		.file 24 "Generated_Source\\PSoC6/LEDBlink.h"
 315              		.file 25 "Generated_Source\\PSoC6/PWM_2.h"
 316              		.file 26 "Generated_Source\\PSoC6/Dimmer.h"
 317              		.file 27 "Generated_Source\\PSoC6/I2C_ARD.h"
 318              		.file 28 "SOURCE\\common.h"
 319              		.file 29 "c:\\program files (x86)\\cypress\\psoc creator\\4.4\\psoc creator\\import\\gnu\\arm\\5.4
 320              		.file 30 "<built-in>"