ARM GAS  C:\Users\Austina\AppData\Local\Temp\cc8Iu5MR.s 			page 1


   1              		.syntax unified
   2              		.cpu cortex-m4
   3              		.eabi_attribute 27, 1
   4              		.fpu fpv4-sp-d16
   5              		.eabi_attribute 20, 1
   6              		.eabi_attribute 21, 1
   7              		.eabi_attribute 23, 3
   8              		.eabi_attribute 24, 1
   9              		.eabi_attribute 25, 1
  10              		.eabi_attribute 26, 1
  11              		.eabi_attribute 30, 1
  12              		.eabi_attribute 34, 1
  13              		.eabi_attribute 18, 4
  14              		.thumb
  15              		.syntax unified
  16              		.file	"servoSlaveCommTask.c"
  17              		.text
  18              	.Ltext0:
  19              		.cfi_sections	.debug_frame
  20              		.section	.text.i2cCallback,"ax",%progbits
  21              		.align	2
  22              		.global	i2cCallback
  23              		.thumb
  24              		.thumb_func
  25              		.type	i2cCallback, %function
  26              	i2cCallback:
  27              	.LFB740:
  28              		.file 1 "SOURCE\\servoSlaveCommTask.c"
   1:SOURCE/servoSlaveCommTask.c **** /* ========================================
   2:SOURCE/servoSlaveCommTask.c ****  *
   3:SOURCE/servoSlaveCommTask.c ****  * Copyright YOUR COMPANY, THE YEAR
   4:SOURCE/servoSlaveCommTask.c ****  * All Rights Reserved
   5:SOURCE/servoSlaveCommTask.c ****  * UNPUBLISHED, LICENSED SOFTWARE.
   6:SOURCE/servoSlaveCommTask.c ****  *
   7:SOURCE/servoSlaveCommTask.c ****  * CONFIDENTIAL AND PROPRIETARY INFORMATION
   8:SOURCE/servoSlaveCommTask.c ****  * WHICH IS THE PROPERTY OF your company.
   9:SOURCE/servoSlaveCommTask.c ****  *
  10:SOURCE/servoSlaveCommTask.c ****  * ========================================
  11:SOURCE/servoSlaveCommTask.c **** */
  12:SOURCE/servoSlaveCommTask.c **** #include "servoSlaveCommTask.h"
  13:SOURCE/servoSlaveCommTask.c **** 
  14:SOURCE/servoSlaveCommTask.c **** 
  15:SOURCE/servoSlaveCommTask.c **** volatile static uint32_t i2cStatus = 0;
  16:SOURCE/servoSlaveCommTask.c **** 
  17:SOURCE/servoSlaveCommTask.c **** i2cEvents_s i2cEvents[I2C_MAX_EVENTS] = {
  18:SOURCE/servoSlaveCommTask.c ****     {0x00080000UL,"MASTER ERROR EVENT"},
  19:SOURCE/servoSlaveCommTask.c ****     {0x00020000UL,"MASTER WRITE COMPLETE EVENT"},
  20:SOURCE/servoSlaveCommTask.c **** };
  21:SOURCE/servoSlaveCommTask.c **** 
  22:SOURCE/servoSlaveCommTask.c **** 
  23:SOURCE/servoSlaveCommTask.c **** void i2cCallback(uint32_t event)
  24:SOURCE/servoSlaveCommTask.c **** {
  29              		.loc 1 24 0
  30              		.cfi_startproc
  31              		@ args = 0, pretend = 0, frame = 0
  32              		@ frame_needed = 0, uses_anonymous_args = 0
  33              		@ link register save eliminated.
ARM GAS  C:\Users\Austina\AppData\Local\Temp\cc8Iu5MR.s 			page 2


  34              	.LVL0:
  25:SOURCE/servoSlaveCommTask.c ****    i2cStatus |= event;
  35              		.loc 1 25 0
  36 0000 024A     		ldr	r2, .L2
  37 0002 1368     		ldr	r3, [r2]
  38 0004 1843     		orrs	r0, r0, r3
  39              	.LVL1:
  40 0006 1060     		str	r0, [r2]
  41 0008 7047     		bx	lr
  42              	.L3:
  43 000a 00BF     		.align	2
  44              	.L2:
  45 000c 00000000 		.word	.LANCHOR0
  46              		.cfi_endproc
  47              	.LFE740:
  48              		.size	i2cCallback, .-i2cCallback
  49              		.section	.text.i2cStatusDecode,"ax",%progbits
  50              		.align	2
  51              		.global	i2cStatusDecode
  52              		.thumb
  53              		.thumb_func
  54              		.type	i2cStatusDecode, %function
  55              	i2cStatusDecode:
  56              	.LFB743:
  26:SOURCE/servoSlaveCommTask.c **** }
  27:SOURCE/servoSlaveCommTask.c **** 
  28:SOURCE/servoSlaveCommTask.c **** 
  29:SOURCE/servoSlaveCommTask.c **** static uint8_t prevPercent[5];
  30:SOURCE/servoSlaveCommTask.c **** void servoSlaveCommTask(void * arg)
  31:SOURCE/servoSlaveCommTask.c **** {
  32:SOURCE/servoSlaveCommTask.c ****     (void)arg;
  33:SOURCE/servoSlaveCommTask.c ****     
  34:SOURCE/servoSlaveCommTask.c ****     PWM_Message_t pwmMessage;
  35:SOURCE/servoSlaveCommTask.c ****     TCPWM_Type *hw   = NULL;
  36:SOURCE/servoSlaveCommTask.c ****     int cntrNum = 0;
  37:SOURCE/servoSlaveCommTask.c ****     int compareTmp = 0;
  38:SOURCE/servoSlaveCommTask.c ****     int percentTmp = 0;
  39:SOURCE/servoSlaveCommTask.c ****     
  40:SOURCE/servoSlaveCommTask.c ****    I2C_ARD_Start();
  41:SOURCE/servoSlaveCommTask.c ****     ard_print("Comm to Arduino Servo Control Started");
  42:SOURCE/servoSlaveCommTask.c ****     Cy_SCB_I2C_RegisterEventCallback(I2C_ARD_HW, i2cCallback, &I2C_ARD_context);
  43:SOURCE/servoSlaveCommTask.c ****     
  44:SOURCE/servoSlaveCommTask.c ****     
  45:SOURCE/servoSlaveCommTask.c ****     while(1)
  46:SOURCE/servoSlaveCommTask.c ****     {
  47:SOURCE/servoSlaveCommTask.c ****         
  48:SOURCE/servoSlaveCommTask.c ****         //wait for motor control to send the percentage change to arduino servo control
  49:SOURCE/servoSlaveCommTask.c ****         xQueueReceive(servoControlQueue,&pwmMessage,portMAX_DELAY);
  50:SOURCE/servoSlaveCommTask.c ****         
  51:SOURCE/servoSlaveCommTask.c ****         
  52:SOURCE/servoSlaveCommTask.c ****         //Identify which PWM to change
  53:SOURCE/servoSlaveCommTask.c ****         switch(pwmMessage.motor)
  54:SOURCE/servoSlaveCommTask.c ****         {
  55:SOURCE/servoSlaveCommTask.c ****             case M1:
  56:SOURCE/servoSlaveCommTask.c ****                 hw = PWM_1_HW;
  57:SOURCE/servoSlaveCommTask.c ****                 cntrNum = PWM_1_CNT_NUM;
  58:SOURCE/servoSlaveCommTask.c ****             break;
ARM GAS  C:\Users\Austina\AppData\Local\Temp\cc8Iu5MR.s 			page 3


  59:SOURCE/servoSlaveCommTask.c ****             case M2:
  60:SOURCE/servoSlaveCommTask.c ****                 hw = PWM_2_HW;
  61:SOURCE/servoSlaveCommTask.c ****                 cntrNum = PWM_2_CNT_NUM;
  62:SOURCE/servoSlaveCommTask.c ****             break;
  63:SOURCE/servoSlaveCommTask.c ****             default:
  64:SOURCE/servoSlaveCommTask.c ****             break;
  65:SOURCE/servoSlaveCommTask.c ****         }
  66:SOURCE/servoSlaveCommTask.c ****         
  67:SOURCE/servoSlaveCommTask.c ****         //Check if relative or absolute .. if relative, get current % 
  68:SOURCE/servoSlaveCommTask.c ****         if(pwmMessage.changeType == POS_RELATIVE)
  69:SOURCE/servoSlaveCommTask.c ****         {
  70:SOURCE/servoSlaveCommTask.c ****             compareTmp = Cy_TCPWM_PWM_GetCompare0(hw,cntrNum);
  71:SOURCE/servoSlaveCommTask.c ****             percentTmp = compareToPercent(compareTmp) + pwmMessage.percent;
  72:SOURCE/servoSlaveCommTask.c ****             
  73:SOURCE/servoSlaveCommTask.c ****             //Make sure % is not below 0 or above 100%
  74:SOURCE/servoSlaveCommTask.c ****             if(percentTmp < 0)
  75:SOURCE/servoSlaveCommTask.c ****             {
  76:SOURCE/servoSlaveCommTask.c ****                 percentTmp = 0;
  77:SOURCE/servoSlaveCommTask.c ****             }
  78:SOURCE/servoSlaveCommTask.c ****             if(percentTmp > 100)
  79:SOURCE/servoSlaveCommTask.c ****             {
  80:SOURCE/servoSlaveCommTask.c ****                 percentTmp = 100;
  81:SOURCE/servoSlaveCommTask.c ****             }
  82:SOURCE/servoSlaveCommTask.c ****         }
  83:SOURCE/servoSlaveCommTask.c ****         else
  84:SOURCE/servoSlaveCommTask.c ****         {
  85:SOURCE/servoSlaveCommTask.c ****             percentTmp = pwmMessage.percent;
  86:SOURCE/servoSlaveCommTask.c ****         }
  87:SOURCE/servoSlaveCommTask.c ****         ard_printf("Transmitting motor %d pwm %d ",pwmMessage.motor,percentTmp);
  88:SOURCE/servoSlaveCommTask.c ****         if(prevPercent[pwmMessage.motor] != percentTmp) 
  89:SOURCE/servoSlaveCommTask.c ****             ardTransmitPWMPercent(pwmMessage.motor,percentTmp);
  90:SOURCE/servoSlaveCommTask.c ****         prevPercent[pwmMessage.motor] = percentTmp;
  91:SOURCE/servoSlaveCommTask.c ****         
  92:SOURCE/servoSlaveCommTask.c ****     }
  93:SOURCE/servoSlaveCommTask.c **** }
  94:SOURCE/servoSlaveCommTask.c **** 
  95:SOURCE/servoSlaveCommTask.c **** 
  96:SOURCE/servoSlaveCommTask.c **** void ardTransmitPWMPercent(motors_t motorNum,uint8_t percent)
  97:SOURCE/servoSlaveCommTask.c **** {
  98:SOURCE/servoSlaveCommTask.c ****     cy_stc_scb_i2c_master_xfer_config_t transfer;
  99:SOURCE/servoSlaveCommTask.c ****     uint8_t writeBuffer[5];
 100:SOURCE/servoSlaveCommTask.c ****     writeBuffer[0] = 0xC;   //Start header
 101:SOURCE/servoSlaveCommTask.c ****     writeBuffer[1] = motorNum;     //motor number
 102:SOURCE/servoSlaveCommTask.c ****     writeBuffer[2] = percent;   //data
 103:SOURCE/servoSlaveCommTask.c ****     writeBuffer[3] = 0xD;   //End Header
 104:SOURCE/servoSlaveCommTask.c ****     /* Configure write transaction */
 105:SOURCE/servoSlaveCommTask.c ****     transfer.slaveAddress = 0x08U;
 106:SOURCE/servoSlaveCommTask.c ****     transfer.buffer       = writeBuffer;
 107:SOURCE/servoSlaveCommTask.c ****     transfer.bufferSize   = sizeof(writeBuffer);
 108:SOURCE/servoSlaveCommTask.c ****     //transfer.xferPending  = true; /* Do not generate Stop condition at the end of transaction */
 109:SOURCE/servoSlaveCommTask.c ****     transfer.xferPending  = false; /* Generate Stop condition at the end of transaction */
 110:SOURCE/servoSlaveCommTask.c ****     i2cStatus = 0;
 111:SOURCE/servoSlaveCommTask.c ****     /* Initiate write transaction.
 112:SOURCE/servoSlaveCommTask.c ****     * The Start condition is generated to begin this transaction.
 113:SOURCE/servoSlaveCommTask.c ****     */
 114:SOURCE/servoSlaveCommTask.c ****     (void) Cy_SCB_I2C_MasterWrite(I2C_ARD_HW, &transfer, &I2C_ARD_context);
 115:SOURCE/servoSlaveCommTask.c ****     /* Wait for transaction completion */
ARM GAS  C:\Users\Austina\AppData\Local\Temp\cc8Iu5MR.s 			page 4


 116:SOURCE/servoSlaveCommTask.c ****     while (0UL != (CY_SCB_I2C_MASTER_BUSY & Cy_SCB_I2C_MasterGetStatus(I2C_ARD_HW, &I2C_ARD_context
 117:SOURCE/servoSlaveCommTask.c ****     { 
 118:SOURCE/servoSlaveCommTask.c ****     }
 119:SOURCE/servoSlaveCommTask.c ****     
 120:SOURCE/servoSlaveCommTask.c ****     ard_printf("I2c master write operation complete %X ",i2cStatus);
 121:SOURCE/servoSlaveCommTask.c ****     i2cStatusDecode();
 122:SOURCE/servoSlaveCommTask.c ****     
 123:SOURCE/servoSlaveCommTask.c **** }
 124:SOURCE/servoSlaveCommTask.c **** 
 125:SOURCE/servoSlaveCommTask.c **** 
 126:SOURCE/servoSlaveCommTask.c **** void i2cStatusDecode()
 127:SOURCE/servoSlaveCommTask.c **** {
  57              		.loc 1 127 0
  58              		.cfi_startproc
  59              		@ args = 0, pretend = 0, frame = 0
  60              		@ frame_needed = 0, uses_anonymous_args = 0
  61 0000 10B5     		push	{r4, lr}
  62              		.cfi_def_cfa_offset 8
  63              		.cfi_offset 4, -8
  64              		.cfi_offset 14, -4
  65              	.LVL2:
  66              	.LBB6:
 128:SOURCE/servoSlaveCommTask.c ****     for(int i = 0; i < I2C_MAX_EVENTS ; i++)
  67              		.loc 1 128 0
  68 0002 0024     		movs	r4, #0
  69 0004 13E0     		b	.L5
  70              	.LVL3:
  71              	.L7:
 129:SOURCE/servoSlaveCommTask.c ****     {
 130:SOURCE/servoSlaveCommTask.c ****         if(i2cEvents[i].i2cEvent & i2cStatus)
  72              		.loc 1 130 0
  73 0006 0B4B     		ldr	r3, .L9
  74 0008 53F83420 		ldr	r2, [r3, r4, lsl #3]
  75 000c 0A4B     		ldr	r3, .L9+4
  76 000e 1B68     		ldr	r3, [r3]
  77 0010 1A42     		tst	r2, r3
  78 0012 0BD0     		beq	.L6
 131:SOURCE/servoSlaveCommTask.c ****         {
 132:SOURCE/servoSlaveCommTask.c ****             ard_print((char*)i2cEvents[i].i2cMessage);
  79              		.loc 1 132 0
  80 0014 0948     		ldr	r0, .L9+8
  81 0016 FFF7FEFF 		bl	printf
  82              	.LVL4:
  83 001a 064B     		ldr	r3, .L9
  84 001c 03EBC403 		add	r3, r3, r4, lsl #3
  85 0020 5868     		ldr	r0, [r3, #4]
  86 0022 FFF7FEFF 		bl	printf
  87              	.LVL5:
  88 0026 0648     		ldr	r0, .L9+12
  89 0028 FFF7FEFF 		bl	puts
  90              	.LVL6:
  91              	.L6:
 128:SOURCE/servoSlaveCommTask.c ****     {
  92              		.loc 1 128 0 discriminator 2
  93 002c 0134     		adds	r4, r4, #1
  94              	.LVL7:
  95              	.L5:
ARM GAS  C:\Users\Austina\AppData\Local\Temp\cc8Iu5MR.s 			page 5


 128:SOURCE/servoSlaveCommTask.c ****     {
  96              		.loc 1 128 0 is_stmt 0 discriminator 1
  97 002e 012C     		cmp	r4, #1
  98 0030 E9DD     		ble	.L7
  99              	.LBE6:
 133:SOURCE/servoSlaveCommTask.c ****         }
 134:SOURCE/servoSlaveCommTask.c ****     }
 135:SOURCE/servoSlaveCommTask.c **** }
 100              		.loc 1 135 0 is_stmt 1
 101 0032 10BD     		pop	{r4, pc}
 102              	.LVL8:
 103              	.L10:
 104              		.align	2
 105              	.L9:
 106 0034 00000000 		.word	.LANCHOR1
 107 0038 00000000 		.word	.LANCHOR0
 108 003c 00000000 		.word	.LC0
 109 0040 18000000 		.word	.LC1
 110              		.cfi_endproc
 111              	.LFE743:
 112              		.size	i2cStatusDecode, .-i2cStatusDecode
 113              		.section	.text.ardTransmitPWMPercent,"ax",%progbits
 114              		.align	2
 115              		.global	ardTransmitPWMPercent
 116              		.thumb
 117              		.thumb_func
 118              		.type	ardTransmitPWMPercent, %function
 119              	ardTransmitPWMPercent:
 120              	.LFB742:
  97:SOURCE/servoSlaveCommTask.c ****     cy_stc_scb_i2c_master_xfer_config_t transfer;
 121              		.loc 1 97 0
 122              		.cfi_startproc
 123              		@ args = 0, pretend = 0, frame = 24
 124              		@ frame_needed = 0, uses_anonymous_args = 0
 125              	.LVL9:
 126 0000 00B5     		push	{lr}
 127              		.cfi_def_cfa_offset 4
 128              		.cfi_offset 14, -4
 129 0002 87B0     		sub	sp, sp, #28
 130              		.cfi_def_cfa_offset 32
 100:SOURCE/servoSlaveCommTask.c ****     writeBuffer[1] = motorNum;     //motor number
 131              		.loc 1 100 0
 132 0004 0C23     		movs	r3, #12
 133 0006 8DF80030 		strb	r3, [sp]
 101:SOURCE/servoSlaveCommTask.c ****     writeBuffer[2] = percent;   //data
 134              		.loc 1 101 0
 135 000a 8DF80100 		strb	r0, [sp, #1]
 102:SOURCE/servoSlaveCommTask.c ****     writeBuffer[3] = 0xD;   //End Header
 136              		.loc 1 102 0
 137 000e 8DF80210 		strb	r1, [sp, #2]
 103:SOURCE/servoSlaveCommTask.c ****     /* Configure write transaction */
 138              		.loc 1 103 0
 139 0012 0D23     		movs	r3, #13
 140 0014 8DF80330 		strb	r3, [sp, #3]
 105:SOURCE/servoSlaveCommTask.c ****     transfer.buffer       = writeBuffer;
 141              		.loc 1 105 0
 142 0018 0823     		movs	r3, #8
ARM GAS  C:\Users\Austina\AppData\Local\Temp\cc8Iu5MR.s 			page 6


 143 001a 8DF80830 		strb	r3, [sp, #8]
 106:SOURCE/servoSlaveCommTask.c ****     transfer.bufferSize   = sizeof(writeBuffer);
 144              		.loc 1 106 0
 145 001e CDF80CD0 		str	sp, [sp, #12]
 107:SOURCE/servoSlaveCommTask.c ****     //transfer.xferPending  = true; /* Do not generate Stop condition at the end of transaction */
 146              		.loc 1 107 0
 147 0022 0523     		movs	r3, #5
 148 0024 0493     		str	r3, [sp, #16]
 109:SOURCE/servoSlaveCommTask.c ****     i2cStatus = 0;
 149              		.loc 1 109 0
 150 0026 0023     		movs	r3, #0
 151 0028 8DF81430 		strb	r3, [sp, #20]
 110:SOURCE/servoSlaveCommTask.c ****     /* Initiate write transaction.
 152              		.loc 1 110 0
 153 002c 0E4A     		ldr	r2, .L14
 154 002e 1360     		str	r3, [r2]
 114:SOURCE/servoSlaveCommTask.c ****     /* Wait for transaction completion */
 155              		.loc 1 114 0
 156 0030 0E4A     		ldr	r2, .L14+4
 157 0032 02A9     		add	r1, sp, #8
 158              	.LVL10:
 159 0034 0E48     		ldr	r0, .L14+8
 160              	.LVL11:
 161 0036 FFF7FEFF 		bl	Cy_SCB_I2C_MasterWrite
 162              	.LVL12:
 163              	.L12:
 116:SOURCE/servoSlaveCommTask.c ****     { 
 164              		.loc 1 116 0 discriminator 1
 165 003a 0C49     		ldr	r1, .L14+4
 166 003c 0C48     		ldr	r0, .L14+8
 167 003e FFF7FEFF 		bl	Cy_SCB_I2C_MasterGetStatus
 168              	.LVL13:
 169 0042 10F4803F 		tst	r0, #65536
 170 0046 F8D1     		bne	.L12
 120:SOURCE/servoSlaveCommTask.c ****     i2cStatusDecode();
 171              		.loc 1 120 0
 172 0048 0A48     		ldr	r0, .L14+12
 173 004a FFF7FEFF 		bl	printf
 174              	.LVL14:
 175 004e 064B     		ldr	r3, .L14
 176 0050 1968     		ldr	r1, [r3]
 177 0052 0948     		ldr	r0, .L14+16
 178 0054 FFF7FEFF 		bl	printf
 179              	.LVL15:
 180 0058 0848     		ldr	r0, .L14+20
 181 005a FFF7FEFF 		bl	puts
 182              	.LVL16:
 121:SOURCE/servoSlaveCommTask.c ****     
 183              		.loc 1 121 0
 184 005e FFF7FEFF 		bl	i2cStatusDecode
 185              	.LVL17:
 123:SOURCE/servoSlaveCommTask.c **** 
 186              		.loc 1 123 0
 187 0062 07B0     		add	sp, sp, #28
 188              		.cfi_def_cfa_offset 4
 189              		@ sp needed
 190 0064 5DF804FB 		ldr	pc, [sp], #4
ARM GAS  C:\Users\Austina\AppData\Local\Temp\cc8Iu5MR.s 			page 7


 191              	.L15:
 192              		.align	2
 193              	.L14:
 194 0068 00000000 		.word	.LANCHOR0
 195 006c 00000000 		.word	I2C_ARD_context
 196 0070 00006340 		.word	1080229888
 197 0074 00000000 		.word	.LC0
 198 0078 1C000000 		.word	.LC2
 199 007c 18000000 		.word	.LC1
 200              		.cfi_endproc
 201              	.LFE742:
 202              		.size	ardTransmitPWMPercent, .-ardTransmitPWMPercent
 203              		.section	.text.servoSlaveCommTask,"ax",%progbits
 204              		.align	2
 205              		.global	servoSlaveCommTask
 206              		.thumb
 207              		.thumb_func
 208              		.type	servoSlaveCommTask, %function
 209              	servoSlaveCommTask:
 210              	.LFB741:
  31:SOURCE/servoSlaveCommTask.c ****     (void)arg;
 211              		.loc 1 31 0
 212              		.cfi_startproc
 213              		@ args = 0, pretend = 0, frame = 8
 214              		@ frame_needed = 0, uses_anonymous_args = 0
 215              	.LVL18:
 216 0000 70B5     		push	{r4, r5, r6, lr}
 217              		.cfi_def_cfa_offset 16
 218              		.cfi_offset 4, -16
 219              		.cfi_offset 5, -12
 220              		.cfi_offset 6, -8
 221              		.cfi_offset 14, -4
 222 0002 82B0     		sub	sp, sp, #8
 223              		.cfi_def_cfa_offset 24
 224              	.LVL19:
  40:SOURCE/servoSlaveCommTask.c ****     ard_print("Comm to Arduino Servo Control Started");
 225              		.loc 1 40 0
 226 0004 FFF7FEFF 		bl	I2C_ARD_Start
 227              	.LVL20:
  41:SOURCE/servoSlaveCommTask.c ****     Cy_SCB_I2C_RegisterEventCallback(I2C_ARD_HW, i2cCallback, &I2C_ARD_context);
 228              		.loc 1 41 0
 229 0008 2748     		ldr	r0, .L29
 230 000a FFF7FEFF 		bl	printf
 231              	.LVL21:
 232 000e 2748     		ldr	r0, .L29+4
 233 0010 FFF7FEFF 		bl	printf
 234              	.LVL22:
 235 0014 2648     		ldr	r0, .L29+8
 236 0016 FFF7FEFF 		bl	puts
 237              	.LVL23:
 238              	.LBB7:
 239              	.LBB8:
 240              		.file 2 "Generated_Source\\PSoC6\\pdl\\drivers/peripheral/scb/cy_scb_i2c.h"
   1:Generated_Source\PSoC6\pdl\drivers/peripheral/scb/cy_scb_i2c.h **** /***************************************************************************//**
   2:Generated_Source\PSoC6\pdl\drivers/peripheral/scb/cy_scb_i2c.h **** * \file cy_scb_i2c.h
   3:Generated_Source\PSoC6\pdl\drivers/peripheral/scb/cy_scb_i2c.h **** * \version 2.30
   4:Generated_Source\PSoC6\pdl\drivers/peripheral/scb/cy_scb_i2c.h **** *
ARM GAS  C:\Users\Austina\AppData\Local\Temp\cc8Iu5MR.s 			page 8


   5:Generated_Source\PSoC6\pdl\drivers/peripheral/scb/cy_scb_i2c.h **** * Provides I2C API declarations of the SCB driver.
   6:Generated_Source\PSoC6\pdl\drivers/peripheral/scb/cy_scb_i2c.h **** *
   7:Generated_Source\PSoC6\pdl\drivers/peripheral/scb/cy_scb_i2c.h **** ********************************************************************************
   8:Generated_Source\PSoC6\pdl\drivers/peripheral/scb/cy_scb_i2c.h **** * \copyright
   9:Generated_Source\PSoC6\pdl\drivers/peripheral/scb/cy_scb_i2c.h **** * Copyright 2016-2021, Cypress Semiconductor Corporation.  All rights reserved.
  10:Generated_Source\PSoC6\pdl\drivers/peripheral/scb/cy_scb_i2c.h **** * You may use this file only in accordance with the license, terms, conditions,
  11:Generated_Source\PSoC6\pdl\drivers/peripheral/scb/cy_scb_i2c.h **** * disclaimers, and limitations in the end user license agreement accompanying
  12:Generated_Source\PSoC6\pdl\drivers/peripheral/scb/cy_scb_i2c.h **** * the software package with which this file was provided.
  13:Generated_Source\PSoC6\pdl\drivers/peripheral/scb/cy_scb_i2c.h **** *******************************************************************************/
  14:Generated_Source\PSoC6\pdl\drivers/peripheral/scb/cy_scb_i2c.h **** 
  15:Generated_Source\PSoC6\pdl\drivers/peripheral/scb/cy_scb_i2c.h **** /**
  16:Generated_Source\PSoC6\pdl\drivers/peripheral/scb/cy_scb_i2c.h **** * \addtogroup group_scb_i2c
  17:Generated_Source\PSoC6\pdl\drivers/peripheral/scb/cy_scb_i2c.h **** * \{
  18:Generated_Source\PSoC6\pdl\drivers/peripheral/scb/cy_scb_i2c.h **** * Driver API for I2C Bus Peripheral
  19:Generated_Source\PSoC6\pdl\drivers/peripheral/scb/cy_scb_i2c.h **** *
  20:Generated_Source\PSoC6\pdl\drivers/peripheral/scb/cy_scb_i2c.h **** * I2C - The Inter-Integrated Circuit (I2C) bus is an industry-standard.
  21:Generated_Source\PSoC6\pdl\drivers/peripheral/scb/cy_scb_i2c.h **** *
  22:Generated_Source\PSoC6\pdl\drivers/peripheral/scb/cy_scb_i2c.h **** * The functions and other declarations used in this part of the driver are in
  23:Generated_Source\PSoC6\pdl\drivers/peripheral/scb/cy_scb_i2c.h **** * cy_scb_i2c.h. You can also include cy_pdl.h (ModusToolbox only) to get access
  24:Generated_Source\PSoC6\pdl\drivers/peripheral/scb/cy_scb_i2c.h **** * to all functions and declarations in the PDL.
  25:Generated_Source\PSoC6\pdl\drivers/peripheral/scb/cy_scb_i2c.h **** *
  26:Generated_Source\PSoC6\pdl\drivers/peripheral/scb/cy_scb_i2c.h **** * The I2C peripheral driver provides an API to implement I2C slave, master,
  27:Generated_Source\PSoC6\pdl\drivers/peripheral/scb/cy_scb_i2c.h **** * or master-slave devices based on the SCB hardware block.
  28:Generated_Source\PSoC6\pdl\drivers/peripheral/scb/cy_scb_i2c.h **** * I2C devices based on SCB hardware are compatible with I2C
  29:Generated_Source\PSoC6\pdl\drivers/peripheral/scb/cy_scb_i2c.h **** * Standard-mode, Fast-mode, and Fast-mode Plus specifications as defined in
  30:Generated_Source\PSoC6\pdl\drivers/peripheral/scb/cy_scb_i2c.h **** * the I2C-bus specification.
  31:Generated_Source\PSoC6\pdl\drivers/peripheral/scb/cy_scb_i2c.h **** *
  32:Generated_Source\PSoC6\pdl\drivers/peripheral/scb/cy_scb_i2c.h **** * Features:
  33:Generated_Source\PSoC6\pdl\drivers/peripheral/scb/cy_scb_i2c.h **** * * An industry-standard I2C bus interface
  34:Generated_Source\PSoC6\pdl\drivers/peripheral/scb/cy_scb_i2c.h **** * * Supports slave, master, and master-slave operation
  35:Generated_Source\PSoC6\pdl\drivers/peripheral/scb/cy_scb_i2c.h **** * * Supports standard data rates of 100/400/1000 kbps
  36:Generated_Source\PSoC6\pdl\drivers/peripheral/scb/cy_scb_i2c.h **** * * Hardware Address Match, multiple addresses
  37:Generated_Source\PSoC6\pdl\drivers/peripheral/scb/cy_scb_i2c.h **** * * Wake from Deep Sleep on Address Match
  38:Generated_Source\PSoC6\pdl\drivers/peripheral/scb/cy_scb_i2c.h **** *
  39:Generated_Source\PSoC6\pdl\drivers/peripheral/scb/cy_scb_i2c.h **** ********************************************************************************
  40:Generated_Source\PSoC6\pdl\drivers/peripheral/scb/cy_scb_i2c.h **** * \section group_scb_i2c_configuration Configuration Considerations
  41:Generated_Source\PSoC6\pdl\drivers/peripheral/scb/cy_scb_i2c.h **** ********************************************************************************
  42:Generated_Source\PSoC6\pdl\drivers/peripheral/scb/cy_scb_i2c.h **** * The I2C driver configuration can be divided to number of sequential
  43:Generated_Source\PSoC6\pdl\drivers/peripheral/scb/cy_scb_i2c.h **** * steps listed below:
  44:Generated_Source\PSoC6\pdl\drivers/peripheral/scb/cy_scb_i2c.h **** * * \ref group_scb_i2c_config
  45:Generated_Source\PSoC6\pdl\drivers/peripheral/scb/cy_scb_i2c.h **** * * \ref group_scb_i2c_pins
  46:Generated_Source\PSoC6\pdl\drivers/peripheral/scb/cy_scb_i2c.h **** * * \ref group_scb_i2c_clock
  47:Generated_Source\PSoC6\pdl\drivers/peripheral/scb/cy_scb_i2c.h **** * * \ref group_scb_i2c_data_rate
  48:Generated_Source\PSoC6\pdl\drivers/peripheral/scb/cy_scb_i2c.h **** * * \ref group_scb_i2c_intr
  49:Generated_Source\PSoC6\pdl\drivers/peripheral/scb/cy_scb_i2c.h **** * * \ref group_scb_i2c_enable
  50:Generated_Source\PSoC6\pdl\drivers/peripheral/scb/cy_scb_i2c.h **** *
  51:Generated_Source\PSoC6\pdl\drivers/peripheral/scb/cy_scb_i2c.h **** * \note
  52:Generated_Source\PSoC6\pdl\drivers/peripheral/scb/cy_scb_i2c.h **** * I2C driver is built on top of the SCB hardware block. The SCB3 instance is
  53:Generated_Source\PSoC6\pdl\drivers/peripheral/scb/cy_scb_i2c.h **** * used as an example for all code snippets. Modify the code to match your
  54:Generated_Source\PSoC6\pdl\drivers/peripheral/scb/cy_scb_i2c.h **** * design.
  55:Generated_Source\PSoC6\pdl\drivers/peripheral/scb/cy_scb_i2c.h **** *
  56:Generated_Source\PSoC6\pdl\drivers/peripheral/scb/cy_scb_i2c.h **** ********************************************************************************
  57:Generated_Source\PSoC6\pdl\drivers/peripheral/scb/cy_scb_i2c.h **** * \subsection group_scb_i2c_config Configure I2C
  58:Generated_Source\PSoC6\pdl\drivers/peripheral/scb/cy_scb_i2c.h **** ********************************************************************************
  59:Generated_Source\PSoC6\pdl\drivers/peripheral/scb/cy_scb_i2c.h **** * To set up the I2C  driver, provide the configuration parameters in the
  60:Generated_Source\PSoC6\pdl\drivers/peripheral/scb/cy_scb_i2c.h **** * \ref cy_stc_scb_i2c_config_t structure. Provide i2cMode to the select
  61:Generated_Source\PSoC6\pdl\drivers/peripheral/scb/cy_scb_i2c.h **** * operation mode slave, master or master-slave. The useRxFifo and useTxFifo
ARM GAS  C:\Users\Austina\AppData\Local\Temp\cc8Iu5MR.s 			page 9


  62:Generated_Source\PSoC6\pdl\drivers/peripheral/scb/cy_scb_i2c.h **** * parameters specify if RX and TX FIFO is used during operation. Typically, both
  63:Generated_Source\PSoC6\pdl\drivers/peripheral/scb/cy_scb_i2c.h **** * FIFOs should be enabled to reduce possibility of clock stringing. However,
  64:Generated_Source\PSoC6\pdl\drivers/peripheral/scb/cy_scb_i2c.h **** * using RX FIFO has side effects that needs to be taken into account
  65:Generated_Source\PSoC6\pdl\drivers/peripheral/scb/cy_scb_i2c.h **** * (see useRxFifo field description in \ref cy_stc_scb_i2c_config_t structure).
  66:Generated_Source\PSoC6\pdl\drivers/peripheral/scb/cy_scb_i2c.h **** * For master modes, parameters lowPhaseDutyCycle, highPhaseDutyCycle and
  67:Generated_Source\PSoC6\pdl\drivers/peripheral/scb/cy_scb_i2c.h **** * enableDigitalFilter can be used to define output data rate (refer to section
  68:Generated_Source\PSoC6\pdl\drivers/peripheral/scb/cy_scb_i2c.h **** * \ref group_scb_i2c_data_rate for more information).
  69:Generated_Source\PSoC6\pdl\drivers/peripheral/scb/cy_scb_i2c.h **** * For slave mode, provide the slaveAddress and slaveAddressMask. The other
  70:Generated_Source\PSoC6\pdl\drivers/peripheral/scb/cy_scb_i2c.h **** * parameters are optional for operation.\n
  71:Generated_Source\PSoC6\pdl\drivers/peripheral/scb/cy_scb_i2c.h **** * To initialize the driver, call \ref Cy_SCB_I2C_Init
  72:Generated_Source\PSoC6\pdl\drivers/peripheral/scb/cy_scb_i2c.h **** * function providing a pointer to the populated \ref cy_stc_scb_i2c_config_t
  73:Generated_Source\PSoC6\pdl\drivers/peripheral/scb/cy_scb_i2c.h **** * structure and the allocated \ref cy_stc_scb_i2c_context_t structure.
  74:Generated_Source\PSoC6\pdl\drivers/peripheral/scb/cy_scb_i2c.h **** *
  75:Generated_Source\PSoC6\pdl\drivers/peripheral/scb/cy_scb_i2c.h **** * \snippet SCB_CompDatasheet_sut_01_revA.cydsn\i2c_snippets.c I2C_CFG
  76:Generated_Source\PSoC6\pdl\drivers/peripheral/scb/cy_scb_i2c.h **** *
  77:Generated_Source\PSoC6\pdl\drivers/peripheral/scb/cy_scb_i2c.h **** * Set up I2C slave read and write buffer before enabling its
  78:Generated_Source\PSoC6\pdl\drivers/peripheral/scb/cy_scb_i2c.h **** * operation using \ref Cy_SCB_I2C_SlaveConfigReadBuf and \ref
  79:Generated_Source\PSoC6\pdl\drivers/peripheral/scb/cy_scb_i2c.h **** * Cy_SCB_I2C_SlaveConfigWriteBuf appropriately. Note that the master reads
  80:Generated_Source\PSoC6\pdl\drivers/peripheral/scb/cy_scb_i2c.h **** * data from the slave read buffer and writes data into the slave write buffer.
  81:Generated_Source\PSoC6\pdl\drivers/peripheral/scb/cy_scb_i2c.h **** *
  82:Generated_Source\PSoC6\pdl\drivers/peripheral/scb/cy_scb_i2c.h **** * \snippet SCB_CompDatasheet_sut_01_revA.cydsn\i2c_snippets.c I2C_CFG_BUFFER
  83:Generated_Source\PSoC6\pdl\drivers/peripheral/scb/cy_scb_i2c.h **** *
  84:Generated_Source\PSoC6\pdl\drivers/peripheral/scb/cy_scb_i2c.h **** ********************************************************************************
  85:Generated_Source\PSoC6\pdl\drivers/peripheral/scb/cy_scb_i2c.h **** * \subsection group_scb_i2c_pins Assign and Configure Pins
  86:Generated_Source\PSoC6\pdl\drivers/peripheral/scb/cy_scb_i2c.h **** ********************************************************************************
  87:Generated_Source\PSoC6\pdl\drivers/peripheral/scb/cy_scb_i2c.h **** * Only dedicated SCB pins can be used for I2C operation. The HSIOM
  88:Generated_Source\PSoC6\pdl\drivers/peripheral/scb/cy_scb_i2c.h **** * register must be configured to connect dedicated SCB I2C pins to the
  89:Generated_Source\PSoC6\pdl\drivers/peripheral/scb/cy_scb_i2c.h **** * SCB block. Also the I2C pins must be configured in Open-Drain, Drives Low mode
  90:Generated_Source\PSoC6\pdl\drivers/peripheral/scb/cy_scb_i2c.h **** * (this pins  configuration implies usage of external pull-up resistors):
  91:Generated_Source\PSoC6\pdl\drivers/peripheral/scb/cy_scb_i2c.h **** *
  92:Generated_Source\PSoC6\pdl\drivers/peripheral/scb/cy_scb_i2c.h **** * \snippet SCB_CompDatasheet_sut_01_revA.cydsn\i2c_snippets.c I2C_CFG_PINS
  93:Generated_Source\PSoC6\pdl\drivers/peripheral/scb/cy_scb_i2c.h **** *
  94:Generated_Source\PSoC6\pdl\drivers/peripheral/scb/cy_scb_i2c.h **** * \note
  95:Generated_Source\PSoC6\pdl\drivers/peripheral/scb/cy_scb_i2c.h **** * The alternative pins configuration is Resistive Pull-ups which implies usage
  96:Generated_Source\PSoC6\pdl\drivers/peripheral/scb/cy_scb_i2c.h **** * internal pull-up resistors. This configuration is not recommended because
  97:Generated_Source\PSoC6\pdl\drivers/peripheral/scb/cy_scb_i2c.h **** * resistor value is fixed and cannot be used for all supported data rates.
  98:Generated_Source\PSoC6\pdl\drivers/peripheral/scb/cy_scb_i2c.h **** * Refer to the device datasheet parameter RPULLUP for resistor value specifications.
  99:Generated_Source\PSoC6\pdl\drivers/peripheral/scb/cy_scb_i2c.h **** *
 100:Generated_Source\PSoC6\pdl\drivers/peripheral/scb/cy_scb_i2c.h **** ********************************************************************************
 101:Generated_Source\PSoC6\pdl\drivers/peripheral/scb/cy_scb_i2c.h **** * \subsection group_scb_i2c_clock Assign Clock Divider
 102:Generated_Source\PSoC6\pdl\drivers/peripheral/scb/cy_scb_i2c.h **** ********************************************************************************
 103:Generated_Source\PSoC6\pdl\drivers/peripheral/scb/cy_scb_i2c.h **** * A clock source must be connected to the SCB block to oversample input and
 104:Generated_Source\PSoC6\pdl\drivers/peripheral/scb/cy_scb_i2c.h **** * output signals, in this document this clock will be referred as clk_scb.
 105:Generated_Source\PSoC6\pdl\drivers/peripheral/scb/cy_scb_i2c.h **** * You must use one of the 8-bit or 16-bit dividers. Use the \ref group_sysclk
 106:Generated_Source\PSoC6\pdl\drivers/peripheral/scb/cy_scb_i2c.h **** * driver API to do this.
 107:Generated_Source\PSoC6\pdl\drivers/peripheral/scb/cy_scb_i2c.h **** *
 108:Generated_Source\PSoC6\pdl\drivers/peripheral/scb/cy_scb_i2c.h **** * \snippet SCB_CompDatasheet_sut_01_revA.cydsn\i2c_snippets.c I2C_CFG_ASSIGN_CLOCK
 109:Generated_Source\PSoC6\pdl\drivers/peripheral/scb/cy_scb_i2c.h **** *
 110:Generated_Source\PSoC6\pdl\drivers/peripheral/scb/cy_scb_i2c.h **** ********************************************************************************
 111:Generated_Source\PSoC6\pdl\drivers/peripheral/scb/cy_scb_i2c.h **** * \subsection group_scb_i2c_data_rate Configure Data Rate
 112:Generated_Source\PSoC6\pdl\drivers/peripheral/scb/cy_scb_i2c.h **** ********************************************************************************
 113:Generated_Source\PSoC6\pdl\drivers/peripheral/scb/cy_scb_i2c.h **** * To get I2C slave operation with the desired data rate, the clk_scb must be
 114:Generated_Source\PSoC6\pdl\drivers/peripheral/scb/cy_scb_i2c.h **** * fast enough to provide sufficient oversampling. Use the
 115:Generated_Source\PSoC6\pdl\drivers/peripheral/scb/cy_scb_i2c.h **** * \ref group_sysclk driver API to do this.
 116:Generated_Source\PSoC6\pdl\drivers/peripheral/scb/cy_scb_i2c.h **** *
 117:Generated_Source\PSoC6\pdl\drivers/peripheral/scb/cy_scb_i2c.h **** * \snippet SCB_CompDatasheet_sut_01_revA.cydsn\i2c_snippets.c I2C_CFG_DATA_RATE_SLAVE
 118:Generated_Source\PSoC6\pdl\drivers/peripheral/scb/cy_scb_i2c.h **** *
ARM GAS  C:\Users\Austina\AppData\Local\Temp\cc8Iu5MR.s 			page 10


 119:Generated_Source\PSoC6\pdl\drivers/peripheral/scb/cy_scb_i2c.h **** * To get I2C master operation with the desired data rate, the source clock
 120:Generated_Source\PSoC6\pdl\drivers/peripheral/scb/cy_scb_i2c.h **** * frequency and SCL low and high phase duration must be configured. Use the
 121:Generated_Source\PSoC6\pdl\drivers/peripheral/scb/cy_scb_i2c.h **** * \ref group_sysclk driver API to configure source clock frequency. Then call
 122:Generated_Source\PSoC6\pdl\drivers/peripheral/scb/cy_scb_i2c.h **** * \ref Cy_SCB_I2C_SetDataRate to set the SCL low, high phase duration and
 123:Generated_Source\PSoC6\pdl\drivers/peripheral/scb/cy_scb_i2c.h **** * digital filter. This function sets SCL low and high phase settings based on
 124:Generated_Source\PSoC6\pdl\drivers/peripheral/scb/cy_scb_i2c.h **** * source clock frequency.
 125:Generated_Source\PSoC6\pdl\drivers/peripheral/scb/cy_scb_i2c.h **** *
 126:Generated_Source\PSoC6\pdl\drivers/peripheral/scb/cy_scb_i2c.h **** * \snippet SCB_CompDatasheet_sut_01_revA.cydsn\i2c_snippets.c I2C_CFG_DATA_RATE_MASTER
 127:Generated_Source\PSoC6\pdl\drivers/peripheral/scb/cy_scb_i2c.h **** *
 128:Generated_Source\PSoC6\pdl\drivers/peripheral/scb/cy_scb_i2c.h **** * Alternatively, the low, high phase and digital filter can be set directly
 129:Generated_Source\PSoC6\pdl\drivers/peripheral/scb/cy_scb_i2c.h **** * using configuration structure \ref cy_stc_scb_i2c_config_t fields
 130:Generated_Source\PSoC6\pdl\drivers/peripheral/scb/cy_scb_i2c.h **** * lowPhaseDutyCycle, highPhaseDutyCycle and enableDigitalFilter appropriately.\n
 131:Generated_Source\PSoC6\pdl\drivers/peripheral/scb/cy_scb_i2c.h **** * <b>Refer to the technical reference manual (TRM) section I2C sub-section
 132:Generated_Source\PSoC6\pdl\drivers/peripheral/scb/cy_scb_i2c.h **** * Oversampling and Bit Rate to get information how to configure I2C to run with
 133:Generated_Source\PSoC6\pdl\drivers/peripheral/scb/cy_scb_i2c.h **** * the desired data rate.</b>
 134:Generated_Source\PSoC6\pdl\drivers/peripheral/scb/cy_scb_i2c.h **** *
 135:Generated_Source\PSoC6\pdl\drivers/peripheral/scb/cy_scb_i2c.h **** * \note
 136:Generated_Source\PSoC6\pdl\drivers/peripheral/scb/cy_scb_i2c.h **** * For I2C slave, the analog filter is used for all supported data rates. \n
 137:Generated_Source\PSoC6\pdl\drivers/peripheral/scb/cy_scb_i2c.h **** * For I2C master, the analog filter is used for Standard and Fast modes and the
 138:Generated_Source\PSoC6\pdl\drivers/peripheral/scb/cy_scb_i2c.h **** * digital filter for Fast Plus mode.
 139:Generated_Source\PSoC6\pdl\drivers/peripheral/scb/cy_scb_i2c.h **** *
 140:Generated_Source\PSoC6\pdl\drivers/peripheral/scb/cy_scb_i2c.h **** ********************************************************************************
 141:Generated_Source\PSoC6\pdl\drivers/peripheral/scb/cy_scb_i2c.h **** * \subsection group_scb_i2c_intr Configure Interrupt
 142:Generated_Source\PSoC6\pdl\drivers/peripheral/scb/cy_scb_i2c.h **** ********************************************************************************
 143:Generated_Source\PSoC6\pdl\drivers/peripheral/scb/cy_scb_i2c.h **** * The interrupt is mandatory for I2C operation. The exception is the when only
 144:Generated_Source\PSoC6\pdl\drivers/peripheral/scb/cy_scb_i2c.h **** * the \ref group_scb_i2c_master_low_level_functions functions are used.
 145:Generated_Source\PSoC6\pdl\drivers/peripheral/scb/cy_scb_i2c.h **** * The driver provides three interrupt functions: \ref Cy_SCB_I2C_Interrupt,
 146:Generated_Source\PSoC6\pdl\drivers/peripheral/scb/cy_scb_i2c.h **** * \ref Cy_SCB_I2C_SlaveInterrupt, and \ref Cy_SCB_I2C_MasterInterrupt. One of
 147:Generated_Source\PSoC6\pdl\drivers/peripheral/scb/cy_scb_i2c.h **** * these functions must be called in the interrupt handler for the selected SCB
 148:Generated_Source\PSoC6\pdl\drivers/peripheral/scb/cy_scb_i2c.h **** * instance. Call \ref Cy_SCB_I2C_SlaveInterrupt when I2C is configured to
 149:Generated_Source\PSoC6\pdl\drivers/peripheral/scb/cy_scb_i2c.h **** * operate as a slave, \ref Cy_SCB_I2C_MasterInterrupt when I2C is configured
 150:Generated_Source\PSoC6\pdl\drivers/peripheral/scb/cy_scb_i2c.h **** * to operate as a master and \ref Cy_SCB_I2C_Interrupt when I2C is configured
 151:Generated_Source\PSoC6\pdl\drivers/peripheral/scb/cy_scb_i2c.h **** * to operate as master and slave. Using the slave- or master-specific interrupt
 152:Generated_Source\PSoC6\pdl\drivers/peripheral/scb/cy_scb_i2c.h **** * function allows reducing the flash consumed by the I2C driver. Also this
 153:Generated_Source\PSoC6\pdl\drivers/peripheral/scb/cy_scb_i2c.h **** * interrupt must be enabled in the NVIC otherwise it will not work.
 154:Generated_Source\PSoC6\pdl\drivers/peripheral/scb/cy_scb_i2c.h **** * \note
 155:Generated_Source\PSoC6\pdl\drivers/peripheral/scb/cy_scb_i2c.h **** * The I2C driver documentation refers to the \ref Cy_SCB_I2C_Interrupt function
 156:Generated_Source\PSoC6\pdl\drivers/peripheral/scb/cy_scb_i2c.h **** * when interrupt processing is mandatory for the operation. This is done to
 157:Generated_Source\PSoC6\pdl\drivers/peripheral/scb/cy_scb_i2c.h **** * simplify the readability of the driver's documentation. The application should
 158:Generated_Source\PSoC6\pdl\drivers/peripheral/scb/cy_scb_i2c.h **** *  call the slave- or master-specific interrupt functions \ref Cy_SCB_I2C_SlaveInterrupt
 159:Generated_Source\PSoC6\pdl\drivers/peripheral/scb/cy_scb_i2c.h **** * or \ref Cy_SCB_I2C_MasterInterrupt, when appropriate.
 160:Generated_Source\PSoC6\pdl\drivers/peripheral/scb/cy_scb_i2c.h **** *
 161:Generated_Source\PSoC6\pdl\drivers/peripheral/scb/cy_scb_i2c.h **** * \snippet SCB_CompDatasheet_sut_01_revA.cydsn\i2c_snippets.c I2C_INTR_A
 162:Generated_Source\PSoC6\pdl\drivers/peripheral/scb/cy_scb_i2c.h **** * \snippet SCB_CompDatasheet_sut_01_revA.cydsn\i2c_snippets.c I2C_INTR_B
 163:Generated_Source\PSoC6\pdl\drivers/peripheral/scb/cy_scb_i2c.h **** *
 164:Generated_Source\PSoC6\pdl\drivers/peripheral/scb/cy_scb_i2c.h **** ********************************************************************************
 165:Generated_Source\PSoC6\pdl\drivers/peripheral/scb/cy_scb_i2c.h **** * \subsection group_scb_i2c_enable Enable I2C
 166:Generated_Source\PSoC6\pdl\drivers/peripheral/scb/cy_scb_i2c.h **** ********************************************************************************
 167:Generated_Source\PSoC6\pdl\drivers/peripheral/scb/cy_scb_i2c.h **** * Finally, enable the I2C operation by calling \ref Cy_SCB_I2C_Enable. Then I2C
 168:Generated_Source\PSoC6\pdl\drivers/peripheral/scb/cy_scb_i2c.h **** * slave starts respond to the assigned address and I2C master ready to execute
 169:Generated_Source\PSoC6\pdl\drivers/peripheral/scb/cy_scb_i2c.h **** * transfers.
 170:Generated_Source\PSoC6\pdl\drivers/peripheral/scb/cy_scb_i2c.h **** *
 171:Generated_Source\PSoC6\pdl\drivers/peripheral/scb/cy_scb_i2c.h **** * \snippet SCB_CompDatasheet_sut_01_revA.cydsn\i2c_snippets.c I2C_ENABLE
 172:Generated_Source\PSoC6\pdl\drivers/peripheral/scb/cy_scb_i2c.h **** *
 173:Generated_Source\PSoC6\pdl\drivers/peripheral/scb/cy_scb_i2c.h **** * \section group_scb_i2c_use_cases Common Use Cases
 174:Generated_Source\PSoC6\pdl\drivers/peripheral/scb/cy_scb_i2c.h **** *
 175:Generated_Source\PSoC6\pdl\drivers/peripheral/scb/cy_scb_i2c.h **** ********************************************************************************
ARM GAS  C:\Users\Austina\AppData\Local\Temp\cc8Iu5MR.s 			page 11


 176:Generated_Source\PSoC6\pdl\drivers/peripheral/scb/cy_scb_i2c.h **** * \subsection group_scb_i2c_master_mode Master Operation
 177:Generated_Source\PSoC6\pdl\drivers/peripheral/scb/cy_scb_i2c.h **** ********************************************************************************
 178:Generated_Source\PSoC6\pdl\drivers/peripheral/scb/cy_scb_i2c.h **** * The master API is divided into two categories:
 179:Generated_Source\PSoC6\pdl\drivers/peripheral/scb/cy_scb_i2c.h **** * \ref group_scb_i2c_master_high_level_functions and
 180:Generated_Source\PSoC6\pdl\drivers/peripheral/scb/cy_scb_i2c.h **** * \ref group_scb_i2c_master_low_level_functions. Therefore, there are two
 181:Generated_Source\PSoC6\pdl\drivers/peripheral/scb/cy_scb_i2c.h **** * methods for initiating I2C master transactions using either <b>Low-Level or
 182:Generated_Source\PSoC6\pdl\drivers/peripheral/scb/cy_scb_i2c.h **** * High-Level</b> API. These two methods are described below. Only one method
 183:Generated_Source\PSoC6\pdl\drivers/peripheral/scb/cy_scb_i2c.h **** * should be used at a time. <b>They should not be mixed.</b>
 184:Generated_Source\PSoC6\pdl\drivers/peripheral/scb/cy_scb_i2c.h **** *
 185:Generated_Source\PSoC6\pdl\drivers/peripheral/scb/cy_scb_i2c.h **** ********************************************************************************
 186:Generated_Source\PSoC6\pdl\drivers/peripheral/scb/cy_scb_i2c.h **** * \subsubsection  group_scb_i2c_master_hl Use High-Level Functions
 187:Generated_Source\PSoC6\pdl\drivers/peripheral/scb/cy_scb_i2c.h **** ********************************************************************************
 188:Generated_Source\PSoC6\pdl\drivers/peripheral/scb/cy_scb_i2c.h **** *  Call \ref Cy_SCB_I2C_MasterRead or \ref Cy_SCB_I2C_MasterWrite to
 189:Generated_Source\PSoC6\pdl\drivers/peripheral/scb/cy_scb_i2c.h **** * communicate with the slave. These functions do not block and only start a
 190:Generated_Source\PSoC6\pdl\drivers/peripheral/scb/cy_scb_i2c.h **** * transaction. After a transaction starts, the \ref Cy_SCB_I2C_Interrupt
 191:Generated_Source\PSoC6\pdl\drivers/peripheral/scb/cy_scb_i2c.h **** * handles further data transaction until its completion (successfully or
 192:Generated_Source\PSoC6\pdl\drivers/peripheral/scb/cy_scb_i2c.h **** * with error occurring). To monitor the transaction,
 193:Generated_Source\PSoC6\pdl\drivers/peripheral/scb/cy_scb_i2c.h **** * use \ref Cy_SCB_I2C_MasterGetStatus or register callback function using
 194:Generated_Source\PSoC6\pdl\drivers/peripheral/scb/cy_scb_i2c.h **** * \ref Cy_SCB_I2C_RegisterEventCallback to be notified about
 195:Generated_Source\PSoC6\pdl\drivers/peripheral/scb/cy_scb_i2c.h **** * \ref group_scb_i2c_macros_callback_events.
 196:Generated_Source\PSoC6\pdl\drivers/peripheral/scb/cy_scb_i2c.h **** *
 197:Generated_Source\PSoC6\pdl\drivers/peripheral/scb/cy_scb_i2c.h **** * \snippet SCB_CompDatasheet_sut_01_revA.cydsn\i2c_snippets.c I2C_MASTER_WRITE_READ_INT
 198:Generated_Source\PSoC6\pdl\drivers/peripheral/scb/cy_scb_i2c.h **** *
 199:Generated_Source\PSoC6\pdl\drivers/peripheral/scb/cy_scb_i2c.h **** ********************************************************************************
 200:Generated_Source\PSoC6\pdl\drivers/peripheral/scb/cy_scb_i2c.h **** * \subsubsection group_scb_i2c_master_ll Use Low-Level Functions
 201:Generated_Source\PSoC6\pdl\drivers/peripheral/scb/cy_scb_i2c.h **** ********************************************************************************
 202:Generated_Source\PSoC6\pdl\drivers/peripheral/scb/cy_scb_i2c.h **** * Call \ref Cy_SCB_I2C_MasterSendStart to generate a start, send an address
 203:Generated_Source\PSoC6\pdl\drivers/peripheral/scb/cy_scb_i2c.h **** * with the Read/Write direction bit, and receive acknowledgment. After the
 204:Generated_Source\PSoC6\pdl\drivers/peripheral/scb/cy_scb_i2c.h **** * address is ACKed by the slave, the transaction can be continued by calling
 205:Generated_Source\PSoC6\pdl\drivers/peripheral/scb/cy_scb_i2c.h **** * \ref Cy_SCB_I2C_MasterReadByte or \ref Cy_SCB_I2C_MasterWriteByte depending
 206:Generated_Source\PSoC6\pdl\drivers/peripheral/scb/cy_scb_i2c.h **** * on its direction. These functions handle one byte per call. Therefore,
 207:Generated_Source\PSoC6\pdl\drivers/peripheral/scb/cy_scb_i2c.h **** * they should be called for each byte in the transaction. Note that for the
 208:Generated_Source\PSoC6\pdl\drivers/peripheral/scb/cy_scb_i2c.h **** * Read transaction, the last byte must be NAKed. To complete the current
 209:Generated_Source\PSoC6\pdl\drivers/peripheral/scb/cy_scb_i2c.h **** * transaction, call \ref Cy_SCB_I2C_MasterSendStop or call
 210:Generated_Source\PSoC6\pdl\drivers/peripheral/scb/cy_scb_i2c.h **** * \ref Cy_SCB_I2C_MasterSendReStart to complete the current transaction and
 211:Generated_Source\PSoC6\pdl\drivers/peripheral/scb/cy_scb_i2c.h **** * start a new one. Typically, do a restart to change the transaction
 212:Generated_Source\PSoC6\pdl\drivers/peripheral/scb/cy_scb_i2c.h **** * direction without releasing the bus from the master control.
 213:Generated_Source\PSoC6\pdl\drivers/peripheral/scb/cy_scb_i2c.h **** * The Low-Level functions are blocking and do not require calling
 214:Generated_Source\PSoC6\pdl\drivers/peripheral/scb/cy_scb_i2c.h **** * \ref Cy_SCB_I2C_Interrupt inside the interrupt handler. Using these
 215:Generated_Source\PSoC6\pdl\drivers/peripheral/scb/cy_scb_i2c.h **** * functions requires extensive knowledge of the I2C protocol to execute
 216:Generated_Source\PSoC6\pdl\drivers/peripheral/scb/cy_scb_i2c.h **** * transactions correctly.
 217:Generated_Source\PSoC6\pdl\drivers/peripheral/scb/cy_scb_i2c.h **** *
 218:Generated_Source\PSoC6\pdl\drivers/peripheral/scb/cy_scb_i2c.h **** * <b>Master Write Operation</b>
 219:Generated_Source\PSoC6\pdl\drivers/peripheral/scb/cy_scb_i2c.h **** * \snippet SCB_CompDatasheet_sut_01_revA.cydsn\i2c_snippets.c I2C_MASTER_WRITE_MANUAL
 220:Generated_Source\PSoC6\pdl\drivers/peripheral/scb/cy_scb_i2c.h **** *
 221:Generated_Source\PSoC6\pdl\drivers/peripheral/scb/cy_scb_i2c.h **** * <b>Master Read Operation</b>
 222:Generated_Source\PSoC6\pdl\drivers/peripheral/scb/cy_scb_i2c.h **** * \snippet SCB_CompDatasheet_sut_01_revA.cydsn\i2c_snippets.c I2C_MASTER_READ_MANUAL
 223:Generated_Source\PSoC6\pdl\drivers/peripheral/scb/cy_scb_i2c.h **** *
 224:Generated_Source\PSoC6\pdl\drivers/peripheral/scb/cy_scb_i2c.h **** ********************************************************************************
 225:Generated_Source\PSoC6\pdl\drivers/peripheral/scb/cy_scb_i2c.h **** * \subsection group_scb_i2c_slave Slave Operation
 226:Generated_Source\PSoC6\pdl\drivers/peripheral/scb/cy_scb_i2c.h **** ********************************************************************************
 227:Generated_Source\PSoC6\pdl\drivers/peripheral/scb/cy_scb_i2c.h **** * Slave operation requires the \ref Cy_SCB_I2C_Interrupt be
 228:Generated_Source\PSoC6\pdl\drivers/peripheral/scb/cy_scb_i2c.h **** * called inside the interrupt handler. The read and write buffers must
 229:Generated_Source\PSoC6\pdl\drivers/peripheral/scb/cy_scb_i2c.h **** * be provided for the slave to enable communication with the master. Use
 230:Generated_Source\PSoC6\pdl\drivers/peripheral/scb/cy_scb_i2c.h **** * \ref Cy_SCB_I2C_SlaveConfigReadBuf and \ref Cy_SCB_I2C_SlaveConfigWriteBuf
 231:Generated_Source\PSoC6\pdl\drivers/peripheral/scb/cy_scb_i2c.h **** * for this purpose. Note that after transaction completion the buffer must be
 232:Generated_Source\PSoC6\pdl\drivers/peripheral/scb/cy_scb_i2c.h **** * configured again. Otherwise, the same buffer is used starting from the point
ARM GAS  C:\Users\Austina\AppData\Local\Temp\cc8Iu5MR.s 			page 12


 233:Generated_Source\PSoC6\pdl\drivers/peripheral/scb/cy_scb_i2c.h **** * where the master stopped a previous transaction.
 234:Generated_Source\PSoC6\pdl\drivers/peripheral/scb/cy_scb_i2c.h **** * For example: The read buffer is configured to be 10 bytes and the master reads
 235:Generated_Source\PSoC6\pdl\drivers/peripheral/scb/cy_scb_i2c.h **** * 8 bytes. If the read buffer is not configured again, the next master read
 236:Generated_Source\PSoC6\pdl\drivers/peripheral/scb/cy_scb_i2c.h **** * will start from the 9th byte.
 237:Generated_Source\PSoC6\pdl\drivers/peripheral/scb/cy_scb_i2c.h **** * To monitor the transaction status, use \ref Cy_SCB_I2C_SlaveGetStatus or
 238:Generated_Source\PSoC6\pdl\drivers/peripheral/scb/cy_scb_i2c.h **** * use \ref Cy_SCB_I2C_RegisterEventCallback to register a callback function
 239:Generated_Source\PSoC6\pdl\drivers/peripheral/scb/cy_scb_i2c.h **** * to be notified about \ref group_scb_i2c_macros_callback_events.
 240:Generated_Source\PSoC6\pdl\drivers/peripheral/scb/cy_scb_i2c.h **** *
 241:Generated_Source\PSoC6\pdl\drivers/peripheral/scb/cy_scb_i2c.h **** * <b>Get Slave Events Notification</b>
 242:Generated_Source\PSoC6\pdl\drivers/peripheral/scb/cy_scb_i2c.h **** * \snippet SCB_CompDatasheet_sut_01_revA.cydsn\i2c_snippets.c I2C_SLAVE_REG_CALLBACK
 243:Generated_Source\PSoC6\pdl\drivers/peripheral/scb/cy_scb_i2c.h **** * \snippet SCB_CompDatasheet_sut_01_revA.cydsn\i2c_snippets.c I2C_SLAVE_NOTIFICATION
 244:Generated_Source\PSoC6\pdl\drivers/peripheral/scb/cy_scb_i2c.h **** *
 245:Generated_Source\PSoC6\pdl\drivers/peripheral/scb/cy_scb_i2c.h **** * <b>Polling Slave Completion Events</b>
 246:Generated_Source\PSoC6\pdl\drivers/peripheral/scb/cy_scb_i2c.h **** * \snippet SCB_CompDatasheet_sut_01_revA.cydsn\i2c_snippets.c I2C_SLAVE_POLLING
 247:Generated_Source\PSoC6\pdl\drivers/peripheral/scb/cy_scb_i2c.h **** *
 248:Generated_Source\PSoC6\pdl\drivers/peripheral/scb/cy_scb_i2c.h **** * \note
 249:Generated_Source\PSoC6\pdl\drivers/peripheral/scb/cy_scb_i2c.h **** * All slave API (except \ref Cy_SCB_I2C_SlaveAbortRead and
 250:Generated_Source\PSoC6\pdl\drivers/peripheral/scb/cy_scb_i2c.h **** * \ref Cy_SCB_I2C_SlaveAbortWrite) <b>are not interrupt-protected</b> and to
 251:Generated_Source\PSoC6\pdl\drivers/peripheral/scb/cy_scb_i2c.h **** * prevent a race condition, they should be protected from the I2C interruption
 252:Generated_Source\PSoC6\pdl\drivers/peripheral/scb/cy_scb_i2c.h **** * in the place where they are called. The code snippet Polling Slave
 253:Generated_Source\PSoC6\pdl\drivers/peripheral/scb/cy_scb_i2c.h **** * Completion Events above shows how to prevent a race condition when detect
 254:Generated_Source\PSoC6\pdl\drivers/peripheral/scb/cy_scb_i2c.h **** * transfer completion and update I2C slave write buffer.
 255:Generated_Source\PSoC6\pdl\drivers/peripheral/scb/cy_scb_i2c.h **** * The simple example of race condition is: application updates slave read
 256:Generated_Source\PSoC6\pdl\drivers/peripheral/scb/cy_scb_i2c.h **** * buffer the I2C master starts read transfer. The I2C interrupts read buffer
 257:Generated_Source\PSoC6\pdl\drivers/peripheral/scb/cy_scb_i2c.h **** * update and I2C interrupt loads current read buffer content in the TX FIFO .
 258:Generated_Source\PSoC6\pdl\drivers/peripheral/scb/cy_scb_i2c.h **** * After I2C interrupt returns the application updates remaining part of the read
 259:Generated_Source\PSoC6\pdl\drivers/peripheral/scb/cy_scb_i2c.h **** * buffer. As a result the mater read partly updated buffer.
 260:Generated_Source\PSoC6\pdl\drivers/peripheral/scb/cy_scb_i2c.h **** *
 261:Generated_Source\PSoC6\pdl\drivers/peripheral/scb/cy_scb_i2c.h **** ********************************************************************************
 262:Generated_Source\PSoC6\pdl\drivers/peripheral/scb/cy_scb_i2c.h **** * \section group_scb_i2c_lp Low Power Support
 263:Generated_Source\PSoC6\pdl\drivers/peripheral/scb/cy_scb_i2c.h **** ********************************************************************************
 264:Generated_Source\PSoC6\pdl\drivers/peripheral/scb/cy_scb_i2c.h **** * The I2C driver provides callback functions to handle power mode transition.
 265:Generated_Source\PSoC6\pdl\drivers/peripheral/scb/cy_scb_i2c.h **** * The callback \ref Cy_SCB_I2C_DeepSleepCallback must be called
 266:Generated_Source\PSoC6\pdl\drivers/peripheral/scb/cy_scb_i2c.h **** * during execution of \ref Cy_SysPm_CpuEnterDeepSleep \ref Cy_SCB_I2C_HibernateCallback
 267:Generated_Source\PSoC6\pdl\drivers/peripheral/scb/cy_scb_i2c.h **** * must be called during execution of \ref Cy_SysPm_SystemEnterHibernate. To trigger the
 268:Generated_Source\PSoC6\pdl\drivers/peripheral/scb/cy_scb_i2c.h **** * callback execution, the callback must be registered before calling the
 269:Generated_Source\PSoC6\pdl\drivers/peripheral/scb/cy_scb_i2c.h **** * power mode transition function. Refer to \ref group_syspm driver for more
 270:Generated_Source\PSoC6\pdl\drivers/peripheral/scb/cy_scb_i2c.h **** * information about power mode transitions and callback registration.
 271:Generated_Source\PSoC6\pdl\drivers/peripheral/scb/cy_scb_i2c.h **** *
 272:Generated_Source\PSoC6\pdl\drivers/peripheral/scb/cy_scb_i2c.h **** * \note
 273:Generated_Source\PSoC6\pdl\drivers/peripheral/scb/cy_scb_i2c.h **** * Only applicable for <b>rev-08 of the CY8CKIT-062-BLE</b>.
 274:Generated_Source\PSoC6\pdl\drivers/peripheral/scb/cy_scb_i2c.h **** * For proper operation, when the I2C slave is configured to be a wakeup
 275:Generated_Source\PSoC6\pdl\drivers/peripheral/scb/cy_scb_i2c.h **** * source from Deep Sleep mode, the \ref Cy_SCB_I2C_DeepSleepCallback must be
 276:Generated_Source\PSoC6\pdl\drivers/peripheral/scb/cy_scb_i2c.h **** * copied and modified. Refer to the function description to get the details.
 277:Generated_Source\PSoC6\pdl\drivers/peripheral/scb/cy_scb_i2c.h **** *
 278:Generated_Source\PSoC6\pdl\drivers/peripheral/scb/cy_scb_i2c.h **** ********************************************************************************
 279:Generated_Source\PSoC6\pdl\drivers/peripheral/scb/cy_scb_i2c.h **** * \section group_scb_i2c_more_information More Information
 280:Generated_Source\PSoC6\pdl\drivers/peripheral/scb/cy_scb_i2c.h **** ********************************************************************************
 281:Generated_Source\PSoC6\pdl\drivers/peripheral/scb/cy_scb_i2c.h **** * For more information on the SCB peripheral, refer to the technical reference
 282:Generated_Source\PSoC6\pdl\drivers/peripheral/scb/cy_scb_i2c.h **** * manual (TRM).
 283:Generated_Source\PSoC6\pdl\drivers/peripheral/scb/cy_scb_i2c.h **** *
 284:Generated_Source\PSoC6\pdl\drivers/peripheral/scb/cy_scb_i2c.h **** ********************************************************************************
 285:Generated_Source\PSoC6\pdl\drivers/peripheral/scb/cy_scb_i2c.h **** * \section group_scb_i2c_MISRA MISRA-C Compliance
 286:Generated_Source\PSoC6\pdl\drivers/peripheral/scb/cy_scb_i2c.h **** ********************************************************************************
 287:Generated_Source\PSoC6\pdl\drivers/peripheral/scb/cy_scb_i2c.h **** * <table class="doxtable">
 288:Generated_Source\PSoC6\pdl\drivers/peripheral/scb/cy_scb_i2c.h **** *   <tr>
 289:Generated_Source\PSoC6\pdl\drivers/peripheral/scb/cy_scb_i2c.h **** *     <th>MISRA Rule</th>
ARM GAS  C:\Users\Austina\AppData\Local\Temp\cc8Iu5MR.s 			page 13


 290:Generated_Source\PSoC6\pdl\drivers/peripheral/scb/cy_scb_i2c.h **** *     <th>Rule Class (Required/Advisory)</th>
 291:Generated_Source\PSoC6\pdl\drivers/peripheral/scb/cy_scb_i2c.h **** *     <th>Rule Description</th>
 292:Generated_Source\PSoC6\pdl\drivers/peripheral/scb/cy_scb_i2c.h **** *     <th>Description of Deviation(s)</th>
 293:Generated_Source\PSoC6\pdl\drivers/peripheral/scb/cy_scb_i2c.h **** *   </tr>
 294:Generated_Source\PSoC6\pdl\drivers/peripheral/scb/cy_scb_i2c.h **** *   <tr>
 295:Generated_Source\PSoC6\pdl\drivers/peripheral/scb/cy_scb_i2c.h **** *     <td>11.4</td>
 296:Generated_Source\PSoC6\pdl\drivers/peripheral/scb/cy_scb_i2c.h **** *     <td>A</td>
 297:Generated_Source\PSoC6\pdl\drivers/peripheral/scb/cy_scb_i2c.h **** *     <td>A cast should not be performed between a pointer to object type and
 298:Generated_Source\PSoC6\pdl\drivers/peripheral/scb/cy_scb_i2c.h **** *         a different pointer to object type.</td>
 299:Generated_Source\PSoC6\pdl\drivers/peripheral/scb/cy_scb_i2c.h **** *     <td>The functions \ref Cy_SCB_I2C_DeepSleepCallback and
 300:Generated_Source\PSoC6\pdl\drivers/peripheral/scb/cy_scb_i2c.h **** *         \ref Cy_SCB_I2C_HibernateCallback are callback of
 301:Generated_Source\PSoC6\pdl\drivers/peripheral/scb/cy_scb_i2c.h **** *         \ref cy_en_syspm_status_t type. The cast operation safety in these
 302:Generated_Source\PSoC6\pdl\drivers/peripheral/scb/cy_scb_i2c.h **** *         functions becomes the user's responsibility because pointers are
 303:Generated_Source\PSoC6\pdl\drivers/peripheral/scb/cy_scb_i2c.h **** *         initialized when callback is registered in SysPm driver.</td>
 304:Generated_Source\PSoC6\pdl\drivers/peripheral/scb/cy_scb_i2c.h **** *   </tr>
 305:Generated_Source\PSoC6\pdl\drivers/peripheral/scb/cy_scb_i2c.h **** *   <tr>
 306:Generated_Source\PSoC6\pdl\drivers/peripheral/scb/cy_scb_i2c.h **** *     <td>14.1</td>
 307:Generated_Source\PSoC6\pdl\drivers/peripheral/scb/cy_scb_i2c.h **** *     <td>R</td>
 308:Generated_Source\PSoC6\pdl\drivers/peripheral/scb/cy_scb_i2c.h **** *     <td>There shall be no unreachable code.</td>
 309:Generated_Source\PSoC6\pdl\drivers/peripheral/scb/cy_scb_i2c.h **** *     <td>The SCB block parameters can be a constant false or true depends on
 310:Generated_Source\PSoC6\pdl\drivers/peripheral/scb/cy_scb_i2c.h **** *         the selected device and cause code to be unreachable.</td>
 311:Generated_Source\PSoC6\pdl\drivers/peripheral/scb/cy_scb_i2c.h **** *   </tr>
 312:Generated_Source\PSoC6\pdl\drivers/peripheral/scb/cy_scb_i2c.h **** *   <tr>
 313:Generated_Source\PSoC6\pdl\drivers/peripheral/scb/cy_scb_i2c.h **** *     <td>13.7</td>
 314:Generated_Source\PSoC6\pdl\drivers/peripheral/scb/cy_scb_i2c.h **** *     <td>R</td>
 315:Generated_Source\PSoC6\pdl\drivers/peripheral/scb/cy_scb_i2c.h **** *     <td>Boolean operations whose results are invariant shall not be
 316:Generated_Source\PSoC6\pdl\drivers/peripheral/scb/cy_scb_i2c.h **** *         permitted.</td>
 317:Generated_Source\PSoC6\pdl\drivers/peripheral/scb/cy_scb_i2c.h **** *     <td>
 318:Generated_Source\PSoC6\pdl\drivers/peripheral/scb/cy_scb_i2c.h **** *         * The SCB block parameters can be a constant false or true depends on
 319:Generated_Source\PSoC6\pdl\drivers/peripheral/scb/cy_scb_i2c.h **** *         the selected device and cause this violation.
 320:Generated_Source\PSoC6\pdl\drivers/peripheral/scb/cy_scb_i2c.h **** *         * The same condition check is executed before and after callback is
 321:Generated_Source\PSoC6\pdl\drivers/peripheral/scb/cy_scb_i2c.h **** *         called because after the callback returns, the condition might be not
 322:Generated_Source\PSoC6\pdl\drivers/peripheral/scb/cy_scb_i2c.h **** *         true any more.</td>
 323:Generated_Source\PSoC6\pdl\drivers/peripheral/scb/cy_scb_i2c.h **** *   </tr>
 324:Generated_Source\PSoC6\pdl\drivers/peripheral/scb/cy_scb_i2c.h **** *   <tr>
 325:Generated_Source\PSoC6\pdl\drivers/peripheral/scb/cy_scb_i2c.h **** *     <td>14.2</td>
 326:Generated_Source\PSoC6\pdl\drivers/peripheral/scb/cy_scb_i2c.h **** *     <td>R</td>
 327:Generated_Source\PSoC6\pdl\drivers/peripheral/scb/cy_scb_i2c.h **** *     <td>All non-null statements shall either: a) have at least one side-effect
 328:Generated_Source\PSoC6\pdl\drivers/peripheral/scb/cy_scb_i2c.h **** *         however executed, or b) cause control flow to change.</td>
 329:Generated_Source\PSoC6\pdl\drivers/peripheral/scb/cy_scb_i2c.h **** *     <td>The unused function parameters are cast to void. This statement
 330:Generated_Source\PSoC6\pdl\drivers/peripheral/scb/cy_scb_i2c.h **** *         has no side-effect and is used to suppress a compiler warning.</td>
 331:Generated_Source\PSoC6\pdl\drivers/peripheral/scb/cy_scb_i2c.h **** *   </tr>
 332:Generated_Source\PSoC6\pdl\drivers/peripheral/scb/cy_scb_i2c.h **** *   <tr>
 333:Generated_Source\PSoC6\pdl\drivers/peripheral/scb/cy_scb_i2c.h **** *     <td>14.7</td>
 334:Generated_Source\PSoC6\pdl\drivers/peripheral/scb/cy_scb_i2c.h **** *     <td>R</td>
 335:Generated_Source\PSoC6\pdl\drivers/peripheral/scb/cy_scb_i2c.h **** *     <td>A function shall have a single point of exit at the end of the
 336:Generated_Source\PSoC6\pdl\drivers/peripheral/scb/cy_scb_i2c.h **** *         function.</td>
 337:Generated_Source\PSoC6\pdl\drivers/peripheral/scb/cy_scb_i2c.h **** *     <td>The functions can return from several points. This is done to improve
 338:Generated_Source\PSoC6\pdl\drivers/peripheral/scb/cy_scb_i2c.h **** *         code clarity when returning error status code if input parameters
 339:Generated_Source\PSoC6\pdl\drivers/peripheral/scb/cy_scb_i2c.h **** *         validation fails.</td>
 340:Generated_Source\PSoC6\pdl\drivers/peripheral/scb/cy_scb_i2c.h **** *   </tr>
 341:Generated_Source\PSoC6\pdl\drivers/peripheral/scb/cy_scb_i2c.h **** * </table>
 342:Generated_Source\PSoC6\pdl\drivers/peripheral/scb/cy_scb_i2c.h **** *
 343:Generated_Source\PSoC6\pdl\drivers/peripheral/scb/cy_scb_i2c.h **** * \section group_scb_i2c_changelog Changelog
 344:Generated_Source\PSoC6\pdl\drivers/peripheral/scb/cy_scb_i2c.h **** * <table class="doxtable">
 345:Generated_Source\PSoC6\pdl\drivers/peripheral/scb/cy_scb_i2c.h **** *   <tr><th>Version</th><th>Changes</th><th>Reason for Change</th></tr>
 346:Generated_Source\PSoC6\pdl\drivers/peripheral/scb/cy_scb_i2c.h **** *   <tr>
ARM GAS  C:\Users\Austina\AppData\Local\Temp\cc8Iu5MR.s 			page 14


 347:Generated_Source\PSoC6\pdl\drivers/peripheral/scb/cy_scb_i2c.h **** *     <td rowspan="4"> 2.20</td>
 348:Generated_Source\PSoC6\pdl\drivers/peripheral/scb/cy_scb_i2c.h **** *     <td>Flattened the organization of the driver source code into the single
 349:Generated_Source\PSoC6\pdl\drivers/peripheral/scb/cy_scb_i2c.h **** *         source directory and the single include directory.
 350:Generated_Source\PSoC6\pdl\drivers/peripheral/scb/cy_scb_i2c.h **** *     </td>
 351:Generated_Source\PSoC6\pdl\drivers/peripheral/scb/cy_scb_i2c.h **** *     <td>Driver library directory-structure simplification.</td>
 352:Generated_Source\PSoC6\pdl\drivers/peripheral/scb/cy_scb_i2c.h **** *   </tr>
 353:Generated_Source\PSoC6\pdl\drivers/peripheral/scb/cy_scb_i2c.h **** *   <tr>
 354:Generated_Source\PSoC6\pdl\drivers/peripheral/scb/cy_scb_i2c.h **** *     <td>Added the enableDigitalFilter, highPhaseDutyCycle and lowPhaseDutyCycle
 355:Generated_Source\PSoC6\pdl\drivers/peripheral/scb/cy_scb_i2c.h **** *         fields to the \ref cy_stc_scb_i2c_config_t configuration structure.
 356:Generated_Source\PSoC6\pdl\drivers/peripheral/scb/cy_scb_i2c.h **** *     </td>
 357:Generated_Source\PSoC6\pdl\drivers/peripheral/scb/cy_scb_i2c.h **** *     <td>Added the I2C master data rate configuration using the configuration structure.
 358:Generated_Source\PSoC6\pdl\drivers/peripheral/scb/cy_scb_i2c.h **** *     </td>
 359:Generated_Source\PSoC6\pdl\drivers/peripheral/scb/cy_scb_i2c.h **** *   </tr>
 360:Generated_Source\PSoC6\pdl\drivers/peripheral/scb/cy_scb_i2c.h **** *   <tr>
 361:Generated_Source\PSoC6\pdl\drivers/peripheral/scb/cy_scb_i2c.h **** *     <td>Fixed the \ref Cy_SCB_I2C_SetDataRate function to properly configure data rates
 362:Generated_Source\PSoC6\pdl\drivers/peripheral/scb/cy_scb_i2c.h **** *         greater than 400 kbps in Master and Master-Slave modes. \n
 363:Generated_Source\PSoC6\pdl\drivers/peripheral/scb/cy_scb_i2c.h **** *         Added verification that clk_scb is within the valid range for the desired data rate.
 364:Generated_Source\PSoC6\pdl\drivers/peripheral/scb/cy_scb_i2c.h **** *     </td>
 365:Generated_Source\PSoC6\pdl\drivers/peripheral/scb/cy_scb_i2c.h **** *     <td>The analog filter was enabled for all data rates in Master and Master-Slave modes.
 366:Generated_Source\PSoC6\pdl\drivers/peripheral/scb/cy_scb_i2c.h **** *         This prevents reaching the maximum supported data rate of 1000 kbps which requires a digi
 367:Generated_Source\PSoC6\pdl\drivers/peripheral/scb/cy_scb_i2c.h **** *     </td>
 368:Generated_Source\PSoC6\pdl\drivers/peripheral/scb/cy_scb_i2c.h **** *   </tr>
 369:Generated_Source\PSoC6\pdl\drivers/peripheral/scb/cy_scb_i2c.h **** *   <tr>
 370:Generated_Source\PSoC6\pdl\drivers/peripheral/scb/cy_scb_i2c.h **** *     <td>Added register access layer. Use register access macros instead
 371:Generated_Source\PSoC6\pdl\drivers/peripheral/scb/cy_scb_i2c.h **** *         of direct register access using dereferenced pointers.</td>
 372:Generated_Source\PSoC6\pdl\drivers/peripheral/scb/cy_scb_i2c.h **** *     <td>Makes register access device-independent, so that the PDL does
 373:Generated_Source\PSoC6\pdl\drivers/peripheral/scb/cy_scb_i2c.h **** *         not need to be recompiled for each supported part number.</td>
 374:Generated_Source\PSoC6\pdl\drivers/peripheral/scb/cy_scb_i2c.h **** *   </tr>
 375:Generated_Source\PSoC6\pdl\drivers/peripheral/scb/cy_scb_i2c.h **** *   <tr>
 376:Generated_Source\PSoC6\pdl\drivers/peripheral/scb/cy_scb_i2c.h **** *     <td rowspan="4"> 2.10</td>
 377:Generated_Source\PSoC6\pdl\drivers/peripheral/scb/cy_scb_i2c.h **** *     <td>Fixed the ReStart condition generation sequence for a write
 378:Generated_Source\PSoC6\pdl\drivers/peripheral/scb/cy_scb_i2c.h **** *         transaction in the \ref Cy_SCB_I2C_MasterWrite function.</td>
 379:Generated_Source\PSoC6\pdl\drivers/peripheral/scb/cy_scb_i2c.h **** *     <td>The driver can notify about a zero length write transaction completion
 380:Generated_Source\PSoC6\pdl\drivers/peripheral/scb/cy_scb_i2c.h **** *         before the address byte is sent if the \ref Cy_SCB_I2C_MasterWrite
 381:Generated_Source\PSoC6\pdl\drivers/peripheral/scb/cy_scb_i2c.h **** *         function execution was interrupted between setting the restart
 382:Generated_Source\PSoC6\pdl\drivers/peripheral/scb/cy_scb_i2c.h **** *         generation command and writing the address byte into the TX FIFO.</td>
 383:Generated_Source\PSoC6\pdl\drivers/peripheral/scb/cy_scb_i2c.h **** *   </tr>
 384:Generated_Source\PSoC6\pdl\drivers/peripheral/scb/cy_scb_i2c.h **** *   <tr>
 385:Generated_Source\PSoC6\pdl\drivers/peripheral/scb/cy_scb_i2c.h **** *     <td>Added the slave- and master-specific interrupt functions:
 386:Generated_Source\PSoC6\pdl\drivers/peripheral/scb/cy_scb_i2c.h **** *         \ref Cy_SCB_I2C_SlaveInterrupt and \ref Cy_SCB_I2C_MasterInterrupt.
 387:Generated_Source\PSoC6\pdl\drivers/peripheral/scb/cy_scb_i2c.h **** *     </td>
 388:Generated_Source\PSoC6\pdl\drivers/peripheral/scb/cy_scb_i2c.h **** *     <td>Improved the interrupt configuration options for the I2C slave and
 389:Generated_Source\PSoC6\pdl\drivers/peripheral/scb/cy_scb_i2c.h **** *         master mode configurations.</td>
 390:Generated_Source\PSoC6\pdl\drivers/peripheral/scb/cy_scb_i2c.h **** *   </tr>
 391:Generated_Source\PSoC6\pdl\drivers/peripheral/scb/cy_scb_i2c.h **** *   <tr>
 392:Generated_Source\PSoC6\pdl\drivers/peripheral/scb/cy_scb_i2c.h **** *     <td>Updated the Start condition generation sequence in the \ref
 393:Generated_Source\PSoC6\pdl\drivers/peripheral/scb/cy_scb_i2c.h **** *         Cy_SCB_I2C_MasterWrite and \ref Cy_SCB_I2C_MasterRead.</td>
 394:Generated_Source\PSoC6\pdl\drivers/peripheral/scb/cy_scb_i2c.h **** *     <td></td>
 395:Generated_Source\PSoC6\pdl\drivers/peripheral/scb/cy_scb_i2c.h **** *   </tr>
 396:Generated_Source\PSoC6\pdl\drivers/peripheral/scb/cy_scb_i2c.h **** *   <tr>
 397:Generated_Source\PSoC6\pdl\drivers/peripheral/scb/cy_scb_i2c.h **** *     <td>Updated the ReStart condition generation sequence for a write
 398:Generated_Source\PSoC6\pdl\drivers/peripheral/scb/cy_scb_i2c.h **** *         transaction in the \ref Cy_SCB_I2C_MasterSendReStart function.</td>
 399:Generated_Source\PSoC6\pdl\drivers/peripheral/scb/cy_scb_i2c.h **** *     <td></td>
 400:Generated_Source\PSoC6\pdl\drivers/peripheral/scb/cy_scb_i2c.h **** *   </tr>
 401:Generated_Source\PSoC6\pdl\drivers/peripheral/scb/cy_scb_i2c.h **** *   <tr>
 402:Generated_Source\PSoC6\pdl\drivers/peripheral/scb/cy_scb_i2c.h **** *     <td rowspan="5"> 2.0</td>
 403:Generated_Source\PSoC6\pdl\drivers/peripheral/scb/cy_scb_i2c.h **** *     <td>Fixed the \ref Cy_SCB_I2C_MasterSendReStart function to properly
ARM GAS  C:\Users\Austina\AppData\Local\Temp\cc8Iu5MR.s 			page 15


 404:Generated_Source\PSoC6\pdl\drivers/peripheral/scb/cy_scb_i2c.h **** *         generate the ReStart condition when the previous transaction was
 405:Generated_Source\PSoC6\pdl\drivers/peripheral/scb/cy_scb_i2c.h **** *         a write.</td>
 406:Generated_Source\PSoC6\pdl\drivers/peripheral/scb/cy_scb_i2c.h **** *     <td>The master interpreted the address byte written into the TX FIFO as a
 407:Generated_Source\PSoC6\pdl\drivers/peripheral/scb/cy_scb_i2c.h **** *         data byte and continued a write transaction. The ReStart condition was
 408:Generated_Source\PSoC6\pdl\drivers/peripheral/scb/cy_scb_i2c.h **** *         generated after the master completed transferring the data byte.
 409:Generated_Source\PSoC6\pdl\drivers/peripheral/scb/cy_scb_i2c.h **** *         The SCL line was stretched by the master waiting for the address byte
 410:Generated_Source\PSoC6\pdl\drivers/peripheral/scb/cy_scb_i2c.h **** *         to be written into the TX FIFO after the ReStart condition generation.
 411:Generated_Source\PSoC6\pdl\drivers/peripheral/scb/cy_scb_i2c.h **** *         The following timeout detection released the bus from the master
 412:Generated_Source\PSoC6\pdl\drivers/peripheral/scb/cy_scb_i2c.h **** *         control.</td>
 413:Generated_Source\PSoC6\pdl\drivers/peripheral/scb/cy_scb_i2c.h **** *   </tr>
 414:Generated_Source\PSoC6\pdl\drivers/peripheral/scb/cy_scb_i2c.h **** *   <tr>
 415:Generated_Source\PSoC6\pdl\drivers/peripheral/scb/cy_scb_i2c.h **** *     <td>Fixed the slave operation after the address byte was NACKed by the
 416:Generated_Source\PSoC6\pdl\drivers/peripheral/scb/cy_scb_i2c.h **** *         firmware.</td>
 417:Generated_Source\PSoC6\pdl\drivers/peripheral/scb/cy_scb_i2c.h **** *     <td>The observed slave operation failure depends on whether Level 2 assert
 418:Generated_Source\PSoC6\pdl\drivers/peripheral/scb/cy_scb_i2c.h **** *         is enabled or not. Enabled: the device stuck in the fault handler due
 419:Generated_Source\PSoC6\pdl\drivers/peripheral/scb/cy_scb_i2c.h **** *         to the assert assignment in the \ref Cy_SCB_I2C_Interrupt. Disabled:
 420:Generated_Source\PSoC6\pdl\drivers/peripheral/scb/cy_scb_i2c.h **** *         the slave sets the transaction completion status and notifies on the
 421:Generated_Source\PSoC6\pdl\drivers/peripheral/scb/cy_scb_i2c.h **** *         transaction completion event after the address was NACKed. The failure
 422:Generated_Source\PSoC6\pdl\drivers/peripheral/scb/cy_scb_i2c.h **** *         is observed only when the slave is configured to accept an address in
 423:Generated_Source\PSoC6\pdl\drivers/peripheral/scb/cy_scb_i2c.h **** *         the RX FIFO.</td>
 424:Generated_Source\PSoC6\pdl\drivers/peripheral/scb/cy_scb_i2c.h **** *   </tr>
 425:Generated_Source\PSoC6\pdl\drivers/peripheral/scb/cy_scb_i2c.h **** *   <tr>
 426:Generated_Source\PSoC6\pdl\drivers/peripheral/scb/cy_scb_i2c.h **** *     <td>Added parameters validation for public API.</td>
 427:Generated_Source\PSoC6\pdl\drivers/peripheral/scb/cy_scb_i2c.h **** *     <td></td>
 428:Generated_Source\PSoC6\pdl\drivers/peripheral/scb/cy_scb_i2c.h **** *   </tr>
 429:Generated_Source\PSoC6\pdl\drivers/peripheral/scb/cy_scb_i2c.h **** *   <tr>
 430:Generated_Source\PSoC6\pdl\drivers/peripheral/scb/cy_scb_i2c.h **** *     <td>Replaced variables which have limited range of values with enumerated
 431:Generated_Source\PSoC6\pdl\drivers/peripheral/scb/cy_scb_i2c.h **** *         types.</td>
 432:Generated_Source\PSoC6\pdl\drivers/peripheral/scb/cy_scb_i2c.h **** *     <td></td>
 433:Generated_Source\PSoC6\pdl\drivers/peripheral/scb/cy_scb_i2c.h **** *   </tr>
 434:Generated_Source\PSoC6\pdl\drivers/peripheral/scb/cy_scb_i2c.h **** *   <tr>
 435:Generated_Source\PSoC6\pdl\drivers/peripheral/scb/cy_scb_i2c.h **** *     <td>Added missing "cy_cb_" to the callback function type names.</td>
 436:Generated_Source\PSoC6\pdl\drivers/peripheral/scb/cy_scb_i2c.h **** *     <td></td>
 437:Generated_Source\PSoC6\pdl\drivers/peripheral/scb/cy_scb_i2c.h **** *   </tr>
 438:Generated_Source\PSoC6\pdl\drivers/peripheral/scb/cy_scb_i2c.h **** *   <tr>
 439:Generated_Source\PSoC6\pdl\drivers/peripheral/scb/cy_scb_i2c.h **** *     <td>1.0</td>
 440:Generated_Source\PSoC6\pdl\drivers/peripheral/scb/cy_scb_i2c.h **** *     <td>Initial version.</td>
 441:Generated_Source\PSoC6\pdl\drivers/peripheral/scb/cy_scb_i2c.h **** *     <td></td>
 442:Generated_Source\PSoC6\pdl\drivers/peripheral/scb/cy_scb_i2c.h **** *   </tr>
 443:Generated_Source\PSoC6\pdl\drivers/peripheral/scb/cy_scb_i2c.h **** * </table>
 444:Generated_Source\PSoC6\pdl\drivers/peripheral/scb/cy_scb_i2c.h **** *
 445:Generated_Source\PSoC6\pdl\drivers/peripheral/scb/cy_scb_i2c.h **** * \defgroup group_scb_i2c_macros Macros
 446:Generated_Source\PSoC6\pdl\drivers/peripheral/scb/cy_scb_i2c.h **** * \defgroup group_scb_i2c_functions Functions
 447:Generated_Source\PSoC6\pdl\drivers/peripheral/scb/cy_scb_i2c.h **** * \{
 448:Generated_Source\PSoC6\pdl\drivers/peripheral/scb/cy_scb_i2c.h **** * \defgroup group_scb_i2c_general_functions General
 449:Generated_Source\PSoC6\pdl\drivers/peripheral/scb/cy_scb_i2c.h **** * \defgroup group_scb_i2c_slave_functions Slave
 450:Generated_Source\PSoC6\pdl\drivers/peripheral/scb/cy_scb_i2c.h **** * \defgroup group_scb_i2c_master_high_level_functions Master High-Level
 451:Generated_Source\PSoC6\pdl\drivers/peripheral/scb/cy_scb_i2c.h **** * \defgroup group_scb_i2c_master_low_level_functions Master Low-Level
 452:Generated_Source\PSoC6\pdl\drivers/peripheral/scb/cy_scb_i2c.h **** * \defgroup group_scb_i2c_interrupt_functions Interrupt
 453:Generated_Source\PSoC6\pdl\drivers/peripheral/scb/cy_scb_i2c.h **** * \defgroup group_scb_i2c_low_power_functions Low Power Callbacks
 454:Generated_Source\PSoC6\pdl\drivers/peripheral/scb/cy_scb_i2c.h **** * \}
 455:Generated_Source\PSoC6\pdl\drivers/peripheral/scb/cy_scb_i2c.h **** * \defgroup group_scb_i2c_data_structures Data Structures
 456:Generated_Source\PSoC6\pdl\drivers/peripheral/scb/cy_scb_i2c.h **** * \defgroup group_scb_i2c_enums Enumerated Types
 457:Generated_Source\PSoC6\pdl\drivers/peripheral/scb/cy_scb_i2c.h **** */
 458:Generated_Source\PSoC6\pdl\drivers/peripheral/scb/cy_scb_i2c.h **** 
 459:Generated_Source\PSoC6\pdl\drivers/peripheral/scb/cy_scb_i2c.h **** #if !defined(CY_SCB_I2C_H)
 460:Generated_Source\PSoC6\pdl\drivers/peripheral/scb/cy_scb_i2c.h **** #define CY_SCB_I2C_H
ARM GAS  C:\Users\Austina\AppData\Local\Temp\cc8Iu5MR.s 			page 16


 461:Generated_Source\PSoC6\pdl\drivers/peripheral/scb/cy_scb_i2c.h **** 
 462:Generated_Source\PSoC6\pdl\drivers/peripheral/scb/cy_scb_i2c.h **** #include "cy_scb_common.h"
 463:Generated_Source\PSoC6\pdl\drivers/peripheral/scb/cy_scb_i2c.h **** 
 464:Generated_Source\PSoC6\pdl\drivers/peripheral/scb/cy_scb_i2c.h **** #if defined(__cplusplus)
 465:Generated_Source\PSoC6\pdl\drivers/peripheral/scb/cy_scb_i2c.h **** extern "C" {
 466:Generated_Source\PSoC6\pdl\drivers/peripheral/scb/cy_scb_i2c.h **** #endif
 467:Generated_Source\PSoC6\pdl\drivers/peripheral/scb/cy_scb_i2c.h **** 
 468:Generated_Source\PSoC6\pdl\drivers/peripheral/scb/cy_scb_i2c.h **** /*******************************************************************************
 469:Generated_Source\PSoC6\pdl\drivers/peripheral/scb/cy_scb_i2c.h **** *                            Enumerated Types
 470:Generated_Source\PSoC6\pdl\drivers/peripheral/scb/cy_scb_i2c.h **** *******************************************************************************/
 471:Generated_Source\PSoC6\pdl\drivers/peripheral/scb/cy_scb_i2c.h **** 
 472:Generated_Source\PSoC6\pdl\drivers/peripheral/scb/cy_scb_i2c.h **** /**
 473:Generated_Source\PSoC6\pdl\drivers/peripheral/scb/cy_scb_i2c.h **** * \addtogroup group_scb_i2c_enums
 474:Generated_Source\PSoC6\pdl\drivers/peripheral/scb/cy_scb_i2c.h **** * \{
 475:Generated_Source\PSoC6\pdl\drivers/peripheral/scb/cy_scb_i2c.h **** */
 476:Generated_Source\PSoC6\pdl\drivers/peripheral/scb/cy_scb_i2c.h **** 
 477:Generated_Source\PSoC6\pdl\drivers/peripheral/scb/cy_scb_i2c.h **** /** I2C status codes */
 478:Generated_Source\PSoC6\pdl\drivers/peripheral/scb/cy_scb_i2c.h **** typedef enum
 479:Generated_Source\PSoC6\pdl\drivers/peripheral/scb/cy_scb_i2c.h **** {
 480:Generated_Source\PSoC6\pdl\drivers/peripheral/scb/cy_scb_i2c.h ****     /** Operation completed successfully */
 481:Generated_Source\PSoC6\pdl\drivers/peripheral/scb/cy_scb_i2c.h ****     CY_SCB_I2C_SUCCESS = 0U,
 482:Generated_Source\PSoC6\pdl\drivers/peripheral/scb/cy_scb_i2c.h **** 
 483:Generated_Source\PSoC6\pdl\drivers/peripheral/scb/cy_scb_i2c.h ****     /** One or more of input parameters are invalid */
 484:Generated_Source\PSoC6\pdl\drivers/peripheral/scb/cy_scb_i2c.h ****     CY_SCB_I2C_BAD_PARAM = (CY_SCB_ID | CY_PDL_STATUS_ERROR | CY_SCB_I2C_ID | 1U),
 485:Generated_Source\PSoC6\pdl\drivers/peripheral/scb/cy_scb_i2c.h **** 
 486:Generated_Source\PSoC6\pdl\drivers/peripheral/scb/cy_scb_i2c.h ****     /**
 487:Generated_Source\PSoC6\pdl\drivers/peripheral/scb/cy_scb_i2c.h ****     * The master is not ready to start a new transaction.
 488:Generated_Source\PSoC6\pdl\drivers/peripheral/scb/cy_scb_i2c.h ****     * Either the master is still processing a previous transaction or in the
 489:Generated_Source\PSoC6\pdl\drivers/peripheral/scb/cy_scb_i2c.h ****     * master-slave mode, the slave operation is in progress.
 490:Generated_Source\PSoC6\pdl\drivers/peripheral/scb/cy_scb_i2c.h ****     */
 491:Generated_Source\PSoC6\pdl\drivers/peripheral/scb/cy_scb_i2c.h ****     CY_SCB_I2C_MASTER_NOT_READY = (CY_SCB_ID | CY_PDL_STATUS_ERROR | CY_SCB_I2C_ID | 2U),
 492:Generated_Source\PSoC6\pdl\drivers/peripheral/scb/cy_scb_i2c.h **** 
 493:Generated_Source\PSoC6\pdl\drivers/peripheral/scb/cy_scb_i2c.h ****     /**
 494:Generated_Source\PSoC6\pdl\drivers/peripheral/scb/cy_scb_i2c.h ****     * The master operation timed out before completing. Applicable only for
 495:Generated_Source\PSoC6\pdl\drivers/peripheral/scb/cy_scb_i2c.h ****     * the \ref group_scb_i2c_master_low_level_functions functions.
 496:Generated_Source\PSoC6\pdl\drivers/peripheral/scb/cy_scb_i2c.h ****     */
 497:Generated_Source\PSoC6\pdl\drivers/peripheral/scb/cy_scb_i2c.h ****     CY_SCB_I2C_MASTER_MANUAL_TIMEOUT = (CY_SCB_ID | CY_PDL_STATUS_ERROR | CY_SCB_I2C_ID | 3U),
 498:Generated_Source\PSoC6\pdl\drivers/peripheral/scb/cy_scb_i2c.h **** 
 499:Generated_Source\PSoC6\pdl\drivers/peripheral/scb/cy_scb_i2c.h ****     /** The slave NACKed the address. Applicable only for the
 500:Generated_Source\PSoC6\pdl\drivers/peripheral/scb/cy_scb_i2c.h ****     * \ref group_scb_i2c_master_low_level_functions functions.
 501:Generated_Source\PSoC6\pdl\drivers/peripheral/scb/cy_scb_i2c.h ****     */
 502:Generated_Source\PSoC6\pdl\drivers/peripheral/scb/cy_scb_i2c.h ****     CY_SCB_I2C_MASTER_MANUAL_ADDR_NAK = (CY_SCB_ID | CY_PDL_STATUS_ERROR | CY_SCB_I2C_ID | 4U),
 503:Generated_Source\PSoC6\pdl\drivers/peripheral/scb/cy_scb_i2c.h **** 
 504:Generated_Source\PSoC6\pdl\drivers/peripheral/scb/cy_scb_i2c.h ****     /** The slave NACKed the data byte.  Applicable only for the
 505:Generated_Source\PSoC6\pdl\drivers/peripheral/scb/cy_scb_i2c.h ****     * \ref group_scb_i2c_master_low_level_functions.
 506:Generated_Source\PSoC6\pdl\drivers/peripheral/scb/cy_scb_i2c.h ****     */
 507:Generated_Source\PSoC6\pdl\drivers/peripheral/scb/cy_scb_i2c.h ****     CY_SCB_I2C_MASTER_MANUAL_NAK = (CY_SCB_ID | CY_PDL_STATUS_ERROR | CY_SCB_I2C_ID | 5U),
 508:Generated_Source\PSoC6\pdl\drivers/peripheral/scb/cy_scb_i2c.h **** 
 509:Generated_Source\PSoC6\pdl\drivers/peripheral/scb/cy_scb_i2c.h ****     /**
 510:Generated_Source\PSoC6\pdl\drivers/peripheral/scb/cy_scb_i2c.h ****     * The master lost arbitration, the transaction was aborted. Applicable only
 511:Generated_Source\PSoC6\pdl\drivers/peripheral/scb/cy_scb_i2c.h ****     * for the \ref group_scb_i2c_master_low_level_functions functions.
 512:Generated_Source\PSoC6\pdl\drivers/peripheral/scb/cy_scb_i2c.h ****     */
 513:Generated_Source\PSoC6\pdl\drivers/peripheral/scb/cy_scb_i2c.h ****     CY_SCB_I2C_MASTER_MANUAL_ARB_LOST = (CY_SCB_ID | CY_PDL_STATUS_ERROR | CY_SCB_I2C_ID | 6U),
 514:Generated_Source\PSoC6\pdl\drivers/peripheral/scb/cy_scb_i2c.h **** 
 515:Generated_Source\PSoC6\pdl\drivers/peripheral/scb/cy_scb_i2c.h ****     /**
 516:Generated_Source\PSoC6\pdl\drivers/peripheral/scb/cy_scb_i2c.h ****     * The master detected an erroneous start or stop, the transaction was
 517:Generated_Source\PSoC6\pdl\drivers/peripheral/scb/cy_scb_i2c.h ****     * aborted. Applicable only for the
ARM GAS  C:\Users\Austina\AppData\Local\Temp\cc8Iu5MR.s 			page 17


 518:Generated_Source\PSoC6\pdl\drivers/peripheral/scb/cy_scb_i2c.h ****     * \ref group_scb_i2c_master_low_level_functions functions.
 519:Generated_Source\PSoC6\pdl\drivers/peripheral/scb/cy_scb_i2c.h ****     */
 520:Generated_Source\PSoC6\pdl\drivers/peripheral/scb/cy_scb_i2c.h ****     CY_SCB_I2C_MASTER_MANUAL_BUS_ERR = (CY_SCB_ID | CY_PDL_STATUS_ERROR | CY_SCB_I2C_ID | 7U),
 521:Generated_Source\PSoC6\pdl\drivers/peripheral/scb/cy_scb_i2c.h **** 
 522:Generated_Source\PSoC6\pdl\drivers/peripheral/scb/cy_scb_i2c.h ****     /**
 523:Generated_Source\PSoC6\pdl\drivers/peripheral/scb/cy_scb_i2c.h ****     * The master transaction was aborted and the slave transaction is on-going
 524:Generated_Source\PSoC6\pdl\drivers/peripheral/scb/cy_scb_i2c.h ****     * because the slave was addressed before the master generated a start.
 525:Generated_Source\PSoC6\pdl\drivers/peripheral/scb/cy_scb_i2c.h ****     * Applicable only for the \ref group_scb_i2c_master_low_level_functions
 526:Generated_Source\PSoC6\pdl\drivers/peripheral/scb/cy_scb_i2c.h ****     * functions.
 527:Generated_Source\PSoC6\pdl\drivers/peripheral/scb/cy_scb_i2c.h ****     */
 528:Generated_Source\PSoC6\pdl\drivers/peripheral/scb/cy_scb_i2c.h ****     CY_SCB_I2C_MASTER_MANUAL_ABORT_START = (CY_SCB_ID | CY_PDL_STATUS_ERROR | CY_SCB_I2C_ID | 8U)
 529:Generated_Source\PSoC6\pdl\drivers/peripheral/scb/cy_scb_i2c.h **** } cy_en_scb_i2c_status_t;
 530:Generated_Source\PSoC6\pdl\drivers/peripheral/scb/cy_scb_i2c.h **** 
 531:Generated_Source\PSoC6\pdl\drivers/peripheral/scb/cy_scb_i2c.h **** /** I2C Operation Modes */
 532:Generated_Source\PSoC6\pdl\drivers/peripheral/scb/cy_scb_i2c.h **** typedef enum
 533:Generated_Source\PSoC6\pdl\drivers/peripheral/scb/cy_scb_i2c.h **** {
 534:Generated_Source\PSoC6\pdl\drivers/peripheral/scb/cy_scb_i2c.h ****     CY_SCB_I2C_SLAVE        = 1U,    /**< Configures SCB for I2C Slave operation */
 535:Generated_Source\PSoC6\pdl\drivers/peripheral/scb/cy_scb_i2c.h ****     CY_SCB_I2C_MASTER       = 2U,    /**< Configures SCB for I2C Master operation */
 536:Generated_Source\PSoC6\pdl\drivers/peripheral/scb/cy_scb_i2c.h ****     CY_SCB_I2C_MASTER_SLAVE = 3U,    /**< Configures SCB for I2C Master-Slave operation */
 537:Generated_Source\PSoC6\pdl\drivers/peripheral/scb/cy_scb_i2c.h **** } cy_en_scb_i2c_mode_t;
 538:Generated_Source\PSoC6\pdl\drivers/peripheral/scb/cy_scb_i2c.h **** 
 539:Generated_Source\PSoC6\pdl\drivers/peripheral/scb/cy_scb_i2c.h **** /** I2C Transaction Direction */
 540:Generated_Source\PSoC6\pdl\drivers/peripheral/scb/cy_scb_i2c.h **** typedef enum
 541:Generated_Source\PSoC6\pdl\drivers/peripheral/scb/cy_scb_i2c.h **** {
 542:Generated_Source\PSoC6\pdl\drivers/peripheral/scb/cy_scb_i2c.h ****     CY_SCB_I2C_WRITE_XFER = 0U,  /**< Current transaction is Write */
 543:Generated_Source\PSoC6\pdl\drivers/peripheral/scb/cy_scb_i2c.h ****     CY_SCB_I2C_READ_XFER  = 1U,  /**< Current transaction is Read */
 544:Generated_Source\PSoC6\pdl\drivers/peripheral/scb/cy_scb_i2c.h **** } cy_en_scb_i2c_direction_t;
 545:Generated_Source\PSoC6\pdl\drivers/peripheral/scb/cy_scb_i2c.h **** 
 546:Generated_Source\PSoC6\pdl\drivers/peripheral/scb/cy_scb_i2c.h **** /** I2C Command ACK / NAK */
 547:Generated_Source\PSoC6\pdl\drivers/peripheral/scb/cy_scb_i2c.h **** typedef enum
 548:Generated_Source\PSoC6\pdl\drivers/peripheral/scb/cy_scb_i2c.h **** {
 549:Generated_Source\PSoC6\pdl\drivers/peripheral/scb/cy_scb_i2c.h ****     CY_SCB_I2C_ACK,     /**< Send ACK to current byte */
 550:Generated_Source\PSoC6\pdl\drivers/peripheral/scb/cy_scb_i2c.h ****     CY_SCB_I2C_NAK,     /**< Send NAK to current byte */
 551:Generated_Source\PSoC6\pdl\drivers/peripheral/scb/cy_scb_i2c.h **** } cy_en_scb_i2c_command_t;
 552:Generated_Source\PSoC6\pdl\drivers/peripheral/scb/cy_scb_i2c.h **** /** \} group_scb_i2c_enums */
 553:Generated_Source\PSoC6\pdl\drivers/peripheral/scb/cy_scb_i2c.h **** 
 554:Generated_Source\PSoC6\pdl\drivers/peripheral/scb/cy_scb_i2c.h **** 
 555:Generated_Source\PSoC6\pdl\drivers/peripheral/scb/cy_scb_i2c.h **** /*******************************************************************************
 556:Generated_Source\PSoC6\pdl\drivers/peripheral/scb/cy_scb_i2c.h **** *                              Type Definitions
 557:Generated_Source\PSoC6\pdl\drivers/peripheral/scb/cy_scb_i2c.h **** *******************************************************************************/
 558:Generated_Source\PSoC6\pdl\drivers/peripheral/scb/cy_scb_i2c.h **** 
 559:Generated_Source\PSoC6\pdl\drivers/peripheral/scb/cy_scb_i2c.h **** /**
 560:Generated_Source\PSoC6\pdl\drivers/peripheral/scb/cy_scb_i2c.h **** * \addtogroup group_scb_i2c_data_structures
 561:Generated_Source\PSoC6\pdl\drivers/peripheral/scb/cy_scb_i2c.h **** * \{
 562:Generated_Source\PSoC6\pdl\drivers/peripheral/scb/cy_scb_i2c.h **** */
 563:Generated_Source\PSoC6\pdl\drivers/peripheral/scb/cy_scb_i2c.h **** 
 564:Generated_Source\PSoC6\pdl\drivers/peripheral/scb/cy_scb_i2c.h **** /**
 565:Generated_Source\PSoC6\pdl\drivers/peripheral/scb/cy_scb_i2c.h **** * Provides the typedef for the callback function called in the
 566:Generated_Source\PSoC6\pdl\drivers/peripheral/scb/cy_scb_i2c.h **** * \ref Cy_SCB_I2C_Interrupt to notify the user about occurrences of
 567:Generated_Source\PSoC6\pdl\drivers/peripheral/scb/cy_scb_i2c.h **** * \ref group_scb_i2c_macros_callback_events.
 568:Generated_Source\PSoC6\pdl\drivers/peripheral/scb/cy_scb_i2c.h **** */
 569:Generated_Source\PSoC6\pdl\drivers/peripheral/scb/cy_scb_i2c.h **** typedef void (* cy_cb_scb_i2c_handle_events_t)(uint32_t event);
 570:Generated_Source\PSoC6\pdl\drivers/peripheral/scb/cy_scb_i2c.h **** 
 571:Generated_Source\PSoC6\pdl\drivers/peripheral/scb/cy_scb_i2c.h **** /**
 572:Generated_Source\PSoC6\pdl\drivers/peripheral/scb/cy_scb_i2c.h **** * Provides the typedef for the callback function called in the
 573:Generated_Source\PSoC6\pdl\drivers/peripheral/scb/cy_scb_i2c.h **** * \ref Cy_SCB_I2C_Interrupt to notify the user about occurrences of
 574:Generated_Source\PSoC6\pdl\drivers/peripheral/scb/cy_scb_i2c.h **** * \ref group_scb_i2c_macros_addr_callback_events.
ARM GAS  C:\Users\Austina\AppData\Local\Temp\cc8Iu5MR.s 			page 18


 575:Generated_Source\PSoC6\pdl\drivers/peripheral/scb/cy_scb_i2c.h **** * This callback must return a decision to ACK (continue transaction) or
 576:Generated_Source\PSoC6\pdl\drivers/peripheral/scb/cy_scb_i2c.h **** * NAK (end transaction) the received address.
 577:Generated_Source\PSoC6\pdl\drivers/peripheral/scb/cy_scb_i2c.h **** * Note if the slave is configured to accept an address in RX FIFO, it must read
 578:Generated_Source\PSoC6\pdl\drivers/peripheral/scb/cy_scb_i2c.h **** * from it using the \ref Cy_SCB_ReadRxFifo function.
 579:Generated_Source\PSoC6\pdl\drivers/peripheral/scb/cy_scb_i2c.h **** */
 580:Generated_Source\PSoC6\pdl\drivers/peripheral/scb/cy_scb_i2c.h **** typedef cy_en_scb_i2c_command_t (* cy_cb_scb_i2c_handle_addr_t)(uint32_t event);
 581:Generated_Source\PSoC6\pdl\drivers/peripheral/scb/cy_scb_i2c.h **** 
 582:Generated_Source\PSoC6\pdl\drivers/peripheral/scb/cy_scb_i2c.h **** /** I2C configuration structure */
 583:Generated_Source\PSoC6\pdl\drivers/peripheral/scb/cy_scb_i2c.h **** typedef struct cy_stc_scb_i2c_config
 584:Generated_Source\PSoC6\pdl\drivers/peripheral/scb/cy_scb_i2c.h **** {
 585:Generated_Source\PSoC6\pdl\drivers/peripheral/scb/cy_scb_i2c.h ****     /** Specifies the mode of operation */
 586:Generated_Source\PSoC6\pdl\drivers/peripheral/scb/cy_scb_i2c.h ****     cy_en_scb_i2c_mode_t i2cMode;
 587:Generated_Source\PSoC6\pdl\drivers/peripheral/scb/cy_scb_i2c.h **** 
 588:Generated_Source\PSoC6\pdl\drivers/peripheral/scb/cy_scb_i2c.h ****     /**
 589:Generated_Source\PSoC6\pdl\drivers/peripheral/scb/cy_scb_i2c.h ****     * The SCB provides an RX FIFO in hardware (consult the selected device
 590:Generated_Source\PSoC6\pdl\drivers/peripheral/scb/cy_scb_i2c.h ****     * datasheet to get the actual FIFO size). The useRxFifo field defines
 591:Generated_Source\PSoC6\pdl\drivers/peripheral/scb/cy_scb_i2c.h ****     * how the driver firmware reads data from the RX FIFO:
 592:Generated_Source\PSoC6\pdl\drivers/peripheral/scb/cy_scb_i2c.h ****     * * If this option is enabled, the hardware is configured to automatically
 593:Generated_Source\PSoC6\pdl\drivers/peripheral/scb/cy_scb_i2c.h ****     *   ACK incoming data, and interrupt is enabled to take data out of the RX
 594:Generated_Source\PSoC6\pdl\drivers/peripheral/scb/cy_scb_i2c.h ****     *   FIFO when it has some number of bytes (typically, when it is half full).
 595:Generated_Source\PSoC6\pdl\drivers/peripheral/scb/cy_scb_i2c.h ****     * * If this option is disabled, the interrupt is enabled to take data out of
 596:Generated_Source\PSoC6\pdl\drivers/peripheral/scb/cy_scb_i2c.h ****     *   the RX FIFO when a byte is available. Also, hardware does not
 597:Generated_Source\PSoC6\pdl\drivers/peripheral/scb/cy_scb_i2c.h ****     *   automatically ACK the data. Firmware must tell the hardware to ACK
 598:Generated_Source\PSoC6\pdl\drivers/peripheral/scb/cy_scb_i2c.h ****     *   the byte (so each byte requires interrupt processing).
 599:Generated_Source\PSoC6\pdl\drivers/peripheral/scb/cy_scb_i2c.h ****     * \n <b>Typically, this option should be enabled</b> to configure hardware to
 600:Generated_Source\PSoC6\pdl\drivers/peripheral/scb/cy_scb_i2c.h ****     * automatically ACK incoming data. Otherwise hardware might not get the command
 601:Generated_Source\PSoC6\pdl\drivers/peripheral/scb/cy_scb_i2c.h ****     * to ACK or NACK a byte fast enough, and clock stretching is applied
 602:Generated_Source\PSoC6\pdl\drivers/peripheral/scb/cy_scb_i2c.h ****     * (the transaction is delayed) until the command is set. When this option is
 603:Generated_Source\PSoC6\pdl\drivers/peripheral/scb/cy_scb_i2c.h ****     * enabled, the number of interrupts required to process the transaction
 604:Generated_Source\PSoC6\pdl\drivers/peripheral/scb/cy_scb_i2c.h ****     * is significantly reduced because several bytes are handled at once.
 605:Generated_Source\PSoC6\pdl\drivers/peripheral/scb/cy_scb_i2c.h ****     * \n <b>However, there is a side effect:</b>
 606:Generated_Source\PSoC6\pdl\drivers/peripheral/scb/cy_scb_i2c.h ****     * * For master mode, the drawback is that the master may receive more
 607:Generated_Source\PSoC6\pdl\drivers/peripheral/scb/cy_scb_i2c.h ****     *   data than desired due to the interrupt latency. An interrupt fires
 608:Generated_Source\PSoC6\pdl\drivers/peripheral/scb/cy_scb_i2c.h ****     *   when the second-to-last byte has been received. This interrupt tells
 609:Generated_Source\PSoC6\pdl\drivers/peripheral/scb/cy_scb_i2c.h ****     *   the hardware to stop receiving data. If the latency of this interrupt
 610:Generated_Source\PSoC6\pdl\drivers/peripheral/scb/cy_scb_i2c.h ****     *   is longer than one transaction of the byte on the I2C bus, then the
 611:Generated_Source\PSoC6\pdl\drivers/peripheral/scb/cy_scb_i2c.h ****     *   hardware automatically ACKs the following bytes until the interrupt
 612:Generated_Source\PSoC6\pdl\drivers/peripheral/scb/cy_scb_i2c.h ****     *   is serviced or the RX FIFO becomes full.
 613:Generated_Source\PSoC6\pdl\drivers/peripheral/scb/cy_scb_i2c.h ****     * * For slave mode, the drawback is that the slave only NACKs
 614:Generated_Source\PSoC6\pdl\drivers/peripheral/scb/cy_scb_i2c.h ****     *   the master when the RX FIFO becomes full, NOT when the slave write
 615:Generated_Source\PSoC6\pdl\drivers/peripheral/scb/cy_scb_i2c.h ****     *   firmware buffer becomes full.
 616:Generated_Source\PSoC6\pdl\drivers/peripheral/scb/cy_scb_i2c.h ****     * \n In either master or slave mode, all received extra bytes are dropped.
 617:Generated_Source\PSoC6\pdl\drivers/peripheral/scb/cy_scb_i2c.h ****     * \note The useRxFifo option is not available if acceptAddrInFifo is true.
 618:Generated_Source\PSoC6\pdl\drivers/peripheral/scb/cy_scb_i2c.h ****     */
 619:Generated_Source\PSoC6\pdl\drivers/peripheral/scb/cy_scb_i2c.h ****     bool useRxFifo;
 620:Generated_Source\PSoC6\pdl\drivers/peripheral/scb/cy_scb_i2c.h **** 
 621:Generated_Source\PSoC6\pdl\drivers/peripheral/scb/cy_scb_i2c.h ****     /**
 622:Generated_Source\PSoC6\pdl\drivers/peripheral/scb/cy_scb_i2c.h ****     * The SCB provides a TX FIFO in hardware (consult the selected device
 623:Generated_Source\PSoC6\pdl\drivers/peripheral/scb/cy_scb_i2c.h ****     * datasheet to get the actual FIFO size). The useTxFifo option defines how the
 624:Generated_Source\PSoC6\pdl\drivers/peripheral/scb/cy_scb_i2c.h ****     * driver firmware loads data into the TX FIFO:
 625:Generated_Source\PSoC6\pdl\drivers/peripheral/scb/cy_scb_i2c.h ****     * * If this option is enabled, the TX FIFO is fully loaded with data and the
 626:Generated_Source\PSoC6\pdl\drivers/peripheral/scb/cy_scb_i2c.h ****     *   interrupt is enabled to keep the TX FIFO loaded until the end of the transaction.
 627:Generated_Source\PSoC6\pdl\drivers/peripheral/scb/cy_scb_i2c.h ****     * * If this option is disabled, a single byte is loaded into the TX FIFO and
 628:Generated_Source\PSoC6\pdl\drivers/peripheral/scb/cy_scb_i2c.h ****     *   the interrupt enabled to load the next byte when the TX FIFO becomes empty
 629:Generated_Source\PSoC6\pdl\drivers/peripheral/scb/cy_scb_i2c.h ****     *   (so each byte requires interrupt processing).
 630:Generated_Source\PSoC6\pdl\drivers/peripheral/scb/cy_scb_i2c.h ****     * \n <b>Typically, this option should be enabled</b> to keep the TX FIFO loaded with
 631:Generated_Source\PSoC6\pdl\drivers/peripheral/scb/cy_scb_i2c.h ****     * data and reduce the probability of clock stretching. When there is no data
ARM GAS  C:\Users\Austina\AppData\Local\Temp\cc8Iu5MR.s 			page 19


 632:Generated_Source\PSoC6\pdl\drivers/peripheral/scb/cy_scb_i2c.h ****     * to transfer, clock stretching is applied (the transaction is delayed) until
 633:Generated_Source\PSoC6\pdl\drivers/peripheral/scb/cy_scb_i2c.h ****     * the data is loaded. When this option is enabled, the number of interrupts required
 634:Generated_Source\PSoC6\pdl\drivers/peripheral/scb/cy_scb_i2c.h ****     * to process the transaction is significantly reduced because several
 635:Generated_Source\PSoC6\pdl\drivers/peripheral/scb/cy_scb_i2c.h ****     * bytes are handled at once.
 636:Generated_Source\PSoC6\pdl\drivers/peripheral/scb/cy_scb_i2c.h ****     * \n <b>The drawback of enabling useTxFifo</b> is that the abort operation clears
 637:Generated_Source\PSoC6\pdl\drivers/peripheral/scb/cy_scb_i2c.h ****     * the TX FIFO. The TX FIFO clear operation also clears the shift
 638:Generated_Source\PSoC6\pdl\drivers/peripheral/scb/cy_scb_i2c.h ****     * register. As a result the shifter may be cleared in the middle of a byte
 639:Generated_Source\PSoC6\pdl\drivers/peripheral/scb/cy_scb_i2c.h ****     * transaction, corrupting it. The remaining bits to transaction within the
 640:Generated_Source\PSoC6\pdl\drivers/peripheral/scb/cy_scb_i2c.h ****     * corrupted byte are complemented with 1s. If this is an issue,
 641:Generated_Source\PSoC6\pdl\drivers/peripheral/scb/cy_scb_i2c.h ****     * then do not enable this option.
 642:Generated_Source\PSoC6\pdl\drivers/peripheral/scb/cy_scb_i2c.h ****     */
 643:Generated_Source\PSoC6\pdl\drivers/peripheral/scb/cy_scb_i2c.h ****     bool useTxFifo;
 644:Generated_Source\PSoC6\pdl\drivers/peripheral/scb/cy_scb_i2c.h **** 
 645:Generated_Source\PSoC6\pdl\drivers/peripheral/scb/cy_scb_i2c.h ****     /**
 646:Generated_Source\PSoC6\pdl\drivers/peripheral/scb/cy_scb_i2c.h ****     * The 7-bit right justified slave address, used only for the slave mode
 647:Generated_Source\PSoC6\pdl\drivers/peripheral/scb/cy_scb_i2c.h ****     */
 648:Generated_Source\PSoC6\pdl\drivers/peripheral/scb/cy_scb_i2c.h ****     uint8_t slaveAddress;
 649:Generated_Source\PSoC6\pdl\drivers/peripheral/scb/cy_scb_i2c.h **** 
 650:Generated_Source\PSoC6\pdl\drivers/peripheral/scb/cy_scb_i2c.h ****     /**
 651:Generated_Source\PSoC6\pdl\drivers/peripheral/scb/cy_scb_i2c.h ****     * The slave address mask is used to mask bits of the slave address during
 652:Generated_Source\PSoC6\pdl\drivers/peripheral/scb/cy_scb_i2c.h ****     * the address match procedure (it is used only for the slave mode).
 653:Generated_Source\PSoC6\pdl\drivers/peripheral/scb/cy_scb_i2c.h ****     * Bit 0 of the address mask corresponds to the
 654:Generated_Source\PSoC6\pdl\drivers/peripheral/scb/cy_scb_i2c.h ****     * read/write direction bit and is always a do not care in the address match
 655:Generated_Source\PSoC6\pdl\drivers/peripheral/scb/cy_scb_i2c.h ****     * therefore must be set 0. Bit value 0 - excludes bit from address
 656:Generated_Source\PSoC6\pdl\drivers/peripheral/scb/cy_scb_i2c.h ****     * comparison. Bit value 1 - the bit needs to match with the corresponding
 657:Generated_Source\PSoC6\pdl\drivers/peripheral/scb/cy_scb_i2c.h ****     * bit of the I2C slave address.
 658:Generated_Source\PSoC6\pdl\drivers/peripheral/scb/cy_scb_i2c.h ****     */
 659:Generated_Source\PSoC6\pdl\drivers/peripheral/scb/cy_scb_i2c.h ****     uint8_t slaveAddressMask;
 660:Generated_Source\PSoC6\pdl\drivers/peripheral/scb/cy_scb_i2c.h **** 
 661:Generated_Source\PSoC6\pdl\drivers/peripheral/scb/cy_scb_i2c.h ****     /**
 662:Generated_Source\PSoC6\pdl\drivers/peripheral/scb/cy_scb_i2c.h ****     * True - the slave address is accepted in the RX FIFO, false - the slave
 663:Generated_Source\PSoC6\pdl\drivers/peripheral/scb/cy_scb_i2c.h ****     * addresses are not accepted in the RX FIFO
 664:Generated_Source\PSoC6\pdl\drivers/peripheral/scb/cy_scb_i2c.h ****     */
 665:Generated_Source\PSoC6\pdl\drivers/peripheral/scb/cy_scb_i2c.h ****     bool acceptAddrInFifo;
 666:Generated_Source\PSoC6\pdl\drivers/peripheral/scb/cy_scb_i2c.h **** 
 667:Generated_Source\PSoC6\pdl\drivers/peripheral/scb/cy_scb_i2c.h ****     /**
 668:Generated_Source\PSoC6\pdl\drivers/peripheral/scb/cy_scb_i2c.h ****     * True - accept the general call address; false - ignore the general
 669:Generated_Source\PSoC6\pdl\drivers/peripheral/scb/cy_scb_i2c.h ****     * call address.
 670:Generated_Source\PSoC6\pdl\drivers/peripheral/scb/cy_scb_i2c.h ****     */
 671:Generated_Source\PSoC6\pdl\drivers/peripheral/scb/cy_scb_i2c.h ****     bool ackGeneralAddr;
 672:Generated_Source\PSoC6\pdl\drivers/peripheral/scb/cy_scb_i2c.h **** 
 673:Generated_Source\PSoC6\pdl\drivers/peripheral/scb/cy_scb_i2c.h ****     /**
 674:Generated_Source\PSoC6\pdl\drivers/peripheral/scb/cy_scb_i2c.h ****     * When set, the slave will wake the device from Deep Sleep on an address
 675:Generated_Source\PSoC6\pdl\drivers/peripheral/scb/cy_scb_i2c.h ****     * match (the device datasheet must be consulted to determine which SCBs
 676:Generated_Source\PSoC6\pdl\drivers/peripheral/scb/cy_scb_i2c.h ****     * support this mode)
 677:Generated_Source\PSoC6\pdl\drivers/peripheral/scb/cy_scb_i2c.h ****     */
 678:Generated_Source\PSoC6\pdl\drivers/peripheral/scb/cy_scb_i2c.h ****     bool enableWakeFromSleep;
 679:Generated_Source\PSoC6\pdl\drivers/peripheral/scb/cy_scb_i2c.h **** 
 680:Generated_Source\PSoC6\pdl\drivers/peripheral/scb/cy_scb_i2c.h ****     /**
 681:Generated_Source\PSoC6\pdl\drivers/peripheral/scb/cy_scb_i2c.h ****     * Enables a digital 3-tap median filter to be applied to the inputs
 682:Generated_Source\PSoC6\pdl\drivers/peripheral/scb/cy_scb_i2c.h ****     * of filter glitches on the lines.
 683:Generated_Source\PSoC6\pdl\drivers/peripheral/scb/cy_scb_i2c.h ****     */
 684:Generated_Source\PSoC6\pdl\drivers/peripheral/scb/cy_scb_i2c.h ****     bool enableDigitalFilter;
 685:Generated_Source\PSoC6\pdl\drivers/peripheral/scb/cy_scb_i2c.h **** 
 686:Generated_Source\PSoC6\pdl\drivers/peripheral/scb/cy_scb_i2c.h ****     /**
 687:Generated_Source\PSoC6\pdl\drivers/peripheral/scb/cy_scb_i2c.h ****     * The number of SCB clock cycles in the low phase of SCL. Only applicable
 688:Generated_Source\PSoC6\pdl\drivers/peripheral/scb/cy_scb_i2c.h ****     * in master modes. The valid range is 7 to 16.
ARM GAS  C:\Users\Austina\AppData\Local\Temp\cc8Iu5MR.s 			page 20


 689:Generated_Source\PSoC6\pdl\drivers/peripheral/scb/cy_scb_i2c.h ****     */
 690:Generated_Source\PSoC6\pdl\drivers/peripheral/scb/cy_scb_i2c.h ****     uint32_t lowPhaseDutyCycle;
 691:Generated_Source\PSoC6\pdl\drivers/peripheral/scb/cy_scb_i2c.h **** 
 692:Generated_Source\PSoC6\pdl\drivers/peripheral/scb/cy_scb_i2c.h ****     /**
 693:Generated_Source\PSoC6\pdl\drivers/peripheral/scb/cy_scb_i2c.h ****     * The number of SCB clock cycles in the high phase of SCL. Only applicable
 694:Generated_Source\PSoC6\pdl\drivers/peripheral/scb/cy_scb_i2c.h ****     * in master modes. The valid range is 5 to 16.
 695:Generated_Source\PSoC6\pdl\drivers/peripheral/scb/cy_scb_i2c.h ****     */
 696:Generated_Source\PSoC6\pdl\drivers/peripheral/scb/cy_scb_i2c.h ****     uint32_t highPhaseDutyCycle;
 697:Generated_Source\PSoC6\pdl\drivers/peripheral/scb/cy_scb_i2c.h **** 
 698:Generated_Source\PSoC6\pdl\drivers/peripheral/scb/cy_scb_i2c.h **** } cy_stc_scb_i2c_config_t;
 699:Generated_Source\PSoC6\pdl\drivers/peripheral/scb/cy_scb_i2c.h **** 
 700:Generated_Source\PSoC6\pdl\drivers/peripheral/scb/cy_scb_i2c.h **** /** I2C context structure.
 701:Generated_Source\PSoC6\pdl\drivers/peripheral/scb/cy_scb_i2c.h **** * All fields for the context structure are internal. Firmware never reads or
 702:Generated_Source\PSoC6\pdl\drivers/peripheral/scb/cy_scb_i2c.h **** * writes these values. Firmware allocates the structure and provides the
 703:Generated_Source\PSoC6\pdl\drivers/peripheral/scb/cy_scb_i2c.h **** * address of the structure to the driver in function calls. Firmware must
 704:Generated_Source\PSoC6\pdl\drivers/peripheral/scb/cy_scb_i2c.h **** * ensure that the defined instance of this structure remains in scope
 705:Generated_Source\PSoC6\pdl\drivers/peripheral/scb/cy_scb_i2c.h **** * while the drive is in use.
 706:Generated_Source\PSoC6\pdl\drivers/peripheral/scb/cy_scb_i2c.h **** */
 707:Generated_Source\PSoC6\pdl\drivers/peripheral/scb/cy_scb_i2c.h **** typedef struct cy_stc_scb_i2c_context
 708:Generated_Source\PSoC6\pdl\drivers/peripheral/scb/cy_scb_i2c.h **** {
 709:Generated_Source\PSoC6\pdl\drivers/peripheral/scb/cy_scb_i2c.h ****     /** \cond INTERNAL */
 710:Generated_Source\PSoC6\pdl\drivers/peripheral/scb/cy_scb_i2c.h ****     bool useRxFifo;             /**< Stores RX FIFO configuration */
 711:Generated_Source\PSoC6\pdl\drivers/peripheral/scb/cy_scb_i2c.h ****     bool useTxFifo;             /**< Stores TX FIFO configuration */
 712:Generated_Source\PSoC6\pdl\drivers/peripheral/scb/cy_scb_i2c.h **** 
 713:Generated_Source\PSoC6\pdl\drivers/peripheral/scb/cy_scb_i2c.h ****     volatile uint32_t state;    /**< The driver state */
 714:Generated_Source\PSoC6\pdl\drivers/peripheral/scb/cy_scb_i2c.h **** 
 715:Generated_Source\PSoC6\pdl\drivers/peripheral/scb/cy_scb_i2c.h ****     volatile uint32_t masterStatus; /**< The master status */
 716:Generated_Source\PSoC6\pdl\drivers/peripheral/scb/cy_scb_i2c.h ****     bool     masterPause;           /**< Stores how the master ends the transaction */
 717:Generated_Source\PSoC6\pdl\drivers/peripheral/scb/cy_scb_i2c.h ****     bool     masterRdDir;           /**< The direction of the master transaction */
 718:Generated_Source\PSoC6\pdl\drivers/peripheral/scb/cy_scb_i2c.h **** 
 719:Generated_Source\PSoC6\pdl\drivers/peripheral/scb/cy_scb_i2c.h ****     uint8_t  *masterBuffer;     /**< The pointer to the master buffer (either for a transmit or a r
 720:Generated_Source\PSoC6\pdl\drivers/peripheral/scb/cy_scb_i2c.h ****     uint32_t  masterBufferSize;         /**< The current master buffer size */
 721:Generated_Source\PSoC6\pdl\drivers/peripheral/scb/cy_scb_i2c.h ****     volatile uint32_t masterBufferIdx;  /**< The current location in the master buffer */
 722:Generated_Source\PSoC6\pdl\drivers/peripheral/scb/cy_scb_i2c.h ****     volatile uint32_t masterNumBytes;   /**< The number of bytes to send or receive */
 723:Generated_Source\PSoC6\pdl\drivers/peripheral/scb/cy_scb_i2c.h **** 
 724:Generated_Source\PSoC6\pdl\drivers/peripheral/scb/cy_scb_i2c.h ****     volatile uint32_t slaveStatus;       /**< The slave status */
 725:Generated_Source\PSoC6\pdl\drivers/peripheral/scb/cy_scb_i2c.h ****     volatile bool     slaveRdBufEmpty;   /**< Tracks slave Read buffer empty event */
 726:Generated_Source\PSoC6\pdl\drivers/peripheral/scb/cy_scb_i2c.h **** 
 727:Generated_Source\PSoC6\pdl\drivers/peripheral/scb/cy_scb_i2c.h ****     uint8_t  *slaveTxBuffer;             /**< The pointer to the slave transmit buffer (a master re
 728:Generated_Source\PSoC6\pdl\drivers/peripheral/scb/cy_scb_i2c.h ****     uint32_t  slaveTxBufferSize;         /**< The current slave transmit buffer size */
 729:Generated_Source\PSoC6\pdl\drivers/peripheral/scb/cy_scb_i2c.h ****     volatile uint32_t slaveTxBufferIdx;  /**< The current location in the slave buffer */
 730:Generated_Source\PSoC6\pdl\drivers/peripheral/scb/cy_scb_i2c.h ****     volatile uint32_t slaveTxBufferCnt;  /**< The number of transferred bytes */
 731:Generated_Source\PSoC6\pdl\drivers/peripheral/scb/cy_scb_i2c.h **** 
 732:Generated_Source\PSoC6\pdl\drivers/peripheral/scb/cy_scb_i2c.h ****     uint8_t  *slaveRxBuffer;             /**< The pointer to the slave receive buffer (a master wri
 733:Generated_Source\PSoC6\pdl\drivers/peripheral/scb/cy_scb_i2c.h ****     uint32_t  slaveRxBufferSize;         /**< The current slave receive buffer size */
 734:Generated_Source\PSoC6\pdl\drivers/peripheral/scb/cy_scb_i2c.h ****     volatile uint32_t slaveRxBufferIdx;  /**< The current location in the slave buffer */
 735:Generated_Source\PSoC6\pdl\drivers/peripheral/scb/cy_scb_i2c.h **** 
 736:Generated_Source\PSoC6\pdl\drivers/peripheral/scb/cy_scb_i2c.h ****     /**
 737:Generated_Source\PSoC6\pdl\drivers/peripheral/scb/cy_scb_i2c.h ****     * The pointer to an event callback that is called when any of
 738:Generated_Source\PSoC6\pdl\drivers/peripheral/scb/cy_scb_i2c.h ****     * \ref group_scb_i2c_macros_callback_events occurs
 739:Generated_Source\PSoC6\pdl\drivers/peripheral/scb/cy_scb_i2c.h ****     */
 740:Generated_Source\PSoC6\pdl\drivers/peripheral/scb/cy_scb_i2c.h ****     cy_cb_scb_i2c_handle_events_t cbEvents;
 741:Generated_Source\PSoC6\pdl\drivers/peripheral/scb/cy_scb_i2c.h **** 
 742:Generated_Source\PSoC6\pdl\drivers/peripheral/scb/cy_scb_i2c.h ****     /**
 743:Generated_Source\PSoC6\pdl\drivers/peripheral/scb/cy_scb_i2c.h ****     * The pointer to an address callback that is called when any of
 744:Generated_Source\PSoC6\pdl\drivers/peripheral/scb/cy_scb_i2c.h ****     * \ref group_scb_i2c_macros_addr_callback_events occurs (applicable only
 745:Generated_Source\PSoC6\pdl\drivers/peripheral/scb/cy_scb_i2c.h ****     * for the slave)
ARM GAS  C:\Users\Austina\AppData\Local\Temp\cc8Iu5MR.s 			page 21


 746:Generated_Source\PSoC6\pdl\drivers/peripheral/scb/cy_scb_i2c.h ****     */
 747:Generated_Source\PSoC6\pdl\drivers/peripheral/scb/cy_scb_i2c.h ****     cy_cb_scb_i2c_handle_addr_t   cbAddr;
 748:Generated_Source\PSoC6\pdl\drivers/peripheral/scb/cy_scb_i2c.h **** 
 749:Generated_Source\PSoC6\pdl\drivers/peripheral/scb/cy_scb_i2c.h ****     /** \endcond */
 750:Generated_Source\PSoC6\pdl\drivers/peripheral/scb/cy_scb_i2c.h **** } cy_stc_scb_i2c_context_t;
 751:Generated_Source\PSoC6\pdl\drivers/peripheral/scb/cy_scb_i2c.h **** 
 752:Generated_Source\PSoC6\pdl\drivers/peripheral/scb/cy_scb_i2c.h **** /** The I2C Master transfer structure */
 753:Generated_Source\PSoC6\pdl\drivers/peripheral/scb/cy_scb_i2c.h **** typedef struct cy_stc_scb_i2c_master_xfer_config
 754:Generated_Source\PSoC6\pdl\drivers/peripheral/scb/cy_scb_i2c.h **** {
 755:Generated_Source\PSoC6\pdl\drivers/peripheral/scb/cy_scb_i2c.h ****     /** The 7-bit right justified slave address to communicate with */
 756:Generated_Source\PSoC6\pdl\drivers/peripheral/scb/cy_scb_i2c.h ****     uint8_t  slaveAddress;
 757:Generated_Source\PSoC6\pdl\drivers/peripheral/scb/cy_scb_i2c.h **** 
 758:Generated_Source\PSoC6\pdl\drivers/peripheral/scb/cy_scb_i2c.h ****     /**
 759:Generated_Source\PSoC6\pdl\drivers/peripheral/scb/cy_scb_i2c.h ****     * The pointer to the buffer for data to read from the slave or
 760:Generated_Source\PSoC6\pdl\drivers/peripheral/scb/cy_scb_i2c.h ****     * data to write into the slave
 761:Generated_Source\PSoC6\pdl\drivers/peripheral/scb/cy_scb_i2c.h ****     */
 762:Generated_Source\PSoC6\pdl\drivers/peripheral/scb/cy_scb_i2c.h ****     uint8_t  *buffer;
 763:Generated_Source\PSoC6\pdl\drivers/peripheral/scb/cy_scb_i2c.h **** 
 764:Generated_Source\PSoC6\pdl\drivers/peripheral/scb/cy_scb_i2c.h ****     /** The size of the buffer */
 765:Generated_Source\PSoC6\pdl\drivers/peripheral/scb/cy_scb_i2c.h ****     uint32_t bufferSize;
 766:Generated_Source\PSoC6\pdl\drivers/peripheral/scb/cy_scb_i2c.h **** 
 767:Generated_Source\PSoC6\pdl\drivers/peripheral/scb/cy_scb_i2c.h ****     /**
 768:Generated_Source\PSoC6\pdl\drivers/peripheral/scb/cy_scb_i2c.h ****     * The transfer operation is pending - the stop condition will not
 769:Generated_Source\PSoC6\pdl\drivers/peripheral/scb/cy_scb_i2c.h ****     * be generated.
 770:Generated_Source\PSoC6\pdl\drivers/peripheral/scb/cy_scb_i2c.h ****     * A new transfer starts from start condition and ends
 771:Generated_Source\PSoC6\pdl\drivers/peripheral/scb/cy_scb_i2c.h ****     * with or without stop condition. The stop condition releases I2C
 772:Generated_Source\PSoC6\pdl\drivers/peripheral/scb/cy_scb_i2c.h ****     * bus from master control. When stop is not generated master keeps
 773:Generated_Source\PSoC6\pdl\drivers/peripheral/scb/cy_scb_i2c.h ****     * bus control (transfer is pending) and can issue the next transfer
 774:Generated_Source\PSoC6\pdl\drivers/peripheral/scb/cy_scb_i2c.h ****     * using restart condition instead of start. The I2C driver
 775:Generated_Source\PSoC6\pdl\drivers/peripheral/scb/cy_scb_i2c.h ****     * automatically generates start or restart condition depends on
 776:Generated_Source\PSoC6\pdl\drivers/peripheral/scb/cy_scb_i2c.h ****     * current state.
 777:Generated_Source\PSoC6\pdl\drivers/peripheral/scb/cy_scb_i2c.h ****     * Note if master lost arbitration during transfer it stops control
 778:Generated_Source\PSoC6\pdl\drivers/peripheral/scb/cy_scb_i2c.h ****     * the bus and does not send/receive data or generate stop condition - the
 779:Generated_Source\PSoC6\pdl\drivers/peripheral/scb/cy_scb_i2c.h ****     * transfer ends.
 780:Generated_Source\PSoC6\pdl\drivers/peripheral/scb/cy_scb_i2c.h ****     */
 781:Generated_Source\PSoC6\pdl\drivers/peripheral/scb/cy_scb_i2c.h ****     bool     xferPending;
 782:Generated_Source\PSoC6\pdl\drivers/peripheral/scb/cy_scb_i2c.h **** } cy_stc_scb_i2c_master_xfer_config_t;
 783:Generated_Source\PSoC6\pdl\drivers/peripheral/scb/cy_scb_i2c.h **** /** \} group_scb_i2c_data_structures */
 784:Generated_Source\PSoC6\pdl\drivers/peripheral/scb/cy_scb_i2c.h **** 
 785:Generated_Source\PSoC6\pdl\drivers/peripheral/scb/cy_scb_i2c.h **** 
 786:Generated_Source\PSoC6\pdl\drivers/peripheral/scb/cy_scb_i2c.h **** /*******************************************************************************
 787:Generated_Source\PSoC6\pdl\drivers/peripheral/scb/cy_scb_i2c.h **** *                            Function Prototypes
 788:Generated_Source\PSoC6\pdl\drivers/peripheral/scb/cy_scb_i2c.h **** *******************************************************************************/
 789:Generated_Source\PSoC6\pdl\drivers/peripheral/scb/cy_scb_i2c.h **** 
 790:Generated_Source\PSoC6\pdl\drivers/peripheral/scb/cy_scb_i2c.h **** /**
 791:Generated_Source\PSoC6\pdl\drivers/peripheral/scb/cy_scb_i2c.h **** * \addtogroup group_scb_i2c_general_functions
 792:Generated_Source\PSoC6\pdl\drivers/peripheral/scb/cy_scb_i2c.h **** * \{
 793:Generated_Source\PSoC6\pdl\drivers/peripheral/scb/cy_scb_i2c.h **** */
 794:Generated_Source\PSoC6\pdl\drivers/peripheral/scb/cy_scb_i2c.h **** cy_en_scb_i2c_status_t Cy_SCB_I2C_Init(CySCB_Type *base, cy_stc_scb_i2c_config_t const *config,
 795:Generated_Source\PSoC6\pdl\drivers/peripheral/scb/cy_scb_i2c.h ****                                        cy_stc_scb_i2c_context_t *context);
 796:Generated_Source\PSoC6\pdl\drivers/peripheral/scb/cy_scb_i2c.h **** void Cy_SCB_I2C_DeInit(CySCB_Type *base);
 797:Generated_Source\PSoC6\pdl\drivers/peripheral/scb/cy_scb_i2c.h **** __STATIC_INLINE void Cy_SCB_I2C_Enable(CySCB_Type *base);
 798:Generated_Source\PSoC6\pdl\drivers/peripheral/scb/cy_scb_i2c.h **** void Cy_SCB_I2C_Disable(CySCB_Type *base, cy_stc_scb_i2c_context_t *context);
 799:Generated_Source\PSoC6\pdl\drivers/peripheral/scb/cy_scb_i2c.h **** 
 800:Generated_Source\PSoC6\pdl\drivers/peripheral/scb/cy_scb_i2c.h **** uint32_t Cy_SCB_I2C_SetDataRate(CySCB_Type *base, uint32_t dataRateHz, uint32_t scbClockHz);
 801:Generated_Source\PSoC6\pdl\drivers/peripheral/scb/cy_scb_i2c.h **** uint32_t Cy_SCB_I2C_GetDataRate(CySCB_Type const *base, uint32_t scbClockHz);
 802:Generated_Source\PSoC6\pdl\drivers/peripheral/scb/cy_scb_i2c.h **** 
ARM GAS  C:\Users\Austina\AppData\Local\Temp\cc8Iu5MR.s 			page 22


 803:Generated_Source\PSoC6\pdl\drivers/peripheral/scb/cy_scb_i2c.h **** __STATIC_INLINE void     Cy_SCB_I2C_SlaveSetAddress(CySCB_Type *base, uint8_t addr);
 804:Generated_Source\PSoC6\pdl\drivers/peripheral/scb/cy_scb_i2c.h **** __STATIC_INLINE uint32_t Cy_SCB_I2C_SlaveGetAddress(CySCB_Type const *base);
 805:Generated_Source\PSoC6\pdl\drivers/peripheral/scb/cy_scb_i2c.h **** __STATIC_INLINE void     Cy_SCB_I2C_SlaveSetAddressMask(CySCB_Type *base, uint8_t addrMask);
 806:Generated_Source\PSoC6\pdl\drivers/peripheral/scb/cy_scb_i2c.h **** __STATIC_INLINE uint32_t Cy_SCB_I2C_SlaveGetAddressMask(CySCB_Type const *base);
 807:Generated_Source\PSoC6\pdl\drivers/peripheral/scb/cy_scb_i2c.h **** 
 808:Generated_Source\PSoC6\pdl\drivers/peripheral/scb/cy_scb_i2c.h **** __STATIC_INLINE bool Cy_SCB_I2C_IsBusBusy(CySCB_Type const *base);
 809:Generated_Source\PSoC6\pdl\drivers/peripheral/scb/cy_scb_i2c.h **** 
 810:Generated_Source\PSoC6\pdl\drivers/peripheral/scb/cy_scb_i2c.h **** __STATIC_INLINE void Cy_SCB_I2C_MasterSetLowPhaseDutyCycle (CySCB_Type *base, uint32_t clockCycles)
 811:Generated_Source\PSoC6\pdl\drivers/peripheral/scb/cy_scb_i2c.h **** __STATIC_INLINE void Cy_SCB_I2C_MasterSetHighPhaseDutyCycle(CySCB_Type *base, uint32_t clockCycles)
 812:Generated_Source\PSoC6\pdl\drivers/peripheral/scb/cy_scb_i2c.h **** /** \} group_scb_i2c_general_functions */
 813:Generated_Source\PSoC6\pdl\drivers/peripheral/scb/cy_scb_i2c.h **** 
 814:Generated_Source\PSoC6\pdl\drivers/peripheral/scb/cy_scb_i2c.h **** /**
 815:Generated_Source\PSoC6\pdl\drivers/peripheral/scb/cy_scb_i2c.h **** * \addtogroup group_scb_i2c_slave_functions
 816:Generated_Source\PSoC6\pdl\drivers/peripheral/scb/cy_scb_i2c.h **** * \{
 817:Generated_Source\PSoC6\pdl\drivers/peripheral/scb/cy_scb_i2c.h **** */
 818:Generated_Source\PSoC6\pdl\drivers/peripheral/scb/cy_scb_i2c.h **** void Cy_SCB_I2C_SlaveConfigReadBuf (CySCB_Type const *base, uint8_t *buffer, uint32_t size,
 819:Generated_Source\PSoC6\pdl\drivers/peripheral/scb/cy_scb_i2c.h ****                                     cy_stc_scb_i2c_context_t *context);
 820:Generated_Source\PSoC6\pdl\drivers/peripheral/scb/cy_scb_i2c.h **** void Cy_SCB_I2C_SlaveAbortRead     (CySCB_Type *base, cy_stc_scb_i2c_context_t *context);
 821:Generated_Source\PSoC6\pdl\drivers/peripheral/scb/cy_scb_i2c.h **** void Cy_SCB_I2C_SlaveConfigWriteBuf(CySCB_Type const *base, uint8_t *buffer, uint32_t size,
 822:Generated_Source\PSoC6\pdl\drivers/peripheral/scb/cy_scb_i2c.h ****                                     cy_stc_scb_i2c_context_t *context);
 823:Generated_Source\PSoC6\pdl\drivers/peripheral/scb/cy_scb_i2c.h **** void Cy_SCB_I2C_SlaveAbortWrite    (CySCB_Type *base, cy_stc_scb_i2c_context_t *context);
 824:Generated_Source\PSoC6\pdl\drivers/peripheral/scb/cy_scb_i2c.h **** 
 825:Generated_Source\PSoC6\pdl\drivers/peripheral/scb/cy_scb_i2c.h **** uint32_t Cy_SCB_I2C_SlaveGetStatus       (CySCB_Type const *base, cy_stc_scb_i2c_context_t const *c
 826:Generated_Source\PSoC6\pdl\drivers/peripheral/scb/cy_scb_i2c.h **** uint32_t Cy_SCB_I2C_SlaveClearReadStatus (CySCB_Type const *base, cy_stc_scb_i2c_context_t *context
 827:Generated_Source\PSoC6\pdl\drivers/peripheral/scb/cy_scb_i2c.h **** uint32_t Cy_SCB_I2C_SlaveClearWriteStatus(CySCB_Type const *base, cy_stc_scb_i2c_context_t *context
 828:Generated_Source\PSoC6\pdl\drivers/peripheral/scb/cy_scb_i2c.h **** 
 829:Generated_Source\PSoC6\pdl\drivers/peripheral/scb/cy_scb_i2c.h **** uint32_t Cy_SCB_I2C_SlaveGetReadTransferCount (CySCB_Type const *base, cy_stc_scb_i2c_context_t con
 830:Generated_Source\PSoC6\pdl\drivers/peripheral/scb/cy_scb_i2c.h **** uint32_t Cy_SCB_I2C_SlaveGetWriteTransferCount(CySCB_Type const *base, cy_stc_scb_i2c_context_t con
 831:Generated_Source\PSoC6\pdl\drivers/peripheral/scb/cy_scb_i2c.h **** /** \} group_scb_i2c_slave_functions */
 832:Generated_Source\PSoC6\pdl\drivers/peripheral/scb/cy_scb_i2c.h **** 
 833:Generated_Source\PSoC6\pdl\drivers/peripheral/scb/cy_scb_i2c.h **** /**
 834:Generated_Source\PSoC6\pdl\drivers/peripheral/scb/cy_scb_i2c.h **** * \addtogroup group_scb_i2c_master_high_level_functions
 835:Generated_Source\PSoC6\pdl\drivers/peripheral/scb/cy_scb_i2c.h **** * \{
 836:Generated_Source\PSoC6\pdl\drivers/peripheral/scb/cy_scb_i2c.h **** */
 837:Generated_Source\PSoC6\pdl\drivers/peripheral/scb/cy_scb_i2c.h **** cy_en_scb_i2c_status_t Cy_SCB_I2C_MasterWrite(CySCB_Type *base, cy_stc_scb_i2c_master_xfer_config_t
 838:Generated_Source\PSoC6\pdl\drivers/peripheral/scb/cy_scb_i2c.h ****                                               cy_stc_scb_i2c_context_t *context);
 839:Generated_Source\PSoC6\pdl\drivers/peripheral/scb/cy_scb_i2c.h **** void     Cy_SCB_I2C_MasterAbortWrite         (CySCB_Type *base, cy_stc_scb_i2c_context_t *context);
 840:Generated_Source\PSoC6\pdl\drivers/peripheral/scb/cy_scb_i2c.h **** cy_en_scb_i2c_status_t Cy_SCB_I2C_MasterRead (CySCB_Type *base, cy_stc_scb_i2c_master_xfer_config_t
 841:Generated_Source\PSoC6\pdl\drivers/peripheral/scb/cy_scb_i2c.h ****                                               cy_stc_scb_i2c_context_t *context);
 842:Generated_Source\PSoC6\pdl\drivers/peripheral/scb/cy_scb_i2c.h **** void     Cy_SCB_I2C_MasterAbortRead          (CySCB_Type *base, cy_stc_scb_i2c_context_t *context);
 843:Generated_Source\PSoC6\pdl\drivers/peripheral/scb/cy_scb_i2c.h **** uint32_t Cy_SCB_I2C_MasterGetStatus          (CySCB_Type const *base, cy_stc_scb_i2c_context_t cons
 844:Generated_Source\PSoC6\pdl\drivers/peripheral/scb/cy_scb_i2c.h **** uint32_t Cy_SCB_I2C_MasterGetTransferCount   (CySCB_Type const *base, cy_stc_scb_i2c_context_t cons
 845:Generated_Source\PSoC6\pdl\drivers/peripheral/scb/cy_scb_i2c.h **** /** \} group_scb_i2c_master_low_high_functions */
 846:Generated_Source\PSoC6\pdl\drivers/peripheral/scb/cy_scb_i2c.h **** 
 847:Generated_Source\PSoC6\pdl\drivers/peripheral/scb/cy_scb_i2c.h **** /**
 848:Generated_Source\PSoC6\pdl\drivers/peripheral/scb/cy_scb_i2c.h **** * \addtogroup group_scb_i2c_master_low_level_functions
 849:Generated_Source\PSoC6\pdl\drivers/peripheral/scb/cy_scb_i2c.h **** * \{
 850:Generated_Source\PSoC6\pdl\drivers/peripheral/scb/cy_scb_i2c.h **** */
 851:Generated_Source\PSoC6\pdl\drivers/peripheral/scb/cy_scb_i2c.h **** cy_en_scb_i2c_status_t Cy_SCB_I2C_MasterSendStart  (CySCB_Type *base, uint32_t address, cy_en_scb_i
 852:Generated_Source\PSoC6\pdl\drivers/peripheral/scb/cy_scb_i2c.h ****                                                     uint32_t timeoutMs, cy_stc_scb_i2c_context_t *c
 853:Generated_Source\PSoC6\pdl\drivers/peripheral/scb/cy_scb_i2c.h **** cy_en_scb_i2c_status_t Cy_SCB_I2C_MasterSendReStart(CySCB_Type *base, uint32_t address, cy_en_scb_i
 854:Generated_Source\PSoC6\pdl\drivers/peripheral/scb/cy_scb_i2c.h ****                                                     uint32_t timeoutMs, cy_stc_scb_i2c_context_t *c
 855:Generated_Source\PSoC6\pdl\drivers/peripheral/scb/cy_scb_i2c.h **** cy_en_scb_i2c_status_t Cy_SCB_I2C_MasterSendStop   (CySCB_Type *base,uint32_t timeoutMs, cy_stc_scb
 856:Generated_Source\PSoC6\pdl\drivers/peripheral/scb/cy_scb_i2c.h **** cy_en_scb_i2c_status_t Cy_SCB_I2C_MasterReadByte   (CySCB_Type *base, cy_en_scb_i2c_command_t ackNa
 857:Generated_Source\PSoC6\pdl\drivers/peripheral/scb/cy_scb_i2c.h ****                                                     uint32_t timeoutMs, cy_stc_scb_i2c_context_t *c
 858:Generated_Source\PSoC6\pdl\drivers/peripheral/scb/cy_scb_i2c.h **** cy_en_scb_i2c_status_t Cy_SCB_I2C_MasterWriteByte  (CySCB_Type *base, uint8_t byte, uint32_t timeou
 859:Generated_Source\PSoC6\pdl\drivers/peripheral/scb/cy_scb_i2c.h ****                                                     cy_stc_scb_i2c_context_t *context);
ARM GAS  C:\Users\Austina\AppData\Local\Temp\cc8Iu5MR.s 			page 23


 860:Generated_Source\PSoC6\pdl\drivers/peripheral/scb/cy_scb_i2c.h **** /** \} group_scb_i2c_master_low_level_functions */
 861:Generated_Source\PSoC6\pdl\drivers/peripheral/scb/cy_scb_i2c.h **** 
 862:Generated_Source\PSoC6\pdl\drivers/peripheral/scb/cy_scb_i2c.h **** /**
 863:Generated_Source\PSoC6\pdl\drivers/peripheral/scb/cy_scb_i2c.h **** * \addtogroup group_scb_i2c_interrupt_functions
 864:Generated_Source\PSoC6\pdl\drivers/peripheral/scb/cy_scb_i2c.h **** * \{
 865:Generated_Source\PSoC6\pdl\drivers/peripheral/scb/cy_scb_i2c.h **** */
 866:Generated_Source\PSoC6\pdl\drivers/peripheral/scb/cy_scb_i2c.h **** void Cy_SCB_I2C_Interrupt      (CySCB_Type *base, cy_stc_scb_i2c_context_t *context);
 867:Generated_Source\PSoC6\pdl\drivers/peripheral/scb/cy_scb_i2c.h **** void Cy_SCB_I2C_SlaveInterrupt (CySCB_Type *base, cy_stc_scb_i2c_context_t *context);
 868:Generated_Source\PSoC6\pdl\drivers/peripheral/scb/cy_scb_i2c.h **** void Cy_SCB_I2C_MasterInterrupt (CySCB_Type *base, cy_stc_scb_i2c_context_t *context);
 869:Generated_Source\PSoC6\pdl\drivers/peripheral/scb/cy_scb_i2c.h **** 
 870:Generated_Source\PSoC6\pdl\drivers/peripheral/scb/cy_scb_i2c.h **** __STATIC_INLINE void Cy_SCB_I2C_RegisterEventCallback(CySCB_Type const *base, cy_cb_scb_i2c_handle_
 871:Generated_Source\PSoC6\pdl\drivers/peripheral/scb/cy_scb_i2c.h ****                                                       cy_stc_scb_i2c_context_t *context);
 872:Generated_Source\PSoC6\pdl\drivers/peripheral/scb/cy_scb_i2c.h **** __STATIC_INLINE void Cy_SCB_I2C_RegisterAddrCallback (CySCB_Type const *base, cy_cb_scb_i2c_handle_
 873:Generated_Source\PSoC6\pdl\drivers/peripheral/scb/cy_scb_i2c.h ****                                                       cy_stc_scb_i2c_context_t *context);
 874:Generated_Source\PSoC6\pdl\drivers/peripheral/scb/cy_scb_i2c.h **** /** \} group_scb_i2c_interrupt_functions */
 875:Generated_Source\PSoC6\pdl\drivers/peripheral/scb/cy_scb_i2c.h **** 
 876:Generated_Source\PSoC6\pdl\drivers/peripheral/scb/cy_scb_i2c.h **** /**
 877:Generated_Source\PSoC6\pdl\drivers/peripheral/scb/cy_scb_i2c.h **** * \addtogroup group_scb_i2c_low_power_functions
 878:Generated_Source\PSoC6\pdl\drivers/peripheral/scb/cy_scb_i2c.h **** * \{
 879:Generated_Source\PSoC6\pdl\drivers/peripheral/scb/cy_scb_i2c.h **** */
 880:Generated_Source\PSoC6\pdl\drivers/peripheral/scb/cy_scb_i2c.h **** cy_en_syspm_status_t Cy_SCB_I2C_DeepSleepCallback(cy_stc_syspm_callback_params_t *callbackParams, c
 881:Generated_Source\PSoC6\pdl\drivers/peripheral/scb/cy_scb_i2c.h **** cy_en_syspm_status_t Cy_SCB_I2C_HibernateCallback(cy_stc_syspm_callback_params_t *callbackParams, c
 882:Generated_Source\PSoC6\pdl\drivers/peripheral/scb/cy_scb_i2c.h **** /** \} group_scb_i2c_low_power_functions */
 883:Generated_Source\PSoC6\pdl\drivers/peripheral/scb/cy_scb_i2c.h **** 
 884:Generated_Source\PSoC6\pdl\drivers/peripheral/scb/cy_scb_i2c.h **** 
 885:Generated_Source\PSoC6\pdl\drivers/peripheral/scb/cy_scb_i2c.h **** /*******************************************************************************
 886:Generated_Source\PSoC6\pdl\drivers/peripheral/scb/cy_scb_i2c.h **** *                               API Constants
 887:Generated_Source\PSoC6\pdl\drivers/peripheral/scb/cy_scb_i2c.h **** *******************************************************************************/
 888:Generated_Source\PSoC6\pdl\drivers/peripheral/scb/cy_scb_i2c.h **** 
 889:Generated_Source\PSoC6\pdl\drivers/peripheral/scb/cy_scb_i2c.h **** /**
 890:Generated_Source\PSoC6\pdl\drivers/peripheral/scb/cy_scb_i2c.h **** * \addtogroup group_scb_i2c_macros
 891:Generated_Source\PSoC6\pdl\drivers/peripheral/scb/cy_scb_i2c.h **** * \{
 892:Generated_Source\PSoC6\pdl\drivers/peripheral/scb/cy_scb_i2c.h **** */
 893:Generated_Source\PSoC6\pdl\drivers/peripheral/scb/cy_scb_i2c.h **** 
 894:Generated_Source\PSoC6\pdl\drivers/peripheral/scb/cy_scb_i2c.h **** /**
 895:Generated_Source\PSoC6\pdl\drivers/peripheral/scb/cy_scb_i2c.h **** * \defgroup group_scb_i2c_macros_slave_status I2C Slave Status
 896:Generated_Source\PSoC6\pdl\drivers/peripheral/scb/cy_scb_i2c.h **** * Macros to check current I2C slave status returned by
 897:Generated_Source\PSoC6\pdl\drivers/peripheral/scb/cy_scb_i2c.h **** * \ref Cy_SCB_I2C_SlaveGetStatus function. Each I2C slave status is encoded
 898:Generated_Source\PSoC6\pdl\drivers/peripheral/scb/cy_scb_i2c.h **** * in a separate bit, therefore multiple bits may be set to indicate the
 899:Generated_Source\PSoC6\pdl\drivers/peripheral/scb/cy_scb_i2c.h **** * current status.
 900:Generated_Source\PSoC6\pdl\drivers/peripheral/scb/cy_scb_i2c.h **** * \{
 901:Generated_Source\PSoC6\pdl\drivers/peripheral/scb/cy_scb_i2c.h **** */
 902:Generated_Source\PSoC6\pdl\drivers/peripheral/scb/cy_scb_i2c.h **** /** There is a read transaction in progress */
 903:Generated_Source\PSoC6\pdl\drivers/peripheral/scb/cy_scb_i2c.h **** #define CY_SCB_I2C_SLAVE_RD_BUSY       (0x00000001UL)
 904:Generated_Source\PSoC6\pdl\drivers/peripheral/scb/cy_scb_i2c.h **** 
 905:Generated_Source\PSoC6\pdl\drivers/peripheral/scb/cy_scb_i2c.h **** /**
 906:Generated_Source\PSoC6\pdl\drivers/peripheral/scb/cy_scb_i2c.h **** * All read data has been loaded into the TX FIFO, applicable only if
 907:Generated_Source\PSoC6\pdl\drivers/peripheral/scb/cy_scb_i2c.h **** * the TX FIFO is used
 908:Generated_Source\PSoC6\pdl\drivers/peripheral/scb/cy_scb_i2c.h **** */
 909:Generated_Source\PSoC6\pdl\drivers/peripheral/scb/cy_scb_i2c.h **** #define CY_SCB_I2C_SLAVE_RD_IN_FIFO    (0x00000002UL)
 910:Generated_Source\PSoC6\pdl\drivers/peripheral/scb/cy_scb_i2c.h **** 
 911:Generated_Source\PSoC6\pdl\drivers/peripheral/scb/cy_scb_i2c.h **** /**
 912:Generated_Source\PSoC6\pdl\drivers/peripheral/scb/cy_scb_i2c.h **** * The master has finished reading data from the slave
 913:Generated_Source\PSoC6\pdl\drivers/peripheral/scb/cy_scb_i2c.h **** */
 914:Generated_Source\PSoC6\pdl\drivers/peripheral/scb/cy_scb_i2c.h **** #define CY_SCB_I2C_SLAVE_RD_CMPLT      (0x00000004UL)
 915:Generated_Source\PSoC6\pdl\drivers/peripheral/scb/cy_scb_i2c.h **** 
 916:Generated_Source\PSoC6\pdl\drivers/peripheral/scb/cy_scb_i2c.h **** /**
ARM GAS  C:\Users\Austina\AppData\Local\Temp\cc8Iu5MR.s 			page 24


 917:Generated_Source\PSoC6\pdl\drivers/peripheral/scb/cy_scb_i2c.h **** * Set when the master tried to read more bytes than available in the configured
 918:Generated_Source\PSoC6\pdl\drivers/peripheral/scb/cy_scb_i2c.h **** * read buffer. The slave is not able to finish the transaction and sends
 919:Generated_Source\PSoC6\pdl\drivers/peripheral/scb/cy_scb_i2c.h **** * \ref CY_SCB_I2C_DEFAULT_TX.
 920:Generated_Source\PSoC6\pdl\drivers/peripheral/scb/cy_scb_i2c.h **** */
 921:Generated_Source\PSoC6\pdl\drivers/peripheral/scb/cy_scb_i2c.h **** #define CY_SCB_I2C_SLAVE_RD_UNDRFL     (0x00000008UL)
 922:Generated_Source\PSoC6\pdl\drivers/peripheral/scb/cy_scb_i2c.h **** 
 923:Generated_Source\PSoC6\pdl\drivers/peripheral/scb/cy_scb_i2c.h **** /** There is a write transaction in progress */
 924:Generated_Source\PSoC6\pdl\drivers/peripheral/scb/cy_scb_i2c.h **** #define CY_SCB_I2C_SLAVE_WR_BUSY       (0x00000010UL)
 925:Generated_Source\PSoC6\pdl\drivers/peripheral/scb/cy_scb_i2c.h **** 
 926:Generated_Source\PSoC6\pdl\drivers/peripheral/scb/cy_scb_i2c.h **** /**
 927:Generated_Source\PSoC6\pdl\drivers/peripheral/scb/cy_scb_i2c.h **** * The master has finished writing data into the slave
 928:Generated_Source\PSoC6\pdl\drivers/peripheral/scb/cy_scb_i2c.h **** */
 929:Generated_Source\PSoC6\pdl\drivers/peripheral/scb/cy_scb_i2c.h **** #define CY_SCB_I2C_SLAVE_WR_CMPLT      (0x00000020UL)
 930:Generated_Source\PSoC6\pdl\drivers/peripheral/scb/cy_scb_i2c.h **** 
 931:Generated_Source\PSoC6\pdl\drivers/peripheral/scb/cy_scb_i2c.h **** /**
 932:Generated_Source\PSoC6\pdl\drivers/peripheral/scb/cy_scb_i2c.h **** * The master attempted to write more bytes than space available in the
 933:Generated_Source\PSoC6\pdl\drivers/peripheral/scb/cy_scb_i2c.h **** * configured Write buffer. Note that all subsequent bytes are dropped.
 934:Generated_Source\PSoC6\pdl\drivers/peripheral/scb/cy_scb_i2c.h **** */
 935:Generated_Source\PSoC6\pdl\drivers/peripheral/scb/cy_scb_i2c.h **** #define CY_SCB_I2C_SLAVE_WR_OVRFL      (0x00000040UL)
 936:Generated_Source\PSoC6\pdl\drivers/peripheral/scb/cy_scb_i2c.h **** 
 937:Generated_Source\PSoC6\pdl\drivers/peripheral/scb/cy_scb_i2c.h **** /** The slave lost arbitration, and the transaction was aborted */
 938:Generated_Source\PSoC6\pdl\drivers/peripheral/scb/cy_scb_i2c.h **** #define CY_SCB_I2C_SLAVE_ARB_LOST      (0x00000080UL)
 939:Generated_Source\PSoC6\pdl\drivers/peripheral/scb/cy_scb_i2c.h **** 
 940:Generated_Source\PSoC6\pdl\drivers/peripheral/scb/cy_scb_i2c.h **** /**
 941:Generated_Source\PSoC6\pdl\drivers/peripheral/scb/cy_scb_i2c.h **** * The slave captured an error on the bus during a master transaction (source
 942:Generated_Source\PSoC6\pdl\drivers/peripheral/scb/cy_scb_i2c.h **** * of error is misplaced Start or Stop).
 943:Generated_Source\PSoC6\pdl\drivers/peripheral/scb/cy_scb_i2c.h **** */
 944:Generated_Source\PSoC6\pdl\drivers/peripheral/scb/cy_scb_i2c.h **** #define CY_SCB_I2C_SLAVE_BUS_ERR       (0x00000100UL)
 945:Generated_Source\PSoC6\pdl\drivers/peripheral/scb/cy_scb_i2c.h **** /** \} group_scb_i2c_macros_slave_status */
 946:Generated_Source\PSoC6\pdl\drivers/peripheral/scb/cy_scb_i2c.h **** 
 947:Generated_Source\PSoC6\pdl\drivers/peripheral/scb/cy_scb_i2c.h **** /**
 948:Generated_Source\PSoC6\pdl\drivers/peripheral/scb/cy_scb_i2c.h **** * \defgroup group_scb_i2c_macros_master_status I2C Master Status
 949:Generated_Source\PSoC6\pdl\drivers/peripheral/scb/cy_scb_i2c.h **** * Macros to check current I2C master status returned by
 950:Generated_Source\PSoC6\pdl\drivers/peripheral/scb/cy_scb_i2c.h **** * \ref Cy_SCB_I2C_MasterGetStatus function. Each I2C master status is encoded
 951:Generated_Source\PSoC6\pdl\drivers/peripheral/scb/cy_scb_i2c.h **** * in a separate bit, therefore multiple bits may be set to indicate the
 952:Generated_Source\PSoC6\pdl\drivers/peripheral/scb/cy_scb_i2c.h **** * current status.
 953:Generated_Source\PSoC6\pdl\drivers/peripheral/scb/cy_scb_i2c.h **** * \{
 954:Generated_Source\PSoC6\pdl\drivers/peripheral/scb/cy_scb_i2c.h **** */
 955:Generated_Source\PSoC6\pdl\drivers/peripheral/scb/cy_scb_i2c.h **** 
 956:Generated_Source\PSoC6\pdl\drivers/peripheral/scb/cy_scb_i2c.h **** /**
 957:Generated_Source\PSoC6\pdl\drivers/peripheral/scb/cy_scb_i2c.h **** * The master is busy executing operation started by \ref Cy_SCB_I2C_MasterRead
 958:Generated_Source\PSoC6\pdl\drivers/peripheral/scb/cy_scb_i2c.h **** * or \ref Cy_SCB_I2C_MasterWrite
 959:Generated_Source\PSoC6\pdl\drivers/peripheral/scb/cy_scb_i2c.h **** */
 960:Generated_Source\PSoC6\pdl\drivers/peripheral/scb/cy_scb_i2c.h **** #define CY_SCB_I2C_MASTER_BUSY         (0x00010000UL)
 961:Generated_Source\PSoC6\pdl\drivers/peripheral/scb/cy_scb_i2c.h **** 
 962:Generated_Source\PSoC6\pdl\drivers/peripheral/scb/cy_scb_i2c.h **** /**
 963:Generated_Source\PSoC6\pdl\drivers/peripheral/scb/cy_scb_i2c.h **** * All Write data has been loaded into the TX FIFO
 964:Generated_Source\PSoC6\pdl\drivers/peripheral/scb/cy_scb_i2c.h **** */
 965:Generated_Source\PSoC6\pdl\drivers/peripheral/scb/cy_scb_i2c.h **** #define CY_SCB_I2C_MASTER_WR_IN_FIFO   (0x00020000UL)
 966:Generated_Source\PSoC6\pdl\drivers/peripheral/scb/cy_scb_i2c.h **** 
 967:Generated_Source\PSoC6\pdl\drivers/peripheral/scb/cy_scb_i2c.h **** /** The slave NACKed the address. */
 968:Generated_Source\PSoC6\pdl\drivers/peripheral/scb/cy_scb_i2c.h **** #define CY_SCB_I2C_MASTER_ADDR_NAK     (0x00100000UL)
 969:Generated_Source\PSoC6\pdl\drivers/peripheral/scb/cy_scb_i2c.h **** 
 970:Generated_Source\PSoC6\pdl\drivers/peripheral/scb/cy_scb_i2c.h **** /** Write completed before all bytes were sent (last byte was NAKed)
 971:Generated_Source\PSoC6\pdl\drivers/peripheral/scb/cy_scb_i2c.h **** */
 972:Generated_Source\PSoC6\pdl\drivers/peripheral/scb/cy_scb_i2c.h **** #define CY_SCB_I2C_MASTER_DATA_NAK     (0x00200000UL)
 973:Generated_Source\PSoC6\pdl\drivers/peripheral/scb/cy_scb_i2c.h **** 
ARM GAS  C:\Users\Austina\AppData\Local\Temp\cc8Iu5MR.s 			page 25


 974:Generated_Source\PSoC6\pdl\drivers/peripheral/scb/cy_scb_i2c.h **** /** The master lost arbitration, the transaction was aborted */
 975:Generated_Source\PSoC6\pdl\drivers/peripheral/scb/cy_scb_i2c.h **** #define CY_SCB_I2C_MASTER_ARB_LOST     (0x00400000UL)
 976:Generated_Source\PSoC6\pdl\drivers/peripheral/scb/cy_scb_i2c.h **** 
 977:Generated_Source\PSoC6\pdl\drivers/peripheral/scb/cy_scb_i2c.h **** /**
 978:Generated_Source\PSoC6\pdl\drivers/peripheral/scb/cy_scb_i2c.h **** * The master detected an erroneous start or stop, the transaction was aborted
 979:Generated_Source\PSoC6\pdl\drivers/peripheral/scb/cy_scb_i2c.h **** */
 980:Generated_Source\PSoC6\pdl\drivers/peripheral/scb/cy_scb_i2c.h **** #define CY_SCB_I2C_MASTER_BUS_ERR      (0x00800000UL)
 981:Generated_Source\PSoC6\pdl\drivers/peripheral/scb/cy_scb_i2c.h **** 
 982:Generated_Source\PSoC6\pdl\drivers/peripheral/scb/cy_scb_i2c.h **** /**
 983:Generated_Source\PSoC6\pdl\drivers/peripheral/scb/cy_scb_i2c.h **** * The master transaction was aborted and the slave transaction is on-going
 984:Generated_Source\PSoC6\pdl\drivers/peripheral/scb/cy_scb_i2c.h **** * because the slave was addressed before the master generated a start
 985:Generated_Source\PSoC6\pdl\drivers/peripheral/scb/cy_scb_i2c.h **** */
 986:Generated_Source\PSoC6\pdl\drivers/peripheral/scb/cy_scb_i2c.h **** #define CY_SCB_I2C_MASTER_ABORT_START  (0x01000000UL)
 987:Generated_Source\PSoC6\pdl\drivers/peripheral/scb/cy_scb_i2c.h **** /** \} group_scb_i2c_macros_master_status */
 988:Generated_Source\PSoC6\pdl\drivers/peripheral/scb/cy_scb_i2c.h **** 
 989:Generated_Source\PSoC6\pdl\drivers/peripheral/scb/cy_scb_i2c.h **** /**
 990:Generated_Source\PSoC6\pdl\drivers/peripheral/scb/cy_scb_i2c.h **** * \defgroup group_scb_i2c_macros_callback_events I2C Callback Events
 991:Generated_Source\PSoC6\pdl\drivers/peripheral/scb/cy_scb_i2c.h **** * \{
 992:Generated_Source\PSoC6\pdl\drivers/peripheral/scb/cy_scb_i2c.h **** * Macros to check I2C events passed by \ref cy_cb_scb_i2c_handle_events_t callback.
 993:Generated_Source\PSoC6\pdl\drivers/peripheral/scb/cy_scb_i2c.h **** * Each event is encoded in a separate bit, and therefore it is possible to
 994:Generated_Source\PSoC6\pdl\drivers/peripheral/scb/cy_scb_i2c.h **** * notify about multiple events.
 995:Generated_Source\PSoC6\pdl\drivers/peripheral/scb/cy_scb_i2c.h **** */
 996:Generated_Source\PSoC6\pdl\drivers/peripheral/scb/cy_scb_i2c.h **** /**
 997:Generated_Source\PSoC6\pdl\drivers/peripheral/scb/cy_scb_i2c.h **** * Indicates that the slave was addressed and the master wants to read data.
 998:Generated_Source\PSoC6\pdl\drivers/peripheral/scb/cy_scb_i2c.h **** * This event can be used to configure the slave Read buffer.
 999:Generated_Source\PSoC6\pdl\drivers/peripheral/scb/cy_scb_i2c.h **** */
1000:Generated_Source\PSoC6\pdl\drivers/peripheral/scb/cy_scb_i2c.h **** #define CY_SCB_I2C_SLAVE_READ_EVENT            (0x00000001UL)
1001:Generated_Source\PSoC6\pdl\drivers/peripheral/scb/cy_scb_i2c.h **** 
1002:Generated_Source\PSoC6\pdl\drivers/peripheral/scb/cy_scb_i2c.h **** /**
1003:Generated_Source\PSoC6\pdl\drivers/peripheral/scb/cy_scb_i2c.h **** * Indicates that the slave was addressed and the master wants to write data.
1004:Generated_Source\PSoC6\pdl\drivers/peripheral/scb/cy_scb_i2c.h **** * This event can be used to configure the slave Write buffer.
1005:Generated_Source\PSoC6\pdl\drivers/peripheral/scb/cy_scb_i2c.h **** */
1006:Generated_Source\PSoC6\pdl\drivers/peripheral/scb/cy_scb_i2c.h **** #define CY_SCB_I2C_SLAVE_WRITE_EVENT           (0x00000002UL)
1007:Generated_Source\PSoC6\pdl\drivers/peripheral/scb/cy_scb_i2c.h **** 
1008:Generated_Source\PSoC6\pdl\drivers/peripheral/scb/cy_scb_i2c.h **** /**
1009:Generated_Source\PSoC6\pdl\drivers/peripheral/scb/cy_scb_i2c.h **** * All slave data from the configured Read buffer has been loaded into the
1010:Generated_Source\PSoC6\pdl\drivers/peripheral/scb/cy_scb_i2c.h **** * TX FIFO. The content of the Read buffer can be modified. Applicable only
1011:Generated_Source\PSoC6\pdl\drivers/peripheral/scb/cy_scb_i2c.h **** * if the TX FIFO is used.
1012:Generated_Source\PSoC6\pdl\drivers/peripheral/scb/cy_scb_i2c.h **** */
1013:Generated_Source\PSoC6\pdl\drivers/peripheral/scb/cy_scb_i2c.h **** #define CY_SCB_I2C_SLAVE_RD_IN_FIFO_EVENT      (0x00000004UL)
1014:Generated_Source\PSoC6\pdl\drivers/peripheral/scb/cy_scb_i2c.h **** 
1015:Generated_Source\PSoC6\pdl\drivers/peripheral/scb/cy_scb_i2c.h **** /**
1016:Generated_Source\PSoC6\pdl\drivers/peripheral/scb/cy_scb_i2c.h **** * The master has read all data out of the configured Read buffer.
1017:Generated_Source\PSoC6\pdl\drivers/peripheral/scb/cy_scb_i2c.h **** * This event can be used to configure the next Read buffer. If the buffer
1018:Generated_Source\PSoC6\pdl\drivers/peripheral/scb/cy_scb_i2c.h **** * remains empty, the \ref CY_SCB_I2C_DEFAULT_TX bytes are returned to the master.
1019:Generated_Source\PSoC6\pdl\drivers/peripheral/scb/cy_scb_i2c.h **** */
1020:Generated_Source\PSoC6\pdl\drivers/peripheral/scb/cy_scb_i2c.h **** #define CY_SCB_I2C_SLAVE_RD_BUF_EMPTY_EVENT    (0x00000008UL)
1021:Generated_Source\PSoC6\pdl\drivers/peripheral/scb/cy_scb_i2c.h **** 
1022:Generated_Source\PSoC6\pdl\drivers/peripheral/scb/cy_scb_i2c.h **** /**
1023:Generated_Source\PSoC6\pdl\drivers/peripheral/scb/cy_scb_i2c.h **** * Indicates the master completed reading from the slave (set by the master NAK
1024:Generated_Source\PSoC6\pdl\drivers/peripheral/scb/cy_scb_i2c.h **** * or Stop)
1025:Generated_Source\PSoC6\pdl\drivers/peripheral/scb/cy_scb_i2c.h **** */
1026:Generated_Source\PSoC6\pdl\drivers/peripheral/scb/cy_scb_i2c.h **** #define CY_SCB_I2C_SLAVE_RD_CMPLT_EVENT        (0x00000010UL)
1027:Generated_Source\PSoC6\pdl\drivers/peripheral/scb/cy_scb_i2c.h **** 
1028:Generated_Source\PSoC6\pdl\drivers/peripheral/scb/cy_scb_i2c.h **** /**
1029:Generated_Source\PSoC6\pdl\drivers/peripheral/scb/cy_scb_i2c.h **** * Indicates the master completed writing to the slave (set by the master Stop
1030:Generated_Source\PSoC6\pdl\drivers/peripheral/scb/cy_scb_i2c.h **** * or Restart)
ARM GAS  C:\Users\Austina\AppData\Local\Temp\cc8Iu5MR.s 			page 26


1031:Generated_Source\PSoC6\pdl\drivers/peripheral/scb/cy_scb_i2c.h **** */
1032:Generated_Source\PSoC6\pdl\drivers/peripheral/scb/cy_scb_i2c.h **** #define CY_SCB_I2C_SLAVE_WR_CMPLT_EVENT        (0x00000020UL)
1033:Generated_Source\PSoC6\pdl\drivers/peripheral/scb/cy_scb_i2c.h **** 
1034:Generated_Source\PSoC6\pdl\drivers/peripheral/scb/cy_scb_i2c.h **** /**
1035:Generated_Source\PSoC6\pdl\drivers/peripheral/scb/cy_scb_i2c.h **** * Indicates the I2C hardware detected an error.
1036:Generated_Source\PSoC6\pdl\drivers/peripheral/scb/cy_scb_i2c.h **** * Check \ref Cy_SCB_I2C_SlaveGetStatus to determine the source of the error.
1037:Generated_Source\PSoC6\pdl\drivers/peripheral/scb/cy_scb_i2c.h **** */
1038:Generated_Source\PSoC6\pdl\drivers/peripheral/scb/cy_scb_i2c.h **** #define CY_SCB_I2C_SLAVE_ERR_EVENT             (0x00000040UL)
1039:Generated_Source\PSoC6\pdl\drivers/peripheral/scb/cy_scb_i2c.h **** 
1040:Generated_Source\PSoC6\pdl\drivers/peripheral/scb/cy_scb_i2c.h **** /**
1041:Generated_Source\PSoC6\pdl\drivers/peripheral/scb/cy_scb_i2c.h **** * All data specified by \ref Cy_SCB_I2C_MasterWrite has been loaded
1042:Generated_Source\PSoC6\pdl\drivers/peripheral/scb/cy_scb_i2c.h **** * into the TX FIFO. The content of the master write buffer can be modified.
1043:Generated_Source\PSoC6\pdl\drivers/peripheral/scb/cy_scb_i2c.h **** * Applicable only if the TX FIFO is used.
1044:Generated_Source\PSoC6\pdl\drivers/peripheral/scb/cy_scb_i2c.h **** */
1045:Generated_Source\PSoC6\pdl\drivers/peripheral/scb/cy_scb_i2c.h **** #define CY_SCB_I2C_MASTER_WR_IN_FIFO_EVENT     (0x00010000UL)
1046:Generated_Source\PSoC6\pdl\drivers/peripheral/scb/cy_scb_i2c.h **** 
1047:Generated_Source\PSoC6\pdl\drivers/peripheral/scb/cy_scb_i2c.h **** /** The master write started by \ref Cy_SCB_I2C_MasterWrite is complete */
1048:Generated_Source\PSoC6\pdl\drivers/peripheral/scb/cy_scb_i2c.h **** #define CY_SCB_I2C_MASTER_WR_CMPLT_EVENT       (0x00020000UL)
1049:Generated_Source\PSoC6\pdl\drivers/peripheral/scb/cy_scb_i2c.h **** 
1050:Generated_Source\PSoC6\pdl\drivers/peripheral/scb/cy_scb_i2c.h **** /** The master read started by \ref Cy_SCB_I2C_MasterRead is complete */
1051:Generated_Source\PSoC6\pdl\drivers/peripheral/scb/cy_scb_i2c.h **** #define CY_SCB_I2C_MASTER_RD_CMPLT_EVENT       (0x00040000UL)
1052:Generated_Source\PSoC6\pdl\drivers/peripheral/scb/cy_scb_i2c.h **** 
1053:Generated_Source\PSoC6\pdl\drivers/peripheral/scb/cy_scb_i2c.h **** /**
1054:Generated_Source\PSoC6\pdl\drivers/peripheral/scb/cy_scb_i2c.h **** * Indicates the I2C hardware has detected an error. It occurs together with
1055:Generated_Source\PSoC6\pdl\drivers/peripheral/scb/cy_scb_i2c.h **** * \ref CY_SCB_I2C_MASTER_RD_CMPLT_EVENT or \ref CY_SCB_I2C_MASTER_WR_CMPLT_EVENT
1056:Generated_Source\PSoC6\pdl\drivers/peripheral/scb/cy_scb_i2c.h **** * depends on the direction of the transfer.
1057:Generated_Source\PSoC6\pdl\drivers/peripheral/scb/cy_scb_i2c.h **** * Check \ref Cy_SCB_I2C_MasterGetStatus to determine the source of the error.
1058:Generated_Source\PSoC6\pdl\drivers/peripheral/scb/cy_scb_i2c.h **** */
1059:Generated_Source\PSoC6\pdl\drivers/peripheral/scb/cy_scb_i2c.h **** #define CY_SCB_I2C_MASTER_ERR_EVENT            (0x00080000UL)
1060:Generated_Source\PSoC6\pdl\drivers/peripheral/scb/cy_scb_i2c.h **** /** \} group_scb_i2c_macros_callback_events */
1061:Generated_Source\PSoC6\pdl\drivers/peripheral/scb/cy_scb_i2c.h **** 
1062:Generated_Source\PSoC6\pdl\drivers/peripheral/scb/cy_scb_i2c.h **** /**
1063:Generated_Source\PSoC6\pdl\drivers/peripheral/scb/cy_scb_i2c.h **** * \defgroup group_scb_i2c_macros_addr_callback_events I2C Address Callback Events
1064:Generated_Source\PSoC6\pdl\drivers/peripheral/scb/cy_scb_i2c.h **** * Macros to check I2C address events passed by \ref cy_cb_scb_i2c_handle_addr_t callback.
1065:Generated_Source\PSoC6\pdl\drivers/peripheral/scb/cy_scb_i2c.h **** * Each event is encoded in a separate bit and therefore it is possible to
1066:Generated_Source\PSoC6\pdl\drivers/peripheral/scb/cy_scb_i2c.h **** * notify about multiple events.
1067:Generated_Source\PSoC6\pdl\drivers/peripheral/scb/cy_scb_i2c.h **** * \{
1068:Generated_Source\PSoC6\pdl\drivers/peripheral/scb/cy_scb_i2c.h **** */
1069:Generated_Source\PSoC6\pdl\drivers/peripheral/scb/cy_scb_i2c.h **** /**
1070:Generated_Source\PSoC6\pdl\drivers/peripheral/scb/cy_scb_i2c.h **** * Indicates the slave was addressed by the general call address
1071:Generated_Source\PSoC6\pdl\drivers/peripheral/scb/cy_scb_i2c.h **** */
1072:Generated_Source\PSoC6\pdl\drivers/peripheral/scb/cy_scb_i2c.h **** #define CY_SCB_I2C_GENERAL_CALL_EVENT      (0x01UL)
1073:Generated_Source\PSoC6\pdl\drivers/peripheral/scb/cy_scb_i2c.h **** 
1074:Generated_Source\PSoC6\pdl\drivers/peripheral/scb/cy_scb_i2c.h **** /**
1075:Generated_Source\PSoC6\pdl\drivers/peripheral/scb/cy_scb_i2c.h **** * The slave address is in the RX FIFO.
1076:Generated_Source\PSoC6\pdl\drivers/peripheral/scb/cy_scb_i2c.h **** * Note that the address must be read from the RX FIFO using the
1077:Generated_Source\PSoC6\pdl\drivers/peripheral/scb/cy_scb_i2c.h **** * \ref Cy_SCB_ReadRxFifo function.
1078:Generated_Source\PSoC6\pdl\drivers/peripheral/scb/cy_scb_i2c.h **** */
1079:Generated_Source\PSoC6\pdl\drivers/peripheral/scb/cy_scb_i2c.h **** #define CY_SCB_I2C_ADDR_IN_FIFO_EVENT      (0x02UL)
1080:Generated_Source\PSoC6\pdl\drivers/peripheral/scb/cy_scb_i2c.h **** /** \} group_scb_i2c_macros_addr_callback_events */
1081:Generated_Source\PSoC6\pdl\drivers/peripheral/scb/cy_scb_i2c.h **** 
1082:Generated_Source\PSoC6\pdl\drivers/peripheral/scb/cy_scb_i2c.h **** /**
1083:Generated_Source\PSoC6\pdl\drivers/peripheral/scb/cy_scb_i2c.h **** * This value is returned by the slave when there is no data in the
1084:Generated_Source\PSoC6\pdl\drivers/peripheral/scb/cy_scb_i2c.h **** * Read buffer
1085:Generated_Source\PSoC6\pdl\drivers/peripheral/scb/cy_scb_i2c.h **** */
1086:Generated_Source\PSoC6\pdl\drivers/peripheral/scb/cy_scb_i2c.h **** #define CY_SCB_I2C_DEFAULT_TX  (0xFFUL)
1087:Generated_Source\PSoC6\pdl\drivers/peripheral/scb/cy_scb_i2c.h **** 
ARM GAS  C:\Users\Austina\AppData\Local\Temp\cc8Iu5MR.s 			page 27


1088:Generated_Source\PSoC6\pdl\drivers/peripheral/scb/cy_scb_i2c.h **** /**
1089:Generated_Source\PSoC6\pdl\drivers/peripheral/scb/cy_scb_i2c.h **** * This is a check delay in micro seconds (us) of the address matching event.
1090:Generated_Source\PSoC6\pdl\drivers/peripheral/scb/cy_scb_i2c.h **** * The default value for 100 kHz is 6us. The desired delay must be equal or more than
1091:Generated_Source\PSoC6\pdl\drivers/peripheral/scb/cy_scb_i2c.h **** * the duration of a high period of the SCL clock. Can be re-defined at the build
1092:Generated_Source\PSoC6\pdl\drivers/peripheral/scb/cy_scb_i2c.h **** * level as a compiler parameter.
1093:Generated_Source\PSoC6\pdl\drivers/peripheral/scb/cy_scb_i2c.h **** */
1094:Generated_Source\PSoC6\pdl\drivers/peripheral/scb/cy_scb_i2c.h **** #ifndef CY_SCB_I2C_ADDR_CHECK_DELAY_IN_US
1095:Generated_Source\PSoC6\pdl\drivers/peripheral/scb/cy_scb_i2c.h ****     #define CY_SCB_I2C_ADDR_CHECK_DELAY_IN_US                         (6U)
1096:Generated_Source\PSoC6\pdl\drivers/peripheral/scb/cy_scb_i2c.h **** #endif
1097:Generated_Source\PSoC6\pdl\drivers/peripheral/scb/cy_scb_i2c.h **** 
1098:Generated_Source\PSoC6\pdl\drivers/peripheral/scb/cy_scb_i2c.h **** 
1099:Generated_Source\PSoC6\pdl\drivers/peripheral/scb/cy_scb_i2c.h **** /*******************************************************************************
1100:Generated_Source\PSoC6\pdl\drivers/peripheral/scb/cy_scb_i2c.h **** *                          Internal Constants
1101:Generated_Source\PSoC6\pdl\drivers/peripheral/scb/cy_scb_i2c.h **** *******************************************************************************/
1102:Generated_Source\PSoC6\pdl\drivers/peripheral/scb/cy_scb_i2c.h **** 
1103:Generated_Source\PSoC6\pdl\drivers/peripheral/scb/cy_scb_i2c.h **** /** \cond INTERNAL */
1104:Generated_Source\PSoC6\pdl\drivers/peripheral/scb/cy_scb_i2c.h **** 
1105:Generated_Source\PSoC6\pdl\drivers/peripheral/scb/cy_scb_i2c.h **** /* Slave statuses */
1106:Generated_Source\PSoC6\pdl\drivers/peripheral/scb/cy_scb_i2c.h **** #define CY_SCB_I2C_SLAVE_RD_CLEAR  (CY_SCB_I2C_SLAVE_RD_CMPLT  | CY_SCB_I2C_SLAVE_RD_IN_FIFO | \
1107:Generated_Source\PSoC6\pdl\drivers/peripheral/scb/cy_scb_i2c.h ****                                     CY_SCB_I2C_SLAVE_RD_UNDRFL | CY_SCB_I2C_SLAVE_ARB_LOST   | \
1108:Generated_Source\PSoC6\pdl\drivers/peripheral/scb/cy_scb_i2c.h ****                                     CY_SCB_I2C_SLAVE_BUS_ERR)
1109:Generated_Source\PSoC6\pdl\drivers/peripheral/scb/cy_scb_i2c.h **** 
1110:Generated_Source\PSoC6\pdl\drivers/peripheral/scb/cy_scb_i2c.h **** #define CY_SCB_I2C_SLAVE_WR_CLEAR  (CY_SCB_I2C_SLAVE_WR_CMPLT | CY_SCB_I2C_SLAVE_WR_OVRFL | \
1111:Generated_Source\PSoC6\pdl\drivers/peripheral/scb/cy_scb_i2c.h ****                                     CY_SCB_I2C_SLAVE_ARB_LOST | CY_SCB_I2C_SLAVE_BUS_ERR)
1112:Generated_Source\PSoC6\pdl\drivers/peripheral/scb/cy_scb_i2c.h **** 
1113:Generated_Source\PSoC6\pdl\drivers/peripheral/scb/cy_scb_i2c.h **** /* Master error statuses */
1114:Generated_Source\PSoC6\pdl\drivers/peripheral/scb/cy_scb_i2c.h **** #define CY_SCB_I2C_MASTER_ERR (CY_SCB_I2C_MASTER_ABORT_START | CY_SCB_I2C_MASTER_ADDR_NAK | \
1115:Generated_Source\PSoC6\pdl\drivers/peripheral/scb/cy_scb_i2c.h ****                                CY_SCB_I2C_MASTER_DATA_NAK    | CY_SCB_I2C_MASTER_BUS_ERR  | \
1116:Generated_Source\PSoC6\pdl\drivers/peripheral/scb/cy_scb_i2c.h ****                                CY_SCB_I2C_MASTER_ARB_LOST)
1117:Generated_Source\PSoC6\pdl\drivers/peripheral/scb/cy_scb_i2c.h **** 
1118:Generated_Source\PSoC6\pdl\drivers/peripheral/scb/cy_scb_i2c.h **** /* Master interrupt masks */
1119:Generated_Source\PSoC6\pdl\drivers/peripheral/scb/cy_scb_i2c.h **** #define CY_SCB_I2C_MASTER_INTR     (CY_SCB_MASTER_INTR_I2C_ARB_LOST | CY_SCB_MASTER_INTR_I2C_BUS_ER
1120:Generated_Source\PSoC6\pdl\drivers/peripheral/scb/cy_scb_i2c.h ****                                     CY_SCB_MASTER_INTR_I2C_NACK     | CY_SCB_MASTER_INTR_I2C_STOP)
1121:Generated_Source\PSoC6\pdl\drivers/peripheral/scb/cy_scb_i2c.h **** 
1122:Generated_Source\PSoC6\pdl\drivers/peripheral/scb/cy_scb_i2c.h **** #define CY_SCB_I2C_MASTER_INTR_ALL   (CY_SCB_I2C_MASTER_INTR | CY_SCB_MASTER_INTR_I2C_ACK)
1123:Generated_Source\PSoC6\pdl\drivers/peripheral/scb/cy_scb_i2c.h **** 
1124:Generated_Source\PSoC6\pdl\drivers/peripheral/scb/cy_scb_i2c.h **** #define CY_SCB_I2C_MASTER_INTR_ERR   (CY_SCB_MASTER_INTR_I2C_BUS_ERROR | CY_SCB_MASTER_INTR_I2C_ARB
1125:Generated_Source\PSoC6\pdl\drivers/peripheral/scb/cy_scb_i2c.h **** 
1126:Generated_Source\PSoC6\pdl\drivers/peripheral/scb/cy_scb_i2c.h **** #define CY_SCB_I2C_MASTER_INTR_CMPLT (CY_SCB_I2C_MASTER_INTR_ERR | CY_SCB_MASTER_INTR_I2C_STOP)
1127:Generated_Source\PSoC6\pdl\drivers/peripheral/scb/cy_scb_i2c.h **** 
1128:Generated_Source\PSoC6\pdl\drivers/peripheral/scb/cy_scb_i2c.h **** /* Master statuses. */
1129:Generated_Source\PSoC6\pdl\drivers/peripheral/scb/cy_scb_i2c.h **** #define CY_SCB_I2C_MASTER_TX_BYTE_DONE (CY_SCB_MASTER_INTR_I2C_ACK       | CY_SCB_MASTER_INTR_I2C_N
1130:Generated_Source\PSoC6\pdl\drivers/peripheral/scb/cy_scb_i2c.h ****                                         CY_SCB_MASTER_INTR_I2C_BUS_ERROR | CY_SCB_MASTER_INTR_I2C_A
1131:Generated_Source\PSoC6\pdl\drivers/peripheral/scb/cy_scb_i2c.h **** 
1132:Generated_Source\PSoC6\pdl\drivers/peripheral/scb/cy_scb_i2c.h **** #define CY_SCB_I2C_MASTER_RX_BYTE_DONE (CY_SCB_MASTER_INTR_I2C_BUS_ERROR | CY_SCB_MASTER_INTR_I2C_A
1133:Generated_Source\PSoC6\pdl\drivers/peripheral/scb/cy_scb_i2c.h **** 
1134:Generated_Source\PSoC6\pdl\drivers/peripheral/scb/cy_scb_i2c.h **** #define CY_SCB_I2C_MASTER_STOP_DONE    (CY_SCB_MASTER_INTR_I2C_STOP      | \
1135:Generated_Source\PSoC6\pdl\drivers/peripheral/scb/cy_scb_i2c.h ****                                         CY_SCB_MASTER_INTR_I2C_BUS_ERROR | CY_SCB_MASTER_INTR_I2C_A
1136:Generated_Source\PSoC6\pdl\drivers/peripheral/scb/cy_scb_i2c.h **** 
1137:Generated_Source\PSoC6\pdl\drivers/peripheral/scb/cy_scb_i2c.h **** #define CY_SCB_I2C_MASTER_TIMEOUT_DONE (0x80000000UL)
1138:Generated_Source\PSoC6\pdl\drivers/peripheral/scb/cy_scb_i2c.h **** 
1139:Generated_Source\PSoC6\pdl\drivers/peripheral/scb/cy_scb_i2c.h **** /* The slave interrupt mask */
1140:Generated_Source\PSoC6\pdl\drivers/peripheral/scb/cy_scb_i2c.h **** #define CY_SCB_I2C_SLAVE_INTR      (CY_SCB_SLAVE_INTR_I2C_ADDR_MATCH | CY_SCB_SLAVE_INTR_I2C_GENERA
1141:Generated_Source\PSoC6\pdl\drivers/peripheral/scb/cy_scb_i2c.h ****                                     CY_SCB_SLAVE_INTR_I2C_STOP       | CY_SCB_SLAVE_INTR_I2C_BUS_ER
1142:Generated_Source\PSoC6\pdl\drivers/peripheral/scb/cy_scb_i2c.h ****                                     CY_SCB_SLAVE_INTR_I2C_ARB_LOST)
1143:Generated_Source\PSoC6\pdl\drivers/peripheral/scb/cy_scb_i2c.h **** 
1144:Generated_Source\PSoC6\pdl\drivers/peripheral/scb/cy_scb_i2c.h **** #define CY_SCB_I2C_SLAVE_INTR_NO_STOP   (CY_SCB_I2C_SLAVE_INTR & (uint32_t) ~CY_SCB_SLAVE_INTR_I2C_
ARM GAS  C:\Users\Austina\AppData\Local\Temp\cc8Iu5MR.s 			page 28


1145:Generated_Source\PSoC6\pdl\drivers/peripheral/scb/cy_scb_i2c.h **** 
1146:Generated_Source\PSoC6\pdl\drivers/peripheral/scb/cy_scb_i2c.h **** #define CY_SCB_I2C_SLAVE_INTR_ADDR      (CY_SCB_SLAVE_INTR_I2C_ADDR_MATCH | CY_SCB_SLAVE_INTR_I2C_G
1147:Generated_Source\PSoC6\pdl\drivers/peripheral/scb/cy_scb_i2c.h **** 
1148:Generated_Source\PSoC6\pdl\drivers/peripheral/scb/cy_scb_i2c.h **** #define CY_SCB_I2C_SLAVE_ADDR_DONE      (CY_SCB_I2C_SLAVE_INTR_ADDR)
1149:Generated_Source\PSoC6\pdl\drivers/peripheral/scb/cy_scb_i2c.h **** 
1150:Generated_Source\PSoC6\pdl\drivers/peripheral/scb/cy_scb_i2c.h **** #define CY_SCB_I2C_SLAVE_INTR_NO_ADDR   (CY_SCB_I2C_SLAVE_INTR & (uint32_t) ~CY_SCB_I2C_SLAVE_INTR_
1151:Generated_Source\PSoC6\pdl\drivers/peripheral/scb/cy_scb_i2c.h **** 
1152:Generated_Source\PSoC6\pdl\drivers/peripheral/scb/cy_scb_i2c.h **** #define CY_SCB_I2C_SLAVE_INTR_TX        (CY_SCB_TX_INTR_LEVEL | CY_SCB_TX_INTR_UNDERFLOW)
1153:Generated_Source\PSoC6\pdl\drivers/peripheral/scb/cy_scb_i2c.h **** 
1154:Generated_Source\PSoC6\pdl\drivers/peripheral/scb/cy_scb_i2c.h **** #define CY_SCB_I2C_SLAVE_INTR_ERROR     (CY_SCB_SLAVE_INTR_I2C_BUS_ERROR | CY_SCB_SLAVE_INTR_I2C_AR
1155:Generated_Source\PSoC6\pdl\drivers/peripheral/scb/cy_scb_i2c.h **** 
1156:Generated_Source\PSoC6\pdl\drivers/peripheral/scb/cy_scb_i2c.h **** /* I2C states */
1157:Generated_Source\PSoC6\pdl\drivers/peripheral/scb/cy_scb_i2c.h **** #define CY_SCB_I2C_IDLE              (0x10000000UL)
1158:Generated_Source\PSoC6\pdl\drivers/peripheral/scb/cy_scb_i2c.h **** #define CY_SCB_I2C_IDLE_MASK         (0x10000000UL)
1159:Generated_Source\PSoC6\pdl\drivers/peripheral/scb/cy_scb_i2c.h **** 
1160:Generated_Source\PSoC6\pdl\drivers/peripheral/scb/cy_scb_i2c.h **** /* Master states */
1161:Generated_Source\PSoC6\pdl\drivers/peripheral/scb/cy_scb_i2c.h **** #define CY_SCB_I2C_MASTER_ACTIVE     (0x00100000UL)
1162:Generated_Source\PSoC6\pdl\drivers/peripheral/scb/cy_scb_i2c.h **** #define CY_SCB_I2C_MASTER_WAIT       (0x10100000UL)
1163:Generated_Source\PSoC6\pdl\drivers/peripheral/scb/cy_scb_i2c.h **** #define CY_SCB_I2C_MASTER_RX0        (0x00110000UL)
1164:Generated_Source\PSoC6\pdl\drivers/peripheral/scb/cy_scb_i2c.h **** #define CY_SCB_I2C_MASTER_RX1        (0x00120000UL)
1165:Generated_Source\PSoC6\pdl\drivers/peripheral/scb/cy_scb_i2c.h **** #define CY_SCB_I2C_MASTER_ADDR       (0x10130000UL)
1166:Generated_Source\PSoC6\pdl\drivers/peripheral/scb/cy_scb_i2c.h **** #define CY_SCB_I2C_MASTER_TX         (0x00140000UL)
1167:Generated_Source\PSoC6\pdl\drivers/peripheral/scb/cy_scb_i2c.h **** #define CY_SCB_I2C_MASTER_TX_DONE    (0x00150000UL)
1168:Generated_Source\PSoC6\pdl\drivers/peripheral/scb/cy_scb_i2c.h **** #define CY_SCB_I2C_MASTER_STOP       (0x00160000UL)
1169:Generated_Source\PSoC6\pdl\drivers/peripheral/scb/cy_scb_i2c.h **** #define CY_SCB_I2C_MASTER_WAIT_STOP  (0x00170000UL)
1170:Generated_Source\PSoC6\pdl\drivers/peripheral/scb/cy_scb_i2c.h **** #define CY_SCB_I2C_MASTER_CMPLT      (0x00180000UL)
1171:Generated_Source\PSoC6\pdl\drivers/peripheral/scb/cy_scb_i2c.h **** 
1172:Generated_Source\PSoC6\pdl\drivers/peripheral/scb/cy_scb_i2c.h **** /* Slave states */
1173:Generated_Source\PSoC6\pdl\drivers/peripheral/scb/cy_scb_i2c.h **** #define CY_SCB_I2C_SLAVE_ACTIVE      (0x00001000UL)
1174:Generated_Source\PSoC6\pdl\drivers/peripheral/scb/cy_scb_i2c.h **** #define CY_SCB_I2C_SLAVE_RX_MASK     (0x00001001UL)
1175:Generated_Source\PSoC6\pdl\drivers/peripheral/scb/cy_scb_i2c.h **** #define CY_SCB_I2C_SLAVE_RX          (0x00001001UL)
1176:Generated_Source\PSoC6\pdl\drivers/peripheral/scb/cy_scb_i2c.h **** #define CY_SCB_I2C_SLAVE_TX          (0x00001002UL)
1177:Generated_Source\PSoC6\pdl\drivers/peripheral/scb/cy_scb_i2c.h **** 
1178:Generated_Source\PSoC6\pdl\drivers/peripheral/scb/cy_scb_i2c.h **** /* FIFO size */
1179:Generated_Source\PSoC6\pdl\drivers/peripheral/scb/cy_scb_i2c.h **** #define CY_SCB_I2C_FIFO_SIZE          CY_SCB_FIFO_SIZE
1180:Generated_Source\PSoC6\pdl\drivers/peripheral/scb/cy_scb_i2c.h **** #define CY_SCB_I2C_HALF_FIFO_SIZE     (CY_SCB_FIFO_SIZE / 2UL)
1181:Generated_Source\PSoC6\pdl\drivers/peripheral/scb/cy_scb_i2c.h **** 
1182:Generated_Source\PSoC6\pdl\drivers/peripheral/scb/cy_scb_i2c.h **** #define CY_SCB_I2C_DEFAULT_RETURN    (0xFFUL)
1183:Generated_Source\PSoC6\pdl\drivers/peripheral/scb/cy_scb_i2c.h **** 
1184:Generated_Source\PSoC6\pdl\drivers/peripheral/scb/cy_scb_i2c.h **** /* Convert the timeout in milliseconds to microseconds */
1185:Generated_Source\PSoC6\pdl\drivers/peripheral/scb/cy_scb_i2c.h **** #define CY_SCB_I2C_CONVERT_TIMEOUT_TO_US(timeoutMs)     ((timeoutMs) * 1000UL)
1186:Generated_Source\PSoC6\pdl\drivers/peripheral/scb/cy_scb_i2c.h **** 
1187:Generated_Source\PSoC6\pdl\drivers/peripheral/scb/cy_scb_i2c.h **** /* I2C data rates max (Hz): standard, fast and fast plus modes */
1188:Generated_Source\PSoC6\pdl\drivers/peripheral/scb/cy_scb_i2c.h **** #define CY_SCB_I2C_STD_DATA_RATE    (100000U)
1189:Generated_Source\PSoC6\pdl\drivers/peripheral/scb/cy_scb_i2c.h **** #define CY_SCB_I2C_FST_DATA_RATE    (400000U)
1190:Generated_Source\PSoC6\pdl\drivers/peripheral/scb/cy_scb_i2c.h **** #define CY_SCB_I2C_FSTP_DATA_RATE  (1000000U)
1191:Generated_Source\PSoC6\pdl\drivers/peripheral/scb/cy_scb_i2c.h **** 
1192:Generated_Source\PSoC6\pdl\drivers/peripheral/scb/cy_scb_i2c.h **** /* Slave clock limits */
1193:Generated_Source\PSoC6\pdl\drivers/peripheral/scb/cy_scb_i2c.h **** #define CY_SCB_I2C_SLAVE_STD_CLK_MIN    (1550000U)
1194:Generated_Source\PSoC6\pdl\drivers/peripheral/scb/cy_scb_i2c.h **** #define CY_SCB_I2C_SLAVE_STD_CLK_MAX   (12800000U)
1195:Generated_Source\PSoC6\pdl\drivers/peripheral/scb/cy_scb_i2c.h **** #define CY_SCB_I2C_SLAVE_FST_CLK_MIN    (7820000U)
1196:Generated_Source\PSoC6\pdl\drivers/peripheral/scb/cy_scb_i2c.h **** #define CY_SCB_I2C_SLAVE_FST_CLK_MAX   (15380000U)
1197:Generated_Source\PSoC6\pdl\drivers/peripheral/scb/cy_scb_i2c.h **** #define CY_SCB_I2C_SLAVE_FSTP_CLK_MIN  (15840000U)
1198:Generated_Source\PSoC6\pdl\drivers/peripheral/scb/cy_scb_i2c.h **** #define CY_SCB_I2C_SLAVE_FSTP_CLK_MAX  (89000000U)
1199:Generated_Source\PSoC6\pdl\drivers/peripheral/scb/cy_scb_i2c.h **** 
1200:Generated_Source\PSoC6\pdl\drivers/peripheral/scb/cy_scb_i2c.h **** /* Master clock (Hz) and duty cycle limits for standard mode */
1201:Generated_Source\PSoC6\pdl\drivers/peripheral/scb/cy_scb_i2c.h **** #define CY_SCB_I2C_MASTER_STD_CLK_MIN           (1550000U)
ARM GAS  C:\Users\Austina\AppData\Local\Temp\cc8Iu5MR.s 			page 29


1202:Generated_Source\PSoC6\pdl\drivers/peripheral/scb/cy_scb_i2c.h **** #define CY_SCB_I2C_MASTER_STD_CLK_MAX           (3200000U)
1203:Generated_Source\PSoC6\pdl\drivers/peripheral/scb/cy_scb_i2c.h **** #define CY_SCB_I2C_MASTER_STD_LOW_PHASE_MIN     (8U)
1204:Generated_Source\PSoC6\pdl\drivers/peripheral/scb/cy_scb_i2c.h **** #define CY_SCB_I2C_MASTER_STD_HIGH_PHASE_MIN    (8U)
1205:Generated_Source\PSoC6\pdl\drivers/peripheral/scb/cy_scb_i2c.h **** 
1206:Generated_Source\PSoC6\pdl\drivers/peripheral/scb/cy_scb_i2c.h **** /* Master clock (Hz) and duty cycle limits for fast mode */
1207:Generated_Source\PSoC6\pdl\drivers/peripheral/scb/cy_scb_i2c.h **** #define CY_SCB_I2C_MASTER_FST_CLK_MIN           (7820000U)
1208:Generated_Source\PSoC6\pdl\drivers/peripheral/scb/cy_scb_i2c.h **** #define CY_SCB_I2C_MASTER_FST_CLK_MAX           (10000000U)
1209:Generated_Source\PSoC6\pdl\drivers/peripheral/scb/cy_scb_i2c.h **** #define CY_SCB_I2C_MASTER_FST_LOW_PHASE_MIN     (13U)
1210:Generated_Source\PSoC6\pdl\drivers/peripheral/scb/cy_scb_i2c.h **** #define CY_SCB_I2C_MASTER_FST_HIGH_PHASE_MIN    (8U)
1211:Generated_Source\PSoC6\pdl\drivers/peripheral/scb/cy_scb_i2c.h **** 
1212:Generated_Source\PSoC6\pdl\drivers/peripheral/scb/cy_scb_i2c.h **** /* Master clock (Hz) and duty cycle limits for fast plus mode */
1213:Generated_Source\PSoC6\pdl\drivers/peripheral/scb/cy_scb_i2c.h **** #define CY_SCB_I2C_MASTER_FSTP_CLK_MIN          (14320000U)
1214:Generated_Source\PSoC6\pdl\drivers/peripheral/scb/cy_scb_i2c.h **** #define CY_SCB_I2C_MASTER_FSTP_CLK_MAX          (25800000U)
1215:Generated_Source\PSoC6\pdl\drivers/peripheral/scb/cy_scb_i2c.h **** #define CY_SCB_I2C_MASTER_FSTP_LOW_PHASE_MIN    (9U)
1216:Generated_Source\PSoC6\pdl\drivers/peripheral/scb/cy_scb_i2c.h **** #define CY_SCB_I2C_MASTER_FSTP_HIGH_PHASE_MIN   (6U)
1217:Generated_Source\PSoC6\pdl\drivers/peripheral/scb/cy_scb_i2c.h **** 
1218:Generated_Source\PSoC6\pdl\drivers/peripheral/scb/cy_scb_i2c.h **** /* SCL low and high time in ns. Takes into account tF and tR */
1219:Generated_Source\PSoC6\pdl\drivers/peripheral/scb/cy_scb_i2c.h **** #define CY_SCB_I2C_MASTER_STD_SCL_LOW   (5000U) /* tLOW  + tF = 4700 + 300  */
1220:Generated_Source\PSoC6\pdl\drivers/peripheral/scb/cy_scb_i2c.h **** #define CY_SCB_I2C_MASTER_STD_SCL_HIGH  (5000U) /* tHIGH + tR = 4000 + 1000 */
1221:Generated_Source\PSoC6\pdl\drivers/peripheral/scb/cy_scb_i2c.h **** #define CY_SCB_I2C_MASTER_FST_SCL_LOW   (1600U) /* tLOW  + tF = 1300 + 300  */
1222:Generated_Source\PSoC6\pdl\drivers/peripheral/scb/cy_scb_i2c.h **** #define CY_SCB_I2C_MASTER_FST_SCL_HIGH   (900U) /* tHIGH + tR = 600 + 300   */
1223:Generated_Source\PSoC6\pdl\drivers/peripheral/scb/cy_scb_i2c.h **** #define CY_SCB_I2C_MASTER_FSTP_SCL_LOW   (620U) /* tLOW  + tF = 500 + 120   */
1224:Generated_Source\PSoC6\pdl\drivers/peripheral/scb/cy_scb_i2c.h **** #define CY_SCB_I2C_MASTER_FSTP_SCL_HIGH  (380U) /* tHIGH + tR = 260 + 120   */
1225:Generated_Source\PSoC6\pdl\drivers/peripheral/scb/cy_scb_i2c.h **** 
1226:Generated_Source\PSoC6\pdl\drivers/peripheral/scb/cy_scb_i2c.h **** /* Master duty cycle limits */
1227:Generated_Source\PSoC6\pdl\drivers/peripheral/scb/cy_scb_i2c.h **** #define CY_SCB_I2C_LOW_PHASE_MAX    (16U)
1228:Generated_Source\PSoC6\pdl\drivers/peripheral/scb/cy_scb_i2c.h **** #define CY_SCB_I2C_HIGH_PHASE_MAX   (16U)
1229:Generated_Source\PSoC6\pdl\drivers/peripheral/scb/cy_scb_i2c.h **** #define CY_SCB_I2C_DUTY_CYCLE_MAX   (CY_SCB_I2C_LOW_PHASE_MAX + CY_SCB_I2C_HIGH_PHASE_MAX)
1230:Generated_Source\PSoC6\pdl\drivers/peripheral/scb/cy_scb_i2c.h **** 
1231:Generated_Source\PSoC6\pdl\drivers/peripheral/scb/cy_scb_i2c.h **** /* Analog filter settings. */
1232:Generated_Source\PSoC6\pdl\drivers/peripheral/scb/cy_scb_i2c.h **** #define CY_SCB_I2C_ENABLE_ANALOG_FITLER    (CY_SCB_I2C_CFG_DEF_VAL)
1233:Generated_Source\PSoC6\pdl\drivers/peripheral/scb/cy_scb_i2c.h **** #define CY_SCB_I2C_DISABLE_ANALOG_FITLER   (CY_SCB_I2C_CFG_DEF_VAL & \
1234:Generated_Source\PSoC6\pdl\drivers/peripheral/scb/cy_scb_i2c.h ****                                             (uint32_t) ~(SCB_I2C_CFG_SDA_IN_FILT_SEL_Msk | \
1235:Generated_Source\PSoC6\pdl\drivers/peripheral/scb/cy_scb_i2c.h ****                                                          SCB_I2C_CFG_SCL_IN_FILT_SEL_Msk))
1236:Generated_Source\PSoC6\pdl\drivers/peripheral/scb/cy_scb_i2c.h **** 
1237:Generated_Source\PSoC6\pdl\drivers/peripheral/scb/cy_scb_i2c.h **** #define CY_SCB_I2C_IS_MODE_VALID(mode)      ( (CY_SCB_I2C_SLAVE  == (mode)) || \
1238:Generated_Source\PSoC6\pdl\drivers/peripheral/scb/cy_scb_i2c.h ****                                               (CY_SCB_I2C_MASTER == (mode)) || \
1239:Generated_Source\PSoC6\pdl\drivers/peripheral/scb/cy_scb_i2c.h ****                                               (CY_SCB_I2C_MASTER_SLAVE == (mode)) )
1240:Generated_Source\PSoC6\pdl\drivers/peripheral/scb/cy_scb_i2c.h **** 
1241:Generated_Source\PSoC6\pdl\drivers/peripheral/scb/cy_scb_i2c.h **** #define CY_SCB_I2C_IS_RW_BIT_VALID(dir)     ( (CY_SCB_I2C_WRITE_XFER == (dir)) || \
1242:Generated_Source\PSoC6\pdl\drivers/peripheral/scb/cy_scb_i2c.h ****                                               (CY_SCB_I2C_READ_XFER  == (dir)) )
1243:Generated_Source\PSoC6\pdl\drivers/peripheral/scb/cy_scb_i2c.h **** 
1244:Generated_Source\PSoC6\pdl\drivers/peripheral/scb/cy_scb_i2c.h **** #define CY_SCB_I2C_IS_RESPONSE_VALID(cmd)   ( (CY_SCB_I2C_ACK == (cmd))  || \
1245:Generated_Source\PSoC6\pdl\drivers/peripheral/scb/cy_scb_i2c.h ****                                               (CY_SCB_I2C_NAK == (cmd)) )
1246:Generated_Source\PSoC6\pdl\drivers/peripheral/scb/cy_scb_i2c.h **** 
1247:Generated_Source\PSoC6\pdl\drivers/peripheral/scb/cy_scb_i2c.h **** #define CY_SCB_I2C_IS_ADDR_MASK_VALID(mask)         ( (0U == ((mask) & 0x01U)) )
1248:Generated_Source\PSoC6\pdl\drivers/peripheral/scb/cy_scb_i2c.h **** 
1249:Generated_Source\PSoC6\pdl\drivers/peripheral/scb/cy_scb_i2c.h **** #define CY_SCB_I2C_IS_PHASE_OVERSAMPLE_VALID(phaseOvs)  ((phaseOvs) <= 16U)
1250:Generated_Source\PSoC6\pdl\drivers/peripheral/scb/cy_scb_i2c.h **** 
1251:Generated_Source\PSoC6\pdl\drivers/peripheral/scb/cy_scb_i2c.h **** #define CY_SCB_I2C_IS_DATA_RATE_VALID(dataRateHz)   ( ((dataRateHz) > 0UL) && \
1252:Generated_Source\PSoC6\pdl\drivers/peripheral/scb/cy_scb_i2c.h ****                                                       ((dataRateHz) <= CY_SCB_I2C_FSTP_DATA_RATE) )
1253:Generated_Source\PSoC6\pdl\drivers/peripheral/scb/cy_scb_i2c.h **** 
1254:Generated_Source\PSoC6\pdl\drivers/peripheral/scb/cy_scb_i2c.h **** #define CY_SCB_I2C_IS_TIMEOUT_VALID(timeoutMs)              ( (timeoutMs) <= (0xFFFFFFFFUL / 1000UL
1255:Generated_Source\PSoC6\pdl\drivers/peripheral/scb/cy_scb_i2c.h **** #define CY_SCB_I2C_IS_LOW_PHASE_CYCLES_VALID(clockCycles)   ( ((clockCycles) >= 7UL) && ((clockCycl
1256:Generated_Source\PSoC6\pdl\drivers/peripheral/scb/cy_scb_i2c.h **** #define CY_SCB_I2C_IS_HIGH_PHASE_CYCLES_VALID(clockCycles)  ( ((clockCycles) >= 5UL) && ((clockCycl
1257:Generated_Source\PSoC6\pdl\drivers/peripheral/scb/cy_scb_i2c.h **** 
1258:Generated_Source\PSoC6\pdl\drivers/peripheral/scb/cy_scb_i2c.h **** /** \endcond */
ARM GAS  C:\Users\Austina\AppData\Local\Temp\cc8Iu5MR.s 			page 30


1259:Generated_Source\PSoC6\pdl\drivers/peripheral/scb/cy_scb_i2c.h **** 
1260:Generated_Source\PSoC6\pdl\drivers/peripheral/scb/cy_scb_i2c.h **** /** \} group_scb_i2c_macros */
1261:Generated_Source\PSoC6\pdl\drivers/peripheral/scb/cy_scb_i2c.h **** 
1262:Generated_Source\PSoC6\pdl\drivers/peripheral/scb/cy_scb_i2c.h **** 
1263:Generated_Source\PSoC6\pdl\drivers/peripheral/scb/cy_scb_i2c.h **** /*******************************************************************************
1264:Generated_Source\PSoC6\pdl\drivers/peripheral/scb/cy_scb_i2c.h **** *                     In-line Function Implementation
1265:Generated_Source\PSoC6\pdl\drivers/peripheral/scb/cy_scb_i2c.h **** *******************************************************************************/
1266:Generated_Source\PSoC6\pdl\drivers/peripheral/scb/cy_scb_i2c.h **** 
1267:Generated_Source\PSoC6\pdl\drivers/peripheral/scb/cy_scb_i2c.h **** /**
1268:Generated_Source\PSoC6\pdl\drivers/peripheral/scb/cy_scb_i2c.h **** * \addtogroup group_scb_i2c_general_functions
1269:Generated_Source\PSoC6\pdl\drivers/peripheral/scb/cy_scb_i2c.h **** * \{
1270:Generated_Source\PSoC6\pdl\drivers/peripheral/scb/cy_scb_i2c.h **** */
1271:Generated_Source\PSoC6\pdl\drivers/peripheral/scb/cy_scb_i2c.h **** 
1272:Generated_Source\PSoC6\pdl\drivers/peripheral/scb/cy_scb_i2c.h **** /*******************************************************************************
1273:Generated_Source\PSoC6\pdl\drivers/peripheral/scb/cy_scb_i2c.h **** * Function Name: Cy_SCB_I2C_Enable
1274:Generated_Source\PSoC6\pdl\drivers/peripheral/scb/cy_scb_i2c.h **** ****************************************************************************//**
1275:Generated_Source\PSoC6\pdl\drivers/peripheral/scb/cy_scb_i2c.h **** *
1276:Generated_Source\PSoC6\pdl\drivers/peripheral/scb/cy_scb_i2c.h **** * Enables the SCB block for the I2C operation
1277:Generated_Source\PSoC6\pdl\drivers/peripheral/scb/cy_scb_i2c.h **** *
1278:Generated_Source\PSoC6\pdl\drivers/peripheral/scb/cy_scb_i2c.h **** * \param base
1279:Generated_Source\PSoC6\pdl\drivers/peripheral/scb/cy_scb_i2c.h **** * The pointer to the I2C SCB instance.
1280:Generated_Source\PSoC6\pdl\drivers/peripheral/scb/cy_scb_i2c.h **** *
1281:Generated_Source\PSoC6\pdl\drivers/peripheral/scb/cy_scb_i2c.h **** *******************************************************************************/
1282:Generated_Source\PSoC6\pdl\drivers/peripheral/scb/cy_scb_i2c.h **** __STATIC_INLINE void Cy_SCB_I2C_Enable(CySCB_Type *base)
1283:Generated_Source\PSoC6\pdl\drivers/peripheral/scb/cy_scb_i2c.h **** {
1284:Generated_Source\PSoC6\pdl\drivers/peripheral/scb/cy_scb_i2c.h ****     SCB_CTRL(base) |= SCB_CTRL_ENABLED_Msk;
1285:Generated_Source\PSoC6\pdl\drivers/peripheral/scb/cy_scb_i2c.h **** }
1286:Generated_Source\PSoC6\pdl\drivers/peripheral/scb/cy_scb_i2c.h **** 
1287:Generated_Source\PSoC6\pdl\drivers/peripheral/scb/cy_scb_i2c.h **** 
1288:Generated_Source\PSoC6\pdl\drivers/peripheral/scb/cy_scb_i2c.h **** /*******************************************************************************
1289:Generated_Source\PSoC6\pdl\drivers/peripheral/scb/cy_scb_i2c.h **** * Function Name: Cy_SCB_I2C_IsBusBusy
1290:Generated_Source\PSoC6\pdl\drivers/peripheral/scb/cy_scb_i2c.h **** ****************************************************************************//**
1291:Generated_Source\PSoC6\pdl\drivers/peripheral/scb/cy_scb_i2c.h **** *
1292:Generated_Source\PSoC6\pdl\drivers/peripheral/scb/cy_scb_i2c.h **** * Checks whether the I2C bus is busy.
1293:Generated_Source\PSoC6\pdl\drivers/peripheral/scb/cy_scb_i2c.h **** *
1294:Generated_Source\PSoC6\pdl\drivers/peripheral/scb/cy_scb_i2c.h **** * \param base
1295:Generated_Source\PSoC6\pdl\drivers/peripheral/scb/cy_scb_i2c.h **** * The pointer to the I2C SCB instance.
1296:Generated_Source\PSoC6\pdl\drivers/peripheral/scb/cy_scb_i2c.h **** *
1297:Generated_Source\PSoC6\pdl\drivers/peripheral/scb/cy_scb_i2c.h **** * \return
1298:Generated_Source\PSoC6\pdl\drivers/peripheral/scb/cy_scb_i2c.h **** * A bus status: busy or not busy.
1299:Generated_Source\PSoC6\pdl\drivers/peripheral/scb/cy_scb_i2c.h **** *
1300:Generated_Source\PSoC6\pdl\drivers/peripheral/scb/cy_scb_i2c.h **** * \note
1301:Generated_Source\PSoC6\pdl\drivers/peripheral/scb/cy_scb_i2c.h **** * After the SCB block is enabled or reset, the valid bus busy-status returns
1302:Generated_Source\PSoC6\pdl\drivers/peripheral/scb/cy_scb_i2c.h **** * after half of the SCL period.
1303:Generated_Source\PSoC6\pdl\drivers/peripheral/scb/cy_scb_i2c.h **** *
1304:Generated_Source\PSoC6\pdl\drivers/peripheral/scb/cy_scb_i2c.h **** *******************************************************************************/
1305:Generated_Source\PSoC6\pdl\drivers/peripheral/scb/cy_scb_i2c.h **** __STATIC_INLINE bool Cy_SCB_I2C_IsBusBusy(CySCB_Type const *base)
1306:Generated_Source\PSoC6\pdl\drivers/peripheral/scb/cy_scb_i2c.h **** {
1307:Generated_Source\PSoC6\pdl\drivers/peripheral/scb/cy_scb_i2c.h ****     return _FLD2BOOL(SCB_I2C_STATUS_BUS_BUSY, SCB_I2C_STATUS(base));
1308:Generated_Source\PSoC6\pdl\drivers/peripheral/scb/cy_scb_i2c.h **** }
1309:Generated_Source\PSoC6\pdl\drivers/peripheral/scb/cy_scb_i2c.h **** 
1310:Generated_Source\PSoC6\pdl\drivers/peripheral/scb/cy_scb_i2c.h **** 
1311:Generated_Source\PSoC6\pdl\drivers/peripheral/scb/cy_scb_i2c.h **** /*******************************************************************************
1312:Generated_Source\PSoC6\pdl\drivers/peripheral/scb/cy_scb_i2c.h **** * Function Name: Cy_SCB_I2C_SlaveSetAddress
1313:Generated_Source\PSoC6\pdl\drivers/peripheral/scb/cy_scb_i2c.h **** ****************************************************************************//**
1314:Generated_Source\PSoC6\pdl\drivers/peripheral/scb/cy_scb_i2c.h **** *
1315:Generated_Source\PSoC6\pdl\drivers/peripheral/scb/cy_scb_i2c.h **** * Sets the slave address for the I2C slave.
ARM GAS  C:\Users\Austina\AppData\Local\Temp\cc8Iu5MR.s 			page 31


1316:Generated_Source\PSoC6\pdl\drivers/peripheral/scb/cy_scb_i2c.h **** *
1317:Generated_Source\PSoC6\pdl\drivers/peripheral/scb/cy_scb_i2c.h **** * \param base
1318:Generated_Source\PSoC6\pdl\drivers/peripheral/scb/cy_scb_i2c.h **** * The pointer to the I2C SCB instance.
1319:Generated_Source\PSoC6\pdl\drivers/peripheral/scb/cy_scb_i2c.h **** *
1320:Generated_Source\PSoC6\pdl\drivers/peripheral/scb/cy_scb_i2c.h **** * \param addr
1321:Generated_Source\PSoC6\pdl\drivers/peripheral/scb/cy_scb_i2c.h **** * The 7-bit right justified slave address.
1322:Generated_Source\PSoC6\pdl\drivers/peripheral/scb/cy_scb_i2c.h **** *
1323:Generated_Source\PSoC6\pdl\drivers/peripheral/scb/cy_scb_i2c.h **** *******************************************************************************/
1324:Generated_Source\PSoC6\pdl\drivers/peripheral/scb/cy_scb_i2c.h **** __STATIC_INLINE void Cy_SCB_I2C_SlaveSetAddress(CySCB_Type *base, uint8_t addr)
1325:Generated_Source\PSoC6\pdl\drivers/peripheral/scb/cy_scb_i2c.h **** {
1326:Generated_Source\PSoC6\pdl\drivers/peripheral/scb/cy_scb_i2c.h ****     CY_ASSERT_L2(CY_SCB_IS_I2C_ADDR_VALID(addr));
1327:Generated_Source\PSoC6\pdl\drivers/peripheral/scb/cy_scb_i2c.h **** 
1328:Generated_Source\PSoC6\pdl\drivers/peripheral/scb/cy_scb_i2c.h ****     CY_REG32_CLR_SET(SCB_RX_MATCH(base), SCB_RX_MATCH_ADDR, ((uint32_t)((uint32_t) addr << 1UL)));
1329:Generated_Source\PSoC6\pdl\drivers/peripheral/scb/cy_scb_i2c.h **** }
1330:Generated_Source\PSoC6\pdl\drivers/peripheral/scb/cy_scb_i2c.h **** 
1331:Generated_Source\PSoC6\pdl\drivers/peripheral/scb/cy_scb_i2c.h **** 
1332:Generated_Source\PSoC6\pdl\drivers/peripheral/scb/cy_scb_i2c.h **** /*******************************************************************************
1333:Generated_Source\PSoC6\pdl\drivers/peripheral/scb/cy_scb_i2c.h **** * Function Name: Cy_SCB_I2C_SlaveGetAddress
1334:Generated_Source\PSoC6\pdl\drivers/peripheral/scb/cy_scb_i2c.h **** ****************************************************************************//**
1335:Generated_Source\PSoC6\pdl\drivers/peripheral/scb/cy_scb_i2c.h **** *
1336:Generated_Source\PSoC6\pdl\drivers/peripheral/scb/cy_scb_i2c.h **** * Returns the slave address of the I2C slave.
1337:Generated_Source\PSoC6\pdl\drivers/peripheral/scb/cy_scb_i2c.h **** *
1338:Generated_Source\PSoC6\pdl\drivers/peripheral/scb/cy_scb_i2c.h **** * \param base
1339:Generated_Source\PSoC6\pdl\drivers/peripheral/scb/cy_scb_i2c.h **** * The pointer to the I2C SCB instance.
1340:Generated_Source\PSoC6\pdl\drivers/peripheral/scb/cy_scb_i2c.h **** *
1341:Generated_Source\PSoC6\pdl\drivers/peripheral/scb/cy_scb_i2c.h **** * \return
1342:Generated_Source\PSoC6\pdl\drivers/peripheral/scb/cy_scb_i2c.h **** * The 7-bit right justified slave address.
1343:Generated_Source\PSoC6\pdl\drivers/peripheral/scb/cy_scb_i2c.h **** *
1344:Generated_Source\PSoC6\pdl\drivers/peripheral/scb/cy_scb_i2c.h **** *******************************************************************************/
1345:Generated_Source\PSoC6\pdl\drivers/peripheral/scb/cy_scb_i2c.h **** __STATIC_INLINE uint32_t Cy_SCB_I2C_SlaveGetAddress(CySCB_Type const *base)
1346:Generated_Source\PSoC6\pdl\drivers/peripheral/scb/cy_scb_i2c.h **** {
1347:Generated_Source\PSoC6\pdl\drivers/peripheral/scb/cy_scb_i2c.h ****     return (_FLD2VAL(SCB_RX_MATCH_ADDR, SCB_RX_MATCH(base)) >> 1UL);
1348:Generated_Source\PSoC6\pdl\drivers/peripheral/scb/cy_scb_i2c.h **** }
1349:Generated_Source\PSoC6\pdl\drivers/peripheral/scb/cy_scb_i2c.h **** 
1350:Generated_Source\PSoC6\pdl\drivers/peripheral/scb/cy_scb_i2c.h **** 
1351:Generated_Source\PSoC6\pdl\drivers/peripheral/scb/cy_scb_i2c.h **** /*******************************************************************************
1352:Generated_Source\PSoC6\pdl\drivers/peripheral/scb/cy_scb_i2c.h **** * Function Name: Cy_SCB_I2C_SlaveSetAddressMask
1353:Generated_Source\PSoC6\pdl\drivers/peripheral/scb/cy_scb_i2c.h **** ****************************************************************************//**
1354:Generated_Source\PSoC6\pdl\drivers/peripheral/scb/cy_scb_i2c.h **** *
1355:Generated_Source\PSoC6\pdl\drivers/peripheral/scb/cy_scb_i2c.h **** * Sets the slave address mask for the I2C slave. The LSBit must always be 0.
1356:Generated_Source\PSoC6\pdl\drivers/peripheral/scb/cy_scb_i2c.h **** * In all other bit positions a 1 indicates that the incoming address must match
1357:Generated_Source\PSoC6\pdl\drivers/peripheral/scb/cy_scb_i2c.h **** * the corresponding bit in the slave address. A 0 in the mask means that the
1358:Generated_Source\PSoC6\pdl\drivers/peripheral/scb/cy_scb_i2c.h **** * incoming address does not need to match.
1359:Generated_Source\PSoC6\pdl\drivers/peripheral/scb/cy_scb_i2c.h **** * Example Slave Address = 0x0C. Slave Address Mask = 0x08. This means that the
1360:Generated_Source\PSoC6\pdl\drivers/peripheral/scb/cy_scb_i2c.h **** * hardware will accept both 0x08 and 0x0C as valid addresses.
1361:Generated_Source\PSoC6\pdl\drivers/peripheral/scb/cy_scb_i2c.h **** *
1362:Generated_Source\PSoC6\pdl\drivers/peripheral/scb/cy_scb_i2c.h **** * \param base
1363:Generated_Source\PSoC6\pdl\drivers/peripheral/scb/cy_scb_i2c.h **** * The pointer to the I2C SCB instance.
1364:Generated_Source\PSoC6\pdl\drivers/peripheral/scb/cy_scb_i2c.h **** *
1365:Generated_Source\PSoC6\pdl\drivers/peripheral/scb/cy_scb_i2c.h **** * \param addrMask
1366:Generated_Source\PSoC6\pdl\drivers/peripheral/scb/cy_scb_i2c.h **** * The 8-bit address mask, the upper 7 bits correspond to the slave address.
1367:Generated_Source\PSoC6\pdl\drivers/peripheral/scb/cy_scb_i2c.h **** * LSBit must always be 0.
1368:Generated_Source\PSoC6\pdl\drivers/peripheral/scb/cy_scb_i2c.h **** *
1369:Generated_Source\PSoC6\pdl\drivers/peripheral/scb/cy_scb_i2c.h **** *******************************************************************************/
1370:Generated_Source\PSoC6\pdl\drivers/peripheral/scb/cy_scb_i2c.h **** __STATIC_INLINE void Cy_SCB_I2C_SlaveSetAddressMask(CySCB_Type *base, uint8_t addrMask)
1371:Generated_Source\PSoC6\pdl\drivers/peripheral/scb/cy_scb_i2c.h **** {
1372:Generated_Source\PSoC6\pdl\drivers/peripheral/scb/cy_scb_i2c.h ****     CY_ASSERT_L2(CY_SCB_I2C_IS_ADDR_MASK_VALID(addrMask));
ARM GAS  C:\Users\Austina\AppData\Local\Temp\cc8Iu5MR.s 			page 32


1373:Generated_Source\PSoC6\pdl\drivers/peripheral/scb/cy_scb_i2c.h **** 
1374:Generated_Source\PSoC6\pdl\drivers/peripheral/scb/cy_scb_i2c.h ****     CY_REG32_CLR_SET(SCB_RX_MATCH(base), SCB_RX_MATCH_MASK, ((uint32_t) addrMask));
1375:Generated_Source\PSoC6\pdl\drivers/peripheral/scb/cy_scb_i2c.h **** }
1376:Generated_Source\PSoC6\pdl\drivers/peripheral/scb/cy_scb_i2c.h **** 
1377:Generated_Source\PSoC6\pdl\drivers/peripheral/scb/cy_scb_i2c.h **** 
1378:Generated_Source\PSoC6\pdl\drivers/peripheral/scb/cy_scb_i2c.h **** /*******************************************************************************
1379:Generated_Source\PSoC6\pdl\drivers/peripheral/scb/cy_scb_i2c.h **** * Function Name: Cy_SCB_I2C_SlaveGetAddressMask
1380:Generated_Source\PSoC6\pdl\drivers/peripheral/scb/cy_scb_i2c.h **** ****************************************************************************//**
1381:Generated_Source\PSoC6\pdl\drivers/peripheral/scb/cy_scb_i2c.h **** *
1382:Generated_Source\PSoC6\pdl\drivers/peripheral/scb/cy_scb_i2c.h **** * Returns the slave address mask.
1383:Generated_Source\PSoC6\pdl\drivers/peripheral/scb/cy_scb_i2c.h **** *
1384:Generated_Source\PSoC6\pdl\drivers/peripheral/scb/cy_scb_i2c.h **** * \param base
1385:Generated_Source\PSoC6\pdl\drivers/peripheral/scb/cy_scb_i2c.h **** * The pointer to the I2C SCB instance.
1386:Generated_Source\PSoC6\pdl\drivers/peripheral/scb/cy_scb_i2c.h **** *
1387:Generated_Source\PSoC6\pdl\drivers/peripheral/scb/cy_scb_i2c.h **** * \return
1388:Generated_Source\PSoC6\pdl\drivers/peripheral/scb/cy_scb_i2c.h **** * The 8-bit address mask, the upper 7 bits correspond to the slave address.
1389:Generated_Source\PSoC6\pdl\drivers/peripheral/scb/cy_scb_i2c.h **** * LSBit must always be 0.
1390:Generated_Source\PSoC6\pdl\drivers/peripheral/scb/cy_scb_i2c.h **** *
1391:Generated_Source\PSoC6\pdl\drivers/peripheral/scb/cy_scb_i2c.h **** *******************************************************************************/
1392:Generated_Source\PSoC6\pdl\drivers/peripheral/scb/cy_scb_i2c.h **** __STATIC_INLINE uint32_t Cy_SCB_I2C_SlaveGetAddressMask(CySCB_Type const *base)
1393:Generated_Source\PSoC6\pdl\drivers/peripheral/scb/cy_scb_i2c.h **** {
1394:Generated_Source\PSoC6\pdl\drivers/peripheral/scb/cy_scb_i2c.h ****     return _FLD2VAL(SCB_RX_MATCH_MASK, SCB_RX_MATCH(base));
1395:Generated_Source\PSoC6\pdl\drivers/peripheral/scb/cy_scb_i2c.h **** }
1396:Generated_Source\PSoC6\pdl\drivers/peripheral/scb/cy_scb_i2c.h **** 
1397:Generated_Source\PSoC6\pdl\drivers/peripheral/scb/cy_scb_i2c.h **** 
1398:Generated_Source\PSoC6\pdl\drivers/peripheral/scb/cy_scb_i2c.h **** /*******************************************************************************
1399:Generated_Source\PSoC6\pdl\drivers/peripheral/scb/cy_scb_i2c.h **** * Function Name: Cy_SCB_I2C_MasterSetLowPhaseDutyCycle
1400:Generated_Source\PSoC6\pdl\drivers/peripheral/scb/cy_scb_i2c.h **** ****************************************************************************//**
1401:Generated_Source\PSoC6\pdl\drivers/peripheral/scb/cy_scb_i2c.h **** *
1402:Generated_Source\PSoC6\pdl\drivers/peripheral/scb/cy_scb_i2c.h **** * This function sets the number of SCB clock cycles in the low phase of SCL.
1403:Generated_Source\PSoC6\pdl\drivers/peripheral/scb/cy_scb_i2c.h **** * If \ref Cy_SCB_I2C_SetDataRate is called after this function, the values
1404:Generated_Source\PSoC6\pdl\drivers/peripheral/scb/cy_scb_i2c.h **** * specified in this function are overwritten.
1405:Generated_Source\PSoC6\pdl\drivers/peripheral/scb/cy_scb_i2c.h **** *
1406:Generated_Source\PSoC6\pdl\drivers/peripheral/scb/cy_scb_i2c.h **** * \param base
1407:Generated_Source\PSoC6\pdl\drivers/peripheral/scb/cy_scb_i2c.h **** * The pointer to the I2C SCB instance.
1408:Generated_Source\PSoC6\pdl\drivers/peripheral/scb/cy_scb_i2c.h **** *
1409:Generated_Source\PSoC6\pdl\drivers/peripheral/scb/cy_scb_i2c.h **** * \param clockCycles
1410:Generated_Source\PSoC6\pdl\drivers/peripheral/scb/cy_scb_i2c.h **** * The number of SCB clock cycles in the low phase of SCL.
1411:Generated_Source\PSoC6\pdl\drivers/peripheral/scb/cy_scb_i2c.h **** * The valid range is 7 to 16.
1412:Generated_Source\PSoC6\pdl\drivers/peripheral/scb/cy_scb_i2c.h **** *
1413:Generated_Source\PSoC6\pdl\drivers/peripheral/scb/cy_scb_i2c.h **** * \note
1414:Generated_Source\PSoC6\pdl\drivers/peripheral/scb/cy_scb_i2c.h **** * This function should be used at your own risk. Changing the number of clock
1415:Generated_Source\PSoC6\pdl\drivers/peripheral/scb/cy_scb_i2c.h **** * cycles in a phase of SCL may violate the I2C specification. Make this
1416:Generated_Source\PSoC6\pdl\drivers/peripheral/scb/cy_scb_i2c.h **** * change only while the block is disabled.
1417:Generated_Source\PSoC6\pdl\drivers/peripheral/scb/cy_scb_i2c.h **** *
1418:Generated_Source\PSoC6\pdl\drivers/peripheral/scb/cy_scb_i2c.h **** *******************************************************************************/
1419:Generated_Source\PSoC6\pdl\drivers/peripheral/scb/cy_scb_i2c.h **** __STATIC_INLINE void Cy_SCB_I2C_MasterSetLowPhaseDutyCycle(CySCB_Type *base, uint32_t clockCycles)
1420:Generated_Source\PSoC6\pdl\drivers/peripheral/scb/cy_scb_i2c.h **** {
1421:Generated_Source\PSoC6\pdl\drivers/peripheral/scb/cy_scb_i2c.h ****     CY_ASSERT_L2(CY_SCB_I2C_IS_LOW_PHASE_CYCLES_VALID(clockCycles));
1422:Generated_Source\PSoC6\pdl\drivers/peripheral/scb/cy_scb_i2c.h **** 
1423:Generated_Source\PSoC6\pdl\drivers/peripheral/scb/cy_scb_i2c.h ****     CY_REG32_CLR_SET(SCB_I2C_CTRL(base), SCB_I2C_CTRL_LOW_PHASE_OVS, (clockCycles - 1UL));
1424:Generated_Source\PSoC6\pdl\drivers/peripheral/scb/cy_scb_i2c.h **** }
1425:Generated_Source\PSoC6\pdl\drivers/peripheral/scb/cy_scb_i2c.h **** 
1426:Generated_Source\PSoC6\pdl\drivers/peripheral/scb/cy_scb_i2c.h **** 
1427:Generated_Source\PSoC6\pdl\drivers/peripheral/scb/cy_scb_i2c.h **** /*******************************************************************************
1428:Generated_Source\PSoC6\pdl\drivers/peripheral/scb/cy_scb_i2c.h **** * Function Name: Cy_SCB_I2C_MasterSetHighPhaseDutyCycle
1429:Generated_Source\PSoC6\pdl\drivers/peripheral/scb/cy_scb_i2c.h **** ****************************************************************************//**
ARM GAS  C:\Users\Austina\AppData\Local\Temp\cc8Iu5MR.s 			page 33


1430:Generated_Source\PSoC6\pdl\drivers/peripheral/scb/cy_scb_i2c.h **** *
1431:Generated_Source\PSoC6\pdl\drivers/peripheral/scb/cy_scb_i2c.h **** * This function sets the number of SCB clock cycles in the high phase of SCL.
1432:Generated_Source\PSoC6\pdl\drivers/peripheral/scb/cy_scb_i2c.h **** * If \ref Cy_SCB_I2C_SetDataRate is called after this function, the values
1433:Generated_Source\PSoC6\pdl\drivers/peripheral/scb/cy_scb_i2c.h **** * specified in this function get overwritten.
1434:Generated_Source\PSoC6\pdl\drivers/peripheral/scb/cy_scb_i2c.h **** *
1435:Generated_Source\PSoC6\pdl\drivers/peripheral/scb/cy_scb_i2c.h **** * \param base
1436:Generated_Source\PSoC6\pdl\drivers/peripheral/scb/cy_scb_i2c.h **** * The pointer to the I2C SCB instance.
1437:Generated_Source\PSoC6\pdl\drivers/peripheral/scb/cy_scb_i2c.h **** *
1438:Generated_Source\PSoC6\pdl\drivers/peripheral/scb/cy_scb_i2c.h **** * \param clockCycles
1439:Generated_Source\PSoC6\pdl\drivers/peripheral/scb/cy_scb_i2c.h **** * The number of SCB clock cycles in the high phase of SCL.
1440:Generated_Source\PSoC6\pdl\drivers/peripheral/scb/cy_scb_i2c.h **** * The valid range is 5 to 16.
1441:Generated_Source\PSoC6\pdl\drivers/peripheral/scb/cy_scb_i2c.h **** *
1442:Generated_Source\PSoC6\pdl\drivers/peripheral/scb/cy_scb_i2c.h **** * \note
1443:Generated_Source\PSoC6\pdl\drivers/peripheral/scb/cy_scb_i2c.h **** * This function should be used at your own risk. Changing the number of clock
1444:Generated_Source\PSoC6\pdl\drivers/peripheral/scb/cy_scb_i2c.h **** * cycles in a phase of SCL may violate the I2C specification. Make this
1445:Generated_Source\PSoC6\pdl\drivers/peripheral/scb/cy_scb_i2c.h **** * change only while the block is disabled.
1446:Generated_Source\PSoC6\pdl\drivers/peripheral/scb/cy_scb_i2c.h **** *
1447:Generated_Source\PSoC6\pdl\drivers/peripheral/scb/cy_scb_i2c.h **** *******************************************************************************/
1448:Generated_Source\PSoC6\pdl\drivers/peripheral/scb/cy_scb_i2c.h **** __STATIC_INLINE void Cy_SCB_I2C_MasterSetHighPhaseDutyCycle(CySCB_Type *base, uint32_t clockCycles)
1449:Generated_Source\PSoC6\pdl\drivers/peripheral/scb/cy_scb_i2c.h **** {
1450:Generated_Source\PSoC6\pdl\drivers/peripheral/scb/cy_scb_i2c.h ****     CY_ASSERT_L2(CY_SCB_I2C_IS_HIGH_PHASE_CYCLES_VALID(clockCycles));
1451:Generated_Source\PSoC6\pdl\drivers/peripheral/scb/cy_scb_i2c.h **** 
1452:Generated_Source\PSoC6\pdl\drivers/peripheral/scb/cy_scb_i2c.h ****     CY_REG32_CLR_SET(SCB_I2C_CTRL(base), SCB_I2C_CTRL_HIGH_PHASE_OVS, (clockCycles - 1UL));
1453:Generated_Source\PSoC6\pdl\drivers/peripheral/scb/cy_scb_i2c.h **** }
1454:Generated_Source\PSoC6\pdl\drivers/peripheral/scb/cy_scb_i2c.h **** /** \} group_scb_i2c_general_functions */
1455:Generated_Source\PSoC6\pdl\drivers/peripheral/scb/cy_scb_i2c.h **** 
1456:Generated_Source\PSoC6\pdl\drivers/peripheral/scb/cy_scb_i2c.h **** /**
1457:Generated_Source\PSoC6\pdl\drivers/peripheral/scb/cy_scb_i2c.h **** * \addtogroup group_scb_i2c_interrupt_functions
1458:Generated_Source\PSoC6\pdl\drivers/peripheral/scb/cy_scb_i2c.h **** * \{
1459:Generated_Source\PSoC6\pdl\drivers/peripheral/scb/cy_scb_i2c.h **** */
1460:Generated_Source\PSoC6\pdl\drivers/peripheral/scb/cy_scb_i2c.h **** 
1461:Generated_Source\PSoC6\pdl\drivers/peripheral/scb/cy_scb_i2c.h **** /*******************************************************************************
1462:Generated_Source\PSoC6\pdl\drivers/peripheral/scb/cy_scb_i2c.h **** * Function Name: Cy_SCB_I2C_RegisterEventCallback
1463:Generated_Source\PSoC6\pdl\drivers/peripheral/scb/cy_scb_i2c.h **** ****************************************************************************//**
1464:Generated_Source\PSoC6\pdl\drivers/peripheral/scb/cy_scb_i2c.h **** *
1465:Generated_Source\PSoC6\pdl\drivers/peripheral/scb/cy_scb_i2c.h **** * Registers a callback function that notifies that
1466:Generated_Source\PSoC6\pdl\drivers/peripheral/scb/cy_scb_i2c.h **** * \ref group_scb_i2c_macros_callback_events occurred in the
1467:Generated_Source\PSoC6\pdl\drivers/peripheral/scb/cy_scb_i2c.h **** * \ref Cy_SCB_I2C_Interrupt.
1468:Generated_Source\PSoC6\pdl\drivers/peripheral/scb/cy_scb_i2c.h **** *
1469:Generated_Source\PSoC6\pdl\drivers/peripheral/scb/cy_scb_i2c.h **** * \param base
1470:Generated_Source\PSoC6\pdl\drivers/peripheral/scb/cy_scb_i2c.h **** * The pointer to the I2C SCB instance.
1471:Generated_Source\PSoC6\pdl\drivers/peripheral/scb/cy_scb_i2c.h **** *
1472:Generated_Source\PSoC6\pdl\drivers/peripheral/scb/cy_scb_i2c.h **** * \param callback
1473:Generated_Source\PSoC6\pdl\drivers/peripheral/scb/cy_scb_i2c.h **** * The pointer to a callback function.
1474:Generated_Source\PSoC6\pdl\drivers/peripheral/scb/cy_scb_i2c.h **** * See \ref cy_cb_scb_i2c_handle_events_t for the function prototype.
1475:Generated_Source\PSoC6\pdl\drivers/peripheral/scb/cy_scb_i2c.h **** *
1476:Generated_Source\PSoC6\pdl\drivers/peripheral/scb/cy_scb_i2c.h **** * \param context
1477:Generated_Source\PSoC6\pdl\drivers/peripheral/scb/cy_scb_i2c.h **** * The pointer to context structure \ref cy_stc_scb_i2c_context_t allocated by
1478:Generated_Source\PSoC6\pdl\drivers/peripheral/scb/cy_scb_i2c.h **** * the user. The structure is used while the I2C operation for internal
1479:Generated_Source\PSoC6\pdl\drivers/peripheral/scb/cy_scb_i2c.h **** * configuration and data retention. The user should not modify anything in
1480:Generated_Source\PSoC6\pdl\drivers/peripheral/scb/cy_scb_i2c.h **** * this structure.
1481:Generated_Source\PSoC6\pdl\drivers/peripheral/scb/cy_scb_i2c.h **** *
1482:Generated_Source\PSoC6\pdl\drivers/peripheral/scb/cy_scb_i2c.h **** * \note
1483:Generated_Source\PSoC6\pdl\drivers/peripheral/scb/cy_scb_i2c.h **** * To remove the callback, pass NULL as the pointer to the callback function.
1484:Generated_Source\PSoC6\pdl\drivers/peripheral/scb/cy_scb_i2c.h **** *
1485:Generated_Source\PSoC6\pdl\drivers/peripheral/scb/cy_scb_i2c.h **** *******************************************************************************/
1486:Generated_Source\PSoC6\pdl\drivers/peripheral/scb/cy_scb_i2c.h **** __STATIC_INLINE void Cy_SCB_I2C_RegisterEventCallback(CySCB_Type const *base,
ARM GAS  C:\Users\Austina\AppData\Local\Temp\cc8Iu5MR.s 			page 34


1487:Generated_Source\PSoC6\pdl\drivers/peripheral/scb/cy_scb_i2c.h ****             cy_cb_scb_i2c_handle_events_t callback, cy_stc_scb_i2c_context_t *context)
1488:Generated_Source\PSoC6\pdl\drivers/peripheral/scb/cy_scb_i2c.h **** {
1489:Generated_Source\PSoC6\pdl\drivers/peripheral/scb/cy_scb_i2c.h ****     /* Suppress a compiler warning about unused variables */
1490:Generated_Source\PSoC6\pdl\drivers/peripheral/scb/cy_scb_i2c.h ****     (void) base;
1491:Generated_Source\PSoC6\pdl\drivers/peripheral/scb/cy_scb_i2c.h **** 
1492:Generated_Source\PSoC6\pdl\drivers/peripheral/scb/cy_scb_i2c.h ****     context->cbEvents = callback;
 241              		.loc 2 1492 0
 242 001a 264A     		ldr	r2, .L29+12
 243 001c 264B     		ldr	r3, .L29+16
 244 001e 5A64     		str	r2, [r3, #68]
 245              	.LBE8:
 246              	.LBE7:
  36:SOURCE/servoSlaveCommTask.c ****     int compareTmp = 0;
 247              		.loc 1 36 0
 248 0020 0025     		movs	r5, #0
  35:SOURCE/servoSlaveCommTask.c ****     int cntrNum = 0;
 249              		.loc 1 35 0
 250 0022 2E46     		mov	r6, r5
 251              	.LVL24:
 252              	.L24:
  49:SOURCE/servoSlaveCommTask.c ****         
 253              		.loc 1 49 0
 254 0024 4FF0FF32 		mov	r2, #-1
 255 0028 6946     		mov	r1, sp
 256 002a 244B     		ldr	r3, .L29+20
 257 002c 1868     		ldr	r0, [r3]
 258 002e FFF7FEFF 		bl	xQueueReceive
 259              	.LVL25:
  53:SOURCE/servoSlaveCommTask.c ****         {
 260              		.loc 1 53 0
 261 0032 9DF80030 		ldrb	r3, [sp]	@ zero_extendqisi2
 262 0036 012B     		cmp	r3, #1
 263 0038 04D0     		beq	.L25
 264 003a 022B     		cmp	r3, #2
 265 003c 04D1     		bne	.L18
 266              	.LVL26:
  61:SOURCE/servoSlaveCommTask.c ****             break;
 267              		.loc 1 61 0
 268 003e 0A25     		movs	r5, #10
  60:SOURCE/servoSlaveCommTask.c ****                 cntrNum = PWM_2_CNT_NUM;
 269              		.loc 1 60 0
 270 0040 1F4E     		ldr	r6, .L29+24
  62:SOURCE/servoSlaveCommTask.c ****             default:
 271              		.loc 1 62 0
 272 0042 01E0     		b	.L18
 273              	.LVL27:
 274              	.L25:
  57:SOURCE/servoSlaveCommTask.c ****             break;
 275              		.loc 1 57 0
 276 0044 0125     		movs	r5, #1
 277              	.LVL28:
  56:SOURCE/servoSlaveCommTask.c ****                 cntrNum = PWM_1_CNT_NUM;
 278              		.loc 1 56 0
 279 0046 1E4E     		ldr	r6, .L29+24
 280              	.LVL29:
 281              	.L18:
  68:SOURCE/servoSlaveCommTask.c ****         {
ARM GAS  C:\Users\Austina\AppData\Local\Temp\cc8Iu5MR.s 			page 35


 282              		.loc 1 68 0
 283 0048 9DF80130 		ldrb	r3, [sp, #1]	@ zero_extendqisi2
 284 004c 012B     		cmp	r3, #1
 285 004e 0CD1     		bne	.L20
 286              	.LVL30:
 287              	.LBB9:
 288              	.LBB10:
 289              		.file 3 "Generated_Source\\PSoC6\\pdl\\drivers/peripheral/tcpwm/cy_tcpwm_pwm.h"
   1:Generated_Source\PSoC6\pdl\drivers/peripheral/tcpwm/cy_tcpwm_pwm.h **** /***************************************************************************//**
   2:Generated_Source\PSoC6\pdl\drivers/peripheral/tcpwm/cy_tcpwm_pwm.h **** * \file cy_tcpwm_pwm.h
   3:Generated_Source\PSoC6\pdl\drivers/peripheral/tcpwm/cy_tcpwm_pwm.h **** * \version 1.10
   4:Generated_Source\PSoC6\pdl\drivers/peripheral/tcpwm/cy_tcpwm_pwm.h **** *
   5:Generated_Source\PSoC6\pdl\drivers/peripheral/tcpwm/cy_tcpwm_pwm.h **** * \brief
   6:Generated_Source\PSoC6\pdl\drivers/peripheral/tcpwm/cy_tcpwm_pwm.h **** * The header file of the TCPWM PWM driver.
   7:Generated_Source\PSoC6\pdl\drivers/peripheral/tcpwm/cy_tcpwm_pwm.h **** *
   8:Generated_Source\PSoC6\pdl\drivers/peripheral/tcpwm/cy_tcpwm_pwm.h **** ********************************************************************************
   9:Generated_Source\PSoC6\pdl\drivers/peripheral/tcpwm/cy_tcpwm_pwm.h **** * \copyright
  10:Generated_Source\PSoC6\pdl\drivers/peripheral/tcpwm/cy_tcpwm_pwm.h **** * Copyright 2016-2018, Cypress Semiconductor Corporation. All rights reserved.
  11:Generated_Source\PSoC6\pdl\drivers/peripheral/tcpwm/cy_tcpwm_pwm.h **** * You may use this file only in accordance with the license, terms, conditions,
  12:Generated_Source\PSoC6\pdl\drivers/peripheral/tcpwm/cy_tcpwm_pwm.h **** * disclaimers, and limitations in the end user license agreement accompanying
  13:Generated_Source\PSoC6\pdl\drivers/peripheral/tcpwm/cy_tcpwm_pwm.h **** * the software package with which this file was provided.
  14:Generated_Source\PSoC6\pdl\drivers/peripheral/tcpwm/cy_tcpwm_pwm.h **** *******************************************************************************/
  15:Generated_Source\PSoC6\pdl\drivers/peripheral/tcpwm/cy_tcpwm_pwm.h **** 
  16:Generated_Source\PSoC6\pdl\drivers/peripheral/tcpwm/cy_tcpwm_pwm.h **** #if !defined(CY_TCPWM_PWM_H)
  17:Generated_Source\PSoC6\pdl\drivers/peripheral/tcpwm/cy_tcpwm_pwm.h **** #define CY_TCPWM_PWM_H
  18:Generated_Source\PSoC6\pdl\drivers/peripheral/tcpwm/cy_tcpwm_pwm.h **** 
  19:Generated_Source\PSoC6\pdl\drivers/peripheral/tcpwm/cy_tcpwm_pwm.h **** #include "cy_tcpwm.h"
  20:Generated_Source\PSoC6\pdl\drivers/peripheral/tcpwm/cy_tcpwm_pwm.h **** 
  21:Generated_Source\PSoC6\pdl\drivers/peripheral/tcpwm/cy_tcpwm_pwm.h **** #if defined(__cplusplus)
  22:Generated_Source\PSoC6\pdl\drivers/peripheral/tcpwm/cy_tcpwm_pwm.h **** extern "C" {
  23:Generated_Source\PSoC6\pdl\drivers/peripheral/tcpwm/cy_tcpwm_pwm.h **** #endif
  24:Generated_Source\PSoC6\pdl\drivers/peripheral/tcpwm/cy_tcpwm_pwm.h **** 
  25:Generated_Source\PSoC6\pdl\drivers/peripheral/tcpwm/cy_tcpwm_pwm.h **** /**
  26:Generated_Source\PSoC6\pdl\drivers/peripheral/tcpwm/cy_tcpwm_pwm.h **** * \addtogroup group_tcpwm_pwm
  27:Generated_Source\PSoC6\pdl\drivers/peripheral/tcpwm/cy_tcpwm_pwm.h **** * Driver API for PWM.
  28:Generated_Source\PSoC6\pdl\drivers/peripheral/tcpwm/cy_tcpwm_pwm.h **** *
  29:Generated_Source\PSoC6\pdl\drivers/peripheral/tcpwm/cy_tcpwm_pwm.h **** * The functions and other declarations used in this part of the driver are in cy_tcpwm_pwm.h. 
  30:Generated_Source\PSoC6\pdl\drivers/peripheral/tcpwm/cy_tcpwm_pwm.h **** * You can also include cy_pdl.h (ModusToolbox only) to get access to all  
  31:Generated_Source\PSoC6\pdl\drivers/peripheral/tcpwm/cy_tcpwm_pwm.h **** * functions and declarations in the PDL.
  32:Generated_Source\PSoC6\pdl\drivers/peripheral/tcpwm/cy_tcpwm_pwm.h **** * \{
  33:Generated_Source\PSoC6\pdl\drivers/peripheral/tcpwm/cy_tcpwm_pwm.h **** */
  34:Generated_Source\PSoC6\pdl\drivers/peripheral/tcpwm/cy_tcpwm_pwm.h **** 
  35:Generated_Source\PSoC6\pdl\drivers/peripheral/tcpwm/cy_tcpwm_pwm.h **** /**
  36:Generated_Source\PSoC6\pdl\drivers/peripheral/tcpwm/cy_tcpwm_pwm.h **** * \defgroup group_tcpwm_macros_pwm          Macros
  37:Generated_Source\PSoC6\pdl\drivers/peripheral/tcpwm/cy_tcpwm_pwm.h **** * \defgroup group_tcpwm_functions_pwm       Functions
  38:Generated_Source\PSoC6\pdl\drivers/peripheral/tcpwm/cy_tcpwm_pwm.h **** * \defgroup group_tcpwm_data_structures_pwm Data Structures
  39:Generated_Source\PSoC6\pdl\drivers/peripheral/tcpwm/cy_tcpwm_pwm.h **** * \} */
  40:Generated_Source\PSoC6\pdl\drivers/peripheral/tcpwm/cy_tcpwm_pwm.h **** 
  41:Generated_Source\PSoC6\pdl\drivers/peripheral/tcpwm/cy_tcpwm_pwm.h **** /**
  42:Generated_Source\PSoC6\pdl\drivers/peripheral/tcpwm/cy_tcpwm_pwm.h **** * \addtogroup group_tcpwm_data_structures_pwm
  43:Generated_Source\PSoC6\pdl\drivers/peripheral/tcpwm/cy_tcpwm_pwm.h **** * \{
  44:Generated_Source\PSoC6\pdl\drivers/peripheral/tcpwm/cy_tcpwm_pwm.h **** */
  45:Generated_Source\PSoC6\pdl\drivers/peripheral/tcpwm/cy_tcpwm_pwm.h **** 
  46:Generated_Source\PSoC6\pdl\drivers/peripheral/tcpwm/cy_tcpwm_pwm.h **** /** PWM configuration structure */
  47:Generated_Source\PSoC6\pdl\drivers/peripheral/tcpwm/cy_tcpwm_pwm.h **** typedef struct cy_stc_tcpwm_pwm_config
  48:Generated_Source\PSoC6\pdl\drivers/peripheral/tcpwm/cy_tcpwm_pwm.h **** {
  49:Generated_Source\PSoC6\pdl\drivers/peripheral/tcpwm/cy_tcpwm_pwm.h ****     uint32_t    pwmMode;            /**< Sets the PWM mode. See \ref group_tcpwm_pwm_modes */
ARM GAS  C:\Users\Austina\AppData\Local\Temp\cc8Iu5MR.s 			page 36


  50:Generated_Source\PSoC6\pdl\drivers/peripheral/tcpwm/cy_tcpwm_pwm.h ****     /** Sets the clock prescaler inside the TCWPM block. See \ref group_tcpwm_pwm_clk_prescalers */
  51:Generated_Source\PSoC6\pdl\drivers/peripheral/tcpwm/cy_tcpwm_pwm.h ****     uint32_t     clockPrescaler;
  52:Generated_Source\PSoC6\pdl\drivers/peripheral/tcpwm/cy_tcpwm_pwm.h ****     uint32_t    pwmAlignment;       /**< Sets the PWM alignment. See \ref group_tcpwm_pwm_alignment
  53:Generated_Source\PSoC6\pdl\drivers/peripheral/tcpwm/cy_tcpwm_pwm.h ****     uint32_t    deadTimeClocks;     /**< The number of dead time-clocks if PWM with dead time is ch
  54:Generated_Source\PSoC6\pdl\drivers/peripheral/tcpwm/cy_tcpwm_pwm.h ****     uint32_t    runMode;            /**< Sets the PWM run mode. See \ref group_tcpwm_pwm_run_modes 
  55:Generated_Source\PSoC6\pdl\drivers/peripheral/tcpwm/cy_tcpwm_pwm.h ****     uint32_t    period0;            /**< Sets the period0 of the pwm */
  56:Generated_Source\PSoC6\pdl\drivers/peripheral/tcpwm/cy_tcpwm_pwm.h ****     uint32_t    period1;            /**< Sets the period1 of the pwm */
  57:Generated_Source\PSoC6\pdl\drivers/peripheral/tcpwm/cy_tcpwm_pwm.h ****     bool        enablePeriodSwap;   /**< Enables swapping of period 0 and period 1 on terminal coun
  58:Generated_Source\PSoC6\pdl\drivers/peripheral/tcpwm/cy_tcpwm_pwm.h ****     uint32_t    compare0;           /**< Sets the value for Compare0 */
  59:Generated_Source\PSoC6\pdl\drivers/peripheral/tcpwm/cy_tcpwm_pwm.h ****     uint32_t    compare1;           /**< Sets the value for Compare1 */
  60:Generated_Source\PSoC6\pdl\drivers/peripheral/tcpwm/cy_tcpwm_pwm.h ****     bool        enableCompareSwap;  /**< If enabled, the compare values are swapped on the terminal
  61:Generated_Source\PSoC6\pdl\drivers/peripheral/tcpwm/cy_tcpwm_pwm.h ****     /** Enables an interrupt on the terminal count, capture or compare. See \ref group_tcpwm_interr
  62:Generated_Source\PSoC6\pdl\drivers/peripheral/tcpwm/cy_tcpwm_pwm.h ****     uint32_t    interruptSources;
  63:Generated_Source\PSoC6\pdl\drivers/peripheral/tcpwm/cy_tcpwm_pwm.h ****     uint32_t    invertPWMOut;       /**< Inverts the PWM output */
  64:Generated_Source\PSoC6\pdl\drivers/peripheral/tcpwm/cy_tcpwm_pwm.h ****     uint32_t    invertPWMOutN;      /**< Inverts the PWM_n output */
  65:Generated_Source\PSoC6\pdl\drivers/peripheral/tcpwm/cy_tcpwm_pwm.h ****     uint32_t    killMode;           /**< Configures the PWM kill modes. See \ref group_tcpwm_pwm_ki
  66:Generated_Source\PSoC6\pdl\drivers/peripheral/tcpwm/cy_tcpwm_pwm.h ****     uint32_t    swapInputMode;      /**< Configures how the swap input behaves. See \ref group_tcpw
  67:Generated_Source\PSoC6\pdl\drivers/peripheral/tcpwm/cy_tcpwm_pwm.h ****     /** Selects which input the swap uses. Inputs are device-specific. See \ref group_tcpwm_input_s
  68:Generated_Source\PSoC6\pdl\drivers/peripheral/tcpwm/cy_tcpwm_pwm.h ****     uint32_t    swapInput;
  69:Generated_Source\PSoC6\pdl\drivers/peripheral/tcpwm/cy_tcpwm_pwm.h ****     uint32_t    reloadInputMode;    /**< Configures how the reload input behaves. See \ref group_tc
  70:Generated_Source\PSoC6\pdl\drivers/peripheral/tcpwm/cy_tcpwm_pwm.h ****     /** Selects which input the reload uses. The inputs are device-specific. See \ref group_tcpwm_i
  71:Generated_Source\PSoC6\pdl\drivers/peripheral/tcpwm/cy_tcpwm_pwm.h ****     uint32_t    reloadInput;            
  72:Generated_Source\PSoC6\pdl\drivers/peripheral/tcpwm/cy_tcpwm_pwm.h ****     uint32_t    startInputMode;     /**< Configures how the start input behaves. See \ref group_tcp
  73:Generated_Source\PSoC6\pdl\drivers/peripheral/tcpwm/cy_tcpwm_pwm.h ****     /** Selects which input the start uses. The inputs are device-specific. See \ref group_tcpwm_in
  74:Generated_Source\PSoC6\pdl\drivers/peripheral/tcpwm/cy_tcpwm_pwm.h ****     uint32_t    startInput;                
  75:Generated_Source\PSoC6\pdl\drivers/peripheral/tcpwm/cy_tcpwm_pwm.h ****     uint32_t    killInputMode;      /**< Configures how the kill input behaves. See \ref group_tcpw
  76:Generated_Source\PSoC6\pdl\drivers/peripheral/tcpwm/cy_tcpwm_pwm.h ****     /** Selects which input the kill uses. The inputs are device-specific. See \ref group_tcpwm_inp
  77:Generated_Source\PSoC6\pdl\drivers/peripheral/tcpwm/cy_tcpwm_pwm.h ****     uint32_t    killInput;
  78:Generated_Source\PSoC6\pdl\drivers/peripheral/tcpwm/cy_tcpwm_pwm.h ****     uint32_t    countInputMode;     /**< Configures how the count input behaves. See \ref group_tcp
  79:Generated_Source\PSoC6\pdl\drivers/peripheral/tcpwm/cy_tcpwm_pwm.h ****     /** Selects which input the count uses. The inputs are device-specific. See \ref group_tcpwm_in
  80:Generated_Source\PSoC6\pdl\drivers/peripheral/tcpwm/cy_tcpwm_pwm.h ****     uint32_t    countInput;
  81:Generated_Source\PSoC6\pdl\drivers/peripheral/tcpwm/cy_tcpwm_pwm.h **** }cy_stc_tcpwm_pwm_config_t;
  82:Generated_Source\PSoC6\pdl\drivers/peripheral/tcpwm/cy_tcpwm_pwm.h **** /** \} group_tcpwm_data_structures_pwm */
  83:Generated_Source\PSoC6\pdl\drivers/peripheral/tcpwm/cy_tcpwm_pwm.h **** 
  84:Generated_Source\PSoC6\pdl\drivers/peripheral/tcpwm/cy_tcpwm_pwm.h **** /**
  85:Generated_Source\PSoC6\pdl\drivers/peripheral/tcpwm/cy_tcpwm_pwm.h **** * \addtogroup group_tcpwm_macros_pwm
  86:Generated_Source\PSoC6\pdl\drivers/peripheral/tcpwm/cy_tcpwm_pwm.h **** * \{
  87:Generated_Source\PSoC6\pdl\drivers/peripheral/tcpwm/cy_tcpwm_pwm.h **** * \defgroup group_tcpwm_pwm_run_modes PWM run modes
  88:Generated_Source\PSoC6\pdl\drivers/peripheral/tcpwm/cy_tcpwm_pwm.h **** * \{
  89:Generated_Source\PSoC6\pdl\drivers/peripheral/tcpwm/cy_tcpwm_pwm.h **** * Run modes for the pwm timer.
  90:Generated_Source\PSoC6\pdl\drivers/peripheral/tcpwm/cy_tcpwm_pwm.h **** */
  91:Generated_Source\PSoC6\pdl\drivers/peripheral/tcpwm/cy_tcpwm_pwm.h **** #define CY_TCPWM_PWM_ONESHOT            (1U)    /**< Counter runs once and then stops */
  92:Generated_Source\PSoC6\pdl\drivers/peripheral/tcpwm/cy_tcpwm_pwm.h **** #define CY_TCPWM_PWM_CONTINUOUS         (0U)    /**< Counter runs forever */
  93:Generated_Source\PSoC6\pdl\drivers/peripheral/tcpwm/cy_tcpwm_pwm.h **** /** \} group_tcpwm_pwm_run_modes */
  94:Generated_Source\PSoC6\pdl\drivers/peripheral/tcpwm/cy_tcpwm_pwm.h **** 
  95:Generated_Source\PSoC6\pdl\drivers/peripheral/tcpwm/cy_tcpwm_pwm.h **** /** \defgroup group_tcpwm_pwm_modes PWM modes 
  96:Generated_Source\PSoC6\pdl\drivers/peripheral/tcpwm/cy_tcpwm_pwm.h **** * \{
  97:Generated_Source\PSoC6\pdl\drivers/peripheral/tcpwm/cy_tcpwm_pwm.h **** * Sets the PWM modes.
  98:Generated_Source\PSoC6\pdl\drivers/peripheral/tcpwm/cy_tcpwm_pwm.h **** */
  99:Generated_Source\PSoC6\pdl\drivers/peripheral/tcpwm/cy_tcpwm_pwm.h **** #define CY_TCPWM_PWM_MODE_PWM           (4U) /**< Standard PWM Mode*/
 100:Generated_Source\PSoC6\pdl\drivers/peripheral/tcpwm/cy_tcpwm_pwm.h **** #define CY_TCPWM_PWM_MODE_DEADTIME      (5U)    /**< PWM with deadtime mode*/
 101:Generated_Source\PSoC6\pdl\drivers/peripheral/tcpwm/cy_tcpwm_pwm.h **** #define CY_TCPWM_PWM_MODE_PSEUDORANDOM  (6U)    /**< Pseudo Random PWM */
 102:Generated_Source\PSoC6\pdl\drivers/peripheral/tcpwm/cy_tcpwm_pwm.h **** /** \} group_tcpwm_pwm_modes */
 103:Generated_Source\PSoC6\pdl\drivers/peripheral/tcpwm/cy_tcpwm_pwm.h **** 
 104:Generated_Source\PSoC6\pdl\drivers/peripheral/tcpwm/cy_tcpwm_pwm.h **** /** \defgroup group_tcpwm_pwm_alignment PWM Alignment
 105:Generated_Source\PSoC6\pdl\drivers/peripheral/tcpwm/cy_tcpwm_pwm.h **** * Sets the alignment of the PWM.
 106:Generated_Source\PSoC6\pdl\drivers/peripheral/tcpwm/cy_tcpwm_pwm.h **** * \{
ARM GAS  C:\Users\Austina\AppData\Local\Temp\cc8Iu5MR.s 			page 37


 107:Generated_Source\PSoC6\pdl\drivers/peripheral/tcpwm/cy_tcpwm_pwm.h **** */
 108:Generated_Source\PSoC6\pdl\drivers/peripheral/tcpwm/cy_tcpwm_pwm.h **** #define CY_TCPWM_PWM_LEFT_ALIGN         (0U)     /**< PWM is left aligned, meaning it starts high *
 109:Generated_Source\PSoC6\pdl\drivers/peripheral/tcpwm/cy_tcpwm_pwm.h **** #define CY_TCPWM_PWM_RIGHT_ALIGN        (1U)        /**< PWM is right aligned, meaning it starts lo
 110:Generated_Source\PSoC6\pdl\drivers/peripheral/tcpwm/cy_tcpwm_pwm.h **** /** PWM is centered aligned, terminal count only occurs on underflow */
 111:Generated_Source\PSoC6\pdl\drivers/peripheral/tcpwm/cy_tcpwm_pwm.h **** #define CY_TCPWM_PWM_CENTER_ALIGN       (2U)
 112:Generated_Source\PSoC6\pdl\drivers/peripheral/tcpwm/cy_tcpwm_pwm.h **** /** PWM is asymmetrically aligned, terminal count occurs on overflow and underflow */
 113:Generated_Source\PSoC6\pdl\drivers/peripheral/tcpwm/cy_tcpwm_pwm.h **** #define CY_TCPWM_PWM_ASYMMETRIC_ALIGN   (3U)
 114:Generated_Source\PSoC6\pdl\drivers/peripheral/tcpwm/cy_tcpwm_pwm.h **** /** \} group_tcpwm_pwm_alignment */
 115:Generated_Source\PSoC6\pdl\drivers/peripheral/tcpwm/cy_tcpwm_pwm.h **** 
 116:Generated_Source\PSoC6\pdl\drivers/peripheral/tcpwm/cy_tcpwm_pwm.h **** /** \defgroup group_tcpwm_pwm_kill_modes PWM kill modes
 117:Generated_Source\PSoC6\pdl\drivers/peripheral/tcpwm/cy_tcpwm_pwm.h **** * Sets the kill mode for the PWM.
 118:Generated_Source\PSoC6\pdl\drivers/peripheral/tcpwm/cy_tcpwm_pwm.h **** * \{
 119:Generated_Source\PSoC6\pdl\drivers/peripheral/tcpwm/cy_tcpwm_pwm.h **** */
 120:Generated_Source\PSoC6\pdl\drivers/peripheral/tcpwm/cy_tcpwm_pwm.h **** #define CY_TCPWM_PWM_STOP_ON_KILL       (2U)    /**< PWM stops counting on kill */
 121:Generated_Source\PSoC6\pdl\drivers/peripheral/tcpwm/cy_tcpwm_pwm.h **** #define CY_TCPWM_PWM_SYNCH_KILL         (1U)    /**< PWM output is killed after next TC*/
 122:Generated_Source\PSoC6\pdl\drivers/peripheral/tcpwm/cy_tcpwm_pwm.h **** #define CY_TCPWM_PWM_ASYNC_KILL         (0U)    /**< PWM output is killed instantly */
 123:Generated_Source\PSoC6\pdl\drivers/peripheral/tcpwm/cy_tcpwm_pwm.h **** /** \} group_tcpwm_pwm_kill_modes */
 124:Generated_Source\PSoC6\pdl\drivers/peripheral/tcpwm/cy_tcpwm_pwm.h **** 
 125:Generated_Source\PSoC6\pdl\drivers/peripheral/tcpwm/cy_tcpwm_pwm.h **** /** \defgroup group_tcpwm_pwm_clk_prescalers PWM CLK Prescaler values
 126:Generated_Source\PSoC6\pdl\drivers/peripheral/tcpwm/cy_tcpwm_pwm.h **** * \{
 127:Generated_Source\PSoC6\pdl\drivers/peripheral/tcpwm/cy_tcpwm_pwm.h **** * Clock prescaler values.
 128:Generated_Source\PSoC6\pdl\drivers/peripheral/tcpwm/cy_tcpwm_pwm.h **** */
 129:Generated_Source\PSoC6\pdl\drivers/peripheral/tcpwm/cy_tcpwm_pwm.h **** #define CY_TCPWM_PWM_PRESCALER_DIVBY_1      (0U) /**< Divide by 1 */
 130:Generated_Source\PSoC6\pdl\drivers/peripheral/tcpwm/cy_tcpwm_pwm.h **** #define CY_TCPWM_PWM_PRESCALER_DIVBY_2      (1U) /**< Divide by 2 */
 131:Generated_Source\PSoC6\pdl\drivers/peripheral/tcpwm/cy_tcpwm_pwm.h **** #define CY_TCPWM_PWM_PRESCALER_DIVBY_4      (2U) /**< Divide by 4 */
 132:Generated_Source\PSoC6\pdl\drivers/peripheral/tcpwm/cy_tcpwm_pwm.h **** #define CY_TCPWM_PWM_PRESCALER_DIVBY_8      (3U) /**< Divide by 8 */
 133:Generated_Source\PSoC6\pdl\drivers/peripheral/tcpwm/cy_tcpwm_pwm.h **** #define CY_TCPWM_PWM_PRESCALER_DIVBY_16     (4U) /**< Divide by 16 */
 134:Generated_Source\PSoC6\pdl\drivers/peripheral/tcpwm/cy_tcpwm_pwm.h **** #define CY_TCPWM_PWM_PRESCALER_DIVBY_32     (5U) /**< Divide by 32 */
 135:Generated_Source\PSoC6\pdl\drivers/peripheral/tcpwm/cy_tcpwm_pwm.h **** #define CY_TCPWM_PWM_PRESCALER_DIVBY_64     (6U) /**< Divide by 64 */
 136:Generated_Source\PSoC6\pdl\drivers/peripheral/tcpwm/cy_tcpwm_pwm.h **** #define CY_TCPWM_PWM_PRESCALER_DIVBY_128    (7U) /**< Divide by 128 */
 137:Generated_Source\PSoC6\pdl\drivers/peripheral/tcpwm/cy_tcpwm_pwm.h **** /** \} group_tcpwm_pwm_clk_prescalers */
 138:Generated_Source\PSoC6\pdl\drivers/peripheral/tcpwm/cy_tcpwm_pwm.h **** 
 139:Generated_Source\PSoC6\pdl\drivers/peripheral/tcpwm/cy_tcpwm_pwm.h **** /** \defgroup group_tcpwm_pwm_output_invert PWM output invert
 140:Generated_Source\PSoC6\pdl\drivers/peripheral/tcpwm/cy_tcpwm_pwm.h **** * \{
 141:Generated_Source\PSoC6\pdl\drivers/peripheral/tcpwm/cy_tcpwm_pwm.h **** * Output invert modes.
 142:Generated_Source\PSoC6\pdl\drivers/peripheral/tcpwm/cy_tcpwm_pwm.h **** */
 143:Generated_Source\PSoC6\pdl\drivers/peripheral/tcpwm/cy_tcpwm_pwm.h **** #define CY_TCPWM_PWM_INVERT_ENABLE          (1U)  /**< Invert the output mode */
 144:Generated_Source\PSoC6\pdl\drivers/peripheral/tcpwm/cy_tcpwm_pwm.h **** #define CY_TCPWM_PWM_INVERT_DISABLE         (0U)  /**< Do not invert the output mode */
 145:Generated_Source\PSoC6\pdl\drivers/peripheral/tcpwm/cy_tcpwm_pwm.h **** /** \} group_tcpwm_pwm_output_invert */
 146:Generated_Source\PSoC6\pdl\drivers/peripheral/tcpwm/cy_tcpwm_pwm.h **** 
 147:Generated_Source\PSoC6\pdl\drivers/peripheral/tcpwm/cy_tcpwm_pwm.h **** /** \defgroup group_tcpwm_pwm_status PWM Status
 148:Generated_Source\PSoC6\pdl\drivers/peripheral/tcpwm/cy_tcpwm_pwm.h **** * \{
 149:Generated_Source\PSoC6\pdl\drivers/peripheral/tcpwm/cy_tcpwm_pwm.h **** * The counter status.
 150:Generated_Source\PSoC6\pdl\drivers/peripheral/tcpwm/cy_tcpwm_pwm.h **** */
 151:Generated_Source\PSoC6\pdl\drivers/peripheral/tcpwm/cy_tcpwm_pwm.h **** #define CY_TCPWM_PWM_STATUS_DOWN_COUNTING   (0x1UL)        /**< PWM is down counting */
 152:Generated_Source\PSoC6\pdl\drivers/peripheral/tcpwm/cy_tcpwm_pwm.h **** #define CY_TCPWM_PWM_STATUS_UP_COUNTING     (0x2UL)        /**< PWM is up counting */
 153:Generated_Source\PSoC6\pdl\drivers/peripheral/tcpwm/cy_tcpwm_pwm.h **** #define CY_TCPWM_PWM_STATUS_COUNTER_RUNNING (TCPWM_CNT_STATUS_RUNNING_Msk)     /**< PWM counter is 
 154:Generated_Source\PSoC6\pdl\drivers/peripheral/tcpwm/cy_tcpwm_pwm.h **** /** \} group_tcpwm_pwm_status */
 155:Generated_Source\PSoC6\pdl\drivers/peripheral/tcpwm/cy_tcpwm_pwm.h **** /** \} group_tcpwm_macros_pwm */
 156:Generated_Source\PSoC6\pdl\drivers/peripheral/tcpwm/cy_tcpwm_pwm.h **** 
 157:Generated_Source\PSoC6\pdl\drivers/peripheral/tcpwm/cy_tcpwm_pwm.h **** 
 158:Generated_Source\PSoC6\pdl\drivers/peripheral/tcpwm/cy_tcpwm_pwm.h **** /***************************************
 159:Generated_Source\PSoC6\pdl\drivers/peripheral/tcpwm/cy_tcpwm_pwm.h **** *        Registers Constants
 160:Generated_Source\PSoC6\pdl\drivers/peripheral/tcpwm/cy_tcpwm_pwm.h **** ***************************************/
 161:Generated_Source\PSoC6\pdl\drivers/peripheral/tcpwm/cy_tcpwm_pwm.h **** 
 162:Generated_Source\PSoC6\pdl\drivers/peripheral/tcpwm/cy_tcpwm_pwm.h **** /** \cond INTERNAL */
 163:Generated_Source\PSoC6\pdl\drivers/peripheral/tcpwm/cy_tcpwm_pwm.h **** #define CY_TCPWM_PWM_CTRL_SYNC_KILL_OR_STOP_ON_KILL_POS  (2U)
ARM GAS  C:\Users\Austina\AppData\Local\Temp\cc8Iu5MR.s 			page 38


 164:Generated_Source\PSoC6\pdl\drivers/peripheral/tcpwm/cy_tcpwm_pwm.h **** #define CY_TCPWM_PWM_CTRL_SYNC_KILL_OR_STOP_ON_KILL_MASK (0x3UL << CY_TCPWM_PWM_CTRL_SYNC_KILL_OR_S
 165:Generated_Source\PSoC6\pdl\drivers/peripheral/tcpwm/cy_tcpwm_pwm.h **** 
 166:Generated_Source\PSoC6\pdl\drivers/peripheral/tcpwm/cy_tcpwm_pwm.h **** #define CY_TCPWM_PWM_TR_CTRL2_SET           (0UL) /**< Set define for PWM output signal configurati
 167:Generated_Source\PSoC6\pdl\drivers/peripheral/tcpwm/cy_tcpwm_pwm.h **** #define CY_TCPWM_PWM_TR_CTRL2_CLEAR         (1UL) /**< Clear define for PWM output signal configura
 168:Generated_Source\PSoC6\pdl\drivers/peripheral/tcpwm/cy_tcpwm_pwm.h **** #define CY_TCPWM_PWM_TR_CTRL2_INVERT        (2UL) /**< Invert define for PWM output signal configur
 169:Generated_Source\PSoC6\pdl\drivers/peripheral/tcpwm/cy_tcpwm_pwm.h **** #define CY_TCPWM_PWM_TR_CTRL2_NO_CHANGE     (3UL) /**< No change define for PWM output signal confi
 170:Generated_Source\PSoC6\pdl\drivers/peripheral/tcpwm/cy_tcpwm_pwm.h **** 
 171:Generated_Source\PSoC6\pdl\drivers/peripheral/tcpwm/cy_tcpwm_pwm.h **** /** The configuration of PWM output signal in Pseudo Random Mode */
 172:Generated_Source\PSoC6\pdl\drivers/peripheral/tcpwm/cy_tcpwm_pwm.h **** #define CY_TCPWM_PWM_MODE_PR         (_VAL2FLD(TCPWM_CNT_TR_CTRL2_CC_MATCH_MODE, CY_TCPWM_PWM_TR_CT
 173:Generated_Source\PSoC6\pdl\drivers/peripheral/tcpwm/cy_tcpwm_pwm.h ****                                       _VAL2FLD(TCPWM_CNT_TR_CTRL2_OVERFLOW_MODE, CY_TCPWM_PWM_TR_CT
 174:Generated_Source\PSoC6\pdl\drivers/peripheral/tcpwm/cy_tcpwm_pwm.h ****                                       _VAL2FLD(TCPWM_CNT_TR_CTRL2_UNDERFLOW_MODE, CY_TCPWM_PWM_TR_C
 175:Generated_Source\PSoC6\pdl\drivers/peripheral/tcpwm/cy_tcpwm_pwm.h **** 
 176:Generated_Source\PSoC6\pdl\drivers/peripheral/tcpwm/cy_tcpwm_pwm.h **** /** The configuration of PWM output signal for Left alignment */
 177:Generated_Source\PSoC6\pdl\drivers/peripheral/tcpwm/cy_tcpwm_pwm.h **** #define CY_TCPWM_PWM_MODE_LEFT       (_VAL2FLD(TCPWM_CNT_TR_CTRL2_CC_MATCH_MODE, CY_TCPWM_PWM_TR_CT
 178:Generated_Source\PSoC6\pdl\drivers/peripheral/tcpwm/cy_tcpwm_pwm.h ****                                       _VAL2FLD(TCPWM_CNT_TR_CTRL2_OVERFLOW_MODE, CY_TCPWM_PWM_TR_CT
 179:Generated_Source\PSoC6\pdl\drivers/peripheral/tcpwm/cy_tcpwm_pwm.h ****                                       _VAL2FLD(TCPWM_CNT_TR_CTRL2_UNDERFLOW_MODE, CY_TCPWM_PWM_TR_C
 180:Generated_Source\PSoC6\pdl\drivers/peripheral/tcpwm/cy_tcpwm_pwm.h **** 
 181:Generated_Source\PSoC6\pdl\drivers/peripheral/tcpwm/cy_tcpwm_pwm.h **** /** The configuration of PWM output signal for Right alignment */
 182:Generated_Source\PSoC6\pdl\drivers/peripheral/tcpwm/cy_tcpwm_pwm.h **** #define CY_TCPWM_PWM_MODE_RIGHT      (_VAL2FLD(TCPWM_CNT_TR_CTRL2_CC_MATCH_MODE, CY_TCPWM_PWM_TR_CT
 183:Generated_Source\PSoC6\pdl\drivers/peripheral/tcpwm/cy_tcpwm_pwm.h ****                                       _VAL2FLD(TCPWM_CNT_TR_CTRL2_OVERFLOW_MODE, CY_TCPWM_PWM_TR_CT
 184:Generated_Source\PSoC6\pdl\drivers/peripheral/tcpwm/cy_tcpwm_pwm.h ****                                       _VAL2FLD(TCPWM_CNT_TR_CTRL2_UNDERFLOW_MODE, CY_TCPWM_PWM_TR_C
 185:Generated_Source\PSoC6\pdl\drivers/peripheral/tcpwm/cy_tcpwm_pwm.h **** 
 186:Generated_Source\PSoC6\pdl\drivers/peripheral/tcpwm/cy_tcpwm_pwm.h **** /** The configuration of PWM output signal for Center and Asymmetric alignment */
 187:Generated_Source\PSoC6\pdl\drivers/peripheral/tcpwm/cy_tcpwm_pwm.h **** #define CY_TCPWM_PWM_MODE_CNTR_OR_ASYMM (_VAL2FLD(TCPWM_CNT_TR_CTRL2_CC_MATCH_MODE, CY_TCPWM_PWM_TR
 188:Generated_Source\PSoC6\pdl\drivers/peripheral/tcpwm/cy_tcpwm_pwm.h ****                                          _VAL2FLD(TCPWM_CNT_TR_CTRL2_OVERFLOW_MODE, CY_TCPWM_PWM_TR
 189:Generated_Source\PSoC6\pdl\drivers/peripheral/tcpwm/cy_tcpwm_pwm.h ****                                          _VAL2FLD(TCPWM_CNT_TR_CTRL2_UNDERFLOW_MODE, CY_TCPWM_PWM_T
 190:Generated_Source\PSoC6\pdl\drivers/peripheral/tcpwm/cy_tcpwm_pwm.h **** /** \endcond */
 191:Generated_Source\PSoC6\pdl\drivers/peripheral/tcpwm/cy_tcpwm_pwm.h **** 
 192:Generated_Source\PSoC6\pdl\drivers/peripheral/tcpwm/cy_tcpwm_pwm.h **** 
 193:Generated_Source\PSoC6\pdl\drivers/peripheral/tcpwm/cy_tcpwm_pwm.h **** /*******************************************************************************
 194:Generated_Source\PSoC6\pdl\drivers/peripheral/tcpwm/cy_tcpwm_pwm.h **** *        Function Prototypes
 195:Generated_Source\PSoC6\pdl\drivers/peripheral/tcpwm/cy_tcpwm_pwm.h **** *******************************************************************************/
 196:Generated_Source\PSoC6\pdl\drivers/peripheral/tcpwm/cy_tcpwm_pwm.h **** 
 197:Generated_Source\PSoC6\pdl\drivers/peripheral/tcpwm/cy_tcpwm_pwm.h **** /**
 198:Generated_Source\PSoC6\pdl\drivers/peripheral/tcpwm/cy_tcpwm_pwm.h **** * \addtogroup group_tcpwm_functions_pwm
 199:Generated_Source\PSoC6\pdl\drivers/peripheral/tcpwm/cy_tcpwm_pwm.h **** * \{
 200:Generated_Source\PSoC6\pdl\drivers/peripheral/tcpwm/cy_tcpwm_pwm.h **** */
 201:Generated_Source\PSoC6\pdl\drivers/peripheral/tcpwm/cy_tcpwm_pwm.h **** 
 202:Generated_Source\PSoC6\pdl\drivers/peripheral/tcpwm/cy_tcpwm_pwm.h **** cy_en_tcpwm_status_t Cy_TCPWM_PWM_Init(TCPWM_Type *base, uint32_t cntNum, cy_stc_tcpwm_pwm_config_t
 203:Generated_Source\PSoC6\pdl\drivers/peripheral/tcpwm/cy_tcpwm_pwm.h **** void Cy_TCPWM_PWM_DeInit(TCPWM_Type *base, uint32_t cntNum, cy_stc_tcpwm_pwm_config_t const *config
 204:Generated_Source\PSoC6\pdl\drivers/peripheral/tcpwm/cy_tcpwm_pwm.h **** __STATIC_INLINE void Cy_TCPWM_PWM_Enable(TCPWM_Type *base, uint32_t cntNum);
 205:Generated_Source\PSoC6\pdl\drivers/peripheral/tcpwm/cy_tcpwm_pwm.h **** __STATIC_INLINE void Cy_TCPWM_PWM_Disable(TCPWM_Type *base, uint32_t cntNum);
 206:Generated_Source\PSoC6\pdl\drivers/peripheral/tcpwm/cy_tcpwm_pwm.h **** __STATIC_INLINE uint32_t Cy_TCPWM_PWM_GetStatus(TCPWM_Type const *base, uint32_t cntNum);
 207:Generated_Source\PSoC6\pdl\drivers/peripheral/tcpwm/cy_tcpwm_pwm.h **** __STATIC_INLINE void Cy_TCPWM_PWM_SetCompare0(TCPWM_Type *base, uint32_t cntNum, uint32_t compare0)
 208:Generated_Source\PSoC6\pdl\drivers/peripheral/tcpwm/cy_tcpwm_pwm.h **** __STATIC_INLINE uint32_t Cy_TCPWM_PWM_GetCompare0(TCPWM_Type const *base, uint32_t cntNum);
 209:Generated_Source\PSoC6\pdl\drivers/peripheral/tcpwm/cy_tcpwm_pwm.h **** __STATIC_INLINE void Cy_TCPWM_PWM_SetCompare1(TCPWM_Type *base, uint32_t cntNum, uint32_t compare1)
 210:Generated_Source\PSoC6\pdl\drivers/peripheral/tcpwm/cy_tcpwm_pwm.h **** __STATIC_INLINE uint32_t Cy_TCPWM_PWM_GetCompare1(TCPWM_Type const *base, uint32_t cntNum);
 211:Generated_Source\PSoC6\pdl\drivers/peripheral/tcpwm/cy_tcpwm_pwm.h **** __STATIC_INLINE void Cy_TCPWM_PWM_EnableCompareSwap(TCPWM_Type *base, uint32_t cntNum, bool enable)
 212:Generated_Source\PSoC6\pdl\drivers/peripheral/tcpwm/cy_tcpwm_pwm.h **** __STATIC_INLINE void Cy_TCPWM_PWM_SetCounter(TCPWM_Type *base, uint32_t cntNum, uint32_t count);
 213:Generated_Source\PSoC6\pdl\drivers/peripheral/tcpwm/cy_tcpwm_pwm.h **** __STATIC_INLINE uint32_t Cy_TCPWM_PWM_GetCounter(TCPWM_Type const *base, uint32_t cntNum);
 214:Generated_Source\PSoC6\pdl\drivers/peripheral/tcpwm/cy_tcpwm_pwm.h **** __STATIC_INLINE void Cy_TCPWM_PWM_SetPeriod0(TCPWM_Type *base, uint32_t cntNum, uint32_t period0);
 215:Generated_Source\PSoC6\pdl\drivers/peripheral/tcpwm/cy_tcpwm_pwm.h **** __STATIC_INLINE uint32_t Cy_TCPWM_PWM_GetPeriod0(TCPWM_Type const *base, uint32_t cntNum);
 216:Generated_Source\PSoC6\pdl\drivers/peripheral/tcpwm/cy_tcpwm_pwm.h **** __STATIC_INLINE void Cy_TCPWM_PWM_SetPeriod1(TCPWM_Type *base, uint32_t cntNum, uint32_t period1);
 217:Generated_Source\PSoC6\pdl\drivers/peripheral/tcpwm/cy_tcpwm_pwm.h **** __STATIC_INLINE uint32_t Cy_TCPWM_PWM_GetPeriod1(TCPWM_Type const *base, uint32_t cntNum);
 218:Generated_Source\PSoC6\pdl\drivers/peripheral/tcpwm/cy_tcpwm_pwm.h **** __STATIC_INLINE void Cy_TCPWM_PWM_EnablePeriodSwap(TCPWM_Type *base, uint32_t cntNum, bool enable);
 219:Generated_Source\PSoC6\pdl\drivers/peripheral/tcpwm/cy_tcpwm_pwm.h **** 
 220:Generated_Source\PSoC6\pdl\drivers/peripheral/tcpwm/cy_tcpwm_pwm.h **** 
ARM GAS  C:\Users\Austina\AppData\Local\Temp\cc8Iu5MR.s 			page 39


 221:Generated_Source\PSoC6\pdl\drivers/peripheral/tcpwm/cy_tcpwm_pwm.h **** /*******************************************************************************
 222:Generated_Source\PSoC6\pdl\drivers/peripheral/tcpwm/cy_tcpwm_pwm.h **** * Function Name: Cy_TCPWM_PWM_Enable
 223:Generated_Source\PSoC6\pdl\drivers/peripheral/tcpwm/cy_tcpwm_pwm.h **** ****************************************************************************//**
 224:Generated_Source\PSoC6\pdl\drivers/peripheral/tcpwm/cy_tcpwm_pwm.h **** *
 225:Generated_Source\PSoC6\pdl\drivers/peripheral/tcpwm/cy_tcpwm_pwm.h **** * Enables the counter in the TCPWM block for the PWM operation.
 226:Generated_Source\PSoC6\pdl\drivers/peripheral/tcpwm/cy_tcpwm_pwm.h **** *
 227:Generated_Source\PSoC6\pdl\drivers/peripheral/tcpwm/cy_tcpwm_pwm.h **** * \param base
 228:Generated_Source\PSoC6\pdl\drivers/peripheral/tcpwm/cy_tcpwm_pwm.h **** * The pointer to a TCPWM instance.
 229:Generated_Source\PSoC6\pdl\drivers/peripheral/tcpwm/cy_tcpwm_pwm.h **** *
 230:Generated_Source\PSoC6\pdl\drivers/peripheral/tcpwm/cy_tcpwm_pwm.h **** * \param cntNum 
 231:Generated_Source\PSoC6\pdl\drivers/peripheral/tcpwm/cy_tcpwm_pwm.h **** * The Counter instance number in the selected TCPWM.
 232:Generated_Source\PSoC6\pdl\drivers/peripheral/tcpwm/cy_tcpwm_pwm.h **** *
 233:Generated_Source\PSoC6\pdl\drivers/peripheral/tcpwm/cy_tcpwm_pwm.h **** * \funcusage
 234:Generated_Source\PSoC6\pdl\drivers/peripheral/tcpwm/cy_tcpwm_pwm.h **** * \snippet tcpwm\1.10\pwm\snippet\main.c snippet_Cy_TCPWM_PWM_Init
 235:Generated_Source\PSoC6\pdl\drivers/peripheral/tcpwm/cy_tcpwm_pwm.h **** *
 236:Generated_Source\PSoC6\pdl\drivers/peripheral/tcpwm/cy_tcpwm_pwm.h **** *******************************************************************************/
 237:Generated_Source\PSoC6\pdl\drivers/peripheral/tcpwm/cy_tcpwm_pwm.h **** __STATIC_INLINE void Cy_TCPWM_PWM_Enable(TCPWM_Type *base, uint32_t cntNum)
 238:Generated_Source\PSoC6\pdl\drivers/peripheral/tcpwm/cy_tcpwm_pwm.h **** {
 239:Generated_Source\PSoC6\pdl\drivers/peripheral/tcpwm/cy_tcpwm_pwm.h ****     TCPWM_CTRL_SET(base) = (1UL << cntNum);
 240:Generated_Source\PSoC6\pdl\drivers/peripheral/tcpwm/cy_tcpwm_pwm.h **** }
 241:Generated_Source\PSoC6\pdl\drivers/peripheral/tcpwm/cy_tcpwm_pwm.h **** 
 242:Generated_Source\PSoC6\pdl\drivers/peripheral/tcpwm/cy_tcpwm_pwm.h **** /*******************************************************************************
 243:Generated_Source\PSoC6\pdl\drivers/peripheral/tcpwm/cy_tcpwm_pwm.h **** * Function Name: Cy_TCPWM_PWM_Disable
 244:Generated_Source\PSoC6\pdl\drivers/peripheral/tcpwm/cy_tcpwm_pwm.h **** ****************************************************************************//**
 245:Generated_Source\PSoC6\pdl\drivers/peripheral/tcpwm/cy_tcpwm_pwm.h **** *
 246:Generated_Source\PSoC6\pdl\drivers/peripheral/tcpwm/cy_tcpwm_pwm.h **** * Disables the counter in the TCPWM block.
 247:Generated_Source\PSoC6\pdl\drivers/peripheral/tcpwm/cy_tcpwm_pwm.h **** *
 248:Generated_Source\PSoC6\pdl\drivers/peripheral/tcpwm/cy_tcpwm_pwm.h **** * \param base
 249:Generated_Source\PSoC6\pdl\drivers/peripheral/tcpwm/cy_tcpwm_pwm.h **** * The pointer to a TCPWM instance.
 250:Generated_Source\PSoC6\pdl\drivers/peripheral/tcpwm/cy_tcpwm_pwm.h **** *
 251:Generated_Source\PSoC6\pdl\drivers/peripheral/tcpwm/cy_tcpwm_pwm.h **** * \param cntNum 
 252:Generated_Source\PSoC6\pdl\drivers/peripheral/tcpwm/cy_tcpwm_pwm.h **** * The Counter instance number in the selected TCPWM.
 253:Generated_Source\PSoC6\pdl\drivers/peripheral/tcpwm/cy_tcpwm_pwm.h **** *
 254:Generated_Source\PSoC6\pdl\drivers/peripheral/tcpwm/cy_tcpwm_pwm.h **** * \funcusage
 255:Generated_Source\PSoC6\pdl\drivers/peripheral/tcpwm/cy_tcpwm_pwm.h **** * \snippet tcpwm\1.10\pwm\snippet\main.c snippet_Cy_TCPWM_PWM_DeInit
 256:Generated_Source\PSoC6\pdl\drivers/peripheral/tcpwm/cy_tcpwm_pwm.h **** *
 257:Generated_Source\PSoC6\pdl\drivers/peripheral/tcpwm/cy_tcpwm_pwm.h **** *******************************************************************************/
 258:Generated_Source\PSoC6\pdl\drivers/peripheral/tcpwm/cy_tcpwm_pwm.h **** __STATIC_INLINE void Cy_TCPWM_PWM_Disable(TCPWM_Type *base, uint32_t cntNum)
 259:Generated_Source\PSoC6\pdl\drivers/peripheral/tcpwm/cy_tcpwm_pwm.h **** {
 260:Generated_Source\PSoC6\pdl\drivers/peripheral/tcpwm/cy_tcpwm_pwm.h ****     TCPWM_CTRL_CLR(base) = (1UL << cntNum);
 261:Generated_Source\PSoC6\pdl\drivers/peripheral/tcpwm/cy_tcpwm_pwm.h **** }
 262:Generated_Source\PSoC6\pdl\drivers/peripheral/tcpwm/cy_tcpwm_pwm.h **** 
 263:Generated_Source\PSoC6\pdl\drivers/peripheral/tcpwm/cy_tcpwm_pwm.h **** 
 264:Generated_Source\PSoC6\pdl\drivers/peripheral/tcpwm/cy_tcpwm_pwm.h **** /*******************************************************************************
 265:Generated_Source\PSoC6\pdl\drivers/peripheral/tcpwm/cy_tcpwm_pwm.h **** * Function Name: Cy_TCPWM_PWM_GetStatus
 266:Generated_Source\PSoC6\pdl\drivers/peripheral/tcpwm/cy_tcpwm_pwm.h **** ****************************************************************************//**
 267:Generated_Source\PSoC6\pdl\drivers/peripheral/tcpwm/cy_tcpwm_pwm.h **** *
 268:Generated_Source\PSoC6\pdl\drivers/peripheral/tcpwm/cy_tcpwm_pwm.h **** * Returns the status of the PWM.
 269:Generated_Source\PSoC6\pdl\drivers/peripheral/tcpwm/cy_tcpwm_pwm.h **** *
 270:Generated_Source\PSoC6\pdl\drivers/peripheral/tcpwm/cy_tcpwm_pwm.h **** * \param base
 271:Generated_Source\PSoC6\pdl\drivers/peripheral/tcpwm/cy_tcpwm_pwm.h **** * The pointer to a TCPWM instance.
 272:Generated_Source\PSoC6\pdl\drivers/peripheral/tcpwm/cy_tcpwm_pwm.h **** *
 273:Generated_Source\PSoC6\pdl\drivers/peripheral/tcpwm/cy_tcpwm_pwm.h **** * \param cntNum 
 274:Generated_Source\PSoC6\pdl\drivers/peripheral/tcpwm/cy_tcpwm_pwm.h **** * The Counter instance number in the selected TCPWM.
 275:Generated_Source\PSoC6\pdl\drivers/peripheral/tcpwm/cy_tcpwm_pwm.h **** *
 276:Generated_Source\PSoC6\pdl\drivers/peripheral/tcpwm/cy_tcpwm_pwm.h **** * \return
 277:Generated_Source\PSoC6\pdl\drivers/peripheral/tcpwm/cy_tcpwm_pwm.h **** * The status. See \ref group_tcpwm_pwm_status
ARM GAS  C:\Users\Austina\AppData\Local\Temp\cc8Iu5MR.s 			page 40


 278:Generated_Source\PSoC6\pdl\drivers/peripheral/tcpwm/cy_tcpwm_pwm.h **** *
 279:Generated_Source\PSoC6\pdl\drivers/peripheral/tcpwm/cy_tcpwm_pwm.h **** * \funcusage
 280:Generated_Source\PSoC6\pdl\drivers/peripheral/tcpwm/cy_tcpwm_pwm.h **** * \snippet tcpwm\1.10\pwm\snippet\main.c snippet_Cy_TCPWM_PWM_GetStatus
 281:Generated_Source\PSoC6\pdl\drivers/peripheral/tcpwm/cy_tcpwm_pwm.h **** *
 282:Generated_Source\PSoC6\pdl\drivers/peripheral/tcpwm/cy_tcpwm_pwm.h **** *******************************************************************************/
 283:Generated_Source\PSoC6\pdl\drivers/peripheral/tcpwm/cy_tcpwm_pwm.h **** __STATIC_INLINE uint32_t Cy_TCPWM_PWM_GetStatus(TCPWM_Type const *base, uint32_t cntNum)
 284:Generated_Source\PSoC6\pdl\drivers/peripheral/tcpwm/cy_tcpwm_pwm.h **** {
 285:Generated_Source\PSoC6\pdl\drivers/peripheral/tcpwm/cy_tcpwm_pwm.h ****     uint32_t status = TCPWM_CNT_STATUS(base, cntNum);
 286:Generated_Source\PSoC6\pdl\drivers/peripheral/tcpwm/cy_tcpwm_pwm.h ****     
 287:Generated_Source\PSoC6\pdl\drivers/peripheral/tcpwm/cy_tcpwm_pwm.h ****     /* Generates proper up counting status, does not generated by HW */
 288:Generated_Source\PSoC6\pdl\drivers/peripheral/tcpwm/cy_tcpwm_pwm.h ****     status &= ~CY_TCPWM_PWM_STATUS_UP_COUNTING;
 289:Generated_Source\PSoC6\pdl\drivers/peripheral/tcpwm/cy_tcpwm_pwm.h ****     status |= ((~status & CY_TCPWM_PWM_STATUS_DOWN_COUNTING & (status >> TCPWM_CNT_STATUS_RUNNING_P
 290:Generated_Source\PSoC6\pdl\drivers/peripheral/tcpwm/cy_tcpwm_pwm.h ****                CY_TCPWM_CNT_STATUS_UP_POS);
 291:Generated_Source\PSoC6\pdl\drivers/peripheral/tcpwm/cy_tcpwm_pwm.h ****     
 292:Generated_Source\PSoC6\pdl\drivers/peripheral/tcpwm/cy_tcpwm_pwm.h ****     return(status);
 293:Generated_Source\PSoC6\pdl\drivers/peripheral/tcpwm/cy_tcpwm_pwm.h **** }
 294:Generated_Source\PSoC6\pdl\drivers/peripheral/tcpwm/cy_tcpwm_pwm.h **** 
 295:Generated_Source\PSoC6\pdl\drivers/peripheral/tcpwm/cy_tcpwm_pwm.h **** 
 296:Generated_Source\PSoC6\pdl\drivers/peripheral/tcpwm/cy_tcpwm_pwm.h **** /*******************************************************************************
 297:Generated_Source\PSoC6\pdl\drivers/peripheral/tcpwm/cy_tcpwm_pwm.h **** * Function Name: Cy_TCPWM_PWM_SetCompare0
 298:Generated_Source\PSoC6\pdl\drivers/peripheral/tcpwm/cy_tcpwm_pwm.h **** ****************************************************************************//**
 299:Generated_Source\PSoC6\pdl\drivers/peripheral/tcpwm/cy_tcpwm_pwm.h **** *
 300:Generated_Source\PSoC6\pdl\drivers/peripheral/tcpwm/cy_tcpwm_pwm.h **** * Sets the compare value for Compare0 when the compare mode enabled.
 301:Generated_Source\PSoC6\pdl\drivers/peripheral/tcpwm/cy_tcpwm_pwm.h **** *
 302:Generated_Source\PSoC6\pdl\drivers/peripheral/tcpwm/cy_tcpwm_pwm.h **** * \param base
 303:Generated_Source\PSoC6\pdl\drivers/peripheral/tcpwm/cy_tcpwm_pwm.h **** * The pointer to a TCPWM instance.
 304:Generated_Source\PSoC6\pdl\drivers/peripheral/tcpwm/cy_tcpwm_pwm.h **** *
 305:Generated_Source\PSoC6\pdl\drivers/peripheral/tcpwm/cy_tcpwm_pwm.h **** * \param cntNum 
 306:Generated_Source\PSoC6\pdl\drivers/peripheral/tcpwm/cy_tcpwm_pwm.h **** * The Counter instance number in the selected TCPWM.
 307:Generated_Source\PSoC6\pdl\drivers/peripheral/tcpwm/cy_tcpwm_pwm.h **** *
 308:Generated_Source\PSoC6\pdl\drivers/peripheral/tcpwm/cy_tcpwm_pwm.h **** * \param compare0
 309:Generated_Source\PSoC6\pdl\drivers/peripheral/tcpwm/cy_tcpwm_pwm.h **** * The Compare0 value.
 310:Generated_Source\PSoC6\pdl\drivers/peripheral/tcpwm/cy_tcpwm_pwm.h **** *
 311:Generated_Source\PSoC6\pdl\drivers/peripheral/tcpwm/cy_tcpwm_pwm.h **** * \funcusage
 312:Generated_Source\PSoC6\pdl\drivers/peripheral/tcpwm/cy_tcpwm_pwm.h **** * \snippet tcpwm\1.10\pwm\snippet\main.c snippet_Cy_TCPWM_PWM_SetCompare0
 313:Generated_Source\PSoC6\pdl\drivers/peripheral/tcpwm/cy_tcpwm_pwm.h **** *
 314:Generated_Source\PSoC6\pdl\drivers/peripheral/tcpwm/cy_tcpwm_pwm.h **** *******************************************************************************/
 315:Generated_Source\PSoC6\pdl\drivers/peripheral/tcpwm/cy_tcpwm_pwm.h **** __STATIC_INLINE void Cy_TCPWM_PWM_SetCompare0(TCPWM_Type *base, uint32_t cntNum,  uint32_t compare0
 316:Generated_Source\PSoC6\pdl\drivers/peripheral/tcpwm/cy_tcpwm_pwm.h **** {
 317:Generated_Source\PSoC6\pdl\drivers/peripheral/tcpwm/cy_tcpwm_pwm.h ****     TCPWM_CNT_CC(base, cntNum) = compare0;
 318:Generated_Source\PSoC6\pdl\drivers/peripheral/tcpwm/cy_tcpwm_pwm.h **** }
 319:Generated_Source\PSoC6\pdl\drivers/peripheral/tcpwm/cy_tcpwm_pwm.h **** 
 320:Generated_Source\PSoC6\pdl\drivers/peripheral/tcpwm/cy_tcpwm_pwm.h **** 
 321:Generated_Source\PSoC6\pdl\drivers/peripheral/tcpwm/cy_tcpwm_pwm.h **** /*******************************************************************************
 322:Generated_Source\PSoC6\pdl\drivers/peripheral/tcpwm/cy_tcpwm_pwm.h **** * Function Name: Cy_TCPWM_PWM_GetCompare0
 323:Generated_Source\PSoC6\pdl\drivers/peripheral/tcpwm/cy_tcpwm_pwm.h **** ****************************************************************************//**
 324:Generated_Source\PSoC6\pdl\drivers/peripheral/tcpwm/cy_tcpwm_pwm.h **** *
 325:Generated_Source\PSoC6\pdl\drivers/peripheral/tcpwm/cy_tcpwm_pwm.h **** * Returns compare value 0.
 326:Generated_Source\PSoC6\pdl\drivers/peripheral/tcpwm/cy_tcpwm_pwm.h **** *
 327:Generated_Source\PSoC6\pdl\drivers/peripheral/tcpwm/cy_tcpwm_pwm.h **** * \param base
 328:Generated_Source\PSoC6\pdl\drivers/peripheral/tcpwm/cy_tcpwm_pwm.h **** * The pointer to a TCPWM instance.
 329:Generated_Source\PSoC6\pdl\drivers/peripheral/tcpwm/cy_tcpwm_pwm.h **** *
 330:Generated_Source\PSoC6\pdl\drivers/peripheral/tcpwm/cy_tcpwm_pwm.h **** * \param cntNum 
 331:Generated_Source\PSoC6\pdl\drivers/peripheral/tcpwm/cy_tcpwm_pwm.h **** * The Counter instance number in the selected TCPWM.
 332:Generated_Source\PSoC6\pdl\drivers/peripheral/tcpwm/cy_tcpwm_pwm.h **** *
 333:Generated_Source\PSoC6\pdl\drivers/peripheral/tcpwm/cy_tcpwm_pwm.h **** * \return
 334:Generated_Source\PSoC6\pdl\drivers/peripheral/tcpwm/cy_tcpwm_pwm.h **** * Compare value 0.
ARM GAS  C:\Users\Austina\AppData\Local\Temp\cc8Iu5MR.s 			page 41


 335:Generated_Source\PSoC6\pdl\drivers/peripheral/tcpwm/cy_tcpwm_pwm.h **** *
 336:Generated_Source\PSoC6\pdl\drivers/peripheral/tcpwm/cy_tcpwm_pwm.h **** * \funcusage
 337:Generated_Source\PSoC6\pdl\drivers/peripheral/tcpwm/cy_tcpwm_pwm.h **** * \snippet tcpwm\1.10\pwm\snippet\main.c snippet_Cy_TCPWM_PWM_SetCompare0
 338:Generated_Source\PSoC6\pdl\drivers/peripheral/tcpwm/cy_tcpwm_pwm.h **** *
 339:Generated_Source\PSoC6\pdl\drivers/peripheral/tcpwm/cy_tcpwm_pwm.h **** *******************************************************************************/
 340:Generated_Source\PSoC6\pdl\drivers/peripheral/tcpwm/cy_tcpwm_pwm.h **** __STATIC_INLINE uint32_t Cy_TCPWM_PWM_GetCompare0(TCPWM_Type const *base, uint32_t cntNum)
 341:Generated_Source\PSoC6\pdl\drivers/peripheral/tcpwm/cy_tcpwm_pwm.h **** {
 342:Generated_Source\PSoC6\pdl\drivers/peripheral/tcpwm/cy_tcpwm_pwm.h ****     return(TCPWM_CNT_CC(base, cntNum));
 290              		.loc 3 342 0
 291 0050 06EB8513 		add	r3, r6, r5, lsl #6
 292 0054 D3F80C01 		ldr	r0, [r3, #268]
 293              	.LVL31:
 294              	.LBE10:
 295              	.LBE9:
  71:SOURCE/servoSlaveCommTask.c ****             
 296              		.loc 1 71 0
 297 0058 FFF7FEFF 		bl	compareToPercent
 298              	.LVL32:
 299 005c 019C     		ldr	r4, [sp, #4]
 300              	.LVL33:
  74:SOURCE/servoSlaveCommTask.c ****             {
 301              		.loc 1 74 0
 302 005e 0419     		adds	r4, r0, r4
 303              	.LVL34:
 304 0060 00D5     		bpl	.L21
  76:SOURCE/servoSlaveCommTask.c ****             }
 305              		.loc 1 76 0
 306 0062 0024     		movs	r4, #0
 307              	.LVL35:
 308              	.L21:
  78:SOURCE/servoSlaveCommTask.c ****             {
 309              		.loc 1 78 0
 310 0064 642C     		cmp	r4, #100
 311 0066 02DC     		bgt	.L27
 312 0068 02E0     		b	.L22
 313              	.LVL36:
 314              	.L20:
  85:SOURCE/servoSlaveCommTask.c ****         }
 315              		.loc 1 85 0
 316 006a 019C     		ldr	r4, [sp, #4]
 317              	.LVL37:
 318 006c 00E0     		b	.L22
 319              	.L27:
  80:SOURCE/servoSlaveCommTask.c ****             }
 320              		.loc 1 80 0
 321 006e 6424     		movs	r4, #100
 322              	.LVL38:
 323              	.L22:
  87:SOURCE/servoSlaveCommTask.c ****         if(prevPercent[pwmMessage.motor] != percentTmp) 
 324              		.loc 1 87 0
 325 0070 0D48     		ldr	r0, .L29
 326 0072 FFF7FEFF 		bl	printf
 327              	.LVL39:
 328 0076 2246     		mov	r2, r4
 329 0078 9DF80010 		ldrb	r1, [sp]	@ zero_extendqisi2
 330 007c 1148     		ldr	r0, .L29+28
 331 007e FFF7FEFF 		bl	printf
ARM GAS  C:\Users\Austina\AppData\Local\Temp\cc8Iu5MR.s 			page 42


 332              	.LVL40:
 333 0082 0B48     		ldr	r0, .L29+8
 334 0084 FFF7FEFF 		bl	puts
 335              	.LVL41:
  88:SOURCE/servoSlaveCommTask.c ****             ardTransmitPWMPercent(pwmMessage.motor,percentTmp);
 336              		.loc 1 88 0
 337 0088 9DF80000 		ldrb	r0, [sp]	@ zero_extendqisi2
 338 008c 0E4B     		ldr	r3, .L29+32
 339 008e 0344     		add	r3, r3, r0
 340 0090 1B79     		ldrb	r3, [r3, #4]	@ zero_extendqisi2
 341 0092 9C42     		cmp	r4, r3
 342 0094 02D0     		beq	.L23
  89:SOURCE/servoSlaveCommTask.c ****         prevPercent[pwmMessage.motor] = percentTmp;
 343              		.loc 1 89 0
 344 0096 E1B2     		uxtb	r1, r4
 345 0098 FFF7FEFF 		bl	ardTransmitPWMPercent
 346              	.LVL42:
 347              	.L23:
  90:SOURCE/servoSlaveCommTask.c ****         
 348              		.loc 1 90 0
 349 009c 9DF80030 		ldrb	r3, [sp]	@ zero_extendqisi2
 350 00a0 094A     		ldr	r2, .L29+32
 351 00a2 1344     		add	r3, r3, r2
 352 00a4 1C71     		strb	r4, [r3, #4]
  92:SOURCE/servoSlaveCommTask.c **** }
 353              		.loc 1 92 0
 354 00a6 BDE7     		b	.L24
 355              	.L30:
 356              		.align	2
 357              	.L29:
 358 00a8 00000000 		.word	.LC0
 359 00ac 44000000 		.word	.LC3
 360 00b0 18000000 		.word	.LC1
 361 00b4 00000000 		.word	i2cCallback
 362 00b8 00000000 		.word	I2C_ARD_context
 363 00bc 00000000 		.word	servoControlQueue
 364 00c0 00003940 		.word	1077477376
 365 00c4 6C000000 		.word	.LC4
 366 00c8 00000000 		.word	.LANCHOR0
 367              		.cfi_endproc
 368              	.LFE741:
 369              		.size	servoSlaveCommTask, .-servoSlaveCommTask
 370              		.global	i2cEvents
 371              		.comm	temp,100,4
 372              		.data
 373              		.align	2
 374              		.set	.LANCHOR1,. + 0
 375              		.type	i2cEvents, %object
 376              		.size	i2cEvents, 16
 377              	i2cEvents:
 378 0000 00000800 		.word	524288
 379 0004 8C000000 		.word	.LC5
 380 0008 00000200 		.word	131072
 381 000c A0000000 		.word	.LC6
 382              		.section	.rodata.str1.4,"aMS",%progbits,1
 383              		.align	2
 384              	.LC0:
ARM GAS  C:\Users\Austina\AppData\Local\Temp\cc8Iu5MR.s 			page 43


 385 0000 5B204152 		.ascii	"[ ARD COMM TASK ] : \000"
 385      4420434F 
 385      4D4D2054 
 385      41534B20 
 385      5D203A20 
 386 0015 000000   		.space	3
 387              	.LC1:
 388 0018 0D00     		.ascii	"\015\000"
 389 001a 0000     		.space	2
 390              	.LC2:
 391 001c 49326320 		.ascii	"I2c master write operation complete %X \000"
 391      6D617374 
 391      65722077 
 391      72697465 
 391      206F7065 
 392              	.LC3:
 393 0044 436F6D6D 		.ascii	"Comm to Arduino Servo Control Started\000"
 393      20746F20 
 393      41726475 
 393      696E6F20 
 393      53657276 
 394 006a 0000     		.space	2
 395              	.LC4:
 396 006c 5472616E 		.ascii	"Transmitting motor %d pwm %d \000"
 396      736D6974 
 396      74696E67 
 396      206D6F74 
 396      6F722025 
 397 008a 0000     		.space	2
 398              	.LC5:
 399 008c 4D415354 		.ascii	"MASTER ERROR EVENT\000"
 399      45522045 
 399      52524F52 
 399      20455645 
 399      4E5400
 400 009f 00       		.space	1
 401              	.LC6:
 402 00a0 4D415354 		.ascii	"MASTER WRITE COMPLETE EVENT\000"
 402      45522057 
 402      52495445 
 402      20434F4D 
 402      504C4554 
 403              		.bss
 404              		.align	2
 405              		.set	.LANCHOR0,. + 0
 406              		.type	i2cStatus, %object
 407              		.size	i2cStatus, 4
 408              	i2cStatus:
 409 0000 00000000 		.space	4
 410              		.type	prevPercent, %object
 411              		.size	prevPercent, 5
 412              	prevPercent:
 413 0004 00000000 		.space	5
 413      00
 414              		.text
 415              	.Letext0:
 416              		.file 4 "c:\\program files (x86)\\cypress\\psoc creator\\4.4\\psoc creator\\import\\gnu\\arm\\5.4.
ARM GAS  C:\Users\Austina\AppData\Local\Temp\cc8Iu5MR.s 			page 44


 417              		.file 5 "c:\\program files (x86)\\cypress\\psoc creator\\4.4\\psoc creator\\import\\gnu\\arm\\5.4.
 418              		.file 6 "Generated_Source\\PSoC6\\pdl\\drivers/peripheral/device/cy_device.h"
 419              		.file 7 "Generated_Source\\PSoC6\\pdl\\devices/psoc6/include/ip/cyip_tcpwm.h"
 420              		.file 8 "Generated_Source\\PSoC6\\pdl\\devices/psoc6/include/ip/cyip_scb.h"
 421              		.file 9 "Generated_Source\\PSoC6\\pdl\\devices/psoc6/include/psoc6_01_config.h"
 422              		.file 10 "Generated_Source\\PSoC6\\pdl\\drivers/peripheral/syslib/cy_syslib.h"
 423              		.file 11 "Generated_Source\\PSoC6\\pdl\\rtos/FreeRTOS/10.0.1/Source/portable/GCC/CM4F/portmacro.h"
 424              		.file 12 "Generated_Source\\PSoC6\\pdl\\drivers/peripheral/scb/cy_scb_ezi2c.h"
 425              		.file 13 "Generated_Source\\PSoC6\\pdl\\drivers/peripheral/scb/cy_scb_uart.h"
 426              		.file 14 "Generated_Source\\PSoC6\\pdl\\middleware/ble/cy_ble_stack.h"
 427              		.file 15 "Generated_Source\\PSoC6\\pdl\\middleware/ble/cy_ble_stack_host_main.h"
 428              		.file 16 "Generated_Source\\PSoC6\\pdl\\middleware/ble/cy_ble_gap.h"
 429              		.file 17 "Generated_Source\\PSoC6\\pdl\\rtos/FreeRTOS/10.0.1/Source/include/queue.h"
 430              		.file 18 "SOURCE\\motorTask.h"
 431              		.file 19 "SOURCE\\servoSlaveCommTask.h"
 432              		.file 20 "Generated_Source\\PSoC6\\pdl\\cmsis/include/core_cm4.h"
 433              		.file 21 "Generated_Source\\PSoC6/UART.h"
 434              		.file 22 "Generated_Source\\PSoC6/PWM_1.h"
 435              		.file 23 "Generated_Source\\PSoC6/PWM_RED.h"
 436              		.file 24 "Generated_Source\\PSoC6/EZI2C.h"
 437              		.file 25 "Generated_Source\\PSoC6/LEDBlink.h"
 438              		.file 26 "Generated_Source\\PSoC6/PWM_2.h"
 439              		.file 27 "Generated_Source\\PSoC6/Dimmer.h"
 440              		.file 28 "Generated_Source\\PSoC6/I2C_ARD.h"
 441              		.file 29 "SOURCE\\common.h"
 442              		.file 30 "c:\\program files (x86)\\cypress\\psoc creator\\4.4\\psoc creator\\import\\gnu\\arm\\5.4
 443              		.file 31 "<built-in>"