ARM GAS  C:\Users\Austina\AppData\Local\Temp\ccWHIwhf.s 			page 1


   1              		.syntax unified
   2              		.cpu cortex-m0plus
   3              		.fpu softvfp
   4              		.eabi_attribute 20, 1
   5              		.eabi_attribute 21, 1
   6              		.eabi_attribute 23, 3
   7              		.eabi_attribute 24, 1
   8              		.eabi_attribute 25, 1
   9              		.eabi_attribute 26, 1
  10              		.eabi_attribute 30, 1
  11              		.eabi_attribute 34, 0
  12              		.eabi_attribute 18, 4
  13              		.thumb
  14              		.syntax unified
  15              		.file	"CapSense_Processing.c"
  16              		.text
  17              	.Ltext0:
  18              		.cfi_sections	.debug_frame
  19              		.section	.text.CapSense_DpInitialize,"ax",%progbits
  20              		.align	2
  21              		.global	CapSense_DpInitialize
  22              		.code	16
  23              		.thumb_func
  24              		.type	CapSense_DpInitialize, %function
  25              	CapSense_DpInitialize:
  26              	.LFB37:
  27              		.file 1 "Generated_Source\\PSoC6\\CapSense_Processing.c"
   1:Generated_Source\PSoC6/CapSense_Processing.c **** /***************************************************************************//**
   2:Generated_Source\PSoC6/CapSense_Processing.c **** * \file CapSense_Processing.c
   3:Generated_Source\PSoC6/CapSense_Processing.c **** * \version 2.0
   4:Generated_Source\PSoC6/CapSense_Processing.c **** *
   5:Generated_Source\PSoC6/CapSense_Processing.c **** * \brief
   6:Generated_Source\PSoC6/CapSense_Processing.c **** *   This file provides the source code for the Data Processing module APIs
   7:Generated_Source\PSoC6/CapSense_Processing.c **** *   of the Component. The Data Processing module is responsible for the
   8:Generated_Source\PSoC6/CapSense_Processing.c **** *   low level raw counts processing provided by the sensing module, maintaining
   9:Generated_Source\PSoC6/CapSense_Processing.c **** *   baseline and difference values and performing high-level widget processing
  10:Generated_Source\PSoC6/CapSense_Processing.c **** *   like updating button status or calculating slider position.
  11:Generated_Source\PSoC6/CapSense_Processing.c **** *
  12:Generated_Source\PSoC6/CapSense_Processing.c **** * \see CapSense v2.0 Datasheet
  13:Generated_Source\PSoC6/CapSense_Processing.c **** *
  14:Generated_Source\PSoC6/CapSense_Processing.c **** *//*****************************************************************************
  15:Generated_Source\PSoC6/CapSense_Processing.c **** * Copyright (2016-2017), Cypress Semiconductor Corporation.
  16:Generated_Source\PSoC6/CapSense_Processing.c **** ********************************************************************************
  17:Generated_Source\PSoC6/CapSense_Processing.c **** * This software is owned by Cypress Semiconductor Corporation (Cypress) and is
  18:Generated_Source\PSoC6/CapSense_Processing.c **** * protected by and subject to worldwide patent protection (United States and
  19:Generated_Source\PSoC6/CapSense_Processing.c **** * foreign), United States copyright laws and international treaty provisions.
  20:Generated_Source\PSoC6/CapSense_Processing.c **** * Cypress hereby grants to licensee a personal, non-exclusive, non-transferable
  21:Generated_Source\PSoC6/CapSense_Processing.c **** * license to copy, use, modify, create derivative works of, and compile the
  22:Generated_Source\PSoC6/CapSense_Processing.c **** * Cypress Source Code and derivative works for the sole purpose of creating
  23:Generated_Source\PSoC6/CapSense_Processing.c **** * custom software in support of licensee product to be used only in conjunction
  24:Generated_Source\PSoC6/CapSense_Processing.c **** * with a Cypress integrated circuit as specified in the applicable agreement.
  25:Generated_Source\PSoC6/CapSense_Processing.c **** * Any reproduction, modification, translation, compilation, or representation of
  26:Generated_Source\PSoC6/CapSense_Processing.c **** * this software except as specified above is prohibited without the express
  27:Generated_Source\PSoC6/CapSense_Processing.c **** * written permission of Cypress.
  28:Generated_Source\PSoC6/CapSense_Processing.c **** *
  29:Generated_Source\PSoC6/CapSense_Processing.c **** * Disclaimer: CYPRESS MAKES NO WARRANTY OF ANY KIND, EXPRESS OR IMPLIED, WITH
  30:Generated_Source\PSoC6/CapSense_Processing.c **** * REGARD TO THIS MATERIAL, INCLUDING, BUT NOT LIMITED TO, THE IMPLIED
ARM GAS  C:\Users\Austina\AppData\Local\Temp\ccWHIwhf.s 			page 2


  31:Generated_Source\PSoC6/CapSense_Processing.c **** * WARRANTIES OF MERCHANTABILITY AND FITNESS FOR A PARTICULAR PURPOSE.
  32:Generated_Source\PSoC6/CapSense_Processing.c **** * Cypress reserves the right to make changes without further notice to the
  33:Generated_Source\PSoC6/CapSense_Processing.c **** * materials described herein. Cypress does not assume any liability arising out
  34:Generated_Source\PSoC6/CapSense_Processing.c **** * of the application or use of any product or circuit described herein. Cypress
  35:Generated_Source\PSoC6/CapSense_Processing.c **** * does not authorize its products for use as critical components in life-support
  36:Generated_Source\PSoC6/CapSense_Processing.c **** * systems where a malfunction or failure may reasonably be expected to result in
  37:Generated_Source\PSoC6/CapSense_Processing.c **** * significant injury to the user. The inclusion of Cypress' product in a life-
  38:Generated_Source\PSoC6/CapSense_Processing.c **** * support systems application implies that the manufacturer assumes all risk of
  39:Generated_Source\PSoC6/CapSense_Processing.c **** * such use and in doing so indemnifies Cypress against all charges. Use may be
  40:Generated_Source\PSoC6/CapSense_Processing.c **** * limited by and subject to the applicable Cypress software license agreement.
  41:Generated_Source\PSoC6/CapSense_Processing.c **** *******************************************************************************/
  42:Generated_Source\PSoC6/CapSense_Processing.c **** 
  43:Generated_Source\PSoC6/CapSense_Processing.c **** #include "syslib/cy_syslib.h"
  44:Generated_Source\PSoC6/CapSense_Processing.c **** #include <stddef.h>
  45:Generated_Source\PSoC6/CapSense_Processing.c **** #include <string.h>
  46:Generated_Source\PSoC6/CapSense_Processing.c **** #include "CapSense_Configuration.h"
  47:Generated_Source\PSoC6/CapSense_Processing.c **** #include "CapSense_Processing.h"
  48:Generated_Source\PSoC6/CapSense_Processing.c **** #include "CapSense_Filter.h"
  49:Generated_Source\PSoC6/CapSense_Processing.c **** 
  50:Generated_Source\PSoC6/CapSense_Processing.c **** #if (0u != CapSense_CENTROID_EN)
  51:Generated_Source\PSoC6/CapSense_Processing.c ****     #include "CapSense_Centroid_LL.h"
  52:Generated_Source\PSoC6/CapSense_Processing.c **** #endif /* (0 != CapSense_CENTROID_EN) */
  53:Generated_Source\PSoC6/CapSense_Processing.c **** 
  54:Generated_Source\PSoC6/CapSense_Processing.c **** #if (0 != (CapSense_CSD_AUTOTUNE & CapSense_CSD_SS_TH_EN))
  55:Generated_Source\PSoC6/CapSense_Processing.c ****     #include "CapSense_SmartSense_LL.h"
  56:Generated_Source\PSoC6/CapSense_Processing.c **** #endif /* (0 != (CapSense_CSD_AUTOTUNE & CapSense_CSD_SS_TH_EN)) */
  57:Generated_Source\PSoC6/CapSense_Processing.c **** 
  58:Generated_Source\PSoC6/CapSense_Processing.c **** #if (CapSense_ENABLE == CapSense_SELF_TEST_EN)
  59:Generated_Source\PSoC6/CapSense_Processing.c ****     #include "CapSense_SelfTest.h"
  60:Generated_Source\PSoC6/CapSense_Processing.c **** #endif
  61:Generated_Source\PSoC6/CapSense_Processing.c **** 
  62:Generated_Source\PSoC6/CapSense_Processing.c **** #if (CapSense_ENABLE == CapSense_CENTROID_5X5_CSD_EN)
  63:Generated_Source\PSoC6/CapSense_Processing.c ****     #include "CapSense_AdvancedCentroid_LL.h"
  64:Generated_Source\PSoC6/CapSense_Processing.c **** #endif
  65:Generated_Source\PSoC6/CapSense_Processing.c **** 
  66:Generated_Source\PSoC6/CapSense_Processing.c **** #if (CapSense_ENABLE == CapSense_POS_ADAPTIVE_IIR_FILTER_EN)
  67:Generated_Source\PSoC6/CapSense_Processing.c ****     #include "CapSense_AdaptiveFilter_LL.h"
  68:Generated_Source\PSoC6/CapSense_Processing.c **** #endif
  69:Generated_Source\PSoC6/CapSense_Processing.c **** 
  70:Generated_Source\PSoC6/CapSense_Processing.c **** #if(CapSense_ENABLE == CapSense_BALLISTIC_MULTIPLIER_EN)
  71:Generated_Source\PSoC6/CapSense_Processing.c ****     #include "CapSense_Gesture.h"
  72:Generated_Source\PSoC6/CapSense_Processing.c **** #endif
  73:Generated_Source\PSoC6/CapSense_Processing.c **** 
  74:Generated_Source\PSoC6/CapSense_Processing.c **** /**************************************************************************************************
  75:Generated_Source\PSoC6/CapSense_Processing.c **** * Local definition
  76:Generated_Source\PSoC6/CapSense_Processing.c **** ***************************************************************************************************
  77:Generated_Source\PSoC6/CapSense_Processing.c **** 
  78:Generated_Source\PSoC6/CapSense_Processing.c **** /* UINT32 constant with all odd bits set. It is used by the processing function of the Proximity wi
  79:Generated_Source\PSoC6/CapSense_Processing.c **** *  determine type of the status bit: odd bits report proximity status; even bits report touch statu
  80:Generated_Source\PSoC6/CapSense_Processing.c **** */
  81:Generated_Source\PSoC6/CapSense_Processing.c **** #define UINT32_ODD_BITS_CONST       (0x55555555u)
  82:Generated_Source\PSoC6/CapSense_Processing.c **** 
  83:Generated_Source\PSoC6/CapSense_Processing.c **** /* Default value for the Off Debounce counter when the Off Debounce is disabled */
  84:Generated_Source\PSoC6/CapSense_Processing.c **** #define DEFAULT_OFF_DEBOUNCE_VALUE  (1u)
  85:Generated_Source\PSoC6/CapSense_Processing.c **** #define PERCENTAGE_100              (100u)
  86:Generated_Source\PSoC6/CapSense_Processing.c **** #define TEMP_BUFFER_MSB_SHIFT       (16)
  87:Generated_Source\PSoC6/CapSense_Processing.c **** 
ARM GAS  C:\Users\Austina\AppData\Local\Temp\ccWHIwhf.s 			page 3


  88:Generated_Source\PSoC6/CapSense_Processing.c **** /**************************************************************************************************
  89:Generated_Source\PSoC6/CapSense_Processing.c **** * Local variables
  90:Generated_Source\PSoC6/CapSense_Processing.c **** ***************************************************************************************************
  91:Generated_Source\PSoC6/CapSense_Processing.c **** #if (0u != CapSense_CSX_MULTIPHASE_TX_EN)
  92:Generated_Source\PSoC6/CapSense_Processing.c ****     static uint16 deconvRowData[CapSense_CSX_MAX_TX_PHASE_LENGTH];
  93:Generated_Source\PSoC6/CapSense_Processing.c **** #endif
  94:Generated_Source\PSoC6/CapSense_Processing.c **** 
  95:Generated_Source\PSoC6/CapSense_Processing.c **** 
  96:Generated_Source\PSoC6/CapSense_Processing.c **** /**************************************************************************************************
  97:Generated_Source\PSoC6/CapSense_Processing.c **** * Static Function Prototypes
  98:Generated_Source\PSoC6/CapSense_Processing.c **** ***************************************************************************************************
  99:Generated_Source\PSoC6/CapSense_Processing.c **** /**
 100:Generated_Source\PSoC6/CapSense_Processing.c **** * \cond SECTION_CYSENSE_INTERNAL
 101:Generated_Source\PSoC6/CapSense_Processing.c **** * \addtogroup group_cysense_internal
 102:Generated_Source\PSoC6/CapSense_Processing.c **** * \{
 103:Generated_Source\PSoC6/CapSense_Processing.c **** */
 104:Generated_Source\PSoC6/CapSense_Processing.c **** #if (0u != CapSense_TOTAL_LINEAR_SLIDERS)
 105:Generated_Source\PSoC6/CapSense_Processing.c ****     __STATIC_INLINE void DpUpdateLinSlider(
 106:Generated_Source\PSoC6/CapSense_Processing.c ****                         const uint16 newPos[], uint32 numTouches,
 107:Generated_Source\PSoC6/CapSense_Processing.c ****                         CapSense_FLASH_WD_STRUCT const *ptrFlashWdgt,
 108:Generated_Source\PSoC6/CapSense_Processing.c ****                         CapSense_RAM_WD_SLIDER_STRUCT *ptrRamWdgt);
 109:Generated_Source\PSoC6/CapSense_Processing.c **** #endif /* #if (0u != CapSense_TOTAL_LINEAR_SLIDERS) */
 110:Generated_Source\PSoC6/CapSense_Processing.c **** 
 111:Generated_Source\PSoC6/CapSense_Processing.c **** #if (0u != CapSense_TOTAL_RADIAL_SLIDERS)
 112:Generated_Source\PSoC6/CapSense_Processing.c ****     __STATIC_INLINE void DpUpdateRadSlider(
 113:Generated_Source\PSoC6/CapSense_Processing.c ****                         const uint16 newPos[], uint32 numTouches,
 114:Generated_Source\PSoC6/CapSense_Processing.c ****                         CapSense_FLASH_WD_STRUCT const * ptrFlashWdgt,
 115:Generated_Source\PSoC6/CapSense_Processing.c ****                         CapSense_RAM_WD_SLIDER_STRUCT *ptrRamWdgt);
 116:Generated_Source\PSoC6/CapSense_Processing.c **** #endif /* #if (0u != CapSense_TOTAL_RADIAL_SLIDERS) */
 117:Generated_Source\PSoC6/CapSense_Processing.c **** 
 118:Generated_Source\PSoC6/CapSense_Processing.c **** #if (0u != CapSense_CSD_TOUCHPAD_WIDGET_EN)
 119:Generated_Source\PSoC6/CapSense_Processing.c ****     __STATIC_INLINE void CapSense_DpInitCsdTouchpad(CapSense_FLASH_WD_STRUCT const * ptrFlashWdgt);
 120:Generated_Source\PSoC6/CapSense_Processing.c **** #endif /* #if (0u != CapSense_CSD_TOUCHPAD_WIDGET_EN) */
 121:Generated_Source\PSoC6/CapSense_Processing.c **** 
 122:Generated_Source\PSoC6/CapSense_Processing.c **** #if (0u != CapSense_CSX_TOUCHPAD_WIDGET_EN)
 123:Generated_Source\PSoC6/CapSense_Processing.c ****     __STATIC_INLINE void CapSense_DpInitCsxTouchpad(CapSense_FLASH_WD_STRUCT const * ptrFlashWdgt);
 124:Generated_Source\PSoC6/CapSense_Processing.c **** #endif /* #if (0u != CapSense_CSX_TOUCHPAD_WIDGET_EN) */
 125:Generated_Source\PSoC6/CapSense_Processing.c **** 
 126:Generated_Source\PSoC6/CapSense_Processing.c **** #if (0u != CapSense_SLIDER_WIDGET_EN)
 127:Generated_Source\PSoC6/CapSense_Processing.c ****     __STATIC_INLINE void CapSense_DpInitSlider(CapSense_FLASH_WD_STRUCT const * ptrFlashWdgt);
 128:Generated_Source\PSoC6/CapSense_Processing.c **** #endif /* #if (0u != CapSense_SLIDER_WIDGET_EN) */
 129:Generated_Source\PSoC6/CapSense_Processing.c **** 
 130:Generated_Source\PSoC6/CapSense_Processing.c **** #if (0u != CapSense_CSD_MATRIX_WIDGET_EN)
 131:Generated_Source\PSoC6/CapSense_Processing.c ****     __STATIC_INLINE void CapSense_DpInitCsdMatrix(CapSense_FLASH_WD_STRUCT const * ptrFlashWdgt);
 132:Generated_Source\PSoC6/CapSense_Processing.c **** #endif /* #if (0u != CapSense_CSD_MATRIX_WIDGET_EN) */
 133:Generated_Source\PSoC6/CapSense_Processing.c **** 
 134:Generated_Source\PSoC6/CapSense_Processing.c **** /** \}
 135:Generated_Source\PSoC6/CapSense_Processing.c **** * \endcond */
 136:Generated_Source\PSoC6/CapSense_Processing.c **** 
 137:Generated_Source\PSoC6/CapSense_Processing.c **** #if (0u != CapSense_CSD_TOUCHPAD_WIDGET_EN)
 138:Generated_Source\PSoC6/CapSense_Processing.c **** /*******************************************************************************
 139:Generated_Source\PSoC6/CapSense_Processing.c **** * Function Name: CapSense_DpInitCsdTouchpad
 140:Generated_Source\PSoC6/CapSense_Processing.c **** ****************************************************************************//**
 141:Generated_Source\PSoC6/CapSense_Processing.c **** *
 142:Generated_Source\PSoC6/CapSense_Processing.c **** * \brief
 143:Generated_Source\PSoC6/CapSense_Processing.c **** *  Performs initialization of the CSD touchpad widget.
 144:Generated_Source\PSoC6/CapSense_Processing.c **** *   - Resets the position data to NONE
ARM GAS  C:\Users\Austina\AppData\Local\Temp\ccWHIwhf.s 			page 4


 145:Generated_Source\PSoC6/CapSense_Processing.c **** *   - Initializes the position filter history if enabled.
 146:Generated_Source\PSoC6/CapSense_Processing.c **** *
 147:Generated_Source\PSoC6/CapSense_Processing.c **** * \details
 148:Generated_Source\PSoC6/CapSense_Processing.c **** *  The position data is always reset to the CapSense_TOUCHPAD_POS_NONE value.
 149:Generated_Source\PSoC6/CapSense_Processing.c **** *  The same happens to the position filter history data if enabled.
 150:Generated_Source\PSoC6/CapSense_Processing.c **** *
 151:Generated_Source\PSoC6/CapSense_Processing.c **** *******************************************************************************/
 152:Generated_Source\PSoC6/CapSense_Processing.c **** __STATIC_INLINE void CapSense_DpInitCsdTouchpad(CapSense_FLASH_WD_STRUCT const * ptrFlashWdgt)
 153:Generated_Source\PSoC6/CapSense_Processing.c **** {
 154:Generated_Source\PSoC6/CapSense_Processing.c ****     #if (CapSense_ENABLE == CapSense_CENTROID_5X5_CSD_EN)
 155:Generated_Source\PSoC6/CapSense_Processing.c ****         uint32 touchIndex;
 156:Generated_Source\PSoC6/CapSense_Processing.c ****     #endif
 157:Generated_Source\PSoC6/CapSense_Processing.c **** 
 158:Generated_Source\PSoC6/CapSense_Processing.c ****     CapSense_RAM_WD_CSD_TOUCHPAD_STRUCT *ptrWdTouchpad;
 159:Generated_Source\PSoC6/CapSense_Processing.c **** 
 160:Generated_Source\PSoC6/CapSense_Processing.c ****     #if (0u != CapSense_POSITION_FILTER_EN)
 161:Generated_Source\PSoC6/CapSense_Processing.c ****         CapSense_TOUCHPAD_POS_HISTORY_STRUCT *ptrHistory;
 162:Generated_Source\PSoC6/CapSense_Processing.c ****     #endif  /* #if (0u != CapSense_POSITION_FILTER_EN) */
 163:Generated_Source\PSoC6/CapSense_Processing.c **** 
 164:Generated_Source\PSoC6/CapSense_Processing.c ****     #if (0u != CapSense_POS_ADAPTIVE_IIR_FILTER_EN)
 165:Generated_Source\PSoC6/CapSense_Processing.c ****         ADAPTIVE_FILTER_CONTEXT_STRUCT adpContext;
 166:Generated_Source\PSoC6/CapSense_Processing.c ****     #endif /* (0u != CapSense_POS_ADAPTIVE_IIR_FILTER_EN) */
 167:Generated_Source\PSoC6/CapSense_Processing.c **** 
 168:Generated_Source\PSoC6/CapSense_Processing.c ****     ptrWdTouchpad = ptrFlashWdgt->ptr2WdgtRam;
 169:Generated_Source\PSoC6/CapSense_Processing.c **** 
 170:Generated_Source\PSoC6/CapSense_Processing.c ****     /* Reset position data */
 171:Generated_Source\PSoC6/CapSense_Processing.c ****     #if (CapSense_ENABLE == CapSense_CENTROID_5X5_CSD_EN)
 172:Generated_Source\PSoC6/CapSense_Processing.c ****         #if (CapSense_ENABLE == CapSense_CENTROID_3X3_CSD_EN)
 173:Generated_Source\PSoC6/CapSense_Processing.c ****             if (0u != (ptrFlashWdgt->staticConfig & CapSense_CENTROID_5X5_MASK))
 174:Generated_Source\PSoC6/CapSense_Processing.c ****             {
 175:Generated_Source\PSoC6/CapSense_Processing.c ****         #endif
 176:Generated_Source\PSoC6/CapSense_Processing.c **** 
 177:Generated_Source\PSoC6/CapSense_Processing.c ****         ptrWdTouchpad->position.touchNum = 0u;
 178:Generated_Source\PSoC6/CapSense_Processing.c **** 
 179:Generated_Source\PSoC6/CapSense_Processing.c ****         #if (0u != CapSense_POSITION_FILTER_EN)
 180:Generated_Source\PSoC6/CapSense_Processing.c ****             ptrHistory = ptrFlashWdgt->ptr2PosHistory;
 181:Generated_Source\PSoC6/CapSense_Processing.c ****         #endif /* (0u != CapSense_POSITION_FILTER_EN) */
 182:Generated_Source\PSoC6/CapSense_Processing.c **** 
 183:Generated_Source\PSoC6/CapSense_Processing.c ****         for (touchIndex = 0u; touchIndex < ADVANCED_CENTROID_MAX_TOUCHES; touchIndex++)
 184:Generated_Source\PSoC6/CapSense_Processing.c ****         {
 185:Generated_Source\PSoC6/CapSense_Processing.c ****             ptrWdTouchpad->position.pos[touchIndex].x = ADVANCED_CENTROID_POSITION_NONE;
 186:Generated_Source\PSoC6/CapSense_Processing.c ****             ptrWdTouchpad->position.pos[touchIndex].y = ADVANCED_CENTROID_POSITION_NONE;
 187:Generated_Source\PSoC6/CapSense_Processing.c ****             ptrWdTouchpad->position.pos[touchIndex].zX = ADVANCED_CENTROID_POSITION_NONE;
 188:Generated_Source\PSoC6/CapSense_Processing.c ****             ptrWdTouchpad->position.pos[touchIndex].zY = ADVANCED_CENTROID_POSITION_NONE;
 189:Generated_Source\PSoC6/CapSense_Processing.c **** 
 190:Generated_Source\PSoC6/CapSense_Processing.c ****             /* Clear position filter history data if available */
 191:Generated_Source\PSoC6/CapSense_Processing.c ****             #if (0u != CapSense_POSITION_FILTER_EN)
 192:Generated_Source\PSoC6/CapSense_Processing.c ****                 if (NULL != ptrHistory)
 193:Generated_Source\PSoC6/CapSense_Processing.c ****                 {
 194:Generated_Source\PSoC6/CapSense_Processing.c ****                     CapSense_InitPosFiltersDd(&ptrHistory[touchIndex], CapSense_TOUCHPAD_POS_NONE, 
 195:Generated_Source\PSoC6/CapSense_Processing.c ****                     #if (0u != CapSense_POS_ADAPTIVE_IIR_FILTER_EN)
 196:Generated_Source\PSoC6/CapSense_Processing.c ****                         AdaptiveFilter_Initialize(&ptrWdTouchpad->aiirConfig, &adpContext);
 197:Generated_Source\PSoC6/CapSense_Processing.c ****                         ptrHistory[touchIndex].xPos.posAIIRCoeff = adpContext.coefficient;
 198:Generated_Source\PSoC6/CapSense_Processing.c ****                         ptrHistory[touchIndex].yPos.posAIIRCoeff = adpContext.coefficient;
 199:Generated_Source\PSoC6/CapSense_Processing.c ****                     #endif /* (0u != CapSense_POS_ADAPTIVE_IIR_FILTER_EN) */
 200:Generated_Source\PSoC6/CapSense_Processing.c ****                 }
 201:Generated_Source\PSoC6/CapSense_Processing.c ****             #endif /* (0u != CapSense_POSITION_FILTER_EN) */
ARM GAS  C:\Users\Austina\AppData\Local\Temp\ccWHIwhf.s 			page 5


 202:Generated_Source\PSoC6/CapSense_Processing.c ****         }
 203:Generated_Source\PSoC6/CapSense_Processing.c **** 
 204:Generated_Source\PSoC6/CapSense_Processing.c ****         #if (CapSense_ENABLE == CapSense_CENTROID_3X3_CSD_EN)
 205:Generated_Source\PSoC6/CapSense_Processing.c ****             }
 206:Generated_Source\PSoC6/CapSense_Processing.c ****         #endif
 207:Generated_Source\PSoC6/CapSense_Processing.c ****     #endif
 208:Generated_Source\PSoC6/CapSense_Processing.c **** 
 209:Generated_Source\PSoC6/CapSense_Processing.c ****     #if (CapSense_ENABLE == CapSense_CENTROID_3X3_CSD_EN)
 210:Generated_Source\PSoC6/CapSense_Processing.c ****         if (0u != (ptrFlashWdgt->staticConfig & CapSense_CENTROID_3X3_MASK))
 211:Generated_Source\PSoC6/CapSense_Processing.c ****         {
 212:Generated_Source\PSoC6/CapSense_Processing.c ****             ptrWdTouchpad->posX = CapSense_TOUCHPAD_POS_NONE;
 213:Generated_Source\PSoC6/CapSense_Processing.c ****             ptrWdTouchpad->posY = CapSense_TOUCHPAD_POS_NONE;
 214:Generated_Source\PSoC6/CapSense_Processing.c **** 
 215:Generated_Source\PSoC6/CapSense_Processing.c ****             /* Clear position filter history data if available */
 216:Generated_Source\PSoC6/CapSense_Processing.c ****             #if (0u != CapSense_POSITION_FILTER_EN)
 217:Generated_Source\PSoC6/CapSense_Processing.c ****                 ptrHistory = ptrFlashWdgt->ptr2PosHistory;
 218:Generated_Source\PSoC6/CapSense_Processing.c ****                 CapSense_InitPosFiltersDd(ptrHistory, CapSense_TOUCHPAD_POS_NONE, CapSense_TOUCHPAD
 219:Generated_Source\PSoC6/CapSense_Processing.c **** 
 220:Generated_Source\PSoC6/CapSense_Processing.c ****                 #if (0u != CapSense_POS_ADAPTIVE_IIR_FILTER_EN)
 221:Generated_Source\PSoC6/CapSense_Processing.c ****                     if (NULL != ptrHistory)
 222:Generated_Source\PSoC6/CapSense_Processing.c ****                     {
 223:Generated_Source\PSoC6/CapSense_Processing.c ****                         AdaptiveFilter_Initialize(&ptrWdTouchpad->aiirConfig, &adpContext);
 224:Generated_Source\PSoC6/CapSense_Processing.c ****                         ptrHistory->xPos.posAIIRCoeff = adpContext.coefficient;
 225:Generated_Source\PSoC6/CapSense_Processing.c ****                         ptrHistory->yPos.posAIIRCoeff = adpContext.coefficient;
 226:Generated_Source\PSoC6/CapSense_Processing.c ****                     }
 227:Generated_Source\PSoC6/CapSense_Processing.c ****                 #endif /* (0u != CapSense_POS_ADAPTIVE_IIR_FILTER_EN) */
 228:Generated_Source\PSoC6/CapSense_Processing.c ****             #endif /* (0u != CapSense_POSITION_FILTER_EN) */
 229:Generated_Source\PSoC6/CapSense_Processing.c ****         }
 230:Generated_Source\PSoC6/CapSense_Processing.c ****     #endif
 231:Generated_Source\PSoC6/CapSense_Processing.c **** }
 232:Generated_Source\PSoC6/CapSense_Processing.c **** #endif /* #if (0u != CapSense_CSD_TOUCHPAD_WIDGET_EN) */
 233:Generated_Source\PSoC6/CapSense_Processing.c **** 
 234:Generated_Source\PSoC6/CapSense_Processing.c **** #if (0u != CapSense_CSX_TOUCHPAD_WIDGET_EN)
 235:Generated_Source\PSoC6/CapSense_Processing.c **** /*******************************************************************************
 236:Generated_Source\PSoC6/CapSense_Processing.c **** * Function Name: CapSense_DpInitCsxTouchpad
 237:Generated_Source\PSoC6/CapSense_Processing.c **** ****************************************************************************//**
 238:Generated_Source\PSoC6/CapSense_Processing.c **** *
 239:Generated_Source\PSoC6/CapSense_Processing.c **** * \brief
 240:Generated_Source\PSoC6/CapSense_Processing.c **** *  Performs initialization of the CSX touchpad widget i.e. Resets the position data to NONE.
 241:Generated_Source\PSoC6/CapSense_Processing.c **** *
 242:Generated_Source\PSoC6/CapSense_Processing.c **** * \details
 243:Generated_Source\PSoC6/CapSense_Processing.c **** *  The position data is always reset to the CapSense_TOUCHPAD_POS_NONE value.
 244:Generated_Source\PSoC6/CapSense_Processing.c **** *
 245:Generated_Source\PSoC6/CapSense_Processing.c **** *******************************************************************************/
 246:Generated_Source\PSoC6/CapSense_Processing.c **** __STATIC_INLINE void CapSense_DpInitCsxTouchpad(CapSense_FLASH_WD_STRUCT const * ptrFlashWdgt)
 247:Generated_Source\PSoC6/CapSense_Processing.c **** {
 248:Generated_Source\PSoC6/CapSense_Processing.c ****     CapSense_RAM_WD_CSX_TOUCHPAD_STRUCT *ptrWdTouchpad;
 249:Generated_Source\PSoC6/CapSense_Processing.c **** 
 250:Generated_Source\PSoC6/CapSense_Processing.c ****     #if (0u != CapSense_POSITION_FILTER_EN)
 251:Generated_Source\PSoC6/CapSense_Processing.c ****         uint32 touchIndex;
 252:Generated_Source\PSoC6/CapSense_Processing.c ****         CapSense_TOUCHPAD_POS_HISTORY_STRUCT *ptrHistory;
 253:Generated_Source\PSoC6/CapSense_Processing.c ****     #endif  /* #if (0u != CapSense_POSITION_FILTER_EN) */
 254:Generated_Source\PSoC6/CapSense_Processing.c **** 
 255:Generated_Source\PSoC6/CapSense_Processing.c ****     #if (0u != CapSense_POS_ADAPTIVE_IIR_FILTER_EN)
 256:Generated_Source\PSoC6/CapSense_Processing.c ****         ADAPTIVE_FILTER_CONTEXT_STRUCT adpContext;
 257:Generated_Source\PSoC6/CapSense_Processing.c ****     #endif /* (0u != CapSense_POS_ADAPTIVE_IIR_FILTER_EN) */
 258:Generated_Source\PSoC6/CapSense_Processing.c **** 
ARM GAS  C:\Users\Austina\AppData\Local\Temp\ccWHIwhf.s 			page 6


 259:Generated_Source\PSoC6/CapSense_Processing.c ****     ptrWdTouchpad = ptrFlashWdgt->ptr2WdgtRam;
 260:Generated_Source\PSoC6/CapSense_Processing.c **** 
 261:Generated_Source\PSoC6/CapSense_Processing.c ****     #if (0u != CapSense_POSITION_FILTER_EN)
 262:Generated_Source\PSoC6/CapSense_Processing.c ****         ptrHistory = ptrFlashWdgt->ptr2PosHistory;
 263:Generated_Source\PSoC6/CapSense_Processing.c ****     #endif /* (0u != CapSense_POSITION_FILTER_EN) */
 264:Generated_Source\PSoC6/CapSense_Processing.c **** 
 265:Generated_Source\PSoC6/CapSense_Processing.c ****     /* Reset position data for finger */
 266:Generated_Source\PSoC6/CapSense_Processing.c ****     ptrWdTouchpad->touch[0u].x = CapSense_TOUCHPAD_POS_NONE;
 267:Generated_Source\PSoC6/CapSense_Processing.c ****     ptrWdTouchpad->touch[0u].y = CapSense_TOUCHPAD_POS_NONE;
 268:Generated_Source\PSoC6/CapSense_Processing.c ****     ptrWdTouchpad->touch[0u].z = CY_LO8(CapSense_TOUCHPAD_POS_NONE);
 269:Generated_Source\PSoC6/CapSense_Processing.c **** 
 270:Generated_Source\PSoC6/CapSense_Processing.c ****     #if (CapSense_CSX_MAX_FINGERS > 1u)
 271:Generated_Source\PSoC6/CapSense_Processing.c ****         ptrWdTouchpad->touch[1u].x = CapSense_TOUCHPAD_POS_NONE;
 272:Generated_Source\PSoC6/CapSense_Processing.c ****         ptrWdTouchpad->touch[1u].y = CapSense_TOUCHPAD_POS_NONE;
 273:Generated_Source\PSoC6/CapSense_Processing.c ****         ptrWdTouchpad->touch[1u].z = CY_LO8(CapSense_TOUCHPAD_POS_NONE);
 274:Generated_Source\PSoC6/CapSense_Processing.c ****     #endif /* #if (CapSense_CSX_MAX_FINGERS > 1u) */
 275:Generated_Source\PSoC6/CapSense_Processing.c **** 
 276:Generated_Source\PSoC6/CapSense_Processing.c ****     #if (CapSense_CSX_MAX_FINGERS > 2u)
 277:Generated_Source\PSoC6/CapSense_Processing.c ****         ptrWdTouchpad->touch[2u].x = CapSense_TOUCHPAD_POS_NONE;
 278:Generated_Source\PSoC6/CapSense_Processing.c ****         ptrWdTouchpad->touch[2u].y = CapSense_TOUCHPAD_POS_NONE;
 279:Generated_Source\PSoC6/CapSense_Processing.c ****         ptrWdTouchpad->touch[2u].z = CY_LO8(CapSense_TOUCHPAD_POS_NONE);
 280:Generated_Source\PSoC6/CapSense_Processing.c ****     #endif /* #if (CapSense_CSX_MAX_FINGERS > 2u) */
 281:Generated_Source\PSoC6/CapSense_Processing.c **** 
 282:Generated_Source\PSoC6/CapSense_Processing.c ****     #if (0u != CapSense_POSITION_FILTER_EN)
 283:Generated_Source\PSoC6/CapSense_Processing.c ****         for (touchIndex = 0u; touchIndex < CapSense_CSX_MAX_FINGERS; touchIndex++)
 284:Generated_Source\PSoC6/CapSense_Processing.c ****         {
 285:Generated_Source\PSoC6/CapSense_Processing.c ****             if (NULL != ptrHistory)
 286:Generated_Source\PSoC6/CapSense_Processing.c ****             {
 287:Generated_Source\PSoC6/CapSense_Processing.c ****                 /* Clear position filter history data if available */
 288:Generated_Source\PSoC6/CapSense_Processing.c ****                 CapSense_InitPosFiltersDd(&ptrHistory[touchIndex], CapSense_TOUCHPAD_POS_NONE, CapS
 289:Generated_Source\PSoC6/CapSense_Processing.c ****                 #if (0u != CapSense_POS_ADAPTIVE_IIR_FILTER_EN)
 290:Generated_Source\PSoC6/CapSense_Processing.c ****                     AdaptiveFilter_Initialize(&ptrWdTouchpad->aiirConfig, &adpContext);
 291:Generated_Source\PSoC6/CapSense_Processing.c ****                     ptrHistory[touchIndex].xPos.posAIIRCoeff = adpContext.coefficient;
 292:Generated_Source\PSoC6/CapSense_Processing.c ****                     ptrHistory[touchIndex].yPos.posAIIRCoeff = adpContext.coefficient;
 293:Generated_Source\PSoC6/CapSense_Processing.c ****                 #endif /* (0u != CapSense_POS_ADAPTIVE_IIR_FILTER_EN) */
 294:Generated_Source\PSoC6/CapSense_Processing.c ****             }
 295:Generated_Source\PSoC6/CapSense_Processing.c ****         }
 296:Generated_Source\PSoC6/CapSense_Processing.c ****     #endif /* (0u != CapSense_POSITION_FILTER_EN) */
 297:Generated_Source\PSoC6/CapSense_Processing.c **** }
 298:Generated_Source\PSoC6/CapSense_Processing.c **** #endif /* #if (0u != CapSense_CSX_TOUCHPAD_WIDGET_EN) */
 299:Generated_Source\PSoC6/CapSense_Processing.c **** 
 300:Generated_Source\PSoC6/CapSense_Processing.c **** #if (0u != CapSense_SLIDER_WIDGET_EN)
 301:Generated_Source\PSoC6/CapSense_Processing.c **** /*******************************************************************************
 302:Generated_Source\PSoC6/CapSense_Processing.c **** * Function Name: CapSense_DpInitSlider
 303:Generated_Source\PSoC6/CapSense_Processing.c **** ****************************************************************************//**
 304:Generated_Source\PSoC6/CapSense_Processing.c **** *
 305:Generated_Source\PSoC6/CapSense_Processing.c **** * \brief
 306:Generated_Source\PSoC6/CapSense_Processing.c **** *  Performs initialization of the Radial and Linear Slider widget.
 307:Generated_Source\PSoC6/CapSense_Processing.c **** *   - Resets the position data to NONE
 308:Generated_Source\PSoC6/CapSense_Processing.c **** *   - Initializes the position filter history to NONE if enabled.
 309:Generated_Source\PSoC6/CapSense_Processing.c **** *
 310:Generated_Source\PSoC6/CapSense_Processing.c **** * \details
 311:Generated_Source\PSoC6/CapSense_Processing.c **** *  Position data is always reset to the CapSense_SLIDER_POS_NONE value.
 312:Generated_Source\PSoC6/CapSense_Processing.c **** *  The same happens to the position filter history data if enabled.
 313:Generated_Source\PSoC6/CapSense_Processing.c **** *
 314:Generated_Source\PSoC6/CapSense_Processing.c **** *******************************************************************************/
 315:Generated_Source\PSoC6/CapSense_Processing.c **** __STATIC_INLINE void CapSense_DpInitSlider(CapSense_FLASH_WD_STRUCT const * ptrFlashWdgt)
ARM GAS  C:\Users\Austina\AppData\Local\Temp\ccWHIwhf.s 			page 7


 316:Generated_Source\PSoC6/CapSense_Processing.c **** {
 317:Generated_Source\PSoC6/CapSense_Processing.c ****     uint32 idx;
 318:Generated_Source\PSoC6/CapSense_Processing.c ****     CapSense_RAM_WD_SLIDER_STRUCT *ptrWdSlider;
 319:Generated_Source\PSoC6/CapSense_Processing.c **** 
 320:Generated_Source\PSoC6/CapSense_Processing.c ****     #if (0u != CapSense_POSITION_FILTER_EN)
 321:Generated_Source\PSoC6/CapSense_Processing.c ****         CapSense_SLIDER_POS_HISTORY_STRUCT *ptrHistory;
 322:Generated_Source\PSoC6/CapSense_Processing.c ****     #endif /* #if (0u != CapSense_POSITION_FILTER_EN) */
 323:Generated_Source\PSoC6/CapSense_Processing.c **** 
 324:Generated_Source\PSoC6/CapSense_Processing.c ****     #if (0u != CapSense_POS_ADAPTIVE_IIR_FILTER_EN)
 325:Generated_Source\PSoC6/CapSense_Processing.c ****         ADAPTIVE_FILTER_CONTEXT_STRUCT context;
 326:Generated_Source\PSoC6/CapSense_Processing.c ****     #endif /* (0u != CapSense_POS_ADAPTIVE_IIR_FILTER_EN) */
 327:Generated_Source\PSoC6/CapSense_Processing.c **** 
 328:Generated_Source\PSoC6/CapSense_Processing.c ****     ptrWdSlider = ptrFlashWdgt->ptr2WdgtRam;
 329:Generated_Source\PSoC6/CapSense_Processing.c **** 
 330:Generated_Source\PSoC6/CapSense_Processing.c ****     /* Reset slider position data to NONE */
 331:Generated_Source\PSoC6/CapSense_Processing.c ****     for (idx = 0u; idx < CapSense_NUM_CENTROIDS; idx++)
 332:Generated_Source\PSoC6/CapSense_Processing.c ****     {
 333:Generated_Source\PSoC6/CapSense_Processing.c ****         ptrWdSlider->position[idx] = CapSense_SLIDER_POS_NONE;
 334:Generated_Source\PSoC6/CapSense_Processing.c **** 
 335:Generated_Source\PSoC6/CapSense_Processing.c ****         #if (0u != CapSense_POSITION_FILTER_EN)
 336:Generated_Source\PSoC6/CapSense_Processing.c ****             ptrHistory = ptrFlashWdgt->ptr2PosHistory;
 337:Generated_Source\PSoC6/CapSense_Processing.c ****             if (NULL != ptrHistory)
 338:Generated_Source\PSoC6/CapSense_Processing.c ****             {
 339:Generated_Source\PSoC6/CapSense_Processing.c ****                 CapSense_InitPosFiltersSd(&ptrHistory[idx], CapSense_SLIDER_POS_NONE);
 340:Generated_Source\PSoC6/CapSense_Processing.c ****                 #if (0u != CapSense_POS_ADAPTIVE_IIR_FILTER_EN)
 341:Generated_Source\PSoC6/CapSense_Processing.c ****                     AdaptiveFilter_Initialize(&ptrWdSlider->aiirConfig, &context);
 342:Generated_Source\PSoC6/CapSense_Processing.c ****                     ptrHistory->posAIIRCoeff = context.coefficient;
 343:Generated_Source\PSoC6/CapSense_Processing.c ****                 #endif /* (0u != CapSense_POS_ADAPTIVE_IIR_FILTER_EN) */
 344:Generated_Source\PSoC6/CapSense_Processing.c ****             }
 345:Generated_Source\PSoC6/CapSense_Processing.c **** 
 346:Generated_Source\PSoC6/CapSense_Processing.c ****         #endif /* #if (0u != CapSense_POSITION_FILTER_EN) */
 347:Generated_Source\PSoC6/CapSense_Processing.c ****     }
 348:Generated_Source\PSoC6/CapSense_Processing.c **** }
 349:Generated_Source\PSoC6/CapSense_Processing.c **** #endif /* #if (0u != CapSense_SLIDER_WIDGET_EN) */
 350:Generated_Source\PSoC6/CapSense_Processing.c **** 
 351:Generated_Source\PSoC6/CapSense_Processing.c **** #if (0u != CapSense_CSD_MATRIX_WIDGET_EN)
 352:Generated_Source\PSoC6/CapSense_Processing.c **** /*******************************************************************************
 353:Generated_Source\PSoC6/CapSense_Processing.c **** * Function Name: CapSense_DpInitCsdMatrix
 354:Generated_Source\PSoC6/CapSense_Processing.c **** ****************************************************************************//**
 355:Generated_Source\PSoC6/CapSense_Processing.c **** *
 356:Generated_Source\PSoC6/CapSense_Processing.c **** * \brief
 357:Generated_Source\PSoC6/CapSense_Processing.c **** *  Performs initialization of the CSD Matrix Buttons widget.
 358:Generated_Source\PSoC6/CapSense_Processing.c **** *   - Resets the active button position data to NONE.
 359:Generated_Source\PSoC6/CapSense_Processing.c **** *
 360:Generated_Source\PSoC6/CapSense_Processing.c **** * \details
 361:Generated_Source\PSoC6/CapSense_Processing.c **** *  Position data is always reset to the CapSense_MATRIX_POS_NONE value.
 362:Generated_Source\PSoC6/CapSense_Processing.c **** *
 363:Generated_Source\PSoC6/CapSense_Processing.c **** *******************************************************************************/
 364:Generated_Source\PSoC6/CapSense_Processing.c **** __STATIC_INLINE void CapSense_DpInitCsdMatrix(CapSense_FLASH_WD_STRUCT const * ptrFlashWdgt)
 365:Generated_Source\PSoC6/CapSense_Processing.c **** {
 366:Generated_Source\PSoC6/CapSense_Processing.c ****     CapSense_RAM_WD_CSD_MATRIX_STRUCT *ptrRamWdgt;
 367:Generated_Source\PSoC6/CapSense_Processing.c **** 
 368:Generated_Source\PSoC6/CapSense_Processing.c ****     ptrRamWdgt = (CapSense_RAM_WD_CSD_MATRIX_STRUCT *)ptrFlashWdgt->ptr2WdgtRam;
 369:Generated_Source\PSoC6/CapSense_Processing.c **** 
 370:Generated_Source\PSoC6/CapSense_Processing.c ****     /* Reset sensor id, row and col registers in data structure */
 371:Generated_Source\PSoC6/CapSense_Processing.c ****     ptrRamWdgt->posRow   = CapSense_MATRIX_POS_NONE;
 372:Generated_Source\PSoC6/CapSense_Processing.c ****     ptrRamWdgt->posCol   = CapSense_MATRIX_POS_NONE;
ARM GAS  C:\Users\Austina\AppData\Local\Temp\ccWHIwhf.s 			page 8


 373:Generated_Source\PSoC6/CapSense_Processing.c ****     ptrRamWdgt->posSnsId = CapSense_MATRIX_POS_NONE;
 374:Generated_Source\PSoC6/CapSense_Processing.c **** }
 375:Generated_Source\PSoC6/CapSense_Processing.c **** #endif /* #if (0u != CapSense_CSD_MATRIX_WIDGET_EN) */
 376:Generated_Source\PSoC6/CapSense_Processing.c **** 
 377:Generated_Source\PSoC6/CapSense_Processing.c **** /*******************************************************************************
 378:Generated_Source\PSoC6/CapSense_Processing.c **** * Function Name: CapSense_DpInitialize
 379:Generated_Source\PSoC6/CapSense_Processing.c **** ****************************************************************************//**
 380:Generated_Source\PSoC6/CapSense_Processing.c **** *
 381:Generated_Source\PSoC6/CapSense_Processing.c **** * \brief
 382:Generated_Source\PSoC6/CapSense_Processing.c **** *  Performs initialization of the data processing FW module:
 383:Generated_Source\PSoC6/CapSense_Processing.c **** *   - Resets the de-bounce counters of all the widgets
 384:Generated_Source\PSoC6/CapSense_Processing.c **** *   - Resets the position filter history for slider and touchpad widgets
 385:Generated_Source\PSoC6/CapSense_Processing.c **** *   - Clears widget and sensor statuses
 386:Generated_Source\PSoC6/CapSense_Processing.c **** *   - Enables all the widgets.
 387:Generated_Source\PSoC6/CapSense_Processing.c **** *
 388:Generated_Source\PSoC6/CapSense_Processing.c **** * \details
 389:Generated_Source\PSoC6/CapSense_Processing.c **** *  The Button and Matrix Button widgets have individual de-bounce counter per
 390:Generated_Source\PSoC6/CapSense_Processing.c **** *  sensor for the CSD widgets and per node for the CSX widgets.
 391:Generated_Source\PSoC6/CapSense_Processing.c **** *
 392:Generated_Source\PSoC6/CapSense_Processing.c **** *  The Slider and Touchpad widgets have a single de-bounce counter per widget.
 393:Generated_Source\PSoC6/CapSense_Processing.c **** *
 394:Generated_Source\PSoC6/CapSense_Processing.c **** *  The Proximity widget has two de-bounce counters per sensor. One for the
 395:Generated_Source\PSoC6/CapSense_Processing.c **** *  proximity event and second for the touch event.
 396:Generated_Source\PSoC6/CapSense_Processing.c **** *
 397:Generated_Source\PSoC6/CapSense_Processing.c **** *  All debounce counters during initialization are set to the value of the
 398:Generated_Source\PSoC6/CapSense_Processing.c **** *  onDebounce widget parameter.
 399:Generated_Source\PSoC6/CapSense_Processing.c **** *
 400:Generated_Source\PSoC6/CapSense_Processing.c **** *******************************************************************************/
 401:Generated_Source\PSoC6/CapSense_Processing.c **** void CapSense_DpInitialize(void)
 402:Generated_Source\PSoC6/CapSense_Processing.c **** {
  28              		.loc 1 402 0
  29              		.cfi_startproc
  30              		@ args = 0, pretend = 0, frame = 0
  31              		@ frame_needed = 0, uses_anonymous_args = 0
  32 0000 70B5     		push	{r4, r5, r6, lr}
  33              		.cfi_def_cfa_offset 16
  34              		.cfi_offset 4, -16
  35              		.cfi_offset 5, -12
  36              		.cfi_offset 6, -8
  37              		.cfi_offset 14, -4
  38              	.LVL0:
 403:Generated_Source\PSoC6/CapSense_Processing.c ****     uint32 wdgtId;
 404:Generated_Source\PSoC6/CapSense_Processing.c ****     CapSense_WD_TYPE_ENUM widgetType;
 405:Generated_Source\PSoC6/CapSense_Processing.c ****     CapSense_RAM_WD_BASE_STRUCT * ptrRamWdgt;
 406:Generated_Source\PSoC6/CapSense_Processing.c ****     CapSense_FLASH_WD_STRUCT const * ptrFlashWdgt;
 407:Generated_Source\PSoC6/CapSense_Processing.c **** 
 408:Generated_Source\PSoC6/CapSense_Processing.c ****     for (wdgtId = 0u; wdgtId < CapSense_WDGT_STATUS_WORDS; wdgtId++)
  39              		.loc 1 408 0
  40 0002 0023     		movs	r3, #0
  41 0004 09E0     		b	.L2
  42              	.LVL1:
  43              	.L3:
 409:Generated_Source\PSoC6/CapSense_Processing.c ****     {
 410:Generated_Source\PSoC6/CapSense_Processing.c ****         /* Clear widget status */
 411:Generated_Source\PSoC6/CapSense_Processing.c ****         CapSense_dsRam.wdgtStatus[wdgtId] = 0u;
  44              		.loc 1 411 0 discriminator 3
  45 0006 2249     		ldr	r1, .L14
ARM GAS  C:\Users\Austina\AppData\Local\Temp\ccWHIwhf.s 			page 9


  46 0008 1A1D     		adds	r2, r3, #4
  47 000a 9200     		lsls	r2, r2, #2
  48 000c 8818     		adds	r0, r1, r2
  49 000e 0024     		movs	r4, #0
  50 0010 4460     		str	r4, [r0, #4]
 412:Generated_Source\PSoC6/CapSense_Processing.c **** 
 413:Generated_Source\PSoC6/CapSense_Processing.c ****         /* Enable all the widgets */
 414:Generated_Source\PSoC6/CapSense_Processing.c ****         CapSense_dsRam.wdgtEnable[wdgtId] = 0xFFFFFFFFLu;
  51              		.loc 1 414 0 discriminator 3
  52 0012 0120     		movs	r0, #1
  53 0014 4042     		rsbs	r0, r0, #0
  54 0016 5050     		str	r0, [r2, r1]
 408:Generated_Source\PSoC6/CapSense_Processing.c ****     {
  55              		.loc 1 408 0 discriminator 3
  56 0018 0133     		adds	r3, r3, #1
  57              	.LVL2:
  58              	.L2:
 408:Generated_Source\PSoC6/CapSense_Processing.c ****     {
  59              		.loc 1 408 0 is_stmt 0 discriminator 1
  60 001a 002B     		cmp	r3, #0
  61 001c F3D0     		beq	.L3
  62 001e 1D4C     		ldr	r4, .L14+4
  63 0020 0323     		movs	r3, #3
  64              	.LVL3:
  65 0022 31E0     		b	.L4
  66              	.LVL4:
  67              	.L13:
 415:Generated_Source\PSoC6/CapSense_Processing.c **** 
 416:Generated_Source\PSoC6/CapSense_Processing.c ****         /* Set all the widgets to working state if the Self-Test is not enabled */
 417:Generated_Source\PSoC6/CapSense_Processing.c ****         #if (0u != CapSense_SELF_TEST_EN)
 418:Generated_Source\PSoC6/CapSense_Processing.c ****             CapSense_dsRam.wdgtWorking[wdgtId] = 0xFFFFFFFFLu;
 419:Generated_Source\PSoC6/CapSense_Processing.c ****         #endif /* #if (0u == CapSense_SELF_TEST_EN) */
 420:Generated_Source\PSoC6/CapSense_Processing.c ****     }
 421:Generated_Source\PSoC6/CapSense_Processing.c **** 
 422:Generated_Source\PSoC6/CapSense_Processing.c ****     ptrFlashWdgt = CapSense_dsFlash.wdgtArray;
 423:Generated_Source\PSoC6/CapSense_Processing.c **** 
 424:Generated_Source\PSoC6/CapSense_Processing.c ****     for (wdgtId = CapSense_TOTAL_WIDGETS; wdgtId-- > 0u; )
 425:Generated_Source\PSoC6/CapSense_Processing.c ****     {
 426:Generated_Source\PSoC6/CapSense_Processing.c ****         ptrRamWdgt = (CapSense_RAM_WD_BASE_STRUCT *)ptrFlashWdgt->ptr2WdgtRam;
  68              		.loc 1 426 0 is_stmt 1
  69 0024 6668     		ldr	r6, [r4, #4]
  70              	.LVL5:
 427:Generated_Source\PSoC6/CapSense_Processing.c ****         widgetType = (CapSense_WD_TYPE_ENUM)ptrFlashWdgt->wdgtType;
  71              		.loc 1 427 0
  72 0026 A27E     		ldrb	r2, [r4, #26]
  73              	.LVL6:
 428:Generated_Source\PSoC6/CapSense_Processing.c **** 
 429:Generated_Source\PSoC6/CapSense_Processing.c ****         /* Clear all sensor statuses */
 430:Generated_Source\PSoC6/CapSense_Processing.c ****         CapSense_dsRam.snsStatus[wdgtId] = 0u;
  74              		.loc 1 430 0
  75 0028 194B     		ldr	r3, .L14
  76 002a 5B19     		adds	r3, r3, r5
  77 002c 0021     		movs	r1, #0
  78 002e 1976     		strb	r1, [r3, #24]
 431:Generated_Source\PSoC6/CapSense_Processing.c **** 
 432:Generated_Source\PSoC6/CapSense_Processing.c ****         /* Reset de-bounce counters */
 433:Generated_Source\PSoC6/CapSense_Processing.c ****         switch (widgetType)
ARM GAS  C:\Users\Austina\AppData\Local\Temp\ccWHIwhf.s 			page 10


  79              		.loc 1 433 0
  80 0030 032A     		cmp	r2, #3
  81 0032 04D8     		bhi	.L6
  82 0034 022A     		cmp	r2, #2
  83 0036 0DD2     		bcs	.L7
  84 0038 012A     		cmp	r2, #1
  85 003a 03D0     		beq	.L8
  86 003c 22E0     		b	.L5
  87              	.L6:
  88 003e 052A     		cmp	r2, #5
  89 0040 1BD0     		beq	.L9
  90 0042 1FE0     		b	.L5
  91              	.L8:
 434:Generated_Source\PSoC6/CapSense_Processing.c ****         {
 435:Generated_Source\PSoC6/CapSense_Processing.c ****         #if (0u != CapSense_MATRIX_WIDGET_EN)
 436:Generated_Source\PSoC6/CapSense_Processing.c ****             case CapSense_WD_MATRIX_BUTTON_E:
 437:Generated_Source\PSoC6/CapSense_Processing.c ****                 #if (0u != CapSense_CSD_MATRIX_WIDGET_EN)
 438:Generated_Source\PSoC6/CapSense_Processing.c ****                     if (CapSense_SENSE_METHOD_CSD_E == CapSense_GET_SENSE_METHOD(ptrFlashWdgt))
 439:Generated_Source\PSoC6/CapSense_Processing.c ****                     {
 440:Generated_Source\PSoC6/CapSense_Processing.c ****                         CapSense_DpInitCsdMatrix(ptrFlashWdgt);
 441:Generated_Source\PSoC6/CapSense_Processing.c ****                     }
 442:Generated_Source\PSoC6/CapSense_Processing.c ****                 #endif /* #if (0u != CapSense_CSD_MATRIX_WIDGET_EN) */
 443:Generated_Source\PSoC6/CapSense_Processing.c **** 
 444:Generated_Source\PSoC6/CapSense_Processing.c ****                 if (NULL != ptrFlashWdgt->ptr2DebounceArr)
 445:Generated_Source\PSoC6/CapSense_Processing.c ****                 {
 446:Generated_Source\PSoC6/CapSense_Processing.c ****                     /* Initialize array of debounce counters */
 447:Generated_Source\PSoC6/CapSense_Processing.c ****                     (void)memset(ptrFlashWdgt->ptr2DebounceArr,
 448:Generated_Source\PSoC6/CapSense_Processing.c ****                                  (int32)ptrRamWdgt->onDebounce,
 449:Generated_Source\PSoC6/CapSense_Processing.c ****                                  (size_t)ptrFlashWdgt->totalNumSns);
 450:Generated_Source\PSoC6/CapSense_Processing.c ****                 }
 451:Generated_Source\PSoC6/CapSense_Processing.c ****                 break;
 452:Generated_Source\PSoC6/CapSense_Processing.c ****         #endif /* #if (0u != CapSense_MATRIX_WIDGET_EN) */
 453:Generated_Source\PSoC6/CapSense_Processing.c **** 
 454:Generated_Source\PSoC6/CapSense_Processing.c ****         #if (0u != CapSense_BUTTON_WIDGET_EN)
 455:Generated_Source\PSoC6/CapSense_Processing.c ****             case CapSense_WD_BUTTON_E:
 456:Generated_Source\PSoC6/CapSense_Processing.c ****                 if (NULL != ptrFlashWdgt->ptr2DebounceArr)
  92              		.loc 1 456 0
  93 0044 2069     		ldr	r0, [r4, #16]
  94 0046 0028     		cmp	r0, #0
  95 0048 1CD0     		beq	.L5
 457:Generated_Source\PSoC6/CapSense_Processing.c ****                 {
 458:Generated_Source\PSoC6/CapSense_Processing.c ****                     /* Initialize array of debounce counters */
 459:Generated_Source\PSoC6/CapSense_Processing.c ****                     (void)memset(ptrFlashWdgt->ptr2DebounceArr,
 460:Generated_Source\PSoC6/CapSense_Processing.c ****                                  (int32)ptrRamWdgt->onDebounce,
  96              		.loc 1 460 0
  97 004a F179     		ldrb	r1, [r6, #7]
 461:Generated_Source\PSoC6/CapSense_Processing.c ****                                  (size_t)ptrFlashWdgt->totalNumSns);
  98              		.loc 1 461 0
  99 004c 228B     		ldrh	r2, [r4, #24]
 100              	.LVL7:
 459:Generated_Source\PSoC6/CapSense_Processing.c ****                                  (int32)ptrRamWdgt->onDebounce,
 101              		.loc 1 459 0
 102 004e FFF7FEFF 		bl	memset
 103              	.LVL8:
 104 0052 17E0     		b	.L5
 105              	.LVL9:
 106              	.L7:
ARM GAS  C:\Users\Austina\AppData\Local\Temp\ccWHIwhf.s 			page 11


 462:Generated_Source\PSoC6/CapSense_Processing.c ****                 }
 463:Generated_Source\PSoC6/CapSense_Processing.c ****                 break;
 464:Generated_Source\PSoC6/CapSense_Processing.c ****         #endif /* #if (0u != CapSense_BUTTON_WIDGET_EN) */
 465:Generated_Source\PSoC6/CapSense_Processing.c **** 
 466:Generated_Source\PSoC6/CapSense_Processing.c ****         #if (0u != CapSense_SLIDER_WIDGET_EN)
 467:Generated_Source\PSoC6/CapSense_Processing.c ****             case CapSense_WD_LINEAR_SLIDER_E:
 468:Generated_Source\PSoC6/CapSense_Processing.c ****             case CapSense_WD_RADIAL_SLIDER_E:
 469:Generated_Source\PSoC6/CapSense_Processing.c ****                 if (NULL != ptrFlashWdgt->ptr2DebounceArr)
 107              		.loc 1 469 0
 108 0054 2369     		ldr	r3, [r4, #16]
 109 0056 002B     		cmp	r3, #0
 110 0058 01D0     		beq	.L10
 470:Generated_Source\PSoC6/CapSense_Processing.c ****                 {
 471:Generated_Source\PSoC6/CapSense_Processing.c ****                     /* Initialize single debounce counter of slider */
 472:Generated_Source\PSoC6/CapSense_Processing.c ****                     *(uint8 *)(ptrFlashWdgt->ptr2DebounceArr) = ptrRamWdgt->onDebounce;
 111              		.loc 1 472 0
 112 005a F279     		ldrb	r2, [r6, #7]
 113              	.LVL10:
 114 005c 1A70     		strb	r2, [r3]
 115              	.L10:
 116              	.LVL11:
 117              	.LBB6:
 118              	.LBB7:
 328:Generated_Source\PSoC6/CapSense_Processing.c **** 
 119              		.loc 1 328 0
 120 005e 6168     		ldr	r1, [r4, #4]
 121              	.LVL12:
 331:Generated_Source\PSoC6/CapSense_Processing.c ****     {
 122              		.loc 1 331 0
 123 0060 0023     		movs	r3, #0
 124 0062 07E0     		b	.L11
 125              	.LVL13:
 126              	.L12:
 333:Generated_Source\PSoC6/CapSense_Processing.c **** 
 127              		.loc 1 333 0
 128 0064 1A00     		movs	r2, r3
 129 0066 0832     		adds	r2, r2, #8
 130 0068 5200     		lsls	r2, r2, #1
 131 006a 8A18     		adds	r2, r1, r2
 132 006c 0120     		movs	r0, #1
 133 006e 4042     		rsbs	r0, r0, #0
 134 0070 9080     		strh	r0, [r2, #4]
 331:Generated_Source\PSoC6/CapSense_Processing.c ****     {
 135              		.loc 1 331 0
 136 0072 0133     		adds	r3, r3, #1
 137              	.LVL14:
 138              	.L11:
 139 0074 002B     		cmp	r3, #0
 140 0076 F5D0     		beq	.L12
 141 0078 04E0     		b	.L5
 142              	.LVL15:
 143              	.L9:
 144              	.LBE7:
 145              	.LBE6:
 473:Generated_Source\PSoC6/CapSense_Processing.c ****                 }
 474:Generated_Source\PSoC6/CapSense_Processing.c **** 
 475:Generated_Source\PSoC6/CapSense_Processing.c ****                 CapSense_DpInitSlider(ptrFlashWdgt);
ARM GAS  C:\Users\Austina\AppData\Local\Temp\ccWHIwhf.s 			page 12


 476:Generated_Source\PSoC6/CapSense_Processing.c **** 
 477:Generated_Source\PSoC6/CapSense_Processing.c ****                 break;
 478:Generated_Source\PSoC6/CapSense_Processing.c ****         #endif /* #if (0u != CapSense_SLIDER_WIDGET_EN) */
 479:Generated_Source\PSoC6/CapSense_Processing.c **** 
 480:Generated_Source\PSoC6/CapSense_Processing.c ****         #if (0u != CapSense_TOUCHPAD_WIDGET_EN)
 481:Generated_Source\PSoC6/CapSense_Processing.c ****             case CapSense_WD_TOUCHPAD_E:
 482:Generated_Source\PSoC6/CapSense_Processing.c ****                 if (NULL != ptrFlashWdgt->ptr2DebounceArr)
 146              		.loc 1 482 0
 147 007a 2369     		ldr	r3, [r4, #16]
 148 007c 002B     		cmp	r3, #0
 149 007e 01D0     		beq	.L5
 483:Generated_Source\PSoC6/CapSense_Processing.c ****                 {
 484:Generated_Source\PSoC6/CapSense_Processing.c ****                     /* Initialize single debounce counter of touchpad */
 485:Generated_Source\PSoC6/CapSense_Processing.c ****                     *(uint8 *)(ptrFlashWdgt->ptr2DebounceArr) = ptrRamWdgt->onDebounce;
 150              		.loc 1 485 0
 151 0080 F279     		ldrb	r2, [r6, #7]
 152              	.LVL16:
 153 0082 1A70     		strb	r2, [r3]
 154              	.L5:
 486:Generated_Source\PSoC6/CapSense_Processing.c ****                 }
 487:Generated_Source\PSoC6/CapSense_Processing.c **** 
 488:Generated_Source\PSoC6/CapSense_Processing.c ****                 #if (0u != CapSense_CSD_TOUCHPAD_WIDGET_EN)
 489:Generated_Source\PSoC6/CapSense_Processing.c ****                     if (CapSense_SENSE_METHOD_CSD_E == CapSense_GET_SENSE_METHOD(ptrFlashWdgt))
 490:Generated_Source\PSoC6/CapSense_Processing.c ****                     {
 491:Generated_Source\PSoC6/CapSense_Processing.c ****                         CapSense_DpInitCsdTouchpad(ptrFlashWdgt);
 492:Generated_Source\PSoC6/CapSense_Processing.c ****                     }
 493:Generated_Source\PSoC6/CapSense_Processing.c ****                 #endif /* #if (0u != CapSense_CSD_TOUCHPAD_WIDGET_EN) */
 494:Generated_Source\PSoC6/CapSense_Processing.c **** 
 495:Generated_Source\PSoC6/CapSense_Processing.c ****                 #if (0u != CapSense_CSX_TOUCHPAD_WIDGET_EN)
 496:Generated_Source\PSoC6/CapSense_Processing.c ****                     if (CapSense_SENSE_METHOD_CSX_E == CapSense_GET_SENSE_METHOD(ptrFlashWdgt))
 497:Generated_Source\PSoC6/CapSense_Processing.c ****                     {
 498:Generated_Source\PSoC6/CapSense_Processing.c ****                         CapSense_DpInitCsxTouchpad(ptrFlashWdgt);
 499:Generated_Source\PSoC6/CapSense_Processing.c ****                     }
 500:Generated_Source\PSoC6/CapSense_Processing.c ****                 #endif /* #if (0u != CapSense_CSX_TOUCHPAD_WIDGET_EN) */
 501:Generated_Source\PSoC6/CapSense_Processing.c **** 
 502:Generated_Source\PSoC6/CapSense_Processing.c ****                 break;
 503:Generated_Source\PSoC6/CapSense_Processing.c ****         #endif /* #if (0u != CapSense_TOUCHPAD_WIDGET_EN) */
 504:Generated_Source\PSoC6/CapSense_Processing.c **** 
 505:Generated_Source\PSoC6/CapSense_Processing.c ****         #if (0u != CapSense_PROXIMITY_WIDGET_EN)
 506:Generated_Source\PSoC6/CapSense_Processing.c ****             case CapSense_WD_PROXIMITY_E:
 507:Generated_Source\PSoC6/CapSense_Processing.c ****                 if (NULL != ptrFlashWdgt->ptr2DebounceArr)
 508:Generated_Source\PSoC6/CapSense_Processing.c ****                 {
 509:Generated_Source\PSoC6/CapSense_Processing.c ****                     /* Proximity widgets have 2 de-bounce counters per sensor.
 510:Generated_Source\PSoC6/CapSense_Processing.c ****                      * Therefore the number of sensors is multiplied by 2.
 511:Generated_Source\PSoC6/CapSense_Processing.c ****                      */
 512:Generated_Source\PSoC6/CapSense_Processing.c ****                    (void)memset(ptrFlashWdgt->ptr2DebounceArr,
 513:Generated_Source\PSoC6/CapSense_Processing.c ****                                 (int32)ptrRamWdgt->onDebounce,
 514:Generated_Source\PSoC6/CapSense_Processing.c ****                                 (size_t)ptrFlashWdgt->totalNumSns * 2u);
 515:Generated_Source\PSoC6/CapSense_Processing.c ****                 }
 516:Generated_Source\PSoC6/CapSense_Processing.c ****                 break;
 517:Generated_Source\PSoC6/CapSense_Processing.c ****         #endif /* #if (0u != CapSense_PROXIMITY_WIDGET_EN) */
 518:Generated_Source\PSoC6/CapSense_Processing.c **** 
 519:Generated_Source\PSoC6/CapSense_Processing.c ****             default:
 520:Generated_Source\PSoC6/CapSense_Processing.c ****                 break;
 521:Generated_Source\PSoC6/CapSense_Processing.c ****         }
 522:Generated_Source\PSoC6/CapSense_Processing.c **** 
 523:Generated_Source\PSoC6/CapSense_Processing.c ****         /* Move to next widget */
ARM GAS  C:\Users\Austina\AppData\Local\Temp\ccWHIwhf.s 			page 13


 524:Generated_Source\PSoC6/CapSense_Processing.c ****         ptrFlashWdgt++;
 155              		.loc 1 524 0
 156 0084 2C34     		adds	r4, r4, #44
 157              	.LVL17:
 424:Generated_Source\PSoC6/CapSense_Processing.c ****     {
 158              		.loc 1 424 0
 159 0086 2B00     		movs	r3, r5
 160              	.LVL18:
 161              	.L4:
 424:Generated_Source\PSoC6/CapSense_Processing.c ****     {
 162              		.loc 1 424 0 is_stmt 0 discriminator 1
 163 0088 5D1E     		subs	r5, r3, #1
 164              	.LVL19:
 165 008a 002B     		cmp	r3, #0
 166 008c CAD1     		bne	.L13
 525:Generated_Source\PSoC6/CapSense_Processing.c ****     }
 526:Generated_Source\PSoC6/CapSense_Processing.c **** }
 167              		.loc 1 526 0 is_stmt 1
 168              		@ sp needed
 169              	.LVL20:
 170              	.LVL21:
 171 008e 70BD     		pop	{r4, r5, r6, pc}
 172              	.L15:
 173              		.align	2
 174              	.L14:
 175 0090 00000000 		.word	CapSense_dsRam
 176 0094 00000000 		.word	CapSense_dsFlash
 177              		.cfi_endproc
 178              	.LFE37:
 179              		.size	CapSense_DpInitialize, .-CapSense_DpInitialize
 180              		.section	.text.CapSense_DpUpdateThresholds,"ax",%progbits
 181              		.align	2
 182              		.global	CapSense_DpUpdateThresholds
 183              		.code	16
 184              		.thumb_func
 185              		.type	CapSense_DpUpdateThresholds, %function
 186              	CapSense_DpUpdateThresholds:
 187              	.LFB44:
 527:Generated_Source\PSoC6/CapSense_Processing.c **** 
 528:Generated_Source\PSoC6/CapSense_Processing.c **** #if (0u != CapSense_TOTAL_CSX_WIDGETS)
 529:Generated_Source\PSoC6/CapSense_Processing.c **** /*******************************************************************************
 530:Generated_Source\PSoC6/CapSense_Processing.c **** * Function Name: CapSense_DpProcessCsxWidgetRawCounts
 531:Generated_Source\PSoC6/CapSense_Processing.c **** ****************************************************************************//**
 532:Generated_Source\PSoC6/CapSense_Processing.c **** *
 533:Generated_Source\PSoC6/CapSense_Processing.c **** * \brief
 534:Generated_Source\PSoC6/CapSense_Processing.c **** *  Performs default processing of the CSX raw counts.
 535:Generated_Source\PSoC6/CapSense_Processing.c **** *
 536:Generated_Source\PSoC6/CapSense_Processing.c **** * \details
 537:Generated_Source\PSoC6/CapSense_Processing.c **** *  Performs default processing of the CSX raw counts:
 538:Generated_Source\PSoC6/CapSense_Processing.c **** *   - Run Filters
 539:Generated_Source\PSoC6/CapSense_Processing.c **** *   - Update Baselines
 540:Generated_Source\PSoC6/CapSense_Processing.c **** *   - Update Differences
 541:Generated_Source\PSoC6/CapSense_Processing.c **** *   - Update Status.
 542:Generated_Source\PSoC6/CapSense_Processing.c **** *  The same process is applied to all the sensors of the specified widget.
 543:Generated_Source\PSoC6/CapSense_Processing.c **** *
 544:Generated_Source\PSoC6/CapSense_Processing.c **** * \param ptrFlashWdgt The pointer to the Flash widget structure.
 545:Generated_Source\PSoC6/CapSense_Processing.c **** *
ARM GAS  C:\Users\Austina\AppData\Local\Temp\ccWHIwhf.s 			page 14


 546:Generated_Source\PSoC6/CapSense_Processing.c **** * \return
 547:Generated_Source\PSoC6/CapSense_Processing.c **** *  Returns the status of the specified widget processing operation:
 548:Generated_Source\PSoC6/CapSense_Processing.c **** *  - CY_RET_SUCCESS if operation was successfully completed;
 549:Generated_Source\PSoC6/CapSense_Processing.c **** *  - CapSense_PROCESS_BASELINE_FAILED if baseline processing of any
 550:Generated_Source\PSoC6/CapSense_Processing.c **** *    sensor of the specified widget failed. The result is concatenated with the index
 551:Generated_Source\PSoC6/CapSense_Processing.c **** *    of failed sensor.
 552:Generated_Source\PSoC6/CapSense_Processing.c **** *
 553:Generated_Source\PSoC6/CapSense_Processing.c **** *******************************************************************************/
 554:Generated_Source\PSoC6/CapSense_Processing.c **** uint32 CapSense_DpProcessCsxWidgetRawCounts(CapSense_FLASH_WD_STRUCT const *ptrFlashWdgt)
 555:Generated_Source\PSoC6/CapSense_Processing.c **** {
 556:Generated_Source\PSoC6/CapSense_Processing.c ****     uint32 result = CY_RET_SUCCESS;
 557:Generated_Source\PSoC6/CapSense_Processing.c ****     uint32 widgetType;
 558:Generated_Source\PSoC6/CapSense_Processing.c ****     uint32 snsCount;
 559:Generated_Source\PSoC6/CapSense_Processing.c ****     CapSense_RAM_SNS_STRUCT *ptrSnsTmp;
 560:Generated_Source\PSoC6/CapSense_Processing.c ****     CapSense_RAM_WD_BASE_STRUCT *ptrRamWdgt;
 561:Generated_Source\PSoC6/CapSense_Processing.c **** 
 562:Generated_Source\PSoC6/CapSense_Processing.c ****     #if (CapSense_ENABLE == CapSense_RC_FILTER_EN)
 563:Generated_Source\PSoC6/CapSense_Processing.c ****         CapSense_PTR_FILTER_VARIANT fltrHistV;
 564:Generated_Source\PSoC6/CapSense_Processing.c **** 
 565:Generated_Source\PSoC6/CapSense_Processing.c ****         fltrHistV.ptr = ptrFlashWdgt->ptr2FltrHistory;
 566:Generated_Source\PSoC6/CapSense_Processing.c ****     #endif /* #if (CapSense_ENABLE == CapSense_RC_FILTER_EN) */
 567:Generated_Source\PSoC6/CapSense_Processing.c **** 
 568:Generated_Source\PSoC6/CapSense_Processing.c ****     ptrSnsTmp = ptrFlashWdgt->ptr2SnsRam;
 569:Generated_Source\PSoC6/CapSense_Processing.c ****     snsCount = ptrFlashWdgt->totalNumSns;
 570:Generated_Source\PSoC6/CapSense_Processing.c ****     ptrRamWdgt = (CapSense_RAM_WD_BASE_STRUCT *)ptrFlashWdgt->ptr2WdgtRam;
 571:Generated_Source\PSoC6/CapSense_Processing.c ****     widgetType = ptrFlashWdgt->wdgtType;
 572:Generated_Source\PSoC6/CapSense_Processing.c **** 
 573:Generated_Source\PSoC6/CapSense_Processing.c ****     /* Run deconvolution algorithm for the widgets with multiphase TX support */
 574:Generated_Source\PSoC6/CapSense_Processing.c ****     #if (0u != CapSense_CSX_MULTIPHASE_TX_EN)
 575:Generated_Source\PSoC6/CapSense_Processing.c ****         if (0u != (ptrFlashWdgt->staticConfig & CapSense_MULTIPHASE_TX_MASK))
 576:Generated_Source\PSoC6/CapSense_Processing.c ****         {
 577:Generated_Source\PSoC6/CapSense_Processing.c ****             CapSense_DpDeconvolution(ptrFlashWdgt);
 578:Generated_Source\PSoC6/CapSense_Processing.c ****         }
 579:Generated_Source\PSoC6/CapSense_Processing.c ****     #endif  /* #if (0u != CapSense_CSX_MULTIPHASE_TX_EN) */
 580:Generated_Source\PSoC6/CapSense_Processing.c **** 
 581:Generated_Source\PSoC6/CapSense_Processing.c ****     for (;snsCount-- > 0u;)
 582:Generated_Source\PSoC6/CapSense_Processing.c ****     {
 583:Generated_Source\PSoC6/CapSense_Processing.c ****         #if (CapSense_ENABLE == CapSense_RC_FILTER_EN)
 584:Generated_Source\PSoC6/CapSense_Processing.c ****             CapSense_FtRunEnabledFiltersInternal(fltrHistV, ptrSnsTmp, widgetType);
 585:Generated_Source\PSoC6/CapSense_Processing.c ****             #if (CapSense_ALP_FILTER_EN)
 586:Generated_Source\PSoC6/CapSense_Processing.c ****                 CapSense_ConfigRunALPInternal(fltrHistV, ptrRamWdgt, ptrSnsTmp, widgetType);
 587:Generated_Source\PSoC6/CapSense_Processing.c ****             #endif
 588:Generated_Source\PSoC6/CapSense_Processing.c ****         #endif /* #if (CapSense_ENABLE == CapSense_RC_FILTER_EN) */
 589:Generated_Source\PSoC6/CapSense_Processing.c **** 
 590:Generated_Source\PSoC6/CapSense_Processing.c ****         result = CapSense_FtUpdateBaseline(ptrRamWdgt, ptrSnsTmp, widgetType);
 591:Generated_Source\PSoC6/CapSense_Processing.c **** 
 592:Generated_Source\PSoC6/CapSense_Processing.c ****         #if (CapSense_ENABLE == CapSense_TST_BSLN_DUPLICATION_EN)
 593:Generated_Source\PSoC6/CapSense_Processing.c ****             if (CY_RET_SUCCESS != result)
 594:Generated_Source\PSoC6/CapSense_Processing.c ****             {
 595:Generated_Source\PSoC6/CapSense_Processing.c ****                 result = snsCount | CapSense_PROCESS_BASELINE_FAILED;
 596:Generated_Source\PSoC6/CapSense_Processing.c ****             }
 597:Generated_Source\PSoC6/CapSense_Processing.c ****         #endif /* (CapSense_ENABLE == CapSense_TST_BSLN_DUPLICATION_EN) */
 598:Generated_Source\PSoC6/CapSense_Processing.c **** 
 599:Generated_Source\PSoC6/CapSense_Processing.c ****         CapSense_DpUpdateDifferences(ptrRamWdgt, ptrSnsTmp);
 600:Generated_Source\PSoC6/CapSense_Processing.c **** 
 601:Generated_Source\PSoC6/CapSense_Processing.c ****         /* Move pointers to the next sensor and filter history objects */
 602:Generated_Source\PSoC6/CapSense_Processing.c ****         ptrSnsTmp++;
ARM GAS  C:\Users\Austina\AppData\Local\Temp\ccWHIwhf.s 			page 15


 603:Generated_Source\PSoC6/CapSense_Processing.c ****         
 604:Generated_Source\PSoC6/CapSense_Processing.c ****         #if (CapSense_ENABLE == CapSense_RC_FILTER_EN)
 605:Generated_Source\PSoC6/CapSense_Processing.c ****             CapSense_INC_REG_FLTR_OBJ(fltrHistV);
 606:Generated_Source\PSoC6/CapSense_Processing.c ****         #endif /* #if (CapSense_ENABLE == CapSense_RC_FILTER_EN) */
 607:Generated_Source\PSoC6/CapSense_Processing.c ****     }
 608:Generated_Source\PSoC6/CapSense_Processing.c ****     return result;
 609:Generated_Source\PSoC6/CapSense_Processing.c **** }
 610:Generated_Source\PSoC6/CapSense_Processing.c **** 
 611:Generated_Source\PSoC6/CapSense_Processing.c **** /*******************************************************************************
 612:Generated_Source\PSoC6/CapSense_Processing.c **** * Function Name: CapSense_DpProcessCsxSensorRawCountsExt
 613:Generated_Source\PSoC6/CapSense_Processing.c **** ****************************************************************************//**
 614:Generated_Source\PSoC6/CapSense_Processing.c **** *
 615:Generated_Source\PSoC6/CapSense_Processing.c **** * \brief
 616:Generated_Source\PSoC6/CapSense_Processing.c **** *   Performs customized processing of the CSX sensor raw counts.
 617:Generated_Source\PSoC6/CapSense_Processing.c **** *
 618:Generated_Source\PSoC6/CapSense_Processing.c **** * \details
 619:Generated_Source\PSoC6/CapSense_Processing.c **** *   Performs customized processing of the CSX sensor raw counts.
 620:Generated_Source\PSoC6/CapSense_Processing.c **** *
 621:Generated_Source\PSoC6/CapSense_Processing.c **** *   If all bits are set at once the default processing order will take place.
 622:Generated_Source\PSoC6/CapSense_Processing.c **** *   For the custom order this API can be called multiple times and execute one task at a time.
 623:Generated_Source\PSoC6/CapSense_Processing.c **** *
 624:Generated_Source\PSoC6/CapSense_Processing.c **** * \param ptrFlashWdgt The pointer to the Flash Widget Object.
 625:Generated_Source\PSoC6/CapSense_Processing.c **** * \param curSnsPtr    The pointer to the specific RAM Sensor Object.
 626:Generated_Source\PSoC6/CapSense_Processing.c **** * \param fltrHistV    The pointer to the Filter History Object in RAM associated with specific sens
 627:Generated_Source\PSoC6/CapSense_Processing.c **** * \param mode         The bit-mask with the data processing tasks to be executed.
 628:Generated_Source\PSoC6/CapSense_Processing.c **** *   The mode parameters can take the following values:
 629:Generated_Source\PSoC6/CapSense_Processing.c **** *    - CapSense_PROCESS_FILTER     (0x01) Run Firmware Filter
 630:Generated_Source\PSoC6/CapSense_Processing.c **** *    - CapSense_PROCESS_BASELINE   (0x02) Update Baselines
 631:Generated_Source\PSoC6/CapSense_Processing.c **** *    - CapSense_PROCESS_DIFFCOUNTS (0x04) Update Difference Counts
 632:Generated_Source\PSoC6/CapSense_Processing.c **** *    - CapSense_PROCESS_ALL               Execute all tasks
 633:Generated_Source\PSoC6/CapSense_Processing.c **** *
 634:Generated_Source\PSoC6/CapSense_Processing.c **** * \return
 635:Generated_Source\PSoC6/CapSense_Processing.c **** *  Returns the status of the specified sensor processing operation:
 636:Generated_Source\PSoC6/CapSense_Processing.c **** *  - CY_RET_SUCCESS if operation was successfully completed;
 637:Generated_Source\PSoC6/CapSense_Processing.c **** *  - CapSense_PROCESS_BASELINE_FAILED if baseline processing of any
 638:Generated_Source\PSoC6/CapSense_Processing.c **** *    sensor of the specified widget failed. The result is concatenated with the index
 639:Generated_Source\PSoC6/CapSense_Processing.c **** *    of failed sensor.
 640:Generated_Source\PSoC6/CapSense_Processing.c **** *
 641:Generated_Source\PSoC6/CapSense_Processing.c **** *******************************************************************************/
 642:Generated_Source\PSoC6/CapSense_Processing.c **** uint32 CapSense_DpProcessCsxSensorRawCountsExt(
 643:Generated_Source\PSoC6/CapSense_Processing.c ****                 CapSense_FLASH_WD_STRUCT const *ptrFlashWdgt,
 644:Generated_Source\PSoC6/CapSense_Processing.c ****                 CapSense_RAM_SNS_STRUCT *curSnsPtr,
 645:Generated_Source\PSoC6/CapSense_Processing.c ****                 CapSense_PTR_FILTER_VARIANT fltrHistV,
 646:Generated_Source\PSoC6/CapSense_Processing.c ****                 uint32 mode)
 647:Generated_Source\PSoC6/CapSense_Processing.c **** {
 648:Generated_Source\PSoC6/CapSense_Processing.c ****     uint32  result = CY_RET_SUCCESS;
 649:Generated_Source\PSoC6/CapSense_Processing.c ****     uint32  widgetType;
 650:Generated_Source\PSoC6/CapSense_Processing.c ****     CapSense_RAM_WD_BASE_STRUCT *ptrRamWdgt;
 651:Generated_Source\PSoC6/CapSense_Processing.c **** 
 652:Generated_Source\PSoC6/CapSense_Processing.c ****     widgetType = ptrFlashWdgt->wdgtType;
 653:Generated_Source\PSoC6/CapSense_Processing.c ****     ptrRamWdgt = (CapSense_RAM_WD_BASE_STRUCT *)ptrFlashWdgt->ptr2WdgtRam;
 654:Generated_Source\PSoC6/CapSense_Processing.c **** 
 655:Generated_Source\PSoC6/CapSense_Processing.c ****     #if (CapSense_ENABLE == CapSense_RC_FILTER_EN)
 656:Generated_Source\PSoC6/CapSense_Processing.c ****         if (0u != (mode & CapSense_PROCESS_FILTER))
 657:Generated_Source\PSoC6/CapSense_Processing.c ****         {
 658:Generated_Source\PSoC6/CapSense_Processing.c ****             CapSense_FtRunEnabledFiltersInternal(fltrHistV, curSnsPtr, widgetType);
 659:Generated_Source\PSoC6/CapSense_Processing.c ****             #if (CapSense_ALP_FILTER_EN)
ARM GAS  C:\Users\Austina\AppData\Local\Temp\ccWHIwhf.s 			page 16


 660:Generated_Source\PSoC6/CapSense_Processing.c ****                 CapSense_ConfigRunALPInternal(fltrHistV, ptrRamWdgt, curSnsPtr, widgetType);
 661:Generated_Source\PSoC6/CapSense_Processing.c ****             #endif
 662:Generated_Source\PSoC6/CapSense_Processing.c ****         }
 663:Generated_Source\PSoC6/CapSense_Processing.c ****     #else
 664:Generated_Source\PSoC6/CapSense_Processing.c ****         (void)fltrHistV; /* This parameter is unused in such configurations */
 665:Generated_Source\PSoC6/CapSense_Processing.c ****     #endif /* #if (CapSense_ENABLE == CapSense_RC_FILTER_EN) */
 666:Generated_Source\PSoC6/CapSense_Processing.c **** 
 667:Generated_Source\PSoC6/CapSense_Processing.c ****     if (0u != (mode & CapSense_PROCESS_BASELINE))
 668:Generated_Source\PSoC6/CapSense_Processing.c ****     {
 669:Generated_Source\PSoC6/CapSense_Processing.c ****         result = CapSense_FtUpdateBaseline(ptrRamWdgt, curSnsPtr, widgetType);
 670:Generated_Source\PSoC6/CapSense_Processing.c ****     }
 671:Generated_Source\PSoC6/CapSense_Processing.c **** 
 672:Generated_Source\PSoC6/CapSense_Processing.c ****     if (0u != (mode & CapSense_PROCESS_DIFFCOUNTS))
 673:Generated_Source\PSoC6/CapSense_Processing.c ****     {
 674:Generated_Source\PSoC6/CapSense_Processing.c ****         CapSense_DpUpdateDifferences(ptrRamWdgt, curSnsPtr);
 675:Generated_Source\PSoC6/CapSense_Processing.c ****     }
 676:Generated_Source\PSoC6/CapSense_Processing.c ****     return result;
 677:Generated_Source\PSoC6/CapSense_Processing.c **** }
 678:Generated_Source\PSoC6/CapSense_Processing.c **** 
 679:Generated_Source\PSoC6/CapSense_Processing.c **** 
 680:Generated_Source\PSoC6/CapSense_Processing.c **** /*******************************************************************************
 681:Generated_Source\PSoC6/CapSense_Processing.c **** * Function Name: CapSense_DpProcessCsxWidgetStatus
 682:Generated_Source\PSoC6/CapSense_Processing.c **** ****************************************************************************//**
 683:Generated_Source\PSoC6/CapSense_Processing.c **** *
 684:Generated_Source\PSoC6/CapSense_Processing.c **** * \brief
 685:Generated_Source\PSoC6/CapSense_Processing.c **** *   Updates the status of the CSX widget in the Data Structure.
 686:Generated_Source\PSoC6/CapSense_Processing.c **** *
 687:Generated_Source\PSoC6/CapSense_Processing.c **** * \details
 688:Generated_Source\PSoC6/CapSense_Processing.c **** *  This API determines the type of widget and runs the appropriate function
 689:Generated_Source\PSoC6/CapSense_Processing.c **** *  that implements the status update algorithm for this type of widget.
 690:Generated_Source\PSoC6/CapSense_Processing.c **** *
 691:Generated_Source\PSoC6/CapSense_Processing.c **** *  When the widget-specific processing completes this API updates the snsStatus
 692:Generated_Source\PSoC6/CapSense_Processing.c **** *  and wdgtStatus registers in the data structure. The wdgtStatus register
 693:Generated_Source\PSoC6/CapSense_Processing.c **** *  is a bitmask were each bit corresponds to the specific widget identified by
 694:Generated_Source\PSoC6/CapSense_Processing.c **** *  the widget index. When the bit is set the widget is active (touched);
 695:Generated_Source\PSoC6/CapSense_Processing.c **** *
 696:Generated_Source\PSoC6/CapSense_Processing.c **** *  Depending on the type of widget the snsStatus register may contain either
 697:Generated_Source\PSoC6/CapSense_Processing.c **** *  status of each widget node (active/non-active) or in case of the CSX Touchpad
 698:Generated_Source\PSoC6/CapSense_Processing.c **** *  is contains the number of touches. In both cases 0 means that widget is not
 699:Generated_Source\PSoC6/CapSense_Processing.c **** *  active.
 700:Generated_Source\PSoC6/CapSense_Processing.c **** *
 701:Generated_Source\PSoC6/CapSense_Processing.c **** * \param widgetId     The widget ID number.
 702:Generated_Source\PSoC6/CapSense_Processing.c **** * \param ptrFlashWdgt The pointer to the Flash Widget Object.
 703:Generated_Source\PSoC6/CapSense_Processing.c **** *
 704:Generated_Source\PSoC6/CapSense_Processing.c **** *******************************************************************************/
 705:Generated_Source\PSoC6/CapSense_Processing.c **** void CapSense_DpProcessCsxWidgetStatus(uint32 widgetId, CapSense_FLASH_WD_STRUCT const *ptrFlashWdg
 706:Generated_Source\PSoC6/CapSense_Processing.c **** {
 707:Generated_Source\PSoC6/CapSense_Processing.c ****     uint32 sensorStatus;
 708:Generated_Source\PSoC6/CapSense_Processing.c ****     uint32 wdStatusIndex;
 709:Generated_Source\PSoC6/CapSense_Processing.c ****     uint32 wdStatusMask;
 710:Generated_Source\PSoC6/CapSense_Processing.c ****     CapSense_WD_TYPE_ENUM widgetType;
 711:Generated_Source\PSoC6/CapSense_Processing.c **** 
 712:Generated_Source\PSoC6/CapSense_Processing.c ****     widgetType = (CapSense_WD_TYPE_ENUM)ptrFlashWdgt->wdgtType;
 713:Generated_Source\PSoC6/CapSense_Processing.c ****     sensorStatus = CapSense_dsRam.snsStatus[widgetId];
 714:Generated_Source\PSoC6/CapSense_Processing.c **** 
 715:Generated_Source\PSoC6/CapSense_Processing.c ****     switch (widgetType)
 716:Generated_Source\PSoC6/CapSense_Processing.c ****     {
ARM GAS  C:\Users\Austina\AppData\Local\Temp\ccWHIwhf.s 			page 17


 717:Generated_Source\PSoC6/CapSense_Processing.c ****     #if (0u != CapSense_BUTTON_WIDGET_EN)
 718:Generated_Source\PSoC6/CapSense_Processing.c ****         case CapSense_WD_BUTTON_E:
 719:Generated_Source\PSoC6/CapSense_Processing.c ****             sensorStatus = CapSense_DpProcessButton(sensorStatus, ptrFlashWdgt);
 720:Generated_Source\PSoC6/CapSense_Processing.c ****             break;
 721:Generated_Source\PSoC6/CapSense_Processing.c ****     #endif /* #if (0u != CapSense_BUTTON_WIDGET_EN) */
 722:Generated_Source\PSoC6/CapSense_Processing.c **** 
 723:Generated_Source\PSoC6/CapSense_Processing.c ****     #if (0u != CapSense_CSX_MATRIX_WIDGET_EN)
 724:Generated_Source\PSoC6/CapSense_Processing.c ****         case CapSense_WD_MATRIX_BUTTON_E:
 725:Generated_Source\PSoC6/CapSense_Processing.c ****             sensorStatus = CapSense_DpProcessButton(sensorStatus, ptrFlashWdgt);
 726:Generated_Source\PSoC6/CapSense_Processing.c ****             break;
 727:Generated_Source\PSoC6/CapSense_Processing.c ****     #endif /* #if (0u != CapSense_CSX_MATRIX_WIDGET_EN) */
 728:Generated_Source\PSoC6/CapSense_Processing.c **** 
 729:Generated_Source\PSoC6/CapSense_Processing.c ****     #if (0u != CapSense_CSX_TOUCHPAD_WIDGET_EN)
 730:Generated_Source\PSoC6/CapSense_Processing.c ****         case CapSense_WD_TOUCHPAD_E:
 731:Generated_Source\PSoC6/CapSense_Processing.c ****             sensorStatus = CapSense_DpProcessCsxTouchpad(sensorStatus, ptrFlashWdgt);
 732:Generated_Source\PSoC6/CapSense_Processing.c ****             break;
 733:Generated_Source\PSoC6/CapSense_Processing.c ****     #endif /* #if (0u != CapSense_CSX_TOUCHPAD_WIDGET_EN) */
 734:Generated_Source\PSoC6/CapSense_Processing.c **** 
 735:Generated_Source\PSoC6/CapSense_Processing.c ****     default:
 736:Generated_Source\PSoC6/CapSense_Processing.c ****         CY_ASSERT(0 != 0);
 737:Generated_Source\PSoC6/CapSense_Processing.c ****         break;
 738:Generated_Source\PSoC6/CapSense_Processing.c ****     }
 739:Generated_Source\PSoC6/CapSense_Processing.c **** 
 740:Generated_Source\PSoC6/CapSense_Processing.c ****     /* Update sensor status in the data structure */
 741:Generated_Source\PSoC6/CapSense_Processing.c ****     CapSense_dsRam.snsStatus[widgetId] = (CapSense_SNS_STS_TYPE)sensorStatus;
 742:Generated_Source\PSoC6/CapSense_Processing.c **** 
 743:Generated_Source\PSoC6/CapSense_Processing.c ****     /* The next two lines calculate index and bitmask of the widget status bit in the wdgtStatus ar
 744:Generated_Source\PSoC6/CapSense_Processing.c ****     wdStatusIndex = CapSense_GET_WDGT_STATUS_INDEX(widgetId);
 745:Generated_Source\PSoC6/CapSense_Processing.c ****     wdStatusMask = CapSense_GET_WDGT_STATUS_MASK(widgetId);
 746:Generated_Source\PSoC6/CapSense_Processing.c **** 
 747:Generated_Source\PSoC6/CapSense_Processing.c ****     /* Check if there are active sensors and update widget status accordingly */
 748:Generated_Source\PSoC6/CapSense_Processing.c ****     if (0u == sensorStatus)
 749:Generated_Source\PSoC6/CapSense_Processing.c ****     {
 750:Generated_Source\PSoC6/CapSense_Processing.c ****         CapSense_dsRam.wdgtStatus[wdStatusIndex] &= ~wdStatusMask;
 751:Generated_Source\PSoC6/CapSense_Processing.c ****     }
 752:Generated_Source\PSoC6/CapSense_Processing.c ****     else
 753:Generated_Source\PSoC6/CapSense_Processing.c ****     {
 754:Generated_Source\PSoC6/CapSense_Processing.c ****         CapSense_dsRam.wdgtStatus[wdStatusIndex] |= wdStatusMask;
 755:Generated_Source\PSoC6/CapSense_Processing.c ****     }
 756:Generated_Source\PSoC6/CapSense_Processing.c **** }
 757:Generated_Source\PSoC6/CapSense_Processing.c **** #endif /* #if CapSense_TOTAL_CSX_WIDGETS */
 758:Generated_Source\PSoC6/CapSense_Processing.c **** 
 759:Generated_Source\PSoC6/CapSense_Processing.c **** #if (0u != CapSense_TOTAL_CSD_WIDGETS)
 760:Generated_Source\PSoC6/CapSense_Processing.c **** /*******************************************************************************
 761:Generated_Source\PSoC6/CapSense_Processing.c **** * Function Name: CapSense_DpProcessCsdWidgetRawCounts
 762:Generated_Source\PSoC6/CapSense_Processing.c **** ****************************************************************************//**
 763:Generated_Source\PSoC6/CapSense_Processing.c **** *
 764:Generated_Source\PSoC6/CapSense_Processing.c **** * \brief
 765:Generated_Source\PSoC6/CapSense_Processing.c **** *   Performs default processing for the CSD widget raw counts.
 766:Generated_Source\PSoC6/CapSense_Processing.c **** *
 767:Generated_Source\PSoC6/CapSense_Processing.c **** * \details
 768:Generated_Source\PSoC6/CapSense_Processing.c **** *   Performs default processing for the CSD widget raw counts:
 769:Generated_Source\PSoC6/CapSense_Processing.c **** *    - Run Filters
 770:Generated_Source\PSoC6/CapSense_Processing.c **** *    - Update Thresholds (FW Auto-tuning)
 771:Generated_Source\PSoC6/CapSense_Processing.c **** *    - Update Baselines
 772:Generated_Source\PSoC6/CapSense_Processing.c **** *    - Update Differences.
 773:Generated_Source\PSoC6/CapSense_Processing.c **** *   The process is applied to all widget's sensors.
ARM GAS  C:\Users\Austina\AppData\Local\Temp\ccWHIwhf.s 			page 18


 774:Generated_Source\PSoC6/CapSense_Processing.c **** *
 775:Generated_Source\PSoC6/CapSense_Processing.c **** * \param ptrFlashWdgt The pointer to the Flash Widget Object.
 776:Generated_Source\PSoC6/CapSense_Processing.c **** *
 777:Generated_Source\PSoC6/CapSense_Processing.c **** * \return
 778:Generated_Source\PSoC6/CapSense_Processing.c **** *  Returns the status of the specified widget processing operation:
 779:Generated_Source\PSoC6/CapSense_Processing.c **** *  - CY_RET_SUCCESS if operation was successfully completed;
 780:Generated_Source\PSoC6/CapSense_Processing.c **** *  - CapSense_PROCESS_BASELINE_FAILED if baseline processing of any
 781:Generated_Source\PSoC6/CapSense_Processing.c **** *    sensor of the specified widget failed. The result is concatenated with the index
 782:Generated_Source\PSoC6/CapSense_Processing.c **** *    of failed sensor.
 783:Generated_Source\PSoC6/CapSense_Processing.c **** *
 784:Generated_Source\PSoC6/CapSense_Processing.c **** *******************************************************************************/
 785:Generated_Source\PSoC6/CapSense_Processing.c **** uint32 CapSense_DpProcessCsdWidgetRawCounts(CapSense_FLASH_WD_STRUCT const *ptrFlashWdgt)
 786:Generated_Source\PSoC6/CapSense_Processing.c **** {
 787:Generated_Source\PSoC6/CapSense_Processing.c ****     uint32  result = CY_RET_SUCCESS;
 788:Generated_Source\PSoC6/CapSense_Processing.c **** 
 789:Generated_Source\PSoC6/CapSense_Processing.c ****     #if (CapSense_ENABLE == CapSense_TST_BSLN_DUPLICATION_EN)
 790:Generated_Source\PSoC6/CapSense_Processing.c ****         uint32 bslnTstResult = CY_RET_SUCCESS;
 791:Generated_Source\PSoC6/CapSense_Processing.c ****     #endif /* (CapSense_ENABLE == CapSense_TST_BSLN_DUPLICATION_EN) */
 792:Generated_Source\PSoC6/CapSense_Processing.c **** 
 793:Generated_Source\PSoC6/CapSense_Processing.c ****     uint32  widgetType;
 794:Generated_Source\PSoC6/CapSense_Processing.c ****     uint32  snsId;
 795:Generated_Source\PSoC6/CapSense_Processing.c ****     CapSense_RAM_SNS_STRUCT *ptrSnsTmp;
 796:Generated_Source\PSoC6/CapSense_Processing.c ****     CapSense_RAM_WD_BASE_STRUCT *ptrRamWdgt;
 797:Generated_Source\PSoC6/CapSense_Processing.c **** 
 798:Generated_Source\PSoC6/CapSense_Processing.c ****     #if (0u != (CapSense_CSD_AUTOTUNE & CapSense_CSD_SS_TH_EN))
 799:Generated_Source\PSoC6/CapSense_Processing.c ****         /* The noise envelope data is available only when Full CSD Auto-Tuning is enabled */
 800:Generated_Source\PSoC6/CapSense_Processing.c ****         SMARTSENSE_CSD_NOISE_ENVELOPE_STRUCT *ptrNoiseEnvelope;
 801:Generated_Source\PSoC6/CapSense_Processing.c ****         #if (CapSense_ENABLE == CapSense_PROXIMITY_WIDGET_EN)
 802:Generated_Source\PSoC6/CapSense_Processing.c ****             uint32  proximityThreshold;
 803:Generated_Source\PSoC6/CapSense_Processing.c ****         #endif /* (0 != CapSense_PROXIMITY_WIDGET_EN) */
 804:Generated_Source\PSoC6/CapSense_Processing.c ****     #endif /* #if (0u != (CapSense_CSD_AUTOTUNE & CapSense_CSD_SS_TH_EN)) */
 805:Generated_Source\PSoC6/CapSense_Processing.c **** 
 806:Generated_Source\PSoC6/CapSense_Processing.c ****     #if (CapSense_ENABLE == CapSense_RC_FILTER_EN)
 807:Generated_Source\PSoC6/CapSense_Processing.c ****         CapSense_PTR_FILTER_VARIANT fltrHistV;
 808:Generated_Source\PSoC6/CapSense_Processing.c **** 
 809:Generated_Source\PSoC6/CapSense_Processing.c ****         /* Determine if widget type is proximity */
 810:Generated_Source\PSoC6/CapSense_Processing.c ****         uint32 isProxWdgt = (CapSense_GET_WIDGET_TYPE(ptrFlashWdgt) == CapSense_WD_PROXIMITY_E) ? 1
 811:Generated_Source\PSoC6/CapSense_Processing.c **** 
 812:Generated_Source\PSoC6/CapSense_Processing.c ****         /* Get pointer to the filter history object */
 813:Generated_Source\PSoC6/CapSense_Processing.c ****         fltrHistV.ptr = ptrFlashWdgt->ptr2FltrHistory;
 814:Generated_Source\PSoC6/CapSense_Processing.c ****     #endif /* #if (CapSense_ENABLE == CapSense_RC_FILTER_EN) */
 815:Generated_Source\PSoC6/CapSense_Processing.c **** 
 816:Generated_Source\PSoC6/CapSense_Processing.c ****     ptrSnsTmp = ptrFlashWdgt->ptr2SnsRam;
 817:Generated_Source\PSoC6/CapSense_Processing.c ****     ptrRamWdgt = (CapSense_RAM_WD_BASE_STRUCT *)ptrFlashWdgt->ptr2WdgtRam;
 818:Generated_Source\PSoC6/CapSense_Processing.c ****     widgetType = ptrFlashWdgt->wdgtType;
 819:Generated_Source\PSoC6/CapSense_Processing.c **** 
 820:Generated_Source\PSoC6/CapSense_Processing.c ****     #if (0u != (CapSense_CSD_AUTOTUNE & CapSense_CSD_SS_TH_EN))
 821:Generated_Source\PSoC6/CapSense_Processing.c ****         ptrNoiseEnvelope = ptrFlashWdgt->ptr2NoiseEnvlp;
 822:Generated_Source\PSoC6/CapSense_Processing.c ****     #endif /* #if (0u != (CapSense_CSD_AUTOTUNE & CapSense_CSD_SS_TH_EN)) */
 823:Generated_Source\PSoC6/CapSense_Processing.c **** 
 824:Generated_Source\PSoC6/CapSense_Processing.c ****     /* Iterate through all widget's sensors */
 825:Generated_Source\PSoC6/CapSense_Processing.c ****     for(snsId = 0u; snsId < ptrFlashWdgt->totalNumSns; snsId++)
 826:Generated_Source\PSoC6/CapSense_Processing.c ****     {
 827:Generated_Source\PSoC6/CapSense_Processing.c ****         /* Run all enabled filter on specified widget's sensor */
 828:Generated_Source\PSoC6/CapSense_Processing.c ****         #if (CapSense_ENABLE == CapSense_RC_FILTER_EN)
 829:Generated_Source\PSoC6/CapSense_Processing.c ****             CapSense_FtRunEnabledFiltersInternal(fltrHistV, ptrSnsTmp, widgetType);
 830:Generated_Source\PSoC6/CapSense_Processing.c ****             #if (CapSense_ALP_FILTER_EN)
ARM GAS  C:\Users\Austina\AppData\Local\Temp\ccWHIwhf.s 			page 19


 831:Generated_Source\PSoC6/CapSense_Processing.c ****                 CapSense_ConfigRunALPInternal(fltrHistV, ptrRamWdgt, ptrSnsTmp, widgetType);
 832:Generated_Source\PSoC6/CapSense_Processing.c ****             #endif
 833:Generated_Source\PSoC6/CapSense_Processing.c ****         #endif /* #if (CapSense_ENABLE == CapSense_RC_FILTER_EN) */
 834:Generated_Source\PSoC6/CapSense_Processing.c **** 
 835:Generated_Source\PSoC6/CapSense_Processing.c ****         /* Run auto-tuning activities */
 836:Generated_Source\PSoC6/CapSense_Processing.c ****         #if (0u != (CapSense_CSD_AUTOTUNE & CapSense_CSD_SS_TH_EN))
 837:Generated_Source\PSoC6/CapSense_Processing.c ****             SmartSense_RunNoiseEnvelope(ptrSnsTmp->raw[0u], ptrRamWdgt->sigPFC, ptrNoiseEnvelope);
 838:Generated_Source\PSoC6/CapSense_Processing.c ****             CapSense_DpUpdateThresholds(ptrRamWdgt, ptrNoiseEnvelope, snsId);
 839:Generated_Source\PSoC6/CapSense_Processing.c **** 
 840:Generated_Source\PSoC6/CapSense_Processing.c ****             /* Calculate Proximity Touch Threshold in SmartSense mode based on Finger Threshold and
 841:Generated_Source\PSoC6/CapSense_Processing.c ****             #if (CapSense_ENABLE == CapSense_PROXIMITY_WIDGET_EN)
 842:Generated_Source\PSoC6/CapSense_Processing.c ****                 if (CapSense_WD_PROXIMITY_E == CapSense_GET_WIDGET_TYPE(ptrFlashWdgt))
 843:Generated_Source\PSoC6/CapSense_Processing.c ****                 {
 844:Generated_Source\PSoC6/CapSense_Processing.c ****                     proximityThreshold = ((uint32)ptrRamWdgt->fingerTh * CapSense_PROX_TOUCH_COEFF)
 845:Generated_Source\PSoC6/CapSense_Processing.c ****                     if ((((1Lu) << CapSense_THRESHOLD_SIZE) - 1u) < proximityThreshold)
 846:Generated_Source\PSoC6/CapSense_Processing.c ****                     {
 847:Generated_Source\PSoC6/CapSense_Processing.c ****                         proximityThreshold = ((1Lu) << CapSense_THRESHOLD_SIZE) - 1u;
 848:Generated_Source\PSoC6/CapSense_Processing.c ****                     }
 849:Generated_Source\PSoC6/CapSense_Processing.c ****                     ((CapSense_RAM_WD_PROXIMITY_STRUCT *)ptrFlashWdgt->ptr2WdgtRam)->proxTouchTh =
 850:Generated_Source\PSoC6/CapSense_Processing.c ****                         (CapSense_THRESHOLD_TYPE)proximityThreshold;
 851:Generated_Source\PSoC6/CapSense_Processing.c ****                 }
 852:Generated_Source\PSoC6/CapSense_Processing.c ****             #endif /* (0 != CapSense_PROXIMITY_WIDGET_EN) */
 853:Generated_Source\PSoC6/CapSense_Processing.c **** 
 854:Generated_Source\PSoC6/CapSense_Processing.c ****             /* Move to next noise-envelope object */
 855:Generated_Source\PSoC6/CapSense_Processing.c ****             ptrNoiseEnvelope++;
 856:Generated_Source\PSoC6/CapSense_Processing.c ****         #endif /* (0u != (CapSense_CSD_AUTOTUNE & CapSense_CSD_SS_TH_EN)) */
 857:Generated_Source\PSoC6/CapSense_Processing.c **** 
 858:Generated_Source\PSoC6/CapSense_Processing.c ****         #if (CapSense_ENABLE == CapSense_TST_BSLN_DUPLICATION_EN)
 859:Generated_Source\PSoC6/CapSense_Processing.c ****             bslnTstResult = CapSense_FtUpdateBaseline(ptrRamWdgt, ptrSnsTmp, widgetType);
 860:Generated_Source\PSoC6/CapSense_Processing.c ****             if ((CY_RET_SUCCESS != bslnTstResult) && (CY_RET_SUCCESS == result))
 861:Generated_Source\PSoC6/CapSense_Processing.c ****             {
 862:Generated_Source\PSoC6/CapSense_Processing.c ****                 result = snsId | CapSense_PROCESS_BASELINE_FAILED;
 863:Generated_Source\PSoC6/CapSense_Processing.c ****             }
 864:Generated_Source\PSoC6/CapSense_Processing.c ****         #else /* (CapSense_ENABLE == CapSense_TST_BSLN_DUPLICATION_EN) */
 865:Generated_Source\PSoC6/CapSense_Processing.c ****             result = CapSense_FtUpdateBaseline(ptrRamWdgt, ptrSnsTmp, widgetType);
 866:Generated_Source\PSoC6/CapSense_Processing.c ****         #endif /* (CapSense_ENABLE == CapSense_TST_BSLN_DUPLICATION_EN) */
 867:Generated_Source\PSoC6/CapSense_Processing.c **** 
 868:Generated_Source\PSoC6/CapSense_Processing.c ****         CapSense_DpUpdateDifferences(ptrRamWdgt, ptrSnsTmp);
 869:Generated_Source\PSoC6/CapSense_Processing.c **** 
 870:Generated_Source\PSoC6/CapSense_Processing.c ****         /* Move to next sensor object */
 871:Generated_Source\PSoC6/CapSense_Processing.c ****         ptrSnsTmp++;
 872:Generated_Source\PSoC6/CapSense_Processing.c **** 
 873:Generated_Source\PSoC6/CapSense_Processing.c ****         #if (CapSense_ENABLE == CapSense_RC_FILTER_EN)
 874:Generated_Source\PSoC6/CapSense_Processing.c ****             /* Move to the next filter history object */
 875:Generated_Source\PSoC6/CapSense_Processing.c ****             CapSense_INC_FLTR_OBJ_VARIANT(isProxWdgt, fltrHistV);
 876:Generated_Source\PSoC6/CapSense_Processing.c ****         #endif /* #if (CapSense_ENABLE == CapSense_RC_FILTER_EN) */
 877:Generated_Source\PSoC6/CapSense_Processing.c ****     }
 878:Generated_Source\PSoC6/CapSense_Processing.c ****     return result;
 879:Generated_Source\PSoC6/CapSense_Processing.c **** }
 880:Generated_Source\PSoC6/CapSense_Processing.c **** 
 881:Generated_Source\PSoC6/CapSense_Processing.c **** 
 882:Generated_Source\PSoC6/CapSense_Processing.c **** /*******************************************************************************
 883:Generated_Source\PSoC6/CapSense_Processing.c **** * Function Name: CapSense_DpProcessCsdSensorRawCountsExt
 884:Generated_Source\PSoC6/CapSense_Processing.c **** ****************************************************************************//**
 885:Generated_Source\PSoC6/CapSense_Processing.c **** *
 886:Generated_Source\PSoC6/CapSense_Processing.c **** * \brief
 887:Generated_Source\PSoC6/CapSense_Processing.c **** *   Performs customized processing of the CSD sensor raw counts.
ARM GAS  C:\Users\Austina\AppData\Local\Temp\ccWHIwhf.s 			page 20


 888:Generated_Source\PSoC6/CapSense_Processing.c **** *
 889:Generated_Source\PSoC6/CapSense_Processing.c **** * \details
 890:Generated_Source\PSoC6/CapSense_Processing.c **** *   Performs customized processing of the CSD sensor raw counts.
 891:Generated_Source\PSoC6/CapSense_Processing.c **** *
 892:Generated_Source\PSoC6/CapSense_Processing.c **** *   Note that this API updates data associated only with the sensor. It cannot be used to update
 893:Generated_Source\PSoC6/CapSense_Processing.c **** *   widget status.
 894:Generated_Source\PSoC6/CapSense_Processing.c **** *
 895:Generated_Source\PSoC6/CapSense_Processing.c **** * \param ptrFlashWdgt The pointer to the Flash widget structure.
 896:Generated_Source\PSoC6/CapSense_Processing.c **** * \param curSnsPtr    The pointer to the sensor object in RAM.
 897:Generated_Source\PSoC6/CapSense_Processing.c **** * \param fltrHistV    The pointer to the Filter History Object in RAM.
 898:Generated_Source\PSoC6/CapSense_Processing.c **** * \param mode         The bit-mask with the data processing tasks to be executed.
 899:Generated_Source\PSoC6/CapSense_Processing.c **** *   The mode parameters can take the following values:
 900:Generated_Source\PSoC6/CapSense_Processing.c **** *    - CapSense_PROCESS_FILTER     (0x01) Run Firmware Filter
 901:Generated_Source\PSoC6/CapSense_Processing.c **** *    - CapSense_PROCESS_BASELINE   (0x02) Update Baselines
 902:Generated_Source\PSoC6/CapSense_Processing.c **** *    - CapSense_PROCESS_DIFFCOUNTS (0x04) Update Difference Counts
 903:Generated_Source\PSoC6/CapSense_Processing.c **** *    - CapSense_PROCESS_CALC_NOISE (0x08) Calculate Noise (only if FW Tuning is enabled)
 904:Generated_Source\PSoC6/CapSense_Processing.c **** *    - CapSense_PROCESS_THRESHOLDS (0x10) Update Thresholds (only if FW Tuning is enabled)
 905:Generated_Source\PSoC6/CapSense_Processing.c **** *    - CapSense_PROCESS_ALL               Execute all tasks
 906:Generated_Source\PSoC6/CapSense_Processing.c **** *
 907:Generated_Source\PSoC6/CapSense_Processing.c **** * \return
 908:Generated_Source\PSoC6/CapSense_Processing.c **** *  Returns the status of the specified sensor processing operation:
 909:Generated_Source\PSoC6/CapSense_Processing.c **** *  - CY_RET_SUCCESS if operation was successfully completed;
 910:Generated_Source\PSoC6/CapSense_Processing.c **** *  - CapSense_PROCESS_BASELINE_FAILED if baseline processing of any
 911:Generated_Source\PSoC6/CapSense_Processing.c **** *    sensor of the specified widget failed. The result is concatenated with the index
 912:Generated_Source\PSoC6/CapSense_Processing.c **** *    of failed sensor.
 913:Generated_Source\PSoC6/CapSense_Processing.c **** *
 914:Generated_Source\PSoC6/CapSense_Processing.c **** *******************************************************************************/
 915:Generated_Source\PSoC6/CapSense_Processing.c **** uint32 CapSense_DpProcessCsdSensorRawCountsExt(
 916:Generated_Source\PSoC6/CapSense_Processing.c ****                 CapSense_FLASH_WD_STRUCT const *ptrFlashWdgt,
 917:Generated_Source\PSoC6/CapSense_Processing.c ****                 CapSense_RAM_SNS_STRUCT *curSnsPtr,
 918:Generated_Source\PSoC6/CapSense_Processing.c ****                 CapSense_PTR_FILTER_VARIANT fltrHistV,
 919:Generated_Source\PSoC6/CapSense_Processing.c ****                  uint32 mode)
 920:Generated_Source\PSoC6/CapSense_Processing.c **** {
 921:Generated_Source\PSoC6/CapSense_Processing.c ****     uint32 result = CY_RET_SUCCESS;
 922:Generated_Source\PSoC6/CapSense_Processing.c ****     uint32  widgetType;
 923:Generated_Source\PSoC6/CapSense_Processing.c ****     CapSense_RAM_WD_BASE_STRUCT *ptrRamWdgt;
 924:Generated_Source\PSoC6/CapSense_Processing.c **** 
 925:Generated_Source\PSoC6/CapSense_Processing.c ****     #if (0u != (CapSense_CSD_AUTOTUNE & CapSense_CSD_SS_TH_EN))
 926:Generated_Source\PSoC6/CapSense_Processing.c ****         SMARTSENSE_CSD_NOISE_ENVELOPE_STRUCT *ptrNoiseEnvelope;
 927:Generated_Source\PSoC6/CapSense_Processing.c ****         #if (CapSense_ENABLE == CapSense_PROXIMITY_WIDGET_EN)
 928:Generated_Source\PSoC6/CapSense_Processing.c ****             uint32  proximityThreshold;
 929:Generated_Source\PSoC6/CapSense_Processing.c ****         #endif /* (0 != CapSense_PROXIMITY_WIDGET_EN) */
 930:Generated_Source\PSoC6/CapSense_Processing.c **** 
 931:Generated_Source\PSoC6/CapSense_Processing.c ****         /* Need to specify pointer to corresponding sensor's noise-envelope object.*/
 932:Generated_Source\PSoC6/CapSense_Processing.c ****         ptrNoiseEnvelope = ptrFlashWdgt->ptr2NoiseEnvlp;
 933:Generated_Source\PSoC6/CapSense_Processing.c ****     #endif /* (0u != (CapSense_CSD_AUTOTUNE & CapSense_CSD_SS_TH_EN)) */
 934:Generated_Source\PSoC6/CapSense_Processing.c **** 
 935:Generated_Source\PSoC6/CapSense_Processing.c ****     widgetType = ptrFlashWdgt->wdgtType;
 936:Generated_Source\PSoC6/CapSense_Processing.c ****     ptrRamWdgt = (CapSense_RAM_WD_BASE_STRUCT *)ptrFlashWdgt->ptr2WdgtRam;
 937:Generated_Source\PSoC6/CapSense_Processing.c **** 
 938:Generated_Source\PSoC6/CapSense_Processing.c ****     #if (CapSense_ENABLE == CapSense_RC_FILTER_EN)
 939:Generated_Source\PSoC6/CapSense_Processing.c ****         if (0u != (mode & CapSense_PROCESS_FILTER))
 940:Generated_Source\PSoC6/CapSense_Processing.c ****         {
 941:Generated_Source\PSoC6/CapSense_Processing.c ****             CapSense_FtRunEnabledFiltersInternal(fltrHistV, curSnsPtr, widgetType);
 942:Generated_Source\PSoC6/CapSense_Processing.c ****             #if (CapSense_ALP_FILTER_EN)
 943:Generated_Source\PSoC6/CapSense_Processing.c ****                 CapSense_ConfigRunALPInternal(fltrHistV, ptrRamWdgt, curSnsPtr, widgetType);
 944:Generated_Source\PSoC6/CapSense_Processing.c ****             #endif
ARM GAS  C:\Users\Austina\AppData\Local\Temp\ccWHIwhf.s 			page 21


 945:Generated_Source\PSoC6/CapSense_Processing.c ****         }
 946:Generated_Source\PSoC6/CapSense_Processing.c ****     #else
 947:Generated_Source\PSoC6/CapSense_Processing.c ****         (void)fltrHistV; /* This parameter is unused in such configurations */
 948:Generated_Source\PSoC6/CapSense_Processing.c ****     #endif /* #if (CapSense_ENABLE == CapSense_RC_FILTER_EN) */
 949:Generated_Source\PSoC6/CapSense_Processing.c **** 
 950:Generated_Source\PSoC6/CapSense_Processing.c ****     #if (0u != (CapSense_CSD_AUTOTUNE & CapSense_CSD_SS_TH_EN))
 951:Generated_Source\PSoC6/CapSense_Processing.c ****         if (0u != (mode & CapSense_PROCESS_CALC_NOISE))
 952:Generated_Source\PSoC6/CapSense_Processing.c ****         {
 953:Generated_Source\PSoC6/CapSense_Processing.c ****             SmartSense_RunNoiseEnvelope(curSnsPtr->raw[0u], ptrRamWdgt->sigPFC, ptrNoiseEnvelope);
 954:Generated_Source\PSoC6/CapSense_Processing.c ****         }
 955:Generated_Source\PSoC6/CapSense_Processing.c **** 
 956:Generated_Source\PSoC6/CapSense_Processing.c ****         if (0u != (mode & CapSense_PROCESS_THRESHOLDS))
 957:Generated_Source\PSoC6/CapSense_Processing.c ****         {
 958:Generated_Source\PSoC6/CapSense_Processing.c ****             CapSense_DpUpdateThresholds(ptrRamWdgt, ptrNoiseEnvelope, 0u);
 959:Generated_Source\PSoC6/CapSense_Processing.c **** 
 960:Generated_Source\PSoC6/CapSense_Processing.c ****             /* Calculate Proximity Touch Threshold in SmartSense mode based on Finger Threshold and
 961:Generated_Source\PSoC6/CapSense_Processing.c ****             #if (CapSense_ENABLE == CapSense_PROXIMITY_WIDGET_EN)
 962:Generated_Source\PSoC6/CapSense_Processing.c ****                 if (CapSense_WD_PROXIMITY_E == CapSense_GET_WIDGET_TYPE(ptrFlashWdgt))
 963:Generated_Source\PSoC6/CapSense_Processing.c ****                 {
 964:Generated_Source\PSoC6/CapSense_Processing.c ****                     proximityThreshold = ((uint32)ptrRamWdgt->fingerTh * CapSense_PROX_TOUCH_COEFF)
 965:Generated_Source\PSoC6/CapSense_Processing.c ****                     if ((((1Lu) << CapSense_THRESHOLD_SIZE) - 1u) < proximityThreshold)
 966:Generated_Source\PSoC6/CapSense_Processing.c ****                     {
 967:Generated_Source\PSoC6/CapSense_Processing.c ****                         proximityThreshold = ((1Lu) << CapSense_THRESHOLD_SIZE) - 1u;
 968:Generated_Source\PSoC6/CapSense_Processing.c ****                     }
 969:Generated_Source\PSoC6/CapSense_Processing.c ****                     ((CapSense_RAM_WD_PROXIMITY_STRUCT *)ptrFlashWdgt->ptr2WdgtRam)->proxTouchTh =
 970:Generated_Source\PSoC6/CapSense_Processing.c ****                         (CapSense_THRESHOLD_TYPE)proximityThreshold;
 971:Generated_Source\PSoC6/CapSense_Processing.c ****                 }
 972:Generated_Source\PSoC6/CapSense_Processing.c ****             #endif /* (0 != CapSense_PROXIMITY_WIDGET_EN) */
 973:Generated_Source\PSoC6/CapSense_Processing.c ****         }
 974:Generated_Source\PSoC6/CapSense_Processing.c ****     #endif /* #if (0u != (CapSense_CSD_AUTOTUNE & CapSense_CSD_SS_TH_EN)) */
 975:Generated_Source\PSoC6/CapSense_Processing.c **** 
 976:Generated_Source\PSoC6/CapSense_Processing.c ****     if (0u != (mode & CapSense_PROCESS_BASELINE))
 977:Generated_Source\PSoC6/CapSense_Processing.c ****     {
 978:Generated_Source\PSoC6/CapSense_Processing.c ****         result = CapSense_FtUpdateBaseline(ptrRamWdgt, curSnsPtr, widgetType);
 979:Generated_Source\PSoC6/CapSense_Processing.c ****     }
 980:Generated_Source\PSoC6/CapSense_Processing.c **** 
 981:Generated_Source\PSoC6/CapSense_Processing.c ****     if (0u != (mode & CapSense_PROCESS_DIFFCOUNTS))
 982:Generated_Source\PSoC6/CapSense_Processing.c ****     {
 983:Generated_Source\PSoC6/CapSense_Processing.c ****         CapSense_DpUpdateDifferences(ptrRamWdgt, curSnsPtr);
 984:Generated_Source\PSoC6/CapSense_Processing.c ****     }
 985:Generated_Source\PSoC6/CapSense_Processing.c ****     return result;
 986:Generated_Source\PSoC6/CapSense_Processing.c **** }
 987:Generated_Source\PSoC6/CapSense_Processing.c **** 
 988:Generated_Source\PSoC6/CapSense_Processing.c **** /*******************************************************************************
 989:Generated_Source\PSoC6/CapSense_Processing.c **** * Function Name: CapSense_DpProcessCsdWidgetStatus
 990:Generated_Source\PSoC6/CapSense_Processing.c **** ****************************************************************************//**
 991:Generated_Source\PSoC6/CapSense_Processing.c **** *
 992:Generated_Source\PSoC6/CapSense_Processing.c **** * \brief
 993:Generated_Source\PSoC6/CapSense_Processing.c **** *  Runs the status processing of the CSD widget and updates it in the Data Structure.
 994:Generated_Source\PSoC6/CapSense_Processing.c **** *
 995:Generated_Source\PSoC6/CapSense_Processing.c **** * \details
 996:Generated_Source\PSoC6/CapSense_Processing.c **** *  This API determines the widget type and calls the appropriate low-level processing
 997:Generated_Source\PSoC6/CapSense_Processing.c **** *  function. Based on the returned results it updates the widget and sensor
 998:Generated_Source\PSoC6/CapSense_Processing.c **** *  status in the data structure. Any widget specific registers like the centroid
 999:Generated_Source\PSoC6/CapSense_Processing.c **** *  position are updated directly in the low-level processing function.
1000:Generated_Source\PSoC6/CapSense_Processing.c **** *
1001:Generated_Source\PSoC6/CapSense_Processing.c **** *  When the widget-specific processing completes this API updates the snsStatus
ARM GAS  C:\Users\Austina\AppData\Local\Temp\ccWHIwhf.s 			page 22


1002:Generated_Source\PSoC6/CapSense_Processing.c **** *  and wdgtStatus registers in the data structure. The wdgtStatus register
1003:Generated_Source\PSoC6/CapSense_Processing.c **** *  is a bitmask were each bit corresponds to the specific widget identified by
1004:Generated_Source\PSoC6/CapSense_Processing.c **** *  the widget index. When the bit is set the widget is active (touched);
1005:Generated_Source\PSoC6/CapSense_Processing.c **** *
1006:Generated_Source\PSoC6/CapSense_Processing.c **** *  The snsStatus register for CSD widgets contains status of each widget sensor
1007:Generated_Source\PSoC6/CapSense_Processing.c **** *  (active/non-active). Each bit corresponds to one sensor. In case of the
1008:Generated_Source\PSoC6/CapSense_Processing.c **** *  Proximity widget two bits are used per sensor: one for proximity status and
1009:Generated_Source\PSoC6/CapSense_Processing.c **** *  second for the touch status.
1010:Generated_Source\PSoC6/CapSense_Processing.c **** *
1011:Generated_Source\PSoC6/CapSense_Processing.c **** * \param widgetId      The widget index number.
1012:Generated_Source\PSoC6/CapSense_Processing.c **** * \param ptrFlashWdgt  The pointer to the Flash widget structure.
1013:Generated_Source\PSoC6/CapSense_Processing.c **** *
1014:Generated_Source\PSoC6/CapSense_Processing.c **** *******************************************************************************/
1015:Generated_Source\PSoC6/CapSense_Processing.c **** void CapSense_DpProcessCsdWidgetStatus(uint32 widgetId, CapSense_FLASH_WD_STRUCT const *ptrFlashWdg
1016:Generated_Source\PSoC6/CapSense_Processing.c **** {
1017:Generated_Source\PSoC6/CapSense_Processing.c ****     uint32 sensorStatus;
1018:Generated_Source\PSoC6/CapSense_Processing.c ****     uint32 wdStatusIndex;
1019:Generated_Source\PSoC6/CapSense_Processing.c ****     uint32 wdStatusMask;
1020:Generated_Source\PSoC6/CapSense_Processing.c ****     CapSense_WD_TYPE_ENUM widgetType;
1021:Generated_Source\PSoC6/CapSense_Processing.c **** 
1022:Generated_Source\PSoC6/CapSense_Processing.c ****     widgetType = (CapSense_WD_TYPE_ENUM)ptrFlashWdgt->wdgtType;
1023:Generated_Source\PSoC6/CapSense_Processing.c ****     sensorStatus = CapSense_dsRam.snsStatus[widgetId];
1024:Generated_Source\PSoC6/CapSense_Processing.c **** 
1025:Generated_Source\PSoC6/CapSense_Processing.c ****     switch (widgetType)
1026:Generated_Source\PSoC6/CapSense_Processing.c ****     {
1027:Generated_Source\PSoC6/CapSense_Processing.c ****     #if (0u != CapSense_BUTTON_WIDGET_EN)
1028:Generated_Source\PSoC6/CapSense_Processing.c ****         case CapSense_WD_BUTTON_E:
1029:Generated_Source\PSoC6/CapSense_Processing.c ****             sensorStatus = CapSense_DpProcessButton(sensorStatus, ptrFlashWdgt);
1030:Generated_Source\PSoC6/CapSense_Processing.c ****             break;
1031:Generated_Source\PSoC6/CapSense_Processing.c ****     #endif /* #if (0u != CapSense_BUTTON_WIDGET_EN) */
1032:Generated_Source\PSoC6/CapSense_Processing.c **** 
1033:Generated_Source\PSoC6/CapSense_Processing.c ****     #if (0u != CapSense_SLIDER_WIDGET_EN)
1034:Generated_Source\PSoC6/CapSense_Processing.c ****         case CapSense_WD_LINEAR_SLIDER_E:
1035:Generated_Source\PSoC6/CapSense_Processing.c ****         case CapSense_WD_RADIAL_SLIDER_E:
1036:Generated_Source\PSoC6/CapSense_Processing.c ****             sensorStatus = CapSense_DpProcessSlider(sensorStatus, ptrFlashWdgt);
1037:Generated_Source\PSoC6/CapSense_Processing.c ****             break;
1038:Generated_Source\PSoC6/CapSense_Processing.c ****     #endif /* #if (0u != CapSense_SLIDER_WIDGET_EN) */
1039:Generated_Source\PSoC6/CapSense_Processing.c **** 
1040:Generated_Source\PSoC6/CapSense_Processing.c ****     #if (0u != CapSense_CSD_MATRIX_WIDGET_EN)
1041:Generated_Source\PSoC6/CapSense_Processing.c ****         case CapSense_WD_MATRIX_BUTTON_E:
1042:Generated_Source\PSoC6/CapSense_Processing.c ****             sensorStatus = CapSense_DpProcessCsdMatrix(sensorStatus, ptrFlashWdgt);
1043:Generated_Source\PSoC6/CapSense_Processing.c ****             break;
1044:Generated_Source\PSoC6/CapSense_Processing.c ****     #endif /* #if (0u != CapSense_CSD_MATRIX_WIDGET_EN) */
1045:Generated_Source\PSoC6/CapSense_Processing.c **** 
1046:Generated_Source\PSoC6/CapSense_Processing.c ****     #if (0u != CapSense_CSD_TOUCHPAD_WIDGET_EN)
1047:Generated_Source\PSoC6/CapSense_Processing.c ****         case CapSense_WD_TOUCHPAD_E:
1048:Generated_Source\PSoC6/CapSense_Processing.c ****             sensorStatus = CapSense_DpProcessCsdTouchpad(sensorStatus, ptrFlashWdgt);
1049:Generated_Source\PSoC6/CapSense_Processing.c ****             #if (0u != CapSense_BALLISTIC_MULTIPLIER_EN)
1050:Generated_Source\PSoC6/CapSense_Processing.c ****                 CapSense_RunBallisticMultiplier(widgetId);
1051:Generated_Source\PSoC6/CapSense_Processing.c ****             #endif /* (0u != CapSense_BALLISTIC_MULTIPLIER_EN) */
1052:Generated_Source\PSoC6/CapSense_Processing.c ****             break;
1053:Generated_Source\PSoC6/CapSense_Processing.c ****     #endif /* #if (0u != CapSense_CSD_TOUCHPAD_WIDGET_EN) */
1054:Generated_Source\PSoC6/CapSense_Processing.c **** 
1055:Generated_Source\PSoC6/CapSense_Processing.c ****     #if (0u != CapSense_PROXIMITY_WIDGET_EN)
1056:Generated_Source\PSoC6/CapSense_Processing.c ****         case CapSense_WD_PROXIMITY_E:
1057:Generated_Source\PSoC6/CapSense_Processing.c ****             sensorStatus = CapSense_DpProcessProximity(sensorStatus, ptrFlashWdgt);
1058:Generated_Source\PSoC6/CapSense_Processing.c ****             break;
ARM GAS  C:\Users\Austina\AppData\Local\Temp\ccWHIwhf.s 			page 23


1059:Generated_Source\PSoC6/CapSense_Processing.c ****     #endif /* #if (0u != CapSense_PROXIMITY_WIDGET_EN) */
1060:Generated_Source\PSoC6/CapSense_Processing.c **** 
1061:Generated_Source\PSoC6/CapSense_Processing.c ****     default:
1062:Generated_Source\PSoC6/CapSense_Processing.c ****         CY_ASSERT(0 != 0);
1063:Generated_Source\PSoC6/CapSense_Processing.c ****         break;
1064:Generated_Source\PSoC6/CapSense_Processing.c ****     }
1065:Generated_Source\PSoC6/CapSense_Processing.c **** 
1066:Generated_Source\PSoC6/CapSense_Processing.c ****     CapSense_dsRam.snsStatus[widgetId] = (CapSense_SNS_STS_TYPE)sensorStatus;
1067:Generated_Source\PSoC6/CapSense_Processing.c **** 
1068:Generated_Source\PSoC6/CapSense_Processing.c ****     /* The next two lines calculate index and bitmask of the widget status bit in the wdgtStatus ar
1069:Generated_Source\PSoC6/CapSense_Processing.c ****     wdStatusIndex = CapSense_GET_WDGT_STATUS_INDEX(widgetId);
1070:Generated_Source\PSoC6/CapSense_Processing.c ****     wdStatusMask = CapSense_GET_WDGT_STATUS_MASK(widgetId);
1071:Generated_Source\PSoC6/CapSense_Processing.c **** 
1072:Generated_Source\PSoC6/CapSense_Processing.c ****     /* Check if there are active sensors and update widget status accordingly */
1073:Generated_Source\PSoC6/CapSense_Processing.c ****     if (0u == sensorStatus)
1074:Generated_Source\PSoC6/CapSense_Processing.c ****     {
1075:Generated_Source\PSoC6/CapSense_Processing.c ****         CapSense_dsRam.wdgtStatus[wdStatusIndex] &= ~wdStatusMask;
1076:Generated_Source\PSoC6/CapSense_Processing.c ****     }
1077:Generated_Source\PSoC6/CapSense_Processing.c ****     else
1078:Generated_Source\PSoC6/CapSense_Processing.c ****     {
1079:Generated_Source\PSoC6/CapSense_Processing.c ****         CapSense_dsRam.wdgtStatus[wdStatusIndex] |= wdStatusMask;
1080:Generated_Source\PSoC6/CapSense_Processing.c ****     }
1081:Generated_Source\PSoC6/CapSense_Processing.c **** }
1082:Generated_Source\PSoC6/CapSense_Processing.c **** #endif /* #if (0u != CapSense_TOTAL_CSD_WIDGETS) */
1083:Generated_Source\PSoC6/CapSense_Processing.c **** 
1084:Generated_Source\PSoC6/CapSense_Processing.c **** 
1085:Generated_Source\PSoC6/CapSense_Processing.c **** #if (0 != (CapSense_CSD_AUTOTUNE & CapSense_CSD_SS_TH_EN))
1086:Generated_Source\PSoC6/CapSense_Processing.c **** /*******************************************************************************
1087:Generated_Source\PSoC6/CapSense_Processing.c **** * Function Name: CapSense_DpUpdateThresholds
1088:Generated_Source\PSoC6/CapSense_Processing.c **** ****************************************************************************//**
1089:Generated_Source\PSoC6/CapSense_Processing.c **** *
1090:Generated_Source\PSoC6/CapSense_Processing.c **** * \brief
1091:Generated_Source\PSoC6/CapSense_Processing.c **** *   Updates noise and finger thresholds for a specified widget.
1092:Generated_Source\PSoC6/CapSense_Processing.c **** *
1093:Generated_Source\PSoC6/CapSense_Processing.c **** * \details
1094:Generated_Source\PSoC6/CapSense_Processing.c **** *   Updates noise and finger thresholds for a specified widget.
1095:Generated_Source\PSoC6/CapSense_Processing.c **** *   This algorithm is a part of Auto-tuning feature.
1096:Generated_Source\PSoC6/CapSense_Processing.c **** *
1097:Generated_Source\PSoC6/CapSense_Processing.c **** * \param ptrRamWdgt       The pointer to the RAM widget object.
1098:Generated_Source\PSoC6/CapSense_Processing.c **** * \param ptrNoiseEnvelope The pointer to the noise-envelope object in RAM.
1099:Generated_Source\PSoC6/CapSense_Processing.c **** * \param startFlag        The flag indicates when new widget is processed.
1100:Generated_Source\PSoC6/CapSense_Processing.c **** *
1101:Generated_Source\PSoC6/CapSense_Processing.c **** *******************************************************************************/
1102:Generated_Source\PSoC6/CapSense_Processing.c **** void CapSense_DpUpdateThresholds(CapSense_RAM_WD_BASE_STRUCT *ptrRamWdgt,
1103:Generated_Source\PSoC6/CapSense_Processing.c ****                                          SMARTSENSE_CSD_NOISE_ENVELOPE_STRUCT *ptrNoiseEnvelope,
1104:Generated_Source\PSoC6/CapSense_Processing.c ****                                          uint32 startFlag)
1105:Generated_Source\PSoC6/CapSense_Processing.c **** {
 188              		.loc 1 1105 0
 189              		.cfi_startproc
 190              		@ args = 0, pretend = 0, frame = 8
 191              		@ frame_needed = 0, uses_anonymous_args = 0
 192              	.LVL22:
 193 0000 10B5     		push	{r4, lr}
 194              		.cfi_def_cfa_offset 8
 195              		.cfi_offset 4, -8
 196              		.cfi_offset 14, -4
 197 0002 82B0     		sub	sp, sp, #8
ARM GAS  C:\Users\Austina\AppData\Local\Temp\ccWHIwhf.s 			page 24


 198              		.cfi_def_cfa_offset 16
 199 0004 0400     		movs	r4, r0
 200 0006 0800     		movs	r0, r1
 201              	.LVL23:
 202 0008 1300     		movs	r3, r2
 203              	.LVL24:
1106:Generated_Source\PSoC6/CapSense_Processing.c ****     SMARTSENSE_UPDATE_THRESHOLDS_STRUCT thresholds;
1107:Generated_Source\PSoC6/CapSense_Processing.c ****     SMARTSENSE_UPDATE_THRESHOLDS_STRUCT *ptrThresholds = &thresholds;
1108:Generated_Source\PSoC6/CapSense_Processing.c ****     ptrThresholds->fingerTh = ptrRamWdgt->fingerTh;
 204              		.loc 1 1108 0
 205 000a 6288     		ldrh	r2, [r4, #2]
 206              	.LVL25:
 207 000c 6946     		mov	r1, sp
 208              	.LVL26:
 209 000e 0A80     		strh	r2, [r1]
1109:Generated_Source\PSoC6/CapSense_Processing.c **** 
1110:Generated_Source\PSoC6/CapSense_Processing.c ****     SmartSense_UpdateThresholds(ptrNoiseEnvelope, ptrThresholds, ptrRamWdgt->sigPFC, startFlag);
 210              		.loc 1 1110 0
 211 0010 228A     		ldrh	r2, [r4, #16]
 212 0012 FFF7FEFF 		bl	SmartSense_UpdateThresholds
 213              	.LVL27:
1111:Generated_Source\PSoC6/CapSense_Processing.c **** 
1112:Generated_Source\PSoC6/CapSense_Processing.c ****     ptrRamWdgt->fingerTh = ptrThresholds->fingerTh;
 214              		.loc 1 1112 0
 215 0016 6B46     		mov	r3, sp
 216 0018 1B88     		ldrh	r3, [r3]
 217 001a 6380     		strh	r3, [r4, #2]
1113:Generated_Source\PSoC6/CapSense_Processing.c ****     ptrRamWdgt->noiseTh = ptrThresholds->noiseTh;
 218              		.loc 1 1113 0
 219 001c 6B46     		mov	r3, sp
 220 001e 9B78     		ldrb	r3, [r3, #2]
 221 0020 2371     		strb	r3, [r4, #4]
1114:Generated_Source\PSoC6/CapSense_Processing.c ****     ptrRamWdgt->nNoiseTh = ptrThresholds->nNoiseTh;
 222              		.loc 1 1114 0
 223 0022 6B46     		mov	r3, sp
 224 0024 DB78     		ldrb	r3, [r3, #3]
 225 0026 6371     		strb	r3, [r4, #5]
1115:Generated_Source\PSoC6/CapSense_Processing.c ****     ptrRamWdgt->hysteresis = ptrThresholds->hysteresis;
 226              		.loc 1 1115 0
 227 0028 6B46     		mov	r3, sp
 228 002a 1B79     		ldrb	r3, [r3, #4]
 229 002c A371     		strb	r3, [r4, #6]
1116:Generated_Source\PSoC6/CapSense_Processing.c **** }
 230              		.loc 1 1116 0
 231 002e 02B0     		add	sp, sp, #8
 232              	.LVL28:
 233              		@ sp needed
 234              	.LVL29:
 235 0030 10BD     		pop	{r4, pc}
 236              		.cfi_endproc
 237              	.LFE44:
 238              		.size	CapSense_DpUpdateThresholds, .-CapSense_DpUpdateThresholds
 239 0032 C046     		.section	.text.CapSense_DpUpdateDifferences,"ax",%progbits
 240              		.align	2
 241              		.global	CapSense_DpUpdateDifferences
 242              		.code	16
 243              		.thumb_func
ARM GAS  C:\Users\Austina\AppData\Local\Temp\ccWHIwhf.s 			page 25


 244              		.type	CapSense_DpUpdateDifferences, %function
 245              	CapSense_DpUpdateDifferences:
 246              	.LFB45:
1117:Generated_Source\PSoC6/CapSense_Processing.c **** #endif /* #if (0u != (CapSense_CSD_AUTOTUNE & CapSense_CSD_SS_TH_EN)) */
1118:Generated_Source\PSoC6/CapSense_Processing.c **** 
1119:Generated_Source\PSoC6/CapSense_Processing.c **** 
1120:Generated_Source\PSoC6/CapSense_Processing.c **** /*******************************************************************************
1121:Generated_Source\PSoC6/CapSense_Processing.c **** * Function Name: CapSense_DpUpdateDifferences
1122:Generated_Source\PSoC6/CapSense_Processing.c **** ****************************************************************************//**
1123:Generated_Source\PSoC6/CapSense_Processing.c **** *
1124:Generated_Source\PSoC6/CapSense_Processing.c **** * \brief
1125:Generated_Source\PSoC6/CapSense_Processing.c **** *   Calculates new difference values.
1126:Generated_Source\PSoC6/CapSense_Processing.c **** *   Also, executes the multi-frequency scan algorithm if it is enabled.
1127:Generated_Source\PSoC6/CapSense_Processing.c **** *
1128:Generated_Source\PSoC6/CapSense_Processing.c **** * \details
1129:Generated_Source\PSoC6/CapSense_Processing.c **** *   This API calculates the difference between the baseline and raw counts.
1130:Generated_Source\PSoC6/CapSense_Processing.c **** *   If the difference is positive (raw > baseline), and higher than the widget
1131:Generated_Source\PSoC6/CapSense_Processing.c **** *   noise threshold, it is saved into the data structure for further processing.
1132:Generated_Source\PSoC6/CapSense_Processing.c **** *   Otherwise the difference is set to zero. The final difference value is saved
1133:Generated_Source\PSoC6/CapSense_Processing.c **** *   with the subtracted noise threshold value.
1134:Generated_Source\PSoC6/CapSense_Processing.c **** *
1135:Generated_Source\PSoC6/CapSense_Processing.c **** *   If the multi-frequency scan algorithm is enabled, the difference is calculated
1136:Generated_Source\PSoC6/CapSense_Processing.c **** *   for the three sets of data available for each sensor. Then
1137:Generated_Source\PSoC6/CapSense_Processing.c **** *   the median filter selects the final difference value.
1138:Generated_Source\PSoC6/CapSense_Processing.c **** *
1139:Generated_Source\PSoC6/CapSense_Processing.c **** * \param ptrRamWdgt The pointer to the RAR Widget Object.
1140:Generated_Source\PSoC6/CapSense_Processing.c **** * \param curSnsPtr  The pointer to the sensor object in RAM.
1141:Generated_Source\PSoC6/CapSense_Processing.c **** *
1142:Generated_Source\PSoC6/CapSense_Processing.c **** *******************************************************************************/
1143:Generated_Source\PSoC6/CapSense_Processing.c **** void CapSense_DpUpdateDifferences(
1144:Generated_Source\PSoC6/CapSense_Processing.c ****                         CapSense_RAM_WD_BASE_STRUCT *ptrRamWdgt,
1145:Generated_Source\PSoC6/CapSense_Processing.c ****                         CapSense_RAM_SNS_STRUCT *curSnsPtr)
1146:Generated_Source\PSoC6/CapSense_Processing.c **** {
 247              		.loc 1 1146 0
 248              		.cfi_startproc
 249              		@ args = 0, pretend = 0, frame = 0
 250              		@ frame_needed = 0, uses_anonymous_args = 0
 251              	.LVL30:
 252 0000 30B5     		push	{r4, r5, lr}
 253              		.cfi_def_cfa_offset 12
 254              		.cfi_offset 4, -12
 255              		.cfi_offset 5, -8
 256              		.cfi_offset 14, -4
 257              	.LVL31:
1147:Generated_Source\PSoC6/CapSense_Processing.c ****     register int32 diffValue = 0;
1148:Generated_Source\PSoC6/CapSense_Processing.c **** 
1149:Generated_Source\PSoC6/CapSense_Processing.c ****     #if (0u != CapSense_MULTI_FREQ_SCAN_EN)
1150:Generated_Source\PSoC6/CapSense_Processing.c ****         register int32 diffValue_0 = 0;
1151:Generated_Source\PSoC6/CapSense_Processing.c ****         register int32 diffValue_2 = 0;
1152:Generated_Source\PSoC6/CapSense_Processing.c ****     #endif /* #if (0u != CapSense_MULTI_FREQ_SCAN_EN) */
1153:Generated_Source\PSoC6/CapSense_Processing.c **** 
1154:Generated_Source\PSoC6/CapSense_Processing.c ****     /* Calculate difference */
1155:Generated_Source\PSoC6/CapSense_Processing.c ****     diffValue = (int32)curSnsPtr->raw[0u] - (int32)curSnsPtr->bsln[0u];
 258              		.loc 1 1155 0
 259 0002 0B88     		ldrh	r3, [r1]
 260 0004 4A88     		ldrh	r2, [r1, #2]
 261 0006 9C1A     		subs	r4, r3, r2
ARM GAS  C:\Users\Austina\AppData\Local\Temp\ccWHIwhf.s 			page 26


 262              	.LVL32:
1156:Generated_Source\PSoC6/CapSense_Processing.c **** 
1157:Generated_Source\PSoC6/CapSense_Processing.c ****     #if (0u != CapSense_MULTI_FREQ_SCAN_EN)
1158:Generated_Source\PSoC6/CapSense_Processing.c ****         diffValue_0 = (int32)curSnsPtr->raw[1u] - (int32)curSnsPtr->bsln[1u];
1159:Generated_Source\PSoC6/CapSense_Processing.c ****         diffValue_2 = (int32)curSnsPtr->raw[2u] - (int32)curSnsPtr->bsln[2u];
1160:Generated_Source\PSoC6/CapSense_Processing.c **** 
1161:Generated_Source\PSoC6/CapSense_Processing.c ****         /* Find median and put it into [0u] element */
1162:Generated_Source\PSoC6/CapSense_Processing.c ****         if (diffValue_0 > diffValue)
1163:Generated_Source\PSoC6/CapSense_Processing.c ****         {
1164:Generated_Source\PSoC6/CapSense_Processing.c ****             register int32 swapv = diffValue_0;
1165:Generated_Source\PSoC6/CapSense_Processing.c ****             diffValue_0 = diffValue;
1166:Generated_Source\PSoC6/CapSense_Processing.c ****             diffValue = swapv;
1167:Generated_Source\PSoC6/CapSense_Processing.c ****         }
1168:Generated_Source\PSoC6/CapSense_Processing.c **** 
1169:Generated_Source\PSoC6/CapSense_Processing.c ****         if (diffValue > diffValue_2)
1170:Generated_Source\PSoC6/CapSense_Processing.c ****         {
1171:Generated_Source\PSoC6/CapSense_Processing.c ****             register int32 swapv = diffValue;
1172:Generated_Source\PSoC6/CapSense_Processing.c ****             diffValue = diffValue_2;
1173:Generated_Source\PSoC6/CapSense_Processing.c ****             diffValue_2 = swapv;
1174:Generated_Source\PSoC6/CapSense_Processing.c ****         }
1175:Generated_Source\PSoC6/CapSense_Processing.c **** 
1176:Generated_Source\PSoC6/CapSense_Processing.c ****         if (diffValue_0 > diffValue)
1177:Generated_Source\PSoC6/CapSense_Processing.c ****         {
1178:Generated_Source\PSoC6/CapSense_Processing.c ****             register int32 swapv = diffValue_0;
1179:Generated_Source\PSoC6/CapSense_Processing.c ****             diffValue_0 = diffValue;
1180:Generated_Source\PSoC6/CapSense_Processing.c ****             diffValue = swapv;
1181:Generated_Source\PSoC6/CapSense_Processing.c ****         }
1182:Generated_Source\PSoC6/CapSense_Processing.c ****     #endif /* #if (0u != CapSense_MULTI_FREQ_SCAN_EN) */
1183:Generated_Source\PSoC6/CapSense_Processing.c **** 
1184:Generated_Source\PSoC6/CapSense_Processing.c ****     curSnsPtr->diff = 0u;
 263              		.loc 1 1184 0
 264 0008 0025     		movs	r5, #0
 265 000a CD80     		strh	r5, [r1, #6]
1185:Generated_Source\PSoC6/CapSense_Processing.c **** 
1186:Generated_Source\PSoC6/CapSense_Processing.c ****     if (diffValue > (int32)ptrRamWdgt->noiseTh)
 266              		.loc 1 1186 0
 267 000c 0079     		ldrb	r0, [r0, #4]
 268              	.LVL33:
 269 000e 8442     		cmp	r4, r0
 270 0010 00DD     		ble	.L17
1187:Generated_Source\PSoC6/CapSense_Processing.c ****     {
1188:Generated_Source\PSoC6/CapSense_Processing.c ****         curSnsPtr->diff = (CapSense_THRESHOLD_TYPE) diffValue;
 271              		.loc 1 1188 0
 272 0012 CC80     		strh	r4, [r1, #6]
 273              	.L17:
1189:Generated_Source\PSoC6/CapSense_Processing.c ****     }
1190:Generated_Source\PSoC6/CapSense_Processing.c **** }
 274              		.loc 1 1190 0
 275              		@ sp needed
 276              	.LVL34:
 277 0014 30BD     		pop	{r4, r5, pc}
 278              		.cfi_endproc
 279              	.LFE45:
 280              		.size	CapSense_DpUpdateDifferences, .-CapSense_DpUpdateDifferences
 281 0016 C046     		.section	.text.CapSense_DpProcessCsxWidgetRawCounts,"ax",%progbits
 282              		.align	2
 283              		.global	CapSense_DpProcessCsxWidgetRawCounts
ARM GAS  C:\Users\Austina\AppData\Local\Temp\ccWHIwhf.s 			page 27


 284              		.code	16
 285              		.thumb_func
 286              		.type	CapSense_DpProcessCsxWidgetRawCounts, %function
 287              	CapSense_DpProcessCsxWidgetRawCounts:
 288              	.LFB38:
 555:Generated_Source\PSoC6/CapSense_Processing.c ****     uint32 result = CY_RET_SUCCESS;
 289              		.loc 1 555 0
 290              		.cfi_startproc
 291              		@ args = 0, pretend = 0, frame = 8
 292              		@ frame_needed = 0, uses_anonymous_args = 0
 293              	.LVL35:
 294 0000 F0B5     		push	{r4, r5, r6, r7, lr}
 295              		.cfi_def_cfa_offset 20
 296              		.cfi_offset 4, -20
 297              		.cfi_offset 5, -16
 298              		.cfi_offset 6, -12
 299              		.cfi_offset 7, -8
 300              		.cfi_offset 14, -4
 301 0002 83B0     		sub	sp, sp, #12
 302              		.cfi_def_cfa_offset 32
 303              	.LVL36:
 568:Generated_Source\PSoC6/CapSense_Processing.c ****     snsCount = ptrFlashWdgt->totalNumSns;
 304              		.loc 1 568 0
 305 0004 8468     		ldr	r4, [r0, #8]
 306              	.LVL37:
 569:Generated_Source\PSoC6/CapSense_Processing.c ****     ptrRamWdgt = (CapSense_RAM_WD_BASE_STRUCT *)ptrFlashWdgt->ptr2WdgtRam;
 307              		.loc 1 569 0
 308 0006 038B     		ldrh	r3, [r0, #24]
 309              	.LVL38:
 570:Generated_Source\PSoC6/CapSense_Processing.c ****     widgetType = ptrFlashWdgt->wdgtType;
 310              		.loc 1 570 0
 311 0008 4568     		ldr	r5, [r0, #4]
 312              	.LVL39:
 571:Generated_Source\PSoC6/CapSense_Processing.c **** 
 313              		.loc 1 571 0
 314 000a 877E     		ldrb	r7, [r0, #26]
 315              	.LVL40:
 556:Generated_Source\PSoC6/CapSense_Processing.c ****     uint32 widgetType;
 316              		.loc 1 556 0
 317 000c 0022     		movs	r2, #0
 318 000e 0192     		str	r2, [sp, #4]
 581:Generated_Source\PSoC6/CapSense_Processing.c ****     {
 319              		.loc 1 581 0
 320 0010 0BE0     		b	.L20
 321              	.LVL41:
 322              	.L21:
 590:Generated_Source\PSoC6/CapSense_Processing.c **** 
 323              		.loc 1 590 0
 324 0012 3A00     		movs	r2, r7
 325 0014 2100     		movs	r1, r4
 326 0016 2800     		movs	r0, r5
 327 0018 FFF7FEFF 		bl	CapSense_FtUpdateBaseline
 328              	.LVL42:
 329 001c 0190     		str	r0, [sp, #4]
 330              	.LVL43:
 599:Generated_Source\PSoC6/CapSense_Processing.c **** 
 331              		.loc 1 599 0
ARM GAS  C:\Users\Austina\AppData\Local\Temp\ccWHIwhf.s 			page 28


 332 001e 2100     		movs	r1, r4
 333 0020 2800     		movs	r0, r5
 334              	.LVL44:
 335 0022 FFF7FEFF 		bl	CapSense_DpUpdateDifferences
 336              	.LVL45:
 602:Generated_Source\PSoC6/CapSense_Processing.c ****         
 337              		.loc 1 602 0
 338 0026 0A34     		adds	r4, r4, #10
 339              	.LVL46:
 581:Generated_Source\PSoC6/CapSense_Processing.c ****     {
 340              		.loc 1 581 0
 341 0028 3300     		movs	r3, r6
 342              	.LVL47:
 343              	.L20:
 344 002a 5E1E     		subs	r6, r3, #1
 345              	.LVL48:
 346 002c 002B     		cmp	r3, #0
 347 002e F0D1     		bne	.L21
 609:Generated_Source\PSoC6/CapSense_Processing.c **** 
 348              		.loc 1 609 0
 349 0030 0198     		ldr	r0, [sp, #4]
 350 0032 03B0     		add	sp, sp, #12
 351              		@ sp needed
 352              	.LVL49:
 353              	.LVL50:
 354              	.LVL51:
 355              	.LVL52:
 356 0034 F0BD     		pop	{r4, r5, r6, r7, pc}
 357              		.cfi_endproc
 358              	.LFE38:
 359              		.size	CapSense_DpProcessCsxWidgetRawCounts, .-CapSense_DpProcessCsxWidgetRawCounts
 360 0036 C046     		.section	.text.CapSense_DpProcessCsxSensorRawCountsExt,"ax",%progbits
 361              		.align	2
 362              		.global	CapSense_DpProcessCsxSensorRawCountsExt
 363              		.code	16
 364              		.thumb_func
 365              		.type	CapSense_DpProcessCsxSensorRawCountsExt, %function
 366              	CapSense_DpProcessCsxSensorRawCountsExt:
 367              	.LFB39:
 647:Generated_Source\PSoC6/CapSense_Processing.c ****     uint32  result = CY_RET_SUCCESS;
 368              		.loc 1 647 0
 369              		.cfi_startproc
 370              		@ args = 0, pretend = 0, frame = 0
 371              		@ frame_needed = 0, uses_anonymous_args = 0
 372              	.LVL53:
 373 0000 F8B5     		push	{r3, r4, r5, r6, r7, lr}
 374              		.cfi_def_cfa_offset 24
 375              		.cfi_offset 3, -24
 376              		.cfi_offset 4, -20
 377              		.cfi_offset 5, -16
 378              		.cfi_offset 6, -12
 379              		.cfi_offset 7, -8
 380              		.cfi_offset 14, -4
 381 0002 0E00     		movs	r6, r1
 382 0004 1C00     		movs	r4, r3
 383              	.LVL54:
 652:Generated_Source\PSoC6/CapSense_Processing.c ****     ptrRamWdgt = (CapSense_RAM_WD_BASE_STRUCT *)ptrFlashWdgt->ptr2WdgtRam;
ARM GAS  C:\Users\Austina\AppData\Local\Temp\ccWHIwhf.s 			page 29


 384              		.loc 1 652 0
 385 0006 827E     		ldrb	r2, [r0, #26]
 386              	.LVL55:
 653:Generated_Source\PSoC6/CapSense_Processing.c **** 
 387              		.loc 1 653 0
 388 0008 4768     		ldr	r7, [r0, #4]
 389              	.LVL56:
 667:Generated_Source\PSoC6/CapSense_Processing.c ****     {
 390              		.loc 1 667 0
 391 000a A307     		lsls	r3, r4, #30
 392 000c 04D5     		bpl	.L25
 393              	.LVL57:
 669:Generated_Source\PSoC6/CapSense_Processing.c ****     }
 394              		.loc 1 669 0
 395 000e 3800     		movs	r0, r7
 396              	.LVL58:
 397 0010 FFF7FEFF 		bl	CapSense_FtUpdateBaseline
 398              	.LVL59:
 399 0014 0500     		movs	r5, r0
 400              	.LVL60:
 401 0016 00E0     		b	.L23
 402              	.LVL61:
 403              	.L25:
 648:Generated_Source\PSoC6/CapSense_Processing.c ****     uint32  widgetType;
 404              		.loc 1 648 0
 405 0018 0025     		movs	r5, #0
 406              	.LVL62:
 407              	.L23:
 672:Generated_Source\PSoC6/CapSense_Processing.c ****     {
 408              		.loc 1 672 0
 409 001a 6307     		lsls	r3, r4, #29
 410 001c 03D5     		bpl	.L24
 674:Generated_Source\PSoC6/CapSense_Processing.c ****     }
 411              		.loc 1 674 0
 412 001e 3100     		movs	r1, r6
 413 0020 3800     		movs	r0, r7
 414 0022 FFF7FEFF 		bl	CapSense_DpUpdateDifferences
 415              	.LVL63:
 416              	.L24:
 677:Generated_Source\PSoC6/CapSense_Processing.c **** 
 417              		.loc 1 677 0
 418 0026 2800     		movs	r0, r5
 419              		@ sp needed
 420              	.LVL64:
 421              	.LVL65:
 422              	.LVL66:
 423              	.LVL67:
 424 0028 F8BD     		pop	{r3, r4, r5, r6, r7, pc}
 425              		.cfi_endproc
 426              	.LFE39:
 427              		.size	CapSense_DpProcessCsxSensorRawCountsExt, .-CapSense_DpProcessCsxSensorRawCountsExt
 428 002a C046     		.section	.text.CapSense_DpProcessCsdWidgetRawCounts,"ax",%progbits
 429              		.align	2
 430              		.global	CapSense_DpProcessCsdWidgetRawCounts
 431              		.code	16
 432              		.thumb_func
 433              		.type	CapSense_DpProcessCsdWidgetRawCounts, %function
ARM GAS  C:\Users\Austina\AppData\Local\Temp\ccWHIwhf.s 			page 30


 434              	CapSense_DpProcessCsdWidgetRawCounts:
 435              	.LFB41:
 786:Generated_Source\PSoC6/CapSense_Processing.c ****     uint32  result = CY_RET_SUCCESS;
 436              		.loc 1 786 0
 437              		.cfi_startproc
 438              		@ args = 0, pretend = 0, frame = 8
 439              		@ frame_needed = 0, uses_anonymous_args = 0
 440              	.LVL68:
 441 0000 F0B5     		push	{r4, r5, r6, r7, lr}
 442              		.cfi_def_cfa_offset 20
 443              		.cfi_offset 4, -20
 444              		.cfi_offset 5, -16
 445              		.cfi_offset 6, -12
 446              		.cfi_offset 7, -8
 447              		.cfi_offset 14, -4
 448 0002 5746     		mov	r7, r10
 449 0004 80B4     		push	{r7}
 450              		.cfi_def_cfa_offset 24
 451              		.cfi_offset 10, -24
 452 0006 82B0     		sub	sp, sp, #8
 453              		.cfi_def_cfa_offset 32
 454 0008 8246     		mov	r10, r0
 455              	.LVL69:
 816:Generated_Source\PSoC6/CapSense_Processing.c ****     ptrRamWdgt = (CapSense_RAM_WD_BASE_STRUCT *)ptrFlashWdgt->ptr2WdgtRam;
 456              		.loc 1 816 0
 457 000a 8468     		ldr	r4, [r0, #8]
 458              	.LVL70:
 817:Generated_Source\PSoC6/CapSense_Processing.c ****     widgetType = ptrFlashWdgt->wdgtType;
 459              		.loc 1 817 0
 460 000c 4568     		ldr	r5, [r0, #4]
 461              	.LVL71:
 818:Generated_Source\PSoC6/CapSense_Processing.c **** 
 462              		.loc 1 818 0
 463 000e 837E     		ldrb	r3, [r0, #26]
 464 0010 0193     		str	r3, [sp, #4]
 465              	.LVL72:
 821:Generated_Source\PSoC6/CapSense_Processing.c ****     #endif /* #if (0u != (CapSense_CSD_AUTOTUNE & CapSense_CSD_SS_TH_EN)) */
 466              		.loc 1 821 0
 467 0012 476A     		ldr	r7, [r0, #36]
 468              	.LVL73:
 825:Generated_Source\PSoC6/CapSense_Processing.c ****     {
 469              		.loc 1 825 0
 470 0014 0026     		movs	r6, #0
 787:Generated_Source\PSoC6/CapSense_Processing.c **** 
 471              		.loc 1 787 0
 472 0016 0023     		movs	r3, #0
 473              	.LVL74:
 474 0018 0093     		str	r3, [sp]
 825:Generated_Source\PSoC6/CapSense_Processing.c ****     {
 475              		.loc 1 825 0
 476 001a 16E0     		b	.L27
 477              	.LVL75:
 478              	.L28:
 837:Generated_Source\PSoC6/CapSense_Processing.c ****             CapSense_DpUpdateThresholds(ptrRamWdgt, ptrNoiseEnvelope, snsId);
 479              		.loc 1 837 0 discriminator 3
 480 001c 298A     		ldrh	r1, [r5, #16]
 481 001e 2088     		ldrh	r0, [r4]
ARM GAS  C:\Users\Austina\AppData\Local\Temp\ccWHIwhf.s 			page 31


 482 0020 3A00     		movs	r2, r7
 483 0022 FFF7FEFF 		bl	SmartSense_RunNoiseEnvelope
 484              	.LVL76:
 838:Generated_Source\PSoC6/CapSense_Processing.c **** 
 485              		.loc 1 838 0 discriminator 3
 486 0026 3200     		movs	r2, r6
 487 0028 3900     		movs	r1, r7
 488 002a 2800     		movs	r0, r5
 489 002c FFF7FEFF 		bl	CapSense_DpUpdateThresholds
 490              	.LVL77:
 855:Generated_Source\PSoC6/CapSense_Processing.c ****         #endif /* (0u != (CapSense_CSD_AUTOTUNE & CapSense_CSD_SS_TH_EN)) */
 491              		.loc 1 855 0 discriminator 3
 492 0030 0C37     		adds	r7, r7, #12
 493              	.LVL78:
 865:Generated_Source\PSoC6/CapSense_Processing.c ****         #endif /* (CapSense_ENABLE == CapSense_TST_BSLN_DUPLICATION_EN) */
 494              		.loc 1 865 0 discriminator 3
 495 0032 019A     		ldr	r2, [sp, #4]
 496 0034 2100     		movs	r1, r4
 497 0036 2800     		movs	r0, r5
 498 0038 FFF7FEFF 		bl	CapSense_FtUpdateBaseline
 499              	.LVL79:
 500 003c 0090     		str	r0, [sp]
 501              	.LVL80:
 868:Generated_Source\PSoC6/CapSense_Processing.c **** 
 502              		.loc 1 868 0 discriminator 3
 503 003e 2100     		movs	r1, r4
 504 0040 2800     		movs	r0, r5
 505              	.LVL81:
 506 0042 FFF7FEFF 		bl	CapSense_DpUpdateDifferences
 507              	.LVL82:
 871:Generated_Source\PSoC6/CapSense_Processing.c **** 
 508              		.loc 1 871 0 discriminator 3
 509 0046 0A34     		adds	r4, r4, #10
 510              	.LVL83:
 825:Generated_Source\PSoC6/CapSense_Processing.c ****     {
 511              		.loc 1 825 0 discriminator 3
 512 0048 0136     		adds	r6, r6, #1
 513              	.LVL84:
 514              	.L27:
 825:Generated_Source\PSoC6/CapSense_Processing.c ****     {
 515              		.loc 1 825 0 is_stmt 0 discriminator 1
 516 004a 5346     		mov	r3, r10
 517 004c 1B8B     		ldrh	r3, [r3, #24]
 518 004e 9E42     		cmp	r6, r3
 519 0050 E4D3     		bcc	.L28
 879:Generated_Source\PSoC6/CapSense_Processing.c **** 
 520              		.loc 1 879 0 is_stmt 1
 521 0052 0098     		ldr	r0, [sp]
 522 0054 02B0     		add	sp, sp, #8
 523              	.LVL85:
 524              		@ sp needed
 525              	.LVL86:
 526              	.LVL87:
 527              	.LVL88:
 528              	.LVL89:
 529              	.LVL90:
 530 0056 04BC     		pop	{r2}
ARM GAS  C:\Users\Austina\AppData\Local\Temp\ccWHIwhf.s 			page 32


 531 0058 9246     		mov	r10, r2
 532 005a F0BD     		pop	{r4, r5, r6, r7, pc}
 533              		.cfi_endproc
 534              	.LFE41:
 535              		.size	CapSense_DpProcessCsdWidgetRawCounts, .-CapSense_DpProcessCsdWidgetRawCounts
 536              		.section	.text.CapSense_DpProcessCsdSensorRawCountsExt,"ax",%progbits
 537              		.align	2
 538              		.global	CapSense_DpProcessCsdSensorRawCountsExt
 539              		.code	16
 540              		.thumb_func
 541              		.type	CapSense_DpProcessCsdSensorRawCountsExt, %function
 542              	CapSense_DpProcessCsdSensorRawCountsExt:
 543              	.LFB42:
 920:Generated_Source\PSoC6/CapSense_Processing.c ****     uint32 result = CY_RET_SUCCESS;
 544              		.loc 1 920 0
 545              		.cfi_startproc
 546              		@ args = 0, pretend = 0, frame = 8
 547              		@ frame_needed = 0, uses_anonymous_args = 0
 548              	.LVL91:
 549 0000 F0B5     		push	{r4, r5, r6, r7, lr}
 550              		.cfi_def_cfa_offset 20
 551              		.cfi_offset 4, -20
 552              		.cfi_offset 5, -16
 553              		.cfi_offset 6, -12
 554              		.cfi_offset 7, -8
 555              		.cfi_offset 14, -4
 556 0002 83B0     		sub	sp, sp, #12
 557              		.cfi_def_cfa_offset 32
 558 0004 0191     		str	r1, [sp, #4]
 559 0006 1C00     		movs	r4, r3
 560              	.LVL92:
 932:Generated_Source\PSoC6/CapSense_Processing.c ****     #endif /* (0u != (CapSense_CSD_AUTOTUNE & CapSense_CSD_SS_TH_EN)) */
 561              		.loc 1 932 0
 562 0008 476A     		ldr	r7, [r0, #36]
 563              	.LVL93:
 935:Generated_Source\PSoC6/CapSense_Processing.c ****     ptrRamWdgt = (CapSense_RAM_WD_BASE_STRUCT *)ptrFlashWdgt->ptr2WdgtRam;
 564              		.loc 1 935 0
 565 000a 867E     		ldrb	r6, [r0, #26]
 566              	.LVL94:
 936:Generated_Source\PSoC6/CapSense_Processing.c **** 
 567              		.loc 1 936 0
 568 000c 4568     		ldr	r5, [r0, #4]
 569              	.LVL95:
 951:Generated_Source\PSoC6/CapSense_Processing.c ****         {
 570              		.loc 1 951 0
 571 000e 2307     		lsls	r3, r4, #28
 572 0010 05D5     		bpl	.L30
 573              	.LVL96:
 953:Generated_Source\PSoC6/CapSense_Processing.c ****         }
 574              		.loc 1 953 0
 575 0012 298A     		ldrh	r1, [r5, #16]
 576              	.LVL97:
 577 0014 019B     		ldr	r3, [sp, #4]
 578 0016 1888     		ldrh	r0, [r3]
 579              	.LVL98:
 580 0018 3A00     		movs	r2, r7
 581              	.LVL99:
ARM GAS  C:\Users\Austina\AppData\Local\Temp\ccWHIwhf.s 			page 33


 582 001a FFF7FEFF 		bl	SmartSense_RunNoiseEnvelope
 583              	.LVL100:
 584              	.L30:
 956:Generated_Source\PSoC6/CapSense_Processing.c ****         {
 585              		.loc 1 956 0
 586 001e E306     		lsls	r3, r4, #27
 587 0020 04D5     		bpl	.L31
 958:Generated_Source\PSoC6/CapSense_Processing.c **** 
 588              		.loc 1 958 0
 589 0022 0022     		movs	r2, #0
 590              	.LVL101:
 591 0024 3900     		movs	r1, r7
 592 0026 2800     		movs	r0, r5
 593 0028 FFF7FEFF 		bl	CapSense_DpUpdateThresholds
 594              	.LVL102:
 595              	.L31:
 976:Generated_Source\PSoC6/CapSense_Processing.c ****     {
 596              		.loc 1 976 0
 597 002c A307     		lsls	r3, r4, #30
 598 002e 06D5     		bpl	.L34
 978:Generated_Source\PSoC6/CapSense_Processing.c ****     }
 599              		.loc 1 978 0
 600 0030 3200     		movs	r2, r6
 601              	.LVL103:
 602 0032 0199     		ldr	r1, [sp, #4]
 603 0034 2800     		movs	r0, r5
 604 0036 FFF7FEFF 		bl	CapSense_FtUpdateBaseline
 605              	.LVL104:
 606 003a 0700     		movs	r7, r0
 607              	.LVL105:
 608 003c 00E0     		b	.L32
 609              	.LVL106:
 610              	.L34:
 921:Generated_Source\PSoC6/CapSense_Processing.c ****     uint32  widgetType;
 611              		.loc 1 921 0
 612 003e 0027     		movs	r7, #0
 613              	.LVL107:
 614              	.L32:
 981:Generated_Source\PSoC6/CapSense_Processing.c ****     {
 615              		.loc 1 981 0
 616 0040 6307     		lsls	r3, r4, #29
 617 0042 03D5     		bpl	.L33
 983:Generated_Source\PSoC6/CapSense_Processing.c ****     }
 618              		.loc 1 983 0
 619 0044 0199     		ldr	r1, [sp, #4]
 620 0046 2800     		movs	r0, r5
 621 0048 FFF7FEFF 		bl	CapSense_DpUpdateDifferences
 622              	.LVL108:
 623              	.L33:
 986:Generated_Source\PSoC6/CapSense_Processing.c **** 
 624              		.loc 1 986 0
 625 004c 3800     		movs	r0, r7
 626 004e 03B0     		add	sp, sp, #12
 627              		@ sp needed
 628              	.LVL109:
 629              	.LVL110:
 630              	.LVL111:
ARM GAS  C:\Users\Austina\AppData\Local\Temp\ccWHIwhf.s 			page 34


 631              	.LVL112:
 632 0050 F0BD     		pop	{r4, r5, r6, r7, pc}
 633              		.cfi_endproc
 634              	.LFE42:
 635              		.size	CapSense_DpProcessCsdSensorRawCountsExt, .-CapSense_DpProcessCsdSensorRawCountsExt
 636 0052 C046     		.section	.text.CapSense_DpProcessButton,"ax",%progbits
 637              		.align	2
 638              		.global	CapSense_DpProcessButton
 639              		.code	16
 640              		.thumb_func
 641              		.type	CapSense_DpProcessButton, %function
 642              	CapSense_DpProcessButton:
 643              	.LFB46:
1191:Generated_Source\PSoC6/CapSense_Processing.c **** 
1192:Generated_Source\PSoC6/CapSense_Processing.c **** 
1193:Generated_Source\PSoC6/CapSense_Processing.c **** #if ((0u != CapSense_BUTTON_WIDGET_EN) || (0u != CapSense_CSX_MATRIX_WIDGET_EN))
1194:Generated_Source\PSoC6/CapSense_Processing.c **** /*******************************************************************************
1195:Generated_Source\PSoC6/CapSense_Processing.c **** * Function Name: CapSense_DpProcessButton
1196:Generated_Source\PSoC6/CapSense_Processing.c **** ****************************************************************************//**
1197:Generated_Source\PSoC6/CapSense_Processing.c **** *
1198:Generated_Source\PSoC6/CapSense_Processing.c **** * \brief
1199:Generated_Source\PSoC6/CapSense_Processing.c **** *   Processes the status of the Button widget.
1200:Generated_Source\PSoC6/CapSense_Processing.c **** *
1201:Generated_Source\PSoC6/CapSense_Processing.c **** * \details
1202:Generated_Source\PSoC6/CapSense_Processing.c **** *   This API processes the status of the CSD/CSX Button widget and
1203:Generated_Source\PSoC6/CapSense_Processing.c **** *   CSX Matrix Button widget. It applies the hysteresis and de-bounce algorithm
1204:Generated_Source\PSoC6/CapSense_Processing.c **** *   to each sensor difference value. This API is expected to be called
1205:Generated_Source\PSoC6/CapSense_Processing.c **** *   after each new widget scan. If it is called multiple times for the same
1206:Generated_Source\PSoC6/CapSense_Processing.c **** *   scan data, the de-bounce algorithm will not work properly.
1207:Generated_Source\PSoC6/CapSense_Processing.c **** *
1208:Generated_Source\PSoC6/CapSense_Processing.c **** *   This API does not update any Data Structure registers
1209:Generated_Source\PSoC6/CapSense_Processing.c **** *   except the de-bounce counters.
1210:Generated_Source\PSoC6/CapSense_Processing.c **** *
1211:Generated_Source\PSoC6/CapSense_Processing.c **** * \param currStatus   The current status of the widget sensors.
1212:Generated_Source\PSoC6/CapSense_Processing.c **** * \param ptrFlashWdgt The pointer to the Flash Widget Object.
1213:Generated_Source\PSoC6/CapSense_Processing.c **** *
1214:Generated_Source\PSoC6/CapSense_Processing.c **** * \return Returns the status of the widget's sensors. Bit #0 - corresponds to Sensor #0.
1215:Generated_Source\PSoC6/CapSense_Processing.c **** *
1216:Generated_Source\PSoC6/CapSense_Processing.c **** *******************************************************************************/
1217:Generated_Source\PSoC6/CapSense_Processing.c **** uint32 CapSense_DpProcessButton(uint32 currStatus, CapSense_FLASH_WD_STRUCT const *ptrFlashWdgt)
1218:Generated_Source\PSoC6/CapSense_Processing.c **** {
 644              		.loc 1 1218 0
 645              		.cfi_startproc
 646              		@ args = 0, pretend = 0, frame = 0
 647              		@ frame_needed = 0, uses_anonymous_args = 0
 648              	.LVL113:
 649 0000 F0B5     		push	{r4, r5, r6, r7, lr}
 650              		.cfi_def_cfa_offset 20
 651              		.cfi_offset 4, -20
 652              		.cfi_offset 5, -16
 653              		.cfi_offset 6, -12
 654              		.cfi_offset 7, -8
 655              		.cfi_offset 14, -4
1219:Generated_Source\PSoC6/CapSense_Processing.c ****     uint32 snsCnt;
1220:Generated_Source\PSoC6/CapSense_Processing.c ****     uint32 snsMask;
1221:Generated_Source\PSoC6/CapSense_Processing.c ****     uint32 newStatus;
1222:Generated_Source\PSoC6/CapSense_Processing.c ****     uint32 touchTh;
ARM GAS  C:\Users\Austina\AppData\Local\Temp\ccWHIwhf.s 			page 35


1223:Generated_Source\PSoC6/CapSense_Processing.c ****     CapSense_RAM_SNS_STRUCT *ptrSnsTmp;
1224:Generated_Source\PSoC6/CapSense_Processing.c ****     CapSense_RAM_WD_BASE_STRUCT *ptrRamWdgt;
1225:Generated_Source\PSoC6/CapSense_Processing.c ****     uint8 * ptrDebounceCnt;
1226:Generated_Source\PSoC6/CapSense_Processing.c **** 
1227:Generated_Source\PSoC6/CapSense_Processing.c ****     snsCnt = ptrFlashWdgt->totalNumSns;
 656              		.loc 1 1227 0
 657 0002 0A8B     		ldrh	r2, [r1, #24]
 658              	.LVL114:
1228:Generated_Source\PSoC6/CapSense_Processing.c ****     ptrSnsTmp = ptrFlashWdgt->ptr2SnsRam;
 659              		.loc 1 1228 0
 660 0004 8D68     		ldr	r5, [r1, #8]
 661              	.LVL115:
1229:Generated_Source\PSoC6/CapSense_Processing.c ****     ptrRamWdgt = (CapSense_RAM_WD_BASE_STRUCT *)ptrFlashWdgt->ptr2WdgtRam;
 662              		.loc 1 1229 0
 663 0006 4F68     		ldr	r7, [r1, #4]
 664              	.LVL116:
1230:Generated_Source\PSoC6/CapSense_Processing.c ****     ptrDebounceCnt = ptrFlashWdgt->ptr2DebounceArr;
 665              		.loc 1 1230 0
 666 0008 0B69     		ldr	r3, [r1, #16]
 667              	.LVL117:
1231:Generated_Source\PSoC6/CapSense_Processing.c **** 
1232:Generated_Source\PSoC6/CapSense_Processing.c ****     /* Go through all widget's sensors */
1233:Generated_Source\PSoC6/CapSense_Processing.c ****     snsMask = 1Lu;
 668              		.loc 1 1233 0
 669 000a 0121     		movs	r1, #1
 670              	.LVL118:
1234:Generated_Source\PSoC6/CapSense_Processing.c ****     for (; snsCnt-- > 0u; )
 671              		.loc 1 1234 0
 672 000c 25E0     		b	.L36
 673              	.LVL119:
 674              	.L44:
1235:Generated_Source\PSoC6/CapSense_Processing.c ****     {
1236:Generated_Source\PSoC6/CapSense_Processing.c ****         /* Calculate touch threshold taking into account hysteresis
1237:Generated_Source\PSoC6/CapSense_Processing.c ****            and current sensor state. */
1238:Generated_Source\PSoC6/CapSense_Processing.c ****         touchTh = (0u == (currStatus & snsMask)) ?
 675              		.loc 1 1238 0
 676 000e 0C00     		movs	r4, r1
 677              	.LVL120:
 678 0010 0440     		ands	r4, r0
1239:Generated_Source\PSoC6/CapSense_Processing.c ****                   ((uint32)ptrRamWdgt->fingerTh + ptrRamWdgt->hysteresis) :
 679              		.loc 1 1239 0
 680 0012 03D1     		bne	.L37
 681              		.loc 1 1239 0 is_stmt 0 discriminator 1
 682 0014 7E88     		ldrh	r6, [r7, #2]
 683 0016 BA79     		ldrb	r2, [r7, #6]
 684 0018 B218     		adds	r2, r6, r2
 685 001a 02E0     		b	.L38
 686              	.L37:
1240:Generated_Source\PSoC6/CapSense_Processing.c ****                   ((uint32)ptrRamWdgt->fingerTh - ptrRamWdgt->hysteresis);
 687              		.loc 1 1240 0 is_stmt 1 discriminator 2
 688 001c 7A88     		ldrh	r2, [r7, #2]
 689 001e BE79     		ldrb	r6, [r7, #6]
1239:Generated_Source\PSoC6/CapSense_Processing.c ****                   ((uint32)ptrRamWdgt->fingerTh + ptrRamWdgt->hysteresis) :
 690              		.loc 1 1239 0 discriminator 2
 691 0020 921B     		subs	r2, r2, r6
 692              	.L38:
 693              	.LVL121:
ARM GAS  C:\Users\Austina\AppData\Local\Temp\ccWHIwhf.s 			page 36


1241:Generated_Source\PSoC6/CapSense_Processing.c **** 
1242:Generated_Source\PSoC6/CapSense_Processing.c ****         /* Determine new potential sensor state */
1243:Generated_Source\PSoC6/CapSense_Processing.c ****         newStatus = (ptrSnsTmp->diff > touchTh) ? snsMask : 0u;
 694              		.loc 1 1243 0
 695 0022 EE88     		ldrh	r6, [r5, #6]
 696 0024 B242     		cmp	r2, r6
 697 0026 01D3     		bcc	.L45
 698 0028 0022     		movs	r2, #0
 699              	.LVL122:
 700 002a 00E0     		b	.L39
 701              	.LVL123:
 702              	.L45:
 703 002c 0A00     		movs	r2, r1
 704              	.LVL124:
 705              	.L39:
1244:Generated_Source\PSoC6/CapSense_Processing.c **** 
1245:Generated_Source\PSoC6/CapSense_Processing.c ****         /* Sensor state changed ? */
1246:Generated_Source\PSoC6/CapSense_Processing.c ****         if (newStatus != (currStatus & snsMask))
 706              		.loc 1 1246 0 discriminator 4
 707 002e A242     		cmp	r2, r4
 708 0030 02D0     		beq	.L40
1247:Generated_Source\PSoC6/CapSense_Processing.c ****         {
1248:Generated_Source\PSoC6/CapSense_Processing.c ****             /* Decrement de-bounce counter */
1249:Generated_Source\PSoC6/CapSense_Processing.c ****             (*ptrDebounceCnt)--;
 709              		.loc 1 1249 0
 710 0032 1E78     		ldrb	r6, [r3]
 711 0034 013E     		subs	r6, r6, #1
 712 0036 1E70     		strb	r6, [r3]
 713              	.L40:
1250:Generated_Source\PSoC6/CapSense_Processing.c ****         }
1251:Generated_Source\PSoC6/CapSense_Processing.c **** 
1252:Generated_Source\PSoC6/CapSense_Processing.c ****         /*
1253:Generated_Source\PSoC6/CapSense_Processing.c ****         *  This piece of code has two objectives:
1254:Generated_Source\PSoC6/CapSense_Processing.c ****         *  1. Reset de-bounce counter if the sensor state did not change.
1255:Generated_Source\PSoC6/CapSense_Processing.c ****         *     (It is possible that during previous processing cycles sensor
1256:Generated_Source\PSoC6/CapSense_Processing.c ****         *     was active and de-bounce counter was decremented.)
1257:Generated_Source\PSoC6/CapSense_Processing.c ****         *  2. Set new sensor state after successful de-bounce.
1258:Generated_Source\PSoC6/CapSense_Processing.c ****         */
1259:Generated_Source\PSoC6/CapSense_Processing.c ****         if ((newStatus == (currStatus & snsMask)) || (0u == (*ptrDebounceCnt)))
 714              		.loc 1 1259 0
 715 0038 A242     		cmp	r2, r4
 716 003a 02D0     		beq	.L41
 717              		.loc 1 1259 0 is_stmt 0 discriminator 1
 718 003c 1C78     		ldrb	r4, [r3]
 719 003e 002C     		cmp	r4, #0
 720 0040 07D1     		bne	.L42
 721              	.L41:
1260:Generated_Source\PSoC6/CapSense_Processing.c ****         {
1261:Generated_Source\PSoC6/CapSense_Processing.c ****             /* Set new sensor status */
1262:Generated_Source\PSoC6/CapSense_Processing.c ****             currStatus &= ~snsMask;
 722              		.loc 1 1262 0 is_stmt 1
 723 0042 8843     		bics	r0, r1
 724              	.LVL125:
1263:Generated_Source\PSoC6/CapSense_Processing.c ****             currStatus |= newStatus;
 725              		.loc 1 1263 0
 726 0044 1043     		orrs	r0, r2
 727              	.LVL126:
ARM GAS  C:\Users\Austina\AppData\Local\Temp\ccWHIwhf.s 			page 37


1264:Generated_Source\PSoC6/CapSense_Processing.c **** 
1265:Generated_Source\PSoC6/CapSense_Processing.c ****             /* Reset de-bounce counter */
1266:Generated_Source\PSoC6/CapSense_Processing.c ****             #if (0u != CapSense_OFF_DEBOUNCE_EN)
1267:Generated_Source\PSoC6/CapSense_Processing.c ****                 *ptrDebounceCnt = (0Lu == newStatus) ? ptrRamWdgt->onDebounce : ptrRamWdgt->offDebo
1268:Generated_Source\PSoC6/CapSense_Processing.c ****             #else
1269:Generated_Source\PSoC6/CapSense_Processing.c ****                 *ptrDebounceCnt = (0Lu == newStatus) ? ptrRamWdgt->onDebounce : DEFAULT_OFF_DEBOUNC
 728              		.loc 1 1269 0
 729 0046 002A     		cmp	r2, #0
 730 0048 01D1     		bne	.L46
 731              		.loc 1 1269 0 is_stmt 0 discriminator 1
 732 004a FA79     		ldrb	r2, [r7, #7]
 733              	.LVL127:
 734 004c 00E0     		b	.L43
 735              	.LVL128:
 736              	.L46:
 737              		.loc 1 1269 0
 738 004e 0122     		movs	r2, #1
 739              	.LVL129:
 740              	.L43:
 741              		.loc 1 1269 0 discriminator 4
 742 0050 1A70     		strb	r2, [r3]
 743              	.L42:
1270:Generated_Source\PSoC6/CapSense_Processing.c ****             #endif /* #if (0u != CapSense_OFF_DEBOUNCE_EN) */
1271:Generated_Source\PSoC6/CapSense_Processing.c ****         }
1272:Generated_Source\PSoC6/CapSense_Processing.c **** 
1273:Generated_Source\PSoC6/CapSense_Processing.c ****         /* Move mask to the next sensor */
1274:Generated_Source\PSoC6/CapSense_Processing.c ****         snsMask <<= 1u;
 744              		.loc 1 1274 0 is_stmt 1
 745 0052 4900     		lsls	r1, r1, #1
 746              	.LVL130:
1275:Generated_Source\PSoC6/CapSense_Processing.c **** 
1276:Generated_Source\PSoC6/CapSense_Processing.c ****         ptrSnsTmp++;
 747              		.loc 1 1276 0
 748 0054 0A35     		adds	r5, r5, #10
 749              	.LVL131:
1277:Generated_Source\PSoC6/CapSense_Processing.c ****         ptrDebounceCnt++;
 750              		.loc 1 1277 0
 751 0056 0133     		adds	r3, r3, #1
 752              	.LVL132:
1234:Generated_Source\PSoC6/CapSense_Processing.c ****     {
 753              		.loc 1 1234 0
 754 0058 6246     		mov	r2, ip
 755              	.LVL133:
 756              	.L36:
 757 005a 541E     		subs	r4, r2, #1
 758 005c A446     		mov	ip, r4
 759              	.LVL134:
 760 005e 002A     		cmp	r2, #0
 761 0060 D5D1     		bne	.L44
1278:Generated_Source\PSoC6/CapSense_Processing.c ****     }
1279:Generated_Source\PSoC6/CapSense_Processing.c **** 
1280:Generated_Source\PSoC6/CapSense_Processing.c ****     return currStatus;
1281:Generated_Source\PSoC6/CapSense_Processing.c **** }
 762              		.loc 1 1281 0
 763              		@ sp needed
 764              	.LVL135:
 765              	.LVL136:
ARM GAS  C:\Users\Austina\AppData\Local\Temp\ccWHIwhf.s 			page 38


 766              	.LVL137:
 767 0062 F0BD     		pop	{r4, r5, r6, r7, pc}
 768              		.cfi_endproc
 769              	.LFE46:
 770              		.size	CapSense_DpProcessButton, .-CapSense_DpProcessButton
 771              		.section	.text.CapSense_DpProcessCsxWidgetStatus,"ax",%progbits
 772              		.align	2
 773              		.global	CapSense_DpProcessCsxWidgetStatus
 774              		.code	16
 775              		.thumb_func
 776              		.type	CapSense_DpProcessCsxWidgetStatus, %function
 777              	CapSense_DpProcessCsxWidgetStatus:
 778              	.LFB40:
 706:Generated_Source\PSoC6/CapSense_Processing.c ****     uint32 sensorStatus;
 779              		.loc 1 706 0
 780              		.cfi_startproc
 781              		@ args = 0, pretend = 0, frame = 0
 782              		@ frame_needed = 0, uses_anonymous_args = 0
 783              	.LVL138:
 784 0000 70B5     		push	{r4, r5, r6, lr}
 785              		.cfi_def_cfa_offset 16
 786              		.cfi_offset 4, -16
 787              		.cfi_offset 5, -12
 788              		.cfi_offset 6, -8
 789              		.cfi_offset 14, -4
 790 0002 0400     		movs	r4, r0
 712:Generated_Source\PSoC6/CapSense_Processing.c ****     sensorStatus = CapSense_dsRam.snsStatus[widgetId];
 791              		.loc 1 712 0
 792 0004 8A7E     		ldrb	r2, [r1, #26]
 793              	.LVL139:
 713:Generated_Source\PSoC6/CapSense_Processing.c **** 
 794              		.loc 1 713 0
 795 0006 144B     		ldr	r3, .L54
 796 0008 1B18     		adds	r3, r3, r0
 797 000a 1D7E     		ldrb	r5, [r3, #24]
 798              	.LVL140:
 715:Generated_Source\PSoC6/CapSense_Processing.c ****     {
 799              		.loc 1 715 0
 800 000c 012A     		cmp	r2, #1
 801 000e 04D1     		bne	.L53
 719:Generated_Source\PSoC6/CapSense_Processing.c ****             break;
 802              		.loc 1 719 0
 803 0010 2800     		movs	r0, r5
 804              	.LVL141:
 805 0012 FFF7FEFF 		bl	CapSense_DpProcessButton
 806              	.LVL142:
 807 0016 0500     		movs	r5, r0
 808              	.LVL143:
 720:Generated_Source\PSoC6/CapSense_Processing.c ****     #endif /* #if (0u != CapSense_BUTTON_WIDGET_EN) */
 809              		.loc 1 720 0
 810 0018 04E0     		b	.L50
 811              	.LVL144:
 812              	.L53:
 736:Generated_Source\PSoC6/CapSense_Processing.c ****         break;
 813              		.loc 1 736 0 discriminator 1
 814 001a B821     		movs	r1, #184
 815              	.LVL145:
ARM GAS  C:\Users\Austina\AppData\Local\Temp\ccWHIwhf.s 			page 39


 816 001c 8900     		lsls	r1, r1, #2
 817 001e 0F48     		ldr	r0, .L54+4
 818              	.LVL146:
 819 0020 FFF7FEFF 		bl	Cy_SysLib_AssertFailed
 820              	.LVL147:
 821              	.L50:
 741:Generated_Source\PSoC6/CapSense_Processing.c **** 
 822              		.loc 1 741 0
 823 0024 0C4B     		ldr	r3, .L54
 824 0026 1B19     		adds	r3, r3, r4
 825 0028 1D76     		strb	r5, [r3, #24]
 744:Generated_Source\PSoC6/CapSense_Processing.c ****     wdStatusMask = CapSense_GET_WDGT_STATUS_MASK(widgetId);
 826              		.loc 1 744 0
 827 002a 6309     		lsrs	r3, r4, #5
 828              	.LVL148:
 745:Generated_Source\PSoC6/CapSense_Processing.c **** 
 829              		.loc 1 745 0
 830 002c 1F22     		movs	r2, #31
 831 002e 1440     		ands	r4, r2
 832              	.LVL149:
 833 0030 1E3A     		subs	r2, r2, #30
 834 0032 A240     		lsls	r2, r2, r4
 835              	.LVL150:
 748:Generated_Source\PSoC6/CapSense_Processing.c ****     {
 836              		.loc 1 748 0
 837 0034 002D     		cmp	r5, #0
 838 0036 07D1     		bne	.L51
 750:Generated_Source\PSoC6/CapSense_Processing.c ****     }
 839              		.loc 1 750 0
 840 0038 0433     		adds	r3, r3, #4
 841              	.LVL151:
 842 003a 9B00     		lsls	r3, r3, #2
 843              	.LVL152:
 844 003c 0649     		ldr	r1, .L54
 845 003e CB18     		adds	r3, r1, r3
 846 0040 5968     		ldr	r1, [r3, #4]
 847 0042 9143     		bics	r1, r2
 848 0044 5960     		str	r1, [r3, #4]
 849 0046 06E0     		b	.L47
 850              	.LVL153:
 851              	.L51:
 754:Generated_Source\PSoC6/CapSense_Processing.c ****     }
 852              		.loc 1 754 0
 853 0048 0433     		adds	r3, r3, #4
 854              	.LVL154:
 855 004a 9B00     		lsls	r3, r3, #2
 856              	.LVL155:
 857 004c 0249     		ldr	r1, .L54
 858 004e CB18     		adds	r3, r1, r3
 859 0050 5968     		ldr	r1, [r3, #4]
 860 0052 0A43     		orrs	r2, r1
 861              	.LVL156:
 862 0054 5A60     		str	r2, [r3, #4]
 863              	.L47:
 756:Generated_Source\PSoC6/CapSense_Processing.c **** #endif /* #if CapSense_TOTAL_CSX_WIDGETS */
 864              		.loc 1 756 0
 865              		@ sp needed
ARM GAS  C:\Users\Austina\AppData\Local\Temp\ccWHIwhf.s 			page 40


 866              	.LVL157:
 867              	.LVL158:
 868 0056 70BD     		pop	{r4, r5, r6, pc}
 869              	.L55:
 870              		.align	2
 871              	.L54:
 872 0058 00000000 		.word	CapSense_dsRam
 873 005c 00000000 		.word	.LC3
 874              		.cfi_endproc
 875              	.LFE40:
 876              		.size	CapSense_DpProcessCsxWidgetStatus, .-CapSense_DpProcessCsxWidgetStatus
 877              		.section	.text.CapSense_DpProcessSlider,"ax",%progbits
 878              		.align	2
 879              		.global	CapSense_DpProcessSlider
 880              		.code	16
 881              		.thumb_func
 882              		.type	CapSense_DpProcessSlider, %function
 883              	CapSense_DpProcessSlider:
 884              	.LFB47:
1282:Generated_Source\PSoC6/CapSense_Processing.c **** #endif /* #if ((0u != CapSense_BUTTON_WIDGET_EN) || (0u != CapSense_CSX_MATRIX_WIDGET_EN)) */
1283:Generated_Source\PSoC6/CapSense_Processing.c **** 
1284:Generated_Source\PSoC6/CapSense_Processing.c **** 
1285:Generated_Source\PSoC6/CapSense_Processing.c **** #if (0u != CapSense_PROXIMITY_WIDGET_EN)
1286:Generated_Source\PSoC6/CapSense_Processing.c **** /*******************************************************************************
1287:Generated_Source\PSoC6/CapSense_Processing.c **** * Function Name: CapSense_DpProcessProximity
1288:Generated_Source\PSoC6/CapSense_Processing.c **** ****************************************************************************//**
1289:Generated_Source\PSoC6/CapSense_Processing.c **** *
1290:Generated_Source\PSoC6/CapSense_Processing.c **** * \brief
1291:Generated_Source\PSoC6/CapSense_Processing.c **** *   Processes the status of the Proximity widget.
1292:Generated_Source\PSoC6/CapSense_Processing.c **** *
1293:Generated_Source\PSoC6/CapSense_Processing.c **** * \details
1294:Generated_Source\PSoC6/CapSense_Processing.c **** *   This API processes the status of the CSD Proximity widget. It applies the
1295:Generated_Source\PSoC6/CapSense_Processing.c **** *   hysteresis and debounce algorithm to each sensor difference value.
1296:Generated_Source\PSoC6/CapSense_Processing.c **** *   The proximity and touch events are considered independently so debounce and
1297:Generated_Source\PSoC6/CapSense_Processing.c **** *   hysteresis are also applied independently.
1298:Generated_Source\PSoC6/CapSense_Processing.c **** *
1299:Generated_Source\PSoC6/CapSense_Processing.c **** *   This API is expected to be called after each new widget scan. If it is
1300:Generated_Source\PSoC6/CapSense_Processing.c **** *   called multiple times for the same scan data the debounce algorithm
1301:Generated_Source\PSoC6/CapSense_Processing.c **** *   will not work properly.
1302:Generated_Source\PSoC6/CapSense_Processing.c **** *
1303:Generated_Source\PSoC6/CapSense_Processing.c **** *   This API does not update any Data Structure registers
1304:Generated_Source\PSoC6/CapSense_Processing.c **** *   except the debounce counters.
1305:Generated_Source\PSoC6/CapSense_Processing.c **** *
1306:Generated_Source\PSoC6/CapSense_Processing.c **** * \param currStatus   The value with the current widget status.
1307:Generated_Source\PSoC6/CapSense_Processing.c **** * \param ptrFlashWdgt The pointer to the Flash Widget Object.
1308:Generated_Source\PSoC6/CapSense_Processing.c **** *
1309:Generated_Source\PSoC6/CapSense_Processing.c **** * \return
1310:Generated_Source\PSoC6/CapSense_Processing.c **** *  Returns the status of the proximity sensors. Each sensor is represented by two bits
1311:Generated_Source\PSoC6/CapSense_Processing.c **** *  that can take the following values:
1312:Generated_Source\PSoC6/CapSense_Processing.c **** *   - 00b not active
1313:Generated_Source\PSoC6/CapSense_Processing.c **** *   - 01b proximity is detected (signal is above finger threshold)
1314:Generated_Source\PSoC6/CapSense_Processing.c **** *   - 11b finger touch is detected (signal is above the touch threshold)
1315:Generated_Source\PSoC6/CapSense_Processing.c **** *
1316:Generated_Source\PSoC6/CapSense_Processing.c **** *******************************************************************************/
1317:Generated_Source\PSoC6/CapSense_Processing.c **** uint32 CapSense_DpProcessProximity(uint32 currStatus, CapSense_FLASH_WD_STRUCT const *ptrFlashWdgt)
1318:Generated_Source\PSoC6/CapSense_Processing.c **** {
1319:Generated_Source\PSoC6/CapSense_Processing.c ****     uint32 currTh;
ARM GAS  C:\Users\Austina\AppData\Local\Temp\ccWHIwhf.s 			page 41


1320:Generated_Source\PSoC6/CapSense_Processing.c ****     uint32 snsCnt;
1321:Generated_Source\PSoC6/CapSense_Processing.c ****     uint32 snsMask;
1322:Generated_Source\PSoC6/CapSense_Processing.c ****     uint32 newStatus;
1323:Generated_Source\PSoC6/CapSense_Processing.c ****     uint32 difference;
1324:Generated_Source\PSoC6/CapSense_Processing.c **** 
1325:Generated_Source\PSoC6/CapSense_Processing.c ****     uint8 *ptrDebounceCnt;
1326:Generated_Source\PSoC6/CapSense_Processing.c ****     CapSense_RAM_SNS_STRUCT *ptrSnsTmp;
1327:Generated_Source\PSoC6/CapSense_Processing.c ****     CapSense_RAM_WD_PROXIMITY_STRUCT *ptrRamWdgt;
1328:Generated_Source\PSoC6/CapSense_Processing.c **** 
1329:Generated_Source\PSoC6/CapSense_Processing.c ****     /* Mask for proximity status bits. (All odd bits.) */
1330:Generated_Source\PSoC6/CapSense_Processing.c ****     const uint32 proxMask = UINT32_ODD_BITS_CONST;
1331:Generated_Source\PSoC6/CapSense_Processing.c **** 
1332:Generated_Source\PSoC6/CapSense_Processing.c ****     ptrSnsTmp = ptrFlashWdgt->ptr2SnsRam;
1333:Generated_Source\PSoC6/CapSense_Processing.c ****     ptrRamWdgt = (CapSense_RAM_WD_PROXIMITY_STRUCT *)ptrFlashWdgt->ptr2WdgtRam;
1334:Generated_Source\PSoC6/CapSense_Processing.c ****     ptrDebounceCnt = ptrFlashWdgt->ptr2DebounceArr;
1335:Generated_Source\PSoC6/CapSense_Processing.c **** 
1336:Generated_Source\PSoC6/CapSense_Processing.c ****     /* Get number of sensors and multiply it by 2 - proximity and touch statuses per sensor. */
1337:Generated_Source\PSoC6/CapSense_Processing.c ****     snsCnt = (uint32)ptrFlashWdgt->totalNumSns << 1u;
1338:Generated_Source\PSoC6/CapSense_Processing.c **** 
1339:Generated_Source\PSoC6/CapSense_Processing.c ****     /* Go through all sensor's status bits */
1340:Generated_Source\PSoC6/CapSense_Processing.c ****     snsMask = 1Lu;
1341:Generated_Source\PSoC6/CapSense_Processing.c ****     for (; snsCnt-- > 0u;)
1342:Generated_Source\PSoC6/CapSense_Processing.c ****     {
1343:Generated_Source\PSoC6/CapSense_Processing.c ****         difference = ptrSnsTmp->diff;
1344:Generated_Source\PSoC6/CapSense_Processing.c **** 
1345:Generated_Source\PSoC6/CapSense_Processing.c ****         /* Determine current event (proximity - odd; touch - even) and get appropriate threshold. *
1346:Generated_Source\PSoC6/CapSense_Processing.c ****         currTh = ptrRamWdgt->fingerTh;
1347:Generated_Source\PSoC6/CapSense_Processing.c **** 
1348:Generated_Source\PSoC6/CapSense_Processing.c ****         if (0u == (snsMask & proxMask))
1349:Generated_Source\PSoC6/CapSense_Processing.c ****         {
1350:Generated_Source\PSoC6/CapSense_Processing.c ****             currTh = ptrRamWdgt->proxTouchTh;
1351:Generated_Source\PSoC6/CapSense_Processing.c ****             ptrSnsTmp++;
1352:Generated_Source\PSoC6/CapSense_Processing.c ****         }
1353:Generated_Source\PSoC6/CapSense_Processing.c **** 
1354:Generated_Source\PSoC6/CapSense_Processing.c ****         /* Calculate finger threshold applying hysteresis based on current sensor state. */
1355:Generated_Source\PSoC6/CapSense_Processing.c ****         currTh = (0u == (currStatus & snsMask)) ? (currTh + ptrRamWdgt->hysteresis) : (currTh - ptr
1356:Generated_Source\PSoC6/CapSense_Processing.c **** 
1357:Generated_Source\PSoC6/CapSense_Processing.c ****         /* Determine new potential sensor state before de-bounce */
1358:Generated_Source\PSoC6/CapSense_Processing.c ****         newStatus = (difference > currTh) ? snsMask : 0Lu;
1359:Generated_Source\PSoC6/CapSense_Processing.c **** 
1360:Generated_Source\PSoC6/CapSense_Processing.c ****         /* Sensor state changed ? */
1361:Generated_Source\PSoC6/CapSense_Processing.c ****         if (newStatus != (currStatus & snsMask))
1362:Generated_Source\PSoC6/CapSense_Processing.c ****         {
1363:Generated_Source\PSoC6/CapSense_Processing.c ****             /* Decrement de-bounce counter */
1364:Generated_Source\PSoC6/CapSense_Processing.c ****             (*ptrDebounceCnt)--;
1365:Generated_Source\PSoC6/CapSense_Processing.c ****         }
1366:Generated_Source\PSoC6/CapSense_Processing.c **** 
1367:Generated_Source\PSoC6/CapSense_Processing.c ****         /*
1368:Generated_Source\PSoC6/CapSense_Processing.c ****         *  This piece of code has two objectives:
1369:Generated_Source\PSoC6/CapSense_Processing.c ****         *  1. Reset de-bounce counter if new sensor state has not changed.
1370:Generated_Source\PSoC6/CapSense_Processing.c ****         *     (It is possible that during previous processing cycles the sensor
1371:Generated_Source\PSoC6/CapSense_Processing.c ****         *     state was different which caused de-bounce counter change.)
1372:Generated_Source\PSoC6/CapSense_Processing.c ****         *  2. Set new sensor state after successful de-bounce.
1373:Generated_Source\PSoC6/CapSense_Processing.c ****         */
1374:Generated_Source\PSoC6/CapSense_Processing.c ****         if ((newStatus == (currStatus & snsMask)) || (0u == (*ptrDebounceCnt)))
1375:Generated_Source\PSoC6/CapSense_Processing.c ****         {
1376:Generated_Source\PSoC6/CapSense_Processing.c ****             /* Set new sensor status */
ARM GAS  C:\Users\Austina\AppData\Local\Temp\ccWHIwhf.s 			page 42


1377:Generated_Source\PSoC6/CapSense_Processing.c ****             currStatus &= ~snsMask;
1378:Generated_Source\PSoC6/CapSense_Processing.c ****             currStatus |= newStatus;
1379:Generated_Source\PSoC6/CapSense_Processing.c **** 
1380:Generated_Source\PSoC6/CapSense_Processing.c ****             /* Reset de-bounce counter */
1381:Generated_Source\PSoC6/CapSense_Processing.c ****             #if (0u != CapSense_OFF_DEBOUNCE_EN)
1382:Generated_Source\PSoC6/CapSense_Processing.c ****                 *ptrDebounceCnt = (0Lu == newStatus) ? ptrRamWdgt->onDebounce : ptrRamWdgt->offDebo
1383:Generated_Source\PSoC6/CapSense_Processing.c ****             #else
1384:Generated_Source\PSoC6/CapSense_Processing.c ****                 *ptrDebounceCnt = (0Lu == newStatus) ? ptrRamWdgt->onDebounce : DEFAULT_OFF_DEBOUNC
1385:Generated_Source\PSoC6/CapSense_Processing.c ****             #endif /* #if (0u != CapSense_OFF_DEBOUNCE_EN) */
1386:Generated_Source\PSoC6/CapSense_Processing.c ****         }
1387:Generated_Source\PSoC6/CapSense_Processing.c **** 
1388:Generated_Source\PSoC6/CapSense_Processing.c ****         ptrDebounceCnt++;
1389:Generated_Source\PSoC6/CapSense_Processing.c **** 
1390:Generated_Source\PSoC6/CapSense_Processing.c ****         /* Move sensor mask to the next sensor */
1391:Generated_Source\PSoC6/CapSense_Processing.c ****         snsMask <<= 1u;
1392:Generated_Source\PSoC6/CapSense_Processing.c ****     }
1393:Generated_Source\PSoC6/CapSense_Processing.c **** 
1394:Generated_Source\PSoC6/CapSense_Processing.c ****     return currStatus;
1395:Generated_Source\PSoC6/CapSense_Processing.c **** }
1396:Generated_Source\PSoC6/CapSense_Processing.c **** #endif /* #if (0u != CapSense_PROXIMITY_WIDGET_EN) */
1397:Generated_Source\PSoC6/CapSense_Processing.c **** 
1398:Generated_Source\PSoC6/CapSense_Processing.c **** 
1399:Generated_Source\PSoC6/CapSense_Processing.c **** #if (0u != CapSense_SLIDER_WIDGET_EN)
1400:Generated_Source\PSoC6/CapSense_Processing.c **** /*******************************************************************************
1401:Generated_Source\PSoC6/CapSense_Processing.c **** * Function Name: CapSense_DpProcessSlider
1402:Generated_Source\PSoC6/CapSense_Processing.c **** ****************************************************************************//**
1403:Generated_Source\PSoC6/CapSense_Processing.c **** *
1404:Generated_Source\PSoC6/CapSense_Processing.c **** * \brief
1405:Generated_Source\PSoC6/CapSense_Processing.c **** *   Processes the status of the Linear/Radial Slider widget.
1406:Generated_Source\PSoC6/CapSense_Processing.c **** *   The process involves running the Linear/Radial Centroid algorithm.
1407:Generated_Source\PSoC6/CapSense_Processing.c **** *
1408:Generated_Source\PSoC6/CapSense_Processing.c **** * \details
1409:Generated_Source\PSoC6/CapSense_Processing.c **** *   This API processes the status of the CSD Slider widget (Linear and Radial).
1410:Generated_Source\PSoC6/CapSense_Processing.c **** *   It applies the hysteresis and de-bounce algorithm to the widget ignoring
1411:Generated_Source\PSoC6/CapSense_Processing.c **** *   the individual states of the sensors.
1412:Generated_Source\PSoC6/CapSense_Processing.c **** *
1413:Generated_Source\PSoC6/CapSense_Processing.c **** *   This API is expected to be called after each new widget scan. If it is
1414:Generated_Source\PSoC6/CapSense_Processing.c **** *   called multiple times for the same scan data, the debounce algorithm
1415:Generated_Source\PSoC6/CapSense_Processing.c **** *   will not work properly.
1416:Generated_Source\PSoC6/CapSense_Processing.c **** *
1417:Generated_Source\PSoC6/CapSense_Processing.c **** *   Slider widgets do not support the ON to OFF debounce.
1418:Generated_Source\PSoC6/CapSense_Processing.c **** *
1419:Generated_Source\PSoC6/CapSense_Processing.c **** *   This API does not update any Data Structure registers
1420:Generated_Source\PSoC6/CapSense_Processing.c **** *   except the debounce counters.
1421:Generated_Source\PSoC6/CapSense_Processing.c **** *
1422:Generated_Source\PSoC6/CapSense_Processing.c **** * \param currStatus   The current sensor status of the Slider widget.
1423:Generated_Source\PSoC6/CapSense_Processing.c **** * \param ptrFlashWdgt The pointer to the Flash Widget Object.
1424:Generated_Source\PSoC6/CapSense_Processing.c **** *
1425:Generated_Source\PSoC6/CapSense_Processing.c **** * \return Returns the status of the widget's sensors. Bit #0 - corresponds to Sensor #0.
1426:Generated_Source\PSoC6/CapSense_Processing.c **** *
1427:Generated_Source\PSoC6/CapSense_Processing.c **** *******************************************************************************/
1428:Generated_Source\PSoC6/CapSense_Processing.c **** uint32 CapSense_DpProcessSlider(uint32 currStatus, CapSense_FLASH_WD_STRUCT const *ptrFlashWdgt)
1429:Generated_Source\PSoC6/CapSense_Processing.c **** {
 885              		.loc 1 1429 0
 886              		.cfi_startproc
 887              		@ args = 0, pretend = 0, frame = 8
 888              		@ frame_needed = 0, uses_anonymous_args = 0
ARM GAS  C:\Users\Austina\AppData\Local\Temp\ccWHIwhf.s 			page 43


 889              	.LVL159:
 890 0000 F0B5     		push	{r4, r5, r6, r7, lr}
 891              		.cfi_def_cfa_offset 20
 892              		.cfi_offset 4, -20
 893              		.cfi_offset 5, -16
 894              		.cfi_offset 6, -12
 895              		.cfi_offset 7, -8
 896              		.cfi_offset 14, -4
 897 0002 4746     		mov	r7, r8
 898 0004 80B4     		push	{r7}
 899              		.cfi_def_cfa_offset 24
 900              		.cfi_offset 8, -24
 901 0006 82B0     		sub	sp, sp, #8
 902              		.cfi_def_cfa_offset 32
 903 0008 8446     		mov	ip, r0
 904 000a 0F00     		movs	r7, r1
 905              	.LVL160:
1430:Generated_Source\PSoC6/CapSense_Processing.c ****     uint32 snsCnt;
1431:Generated_Source\PSoC6/CapSense_Processing.c ****     uint32 snsMask;
1432:Generated_Source\PSoC6/CapSense_Processing.c ****     uint32 touchTh;
1433:Generated_Source\PSoC6/CapSense_Processing.c ****     uint32 newStatus = 0Lu;
1434:Generated_Source\PSoC6/CapSense_Processing.c ****     uint8 * ptrDebounceCnt;
1435:Generated_Source\PSoC6/CapSense_Processing.c ****     CapSense_RAM_SNS_STRUCT *ptrSnsTmp;
1436:Generated_Source\PSoC6/CapSense_Processing.c ****     CapSense_RAM_WD_SLIDER_STRUCT *ptrRamWdgt;
1437:Generated_Source\PSoC6/CapSense_Processing.c **** 
1438:Generated_Source\PSoC6/CapSense_Processing.c ****     #if (0u != CapSense_POSITION_FILTER_EN)
1439:Generated_Source\PSoC6/CapSense_Processing.c ****         CapSense_SLIDER_POS_HISTORY_STRUCT *ptrHistory;
1440:Generated_Source\PSoC6/CapSense_Processing.c ****     #endif /* #if (0u != CapSense_POSITION_FILTER_EN) */
1441:Generated_Source\PSoC6/CapSense_Processing.c **** 
1442:Generated_Source\PSoC6/CapSense_Processing.c ****     uint32 touchIdx;
1443:Generated_Source\PSoC6/CapSense_Processing.c ****     uint32 touchCnt = 0Lu;
1444:Generated_Source\PSoC6/CapSense_Processing.c ****     uint16 newPos[CapSense_NUM_CENTROIDS];
1445:Generated_Source\PSoC6/CapSense_Processing.c **** 
1446:Generated_Source\PSoC6/CapSense_Processing.c ****     snsCnt = ptrFlashWdgt->totalNumSns;
 906              		.loc 1 1446 0
 907 000c 0B8B     		ldrh	r3, [r1, #24]
 908              	.LVL161:
1447:Generated_Source\PSoC6/CapSense_Processing.c ****     ptrSnsTmp = ptrFlashWdgt->ptr2SnsRam;
 909              		.loc 1 1447 0
 910 000e 8A68     		ldr	r2, [r1, #8]
 911              	.LVL162:
1448:Generated_Source\PSoC6/CapSense_Processing.c ****     ptrRamWdgt = (CapSense_RAM_WD_SLIDER_STRUCT *)ptrFlashWdgt->ptr2WdgtRam;
 912              		.loc 1 1448 0
 913 0010 4D68     		ldr	r5, [r1, #4]
 914              	.LVL163:
1449:Generated_Source\PSoC6/CapSense_Processing.c ****     ptrDebounceCnt = ptrFlashWdgt->ptr2DebounceArr;
 915              		.loc 1 1449 0
 916 0012 0969     		ldr	r1, [r1, #16]
 917              	.LVL164:
 918 0014 8846     		mov	r8, r1
 919              	.LVL165:
1450:Generated_Source\PSoC6/CapSense_Processing.c **** 
1451:Generated_Source\PSoC6/CapSense_Processing.c ****     #if (0u != CapSense_POSITION_FILTER_EN)
1452:Generated_Source\PSoC6/CapSense_Processing.c ****         ptrHistory = ptrFlashWdgt->ptr2PosHistory;
1453:Generated_Source\PSoC6/CapSense_Processing.c ****     #endif /* #if (0u != CapSense_POSITION_FILTER_EN) */
1454:Generated_Source\PSoC6/CapSense_Processing.c **** 
1455:Generated_Source\PSoC6/CapSense_Processing.c ****     /* Calculate touch threshold based on current slider state */
ARM GAS  C:\Users\Austina\AppData\Local\Temp\ccWHIwhf.s 			page 44


1456:Generated_Source\PSoC6/CapSense_Processing.c ****     touchTh = (0Lu == currStatus ) ?
1457:Generated_Source\PSoC6/CapSense_Processing.c ****               ((uint32)ptrRamWdgt->fingerTh + ptrRamWdgt->hysteresis) :
 920              		.loc 1 1457 0
 921 0016 0028     		cmp	r0, #0
 922 0018 03D1     		bne	.L57
 923              		.loc 1 1457 0 is_stmt 0 discriminator 1
 924 001a 6888     		ldrh	r0, [r5, #2]
 925              	.LVL166:
 926 001c A979     		ldrb	r1, [r5, #6]
 927              	.LVL167:
 928 001e 4018     		adds	r0, r0, r1
 929 0020 02E0     		b	.L58
 930              	.LVL168:
 931              	.L57:
1458:Generated_Source\PSoC6/CapSense_Processing.c ****               ((uint32)ptrRamWdgt->fingerTh - ptrRamWdgt->hysteresis);
 932              		.loc 1 1458 0 is_stmt 1 discriminator 2
 933 0022 6988     		ldrh	r1, [r5, #2]
 934              	.LVL169:
 935 0024 A879     		ldrb	r0, [r5, #6]
 936              	.LVL170:
1457:Generated_Source\PSoC6/CapSense_Processing.c ****               ((uint32)ptrRamWdgt->fingerTh - ptrRamWdgt->hysteresis);
 937              		.loc 1 1457 0 discriminator 2
 938 0026 081A     		subs	r0, r1, r0
 939              	.L58:
 940              	.LVL171:
1433:Generated_Source\PSoC6/CapSense_Processing.c ****     uint8 * ptrDebounceCnt;
 941              		.loc 1 1433 0
 942 0028 0024     		movs	r4, #0
1459:Generated_Source\PSoC6/CapSense_Processing.c **** 
1460:Generated_Source\PSoC6/CapSense_Processing.c ****     /* Go through all widget's sensors */
1461:Generated_Source\PSoC6/CapSense_Processing.c ****     snsMask = 1Lu;
 943              		.loc 1 1461 0
 944 002a 0121     		movs	r1, #1
1462:Generated_Source\PSoC6/CapSense_Processing.c ****     for (; snsCnt-- > 0Lu; )
 945              		.loc 1 1462 0
 946 002c 09E0     		b	.L59
 947              	.LVL172:
 948              	.L61:
1463:Generated_Source\PSoC6/CapSense_Processing.c ****     {
1464:Generated_Source\PSoC6/CapSense_Processing.c ****         /* Determine new potential sensor state */
1465:Generated_Source\PSoC6/CapSense_Processing.c ****         newStatus |= (ptrSnsTmp->diff > touchTh) ? snsMask : 0Lu;
 949              		.loc 1 1465 0
 950 002e D388     		ldrh	r3, [r2, #6]
 951 0030 9842     		cmp	r0, r3
 952 0032 01D3     		bcc	.L71
 953 0034 0023     		movs	r3, #0
 954 0036 00E0     		b	.L60
 955              	.L71:
 956 0038 0B00     		movs	r3, r1
 957              	.L60:
 958              		.loc 1 1465 0 is_stmt 0 discriminator 4
 959 003a 1C43     		orrs	r4, r3
 960              	.LVL173:
1466:Generated_Source\PSoC6/CapSense_Processing.c ****         ptrSnsTmp++;
 961              		.loc 1 1466 0 is_stmt 1 discriminator 4
 962 003c 0A32     		adds	r2, r2, #10
 963              	.LVL174:
ARM GAS  C:\Users\Austina\AppData\Local\Temp\ccWHIwhf.s 			page 45


1467:Generated_Source\PSoC6/CapSense_Processing.c **** 
1468:Generated_Source\PSoC6/CapSense_Processing.c ****         snsMask <<= 1u;
 964              		.loc 1 1468 0 discriminator 4
 965 003e 4900     		lsls	r1, r1, #1
 966              	.LVL175:
1462:Generated_Source\PSoC6/CapSense_Processing.c ****     {
 967              		.loc 1 1462 0 discriminator 4
 968 0040 3300     		movs	r3, r6
 969              	.LVL176:
 970              	.L59:
1462:Generated_Source\PSoC6/CapSense_Processing.c ****     {
 971              		.loc 1 1462 0 is_stmt 0
 972 0042 5E1E     		subs	r6, r3, #1
 973              	.LVL177:
 974 0044 002B     		cmp	r3, #0
 975 0046 F2D1     		bne	.L61
1469:Generated_Source\PSoC6/CapSense_Processing.c ****     }
1470:Generated_Source\PSoC6/CapSense_Processing.c **** 
1471:Generated_Source\PSoC6/CapSense_Processing.c ****     /* If widget is active, check whether debounce is needed */
1472:Generated_Source\PSoC6/CapSense_Processing.c ****     if (0Lu != newStatus)
 976              		.loc 1 1472 0 is_stmt 1
 977 0048 002C     		cmp	r4, #0
 978 004a 0CD0     		beq	.L62
1473:Generated_Source\PSoC6/CapSense_Processing.c ****     {
1474:Generated_Source\PSoC6/CapSense_Processing.c ****         if (0u < (*ptrDebounceCnt))
 979              		.loc 1 1474 0
 980 004c 4346     		mov	r3, r8
 981 004e 1B78     		ldrb	r3, [r3]
 982 0050 002B     		cmp	r3, #0
 983 0052 02D0     		beq	.L63
1475:Generated_Source\PSoC6/CapSense_Processing.c ****         {
1476:Generated_Source\PSoC6/CapSense_Processing.c ****             /* Decrement debounce counter */
1477:Generated_Source\PSoC6/CapSense_Processing.c ****             (*ptrDebounceCnt)--;
 984              		.loc 1 1477 0
 985 0054 013B     		subs	r3, r3, #1
 986 0056 4246     		mov	r2, r8
 987              	.LVL178:
 988 0058 1370     		strb	r3, [r2]
 989              	.L63:
1478:Generated_Source\PSoC6/CapSense_Processing.c ****         }
1479:Generated_Source\PSoC6/CapSense_Processing.c **** 
1480:Generated_Source\PSoC6/CapSense_Processing.c ****         if (0u == (*ptrDebounceCnt))
 990              		.loc 1 1480 0
 991 005a 4346     		mov	r3, r8
 992 005c 1B78     		ldrb	r3, [r3]
 993 005e 002B     		cmp	r3, #0
 994 0060 04D0     		beq	.L64
 995 0062 6446     		mov	r4, ip
 996              	.LVL179:
 997 0064 02E0     		b	.L64
 998              	.LVL180:
 999              	.L62:
1481:Generated_Source\PSoC6/CapSense_Processing.c ****         {
1482:Generated_Source\PSoC6/CapSense_Processing.c ****             /* Update slider sensor state when debounce completes */
1483:Generated_Source\PSoC6/CapSense_Processing.c ****             currStatus = newStatus;
1484:Generated_Source\PSoC6/CapSense_Processing.c ****         }
1485:Generated_Source\PSoC6/CapSense_Processing.c ****     }
ARM GAS  C:\Users\Austina\AppData\Local\Temp\ccWHIwhf.s 			page 46


1486:Generated_Source\PSoC6/CapSense_Processing.c ****     else
1487:Generated_Source\PSoC6/CapSense_Processing.c ****     {
1488:Generated_Source\PSoC6/CapSense_Processing.c ****         /* Reset debounce counter */
1489:Generated_Source\PSoC6/CapSense_Processing.c ****         *ptrDebounceCnt = ptrRamWdgt->onDebounce;
 1000              		.loc 1 1489 0
 1001 0066 EB79     		ldrb	r3, [r5, #7]
 1002 0068 4246     		mov	r2, r8
 1003              	.LVL181:
 1004 006a 1370     		strb	r3, [r2]
 1005              	.LVL182:
 1006              	.L64:
1490:Generated_Source\PSoC6/CapSense_Processing.c **** 
1491:Generated_Source\PSoC6/CapSense_Processing.c ****         /* Clear slider sensor state */
1492:Generated_Source\PSoC6/CapSense_Processing.c ****         currStatus = 0Lu;
1493:Generated_Source\PSoC6/CapSense_Processing.c ****     }
1494:Generated_Source\PSoC6/CapSense_Processing.c **** 
1495:Generated_Source\PSoC6/CapSense_Processing.c ****     /* Centroid processing */
1496:Generated_Source\PSoC6/CapSense_Processing.c ****     /* If there are active sensors after debounce run the centroid algorithm */
1497:Generated_Source\PSoC6/CapSense_Processing.c ****     if (0u != currStatus)
 1007              		.loc 1 1497 0
 1008 006c 002C     		cmp	r4, #0
 1009 006e 0AD0     		beq	.L72
1498:Generated_Source\PSoC6/CapSense_Processing.c ****     {
1499:Generated_Source\PSoC6/CapSense_Processing.c ****         /* Centroid always uses the lowest finger threshold (minus hysteresis)
1500:Generated_Source\PSoC6/CapSense_Processing.c ****          * to produce same results for first and all consecutive invocations */
1501:Generated_Source\PSoC6/CapSense_Processing.c ****         touchTh = (uint32)ptrRamWdgt->fingerTh - ptrRamWdgt->hysteresis;
 1010              		.loc 1 1501 0
 1011 0070 6B88     		ldrh	r3, [r5, #2]
 1012 0072 AA79     		ldrb	r2, [r5, #6]
 1013 0074 9A1A     		subs	r2, r3, r2
 1014              	.LVL183:
1502:Generated_Source\PSoC6/CapSense_Processing.c ****         snsCnt = ptrFlashWdgt->totalNumSns;
 1015              		.loc 1 1502 0
 1016 0076 3E8B     		ldrh	r6, [r7, #24]
 1017              	.LVL184:
1503:Generated_Source\PSoC6/CapSense_Processing.c **** 
1504:Generated_Source\PSoC6/CapSense_Processing.c ****         #if (0u != CapSense_TOTAL_DIPLEXED_SLIDERS)
1505:Generated_Source\PSoC6/CapSense_Processing.c ****             if ((0u != (ptrFlashWdgt->staticConfig & CapSense_DIPLEXING_MASK)))
1506:Generated_Source\PSoC6/CapSense_Processing.c ****             {
1507:Generated_Source\PSoC6/CapSense_Processing.c ****                 /* Run local maximum search for duplexed slider */
1508:Generated_Source\PSoC6/CapSense_Processing.c ****                 touchCnt = CapSense_DpFindLocalMaxDiplex(
1509:Generated_Source\PSoC6/CapSense_Processing.c ****                                 ptrFlashWdgt->ptr2SnsRam, snsCnt, ptrFlashWdgt->ptr2DiplexTable, to
1510:Generated_Source\PSoC6/CapSense_Processing.c **** 
1511:Generated_Source\PSoC6/CapSense_Processing.c ****                 /* Centroid calculation API requires double sensor count for the diplexed sliders. 
1512:Generated_Source\PSoC6/CapSense_Processing.c ****                 snsCnt *= 2u;
1513:Generated_Source\PSoC6/CapSense_Processing.c ****             }
1514:Generated_Source\PSoC6/CapSense_Processing.c ****             else
1515:Generated_Source\PSoC6/CapSense_Processing.c ****             {
1516:Generated_Source\PSoC6/CapSense_Processing.c ****                 /* Run local maximum search for NON-duplexed slider */
1517:Generated_Source\PSoC6/CapSense_Processing.c ****                 #if (CapSense_ENABLE == CapSense_4PTS_LOCAL_MAX_EN)
1518:Generated_Source\PSoC6/CapSense_Processing.c ****                     touchCnt = CapSense_DpFindLocalMaxSd4pts(ptrFlashWdgt, ptrFlashWdgt->ptr2SnsRam
1519:Generated_Source\PSoC6/CapSense_Processing.c ****                 #else
1520:Generated_Source\PSoC6/CapSense_Processing.c ****                     touchCnt = CapSense_DpFindLocalMaxSd(ptrFlashWdgt->ptr2SnsRam, snsCnt, touchTh)
1521:Generated_Source\PSoC6/CapSense_Processing.c ****                 #endif
1522:Generated_Source\PSoC6/CapSense_Processing.c ****             }
1523:Generated_Source\PSoC6/CapSense_Processing.c ****         #else
1524:Generated_Source\PSoC6/CapSense_Processing.c ****             /* Run local maximum search for NON-duplexed slider */
ARM GAS  C:\Users\Austina\AppData\Local\Temp\ccWHIwhf.s 			page 47


1525:Generated_Source\PSoC6/CapSense_Processing.c ****             #if (CapSense_ENABLE == CapSense_4PTS_LOCAL_MAX_EN)
1526:Generated_Source\PSoC6/CapSense_Processing.c ****                 touchCnt = CapSense_DpFindLocalMaxSd4pts(ptrFlashWdgt, ptrFlashWdgt->ptr2SnsRam, sn
1527:Generated_Source\PSoC6/CapSense_Processing.c ****             #else
1528:Generated_Source\PSoC6/CapSense_Processing.c ****                 touchCnt = CapSense_DpFindLocalMaxSd(ptrFlashWdgt->ptr2SnsRam, snsCnt, touchTh);
 1018              		.loc 1 1528 0
 1019 0078 3100     		movs	r1, r6
 1020              	.LVL185:
 1021 007a B868     		ldr	r0, [r7, #8]
 1022 007c FFF7FEFF 		bl	CapSense_DpFindLocalMaxSd
 1023              	.LVL186:
1529:Generated_Source\PSoC6/CapSense_Processing.c ****             #endif
1530:Generated_Source\PSoC6/CapSense_Processing.c ****         #endif /* #if (0u != CapSense_TOTAL_DIPLEXED_SLIDERS) */
1531:Generated_Source\PSoC6/CapSense_Processing.c **** 
1532:Generated_Source\PSoC6/CapSense_Processing.c ****         /* If at least one touch is detected */
1533:Generated_Source\PSoC6/CapSense_Processing.c ****         if (0u != touchCnt)
 1024              		.loc 1 1533 0
 1025 0080 0028     		cmp	r0, #0
 1026 0082 02D1     		bne	.L66
 1027 0084 23E0     		b	.L67
 1028              	.LVL187:
 1029              	.L72:
1443:Generated_Source\PSoC6/CapSense_Processing.c ****     uint16 newPos[CapSense_NUM_CENTROIDS];
 1030              		.loc 1 1443 0
 1031 0086 0020     		movs	r0, #0
 1032              	.LVL188:
 1033 0088 21E0     		b	.L67
 1034              	.LVL189:
 1035              	.L66:
1534:Generated_Source\PSoC6/CapSense_Processing.c ****         {
1535:Generated_Source\PSoC6/CapSense_Processing.c ****             /* Determine slider type and calculate new position(s) */
1536:Generated_Source\PSoC6/CapSense_Processing.c ****             #if (0u != CapSense_TOTAL_LINEAR_SLIDERS)
1537:Generated_Source\PSoC6/CapSense_Processing.c ****                 if ((CapSense_WD_TYPE_ENUM)ptrFlashWdgt->wdgtType == CapSense_WD_LINEAR_SLIDER_E)
 1036              		.loc 1 1537 0
 1037 008a BB7E     		ldrb	r3, [r7, #26]
 1038 008c 022B     		cmp	r3, #2
 1039 008e 1ED1     		bne	.L67
1538:Generated_Source\PSoC6/CapSense_Processing.c ****                 {
1539:Generated_Source\PSoC6/CapSense_Processing.c ****                     #if (CapSense_ENABLE == CapSense_SLIDER_MULT_METHOD)
1540:Generated_Source\PSoC6/CapSense_Processing.c ****                         touchCnt = CapSense_DpCalcLinearCentroid(newPos, (uint32)ptrFlashWdgt->xCen
1541:Generated_Source\PSoC6/CapSense_Processing.c ****                                     snsCnt, (uint32)(ptrFlashWdgt->xCentroidMultiplier >> 1));
1542:Generated_Source\PSoC6/CapSense_Processing.c ****                     #else
1543:Generated_Source\PSoC6/CapSense_Processing.c ****                         touchCnt = CapSense_DpCalcLinearCentroid(
1544:Generated_Source\PSoC6/CapSense_Processing.c ****                                         newPos, (uint32)ptrFlashWdgt->xCentroidMultiplier, snsCnt, 
 1040              		.loc 1 1544 0
 1041 0090 396A     		ldr	r1, [r7, #32]
1543:Generated_Source\PSoC6/CapSense_Processing.c ****                                         newPos, (uint32)ptrFlashWdgt->xCentroidMultiplier, snsCnt, 
 1042              		.loc 1 1543 0
 1043 0092 0023     		movs	r3, #0
 1044 0094 3200     		movs	r2, r6
 1045 0096 01A8     		add	r0, sp, #4
 1046              	.LVL190:
 1047 0098 FFF7FEFF 		bl	CapSense_DpCalcLinearCentroid
 1048              	.LVL191:
 1049              	.LBB8:
 1050              	.LBB9:
1545:Generated_Source\PSoC6/CapSense_Processing.c ****                     #endif
1546:Generated_Source\PSoC6/CapSense_Processing.c ****                     DpUpdateLinSlider(newPos, touchCnt, ptrFlashWdgt, ptrRamWdgt);
ARM GAS  C:\Users\Austina\AppData\Local\Temp\ccWHIwhf.s 			page 48


1547:Generated_Source\PSoC6/CapSense_Processing.c ****                 }
1548:Generated_Source\PSoC6/CapSense_Processing.c ****             #endif /* #if (0u != CapSense_TOTAL_LINEAR_SLIDERS) */
1549:Generated_Source\PSoC6/CapSense_Processing.c **** 
1550:Generated_Source\PSoC6/CapSense_Processing.c ****             #if (0u != CapSense_TOTAL_RADIAL_SLIDERS)
1551:Generated_Source\PSoC6/CapSense_Processing.c ****                 if ((CapSense_WD_TYPE_ENUM)ptrFlashWdgt->wdgtType == CapSense_WD_RADIAL_SLIDER_E)
1552:Generated_Source\PSoC6/CapSense_Processing.c ****                 {
1553:Generated_Source\PSoC6/CapSense_Processing.c ****                     touchCnt = CapSense_DpCalcRadialCentroid(
1554:Generated_Source\PSoC6/CapSense_Processing.c ****                                     newPos, (uint32)ptrFlashWdgt->xCentroidMultiplier, snsCnt);
1555:Generated_Source\PSoC6/CapSense_Processing.c ****                     DpUpdateRadSlider(newPos, touchCnt, ptrFlashWdgt, ptrRamWdgt);
1556:Generated_Source\PSoC6/CapSense_Processing.c ****                 }
1557:Generated_Source\PSoC6/CapSense_Processing.c ****             #endif /* #if (0u != CapSense_TOTAL_RADIAL_SLIDERS) */
1558:Generated_Source\PSoC6/CapSense_Processing.c ****         }
1559:Generated_Source\PSoC6/CapSense_Processing.c ****     }
1560:Generated_Source\PSoC6/CapSense_Processing.c **** 
1561:Generated_Source\PSoC6/CapSense_Processing.c ****     /* Clear not active position data slots */
1562:Generated_Source\PSoC6/CapSense_Processing.c ****     for (touchIdx = touchCnt; touchIdx < CapSense_NUM_CENTROIDS; touchIdx++)
1563:Generated_Source\PSoC6/CapSense_Processing.c ****     {
1564:Generated_Source\PSoC6/CapSense_Processing.c ****         ptrRamWdgt->position[touchIdx] = CapSense_SLIDER_POS_NONE;
1565:Generated_Source\PSoC6/CapSense_Processing.c **** 
1566:Generated_Source\PSoC6/CapSense_Processing.c ****         #if (0u != CapSense_POSITION_FILTER_EN)
1567:Generated_Source\PSoC6/CapSense_Processing.c ****             if (NULL != ptrHistory)
1568:Generated_Source\PSoC6/CapSense_Processing.c ****             {
1569:Generated_Source\PSoC6/CapSense_Processing.c ****                 CapSense_InitPosFiltersSd(&ptrHistory[touchIdx], CapSense_SLIDER_POS_NONE);
1570:Generated_Source\PSoC6/CapSense_Processing.c ****             }
1571:Generated_Source\PSoC6/CapSense_Processing.c ****         #endif /* #if (0u != CapSense_POSITION_FILTER_EN) */
1572:Generated_Source\PSoC6/CapSense_Processing.c ****     }
1573:Generated_Source\PSoC6/CapSense_Processing.c **** 
1574:Generated_Source\PSoC6/CapSense_Processing.c ****     return currStatus;
1575:Generated_Source\PSoC6/CapSense_Processing.c **** }
1576:Generated_Source\PSoC6/CapSense_Processing.c **** #endif /* #if (0u != CapSense_SLIDER_WIDGET_EN) */
1577:Generated_Source\PSoC6/CapSense_Processing.c **** 
1578:Generated_Source\PSoC6/CapSense_Processing.c **** #if (0u != CapSense_TOTAL_LINEAR_SLIDERS)
1579:Generated_Source\PSoC6/CapSense_Processing.c **** /*******************************************************************************
1580:Generated_Source\PSoC6/CapSense_Processing.c **** * Function Name: DpUpdateLinSlider
1581:Generated_Source\PSoC6/CapSense_Processing.c **** ****************************************************************************//**
1582:Generated_Source\PSoC6/CapSense_Processing.c **** *
1583:Generated_Source\PSoC6/CapSense_Processing.c **** * \brief
1584:Generated_Source\PSoC6/CapSense_Processing.c **** *   Updates the touch status of the Linear Slider widget.
1585:Generated_Source\PSoC6/CapSense_Processing.c **** *
1586:Generated_Source\PSoC6/CapSense_Processing.c **** * \details
1587:Generated_Source\PSoC6/CapSense_Processing.c **** *   This function updates the position data of the Linear Slider
1588:Generated_Source\PSoC6/CapSense_Processing.c **** *   in the Data Structure. Also, this function runs position filters for the
1589:Generated_Source\PSoC6/CapSense_Processing.c **** *   position data if any enabled.
1590:Generated_Source\PSoC6/CapSense_Processing.c **** *
1591:Generated_Source\PSoC6/CapSense_Processing.c **** * \param newPos       The pointer to the array with the new finger position coordinates.
1592:Generated_Source\PSoC6/CapSense_Processing.c **** * \param numTouches   The number of the coordinates in the newPos array.
1593:Generated_Source\PSoC6/CapSense_Processing.c **** * \param ptrFlashWdgt The pointer to the Flash Widget Object.
1594:Generated_Source\PSoC6/CapSense_Processing.c **** * \param ptrRamWdgt   The pointer to the RAM Widget Object.
1595:Generated_Source\PSoC6/CapSense_Processing.c **** *
1596:Generated_Source\PSoC6/CapSense_Processing.c **** *******************************************************************************/
1597:Generated_Source\PSoC6/CapSense_Processing.c **** __STATIC_INLINE void DpUpdateLinSlider(
1598:Generated_Source\PSoC6/CapSense_Processing.c ****                         const uint16 newPos[],
1599:Generated_Source\PSoC6/CapSense_Processing.c ****                         uint32 numTouches,
1600:Generated_Source\PSoC6/CapSense_Processing.c ****                         CapSense_FLASH_WD_STRUCT const *ptrFlashWdgt,
1601:Generated_Source\PSoC6/CapSense_Processing.c ****                         CapSense_RAM_WD_SLIDER_STRUCT *ptrRamWdgt)
1602:Generated_Source\PSoC6/CapSense_Processing.c **** {
1603:Generated_Source\PSoC6/CapSense_Processing.c ****     uint32 touchIdx;
ARM GAS  C:\Users\Austina\AppData\Local\Temp\ccWHIwhf.s 			page 49


1604:Generated_Source\PSoC6/CapSense_Processing.c **** 
1605:Generated_Source\PSoC6/CapSense_Processing.c ****     #if (0u != CapSense_POS_AVERAGE_FILTER_EN)
1606:Generated_Source\PSoC6/CapSense_Processing.c ****         uint16 tempPosition;
1607:Generated_Source\PSoC6/CapSense_Processing.c ****     #endif /* (0u != CapSense_POS_AVERAGE_FILTER_EN) */
1608:Generated_Source\PSoC6/CapSense_Processing.c **** 
1609:Generated_Source\PSoC6/CapSense_Processing.c ****     #if (0u == CapSense_POSITION_FILTER_EN)
1610:Generated_Source\PSoC6/CapSense_Processing.c ****         /* This parameter is unused in such configurations */
1611:Generated_Source\PSoC6/CapSense_Processing.c ****         (void)ptrFlashWdgt;
1612:Generated_Source\PSoC6/CapSense_Processing.c ****     #else
1613:Generated_Source\PSoC6/CapSense_Processing.c ****         uint16 filteredPosition;
1614:Generated_Source\PSoC6/CapSense_Processing.c ****         /* Get bitmask with the enabled filters */
1615:Generated_Source\PSoC6/CapSense_Processing.c ****         uint32 filterConfig = (uint32)ptrFlashWdgt->staticConfig;
1616:Generated_Source\PSoC6/CapSense_Processing.c ****         /* Get pointer to the position filter history */
1617:Generated_Source\PSoC6/CapSense_Processing.c ****         CapSense_SLIDER_POS_HISTORY_STRUCT *ptrHistory = ptrFlashWdgt->ptr2PosHistory;
1618:Generated_Source\PSoC6/CapSense_Processing.c ****     #endif /* #if (0u == CapSense_POSITION_FILTER_EN) */
1619:Generated_Source\PSoC6/CapSense_Processing.c **** 
1620:Generated_Source\PSoC6/CapSense_Processing.c ****     #if (0u != CapSense_POS_ADAPTIVE_IIR_FILTER_EN)
1621:Generated_Source\PSoC6/CapSense_Processing.c ****         ADAPTIVE_FILTER_CONTEXT_STRUCT contextAIIR;
1622:Generated_Source\PSoC6/CapSense_Processing.c ****         uint16 emptyPosition = 0;
1623:Generated_Source\PSoC6/CapSense_Processing.c ****     #endif /* (0u != CapSense_POS_ADAPTIVE_IIR_FILTER_EN) */
1624:Generated_Source\PSoC6/CapSense_Processing.c **** 
1625:Generated_Source\PSoC6/CapSense_Processing.c ****     /* Run Filter and update the position registers with the filtered data */
1626:Generated_Source\PSoC6/CapSense_Processing.c ****     for (touchIdx = 0u; touchIdx < numTouches; touchIdx++)
 1051              		.loc 1 1626 0
 1052 009c 0022     		movs	r2, #0
 1053 009e 0BE0     		b	.L68
 1054              	.LVL192:
 1055              	.L69:
1627:Generated_Source\PSoC6/CapSense_Processing.c ****     {
1628:Generated_Source\PSoC6/CapSense_Processing.c ****         #if (0u == CapSense_POSITION_FILTER_EN)
1629:Generated_Source\PSoC6/CapSense_Processing.c ****             /* If filters are not enabled just copy the position data */
1630:Generated_Source\PSoC6/CapSense_Processing.c ****             ptrRamWdgt->position[touchIdx] = newPos[touchIdx];
 1056              		.loc 1 1630 0
 1057 00a0 5300     		lsls	r3, r2, #1
 1058 00a2 02A9     		add	r1, sp, #8
 1059 00a4 8C46     		mov	ip, r1
 1060 00a6 6344     		add	r3, r3, ip
 1061 00a8 043B     		subs	r3, r3, #4
 1062 00aa 1988     		ldrh	r1, [r3]
 1063 00ac 1300     		movs	r3, r2
 1064 00ae 0833     		adds	r3, r3, #8
 1065 00b0 5B00     		lsls	r3, r3, #1
 1066 00b2 EB18     		adds	r3, r5, r3
 1067 00b4 9980     		strh	r1, [r3, #4]
1626:Generated_Source\PSoC6/CapSense_Processing.c ****     {
 1068              		.loc 1 1626 0
 1069 00b6 0132     		adds	r2, r2, #1
 1070              	.LVL193:
 1071              	.L68:
 1072 00b8 9042     		cmp	r0, r2
 1073 00ba F1D8     		bhi	.L69
 1074 00bc 07E0     		b	.L67
 1075              	.LVL194:
 1076              	.L70:
 1077              	.LBE9:
 1078              	.LBE8:
1564:Generated_Source\PSoC6/CapSense_Processing.c **** 
ARM GAS  C:\Users\Austina\AppData\Local\Temp\ccWHIwhf.s 			page 50


 1079              		.loc 1 1564 0 discriminator 3
 1080 00be 0300     		movs	r3, r0
 1081 00c0 0833     		adds	r3, r3, #8
 1082 00c2 5B00     		lsls	r3, r3, #1
 1083 00c4 EB18     		adds	r3, r5, r3
 1084 00c6 0122     		movs	r2, #1
 1085 00c8 5242     		rsbs	r2, r2, #0
 1086 00ca 9A80     		strh	r2, [r3, #4]
1562:Generated_Source\PSoC6/CapSense_Processing.c ****     {
 1087              		.loc 1 1562 0 discriminator 3
 1088 00cc 0130     		adds	r0, r0, #1
 1089              	.LVL195:
 1090              	.L67:
1562:Generated_Source\PSoC6/CapSense_Processing.c ****     {
 1091              		.loc 1 1562 0 is_stmt 0 discriminator 1
 1092 00ce 0028     		cmp	r0, #0
 1093 00d0 F5D0     		beq	.L70
1575:Generated_Source\PSoC6/CapSense_Processing.c **** #endif /* #if (0u != CapSense_SLIDER_WIDGET_EN) */
 1094              		.loc 1 1575 0 is_stmt 1
 1095 00d2 2000     		movs	r0, r4
 1096              	.LVL196:
 1097 00d4 02B0     		add	sp, sp, #8
 1098              		@ sp needed
 1099              	.LVL197:
 1100              	.LVL198:
 1101              	.LVL199:
 1102              	.LVL200:
 1103              	.LVL201:
 1104 00d6 04BC     		pop	{r2}
 1105 00d8 9046     		mov	r8, r2
 1106 00da F0BD     		pop	{r4, r5, r6, r7, pc}
 1107              		.cfi_endproc
 1108              	.LFE47:
 1109              		.size	CapSense_DpProcessSlider, .-CapSense_DpProcessSlider
 1110              		.section	.text.CapSense_DpProcessCsdWidgetStatus,"ax",%progbits
 1111              		.align	2
 1112              		.global	CapSense_DpProcessCsdWidgetStatus
 1113              		.code	16
 1114              		.thumb_func
 1115              		.type	CapSense_DpProcessCsdWidgetStatus, %function
 1116              	CapSense_DpProcessCsdWidgetStatus:
 1117              	.LFB43:
1016:Generated_Source\PSoC6/CapSense_Processing.c ****     uint32 sensorStatus;
 1118              		.loc 1 1016 0
 1119              		.cfi_startproc
 1120              		@ args = 0, pretend = 0, frame = 0
 1121              		@ frame_needed = 0, uses_anonymous_args = 0
 1122              	.LVL202:
 1123 0000 70B5     		push	{r4, r5, r6, lr}
 1124              		.cfi_def_cfa_offset 16
 1125              		.cfi_offset 4, -16
 1126              		.cfi_offset 5, -12
 1127              		.cfi_offset 6, -8
 1128              		.cfi_offset 14, -4
 1129 0002 0400     		movs	r4, r0
1022:Generated_Source\PSoC6/CapSense_Processing.c ****     sensorStatus = CapSense_dsRam.snsStatus[widgetId];
 1130              		.loc 1 1022 0
ARM GAS  C:\Users\Austina\AppData\Local\Temp\ccWHIwhf.s 			page 51


 1131 0004 8A7E     		ldrb	r2, [r1, #26]
 1132              	.LVL203:
1023:Generated_Source\PSoC6/CapSense_Processing.c **** 
 1133              		.loc 1 1023 0
 1134 0006 194B     		ldr	r3, .L81
 1135 0008 1B18     		adds	r3, r3, r0
 1136 000a 1D7E     		ldrb	r5, [r3, #24]
 1137              	.LVL204:
1025:Generated_Source\PSoC6/CapSense_Processing.c ****     {
 1138              		.loc 1 1025 0
 1139 000c 012A     		cmp	r2, #1
 1140 000e 04D0     		beq	.L75
 1141 0010 002A     		cmp	r2, #0
 1142 0012 0CD0     		beq	.L74
 1143 0014 032A     		cmp	r2, #3
 1144 0016 05D9     		bls	.L80
 1145 0018 09E0     		b	.L74
 1146              	.L75:
1029:Generated_Source\PSoC6/CapSense_Processing.c ****             break;
 1147              		.loc 1 1029 0
 1148 001a 2800     		movs	r0, r5
 1149              	.LVL205:
 1150 001c FFF7FEFF 		bl	CapSense_DpProcessButton
 1151              	.LVL206:
 1152 0020 0500     		movs	r5, r0
 1153              	.LVL207:
1030:Generated_Source\PSoC6/CapSense_Processing.c ****     #endif /* #if (0u != CapSense_BUTTON_WIDGET_EN) */
 1154              		.loc 1 1030 0
 1155 0022 08E0     		b	.L77
 1156              	.LVL208:
 1157              	.L80:
1036:Generated_Source\PSoC6/CapSense_Processing.c ****             break;
 1158              		.loc 1 1036 0
 1159 0024 2800     		movs	r0, r5
 1160              	.LVL209:
 1161 0026 FFF7FEFF 		bl	CapSense_DpProcessSlider
 1162              	.LVL210:
 1163 002a 0500     		movs	r5, r0
 1164              	.LVL211:
1037:Generated_Source\PSoC6/CapSense_Processing.c ****     #endif /* #if (0u != CapSense_SLIDER_WIDGET_EN) */
 1165              		.loc 1 1037 0
 1166 002c 03E0     		b	.L77
 1167              	.LVL212:
 1168              	.L74:
1062:Generated_Source\PSoC6/CapSense_Processing.c ****         break;
 1169              		.loc 1 1062 0 discriminator 1
 1170 002e 1049     		ldr	r1, .L81+4
 1171              	.LVL213:
 1172 0030 1048     		ldr	r0, .L81+8
 1173              	.LVL214:
 1174 0032 FFF7FEFF 		bl	Cy_SysLib_AssertFailed
 1175              	.LVL215:
 1176              	.L77:
1066:Generated_Source\PSoC6/CapSense_Processing.c **** 
 1177              		.loc 1 1066 0
 1178 0036 0D4B     		ldr	r3, .L81
 1179 0038 1B19     		adds	r3, r3, r4
ARM GAS  C:\Users\Austina\AppData\Local\Temp\ccWHIwhf.s 			page 52


 1180 003a 1D76     		strb	r5, [r3, #24]
1069:Generated_Source\PSoC6/CapSense_Processing.c ****     wdStatusMask = CapSense_GET_WDGT_STATUS_MASK(widgetId);
 1181              		.loc 1 1069 0
 1182 003c 6309     		lsrs	r3, r4, #5
 1183              	.LVL216:
1070:Generated_Source\PSoC6/CapSense_Processing.c **** 
 1184              		.loc 1 1070 0
 1185 003e 1F22     		movs	r2, #31
 1186 0040 1440     		ands	r4, r2
 1187              	.LVL217:
 1188 0042 1E3A     		subs	r2, r2, #30
 1189 0044 A240     		lsls	r2, r2, r4
 1190              	.LVL218:
1073:Generated_Source\PSoC6/CapSense_Processing.c ****     {
 1191              		.loc 1 1073 0
 1192 0046 002D     		cmp	r5, #0
 1193 0048 07D1     		bne	.L78
1075:Generated_Source\PSoC6/CapSense_Processing.c ****     }
 1194              		.loc 1 1075 0
 1195 004a 0433     		adds	r3, r3, #4
 1196              	.LVL219:
 1197 004c 9B00     		lsls	r3, r3, #2
 1198              	.LVL220:
 1199 004e 0749     		ldr	r1, .L81
 1200 0050 CB18     		adds	r3, r1, r3
 1201 0052 5968     		ldr	r1, [r3, #4]
 1202 0054 9143     		bics	r1, r2
 1203 0056 5960     		str	r1, [r3, #4]
 1204 0058 06E0     		b	.L73
 1205              	.LVL221:
 1206              	.L78:
1079:Generated_Source\PSoC6/CapSense_Processing.c ****     }
 1207              		.loc 1 1079 0
 1208 005a 0433     		adds	r3, r3, #4
 1209              	.LVL222:
 1210 005c 9B00     		lsls	r3, r3, #2
 1211              	.LVL223:
 1212 005e 0349     		ldr	r1, .L81
 1213 0060 CB18     		adds	r3, r1, r3
 1214 0062 5968     		ldr	r1, [r3, #4]
 1215 0064 0A43     		orrs	r2, r1
 1216              	.LVL224:
 1217 0066 5A60     		str	r2, [r3, #4]
 1218              	.L73:
1081:Generated_Source\PSoC6/CapSense_Processing.c **** #endif /* #if (0u != CapSense_TOTAL_CSD_WIDGETS) */
 1219              		.loc 1 1081 0
 1220              		@ sp needed
 1221              	.LVL225:
 1222              	.LVL226:
 1223 0068 70BD     		pop	{r4, r5, r6, pc}
 1224              	.L82:
 1225 006a C046     		.align	2
 1226              	.L81:
 1227 006c 00000000 		.word	CapSense_dsRam
 1228 0070 26040000 		.word	1062
 1229 0074 00000000 		.word	.LC3
 1230              		.cfi_endproc
ARM GAS  C:\Users\Austina\AppData\Local\Temp\ccWHIwhf.s 			page 53


 1231              	.LFE43:
 1232              		.size	CapSense_DpProcessCsdWidgetStatus, .-CapSense_DpProcessCsdWidgetStatus
 1233              		.section	.rodata.str1.4,"aMS",%progbits,1
 1234              		.align	2
 1235              	.LC3:
 1236 0000 47656E65 		.ascii	"Generated_Source\\PSoC6\\CapSense_Processing.c\000"
 1236      72617465 
 1236      645F536F 
 1236      75726365 
 1236      5C50536F 
 1237              		.text
 1238              	.Letext0:
 1239              		.file 2 "c:\\program files (x86)\\cypress\\psoc creator\\4.2\\psoc creator\\import\\gnu\\arm\\5.4.
 1240              		.file 3 "c:\\program files (x86)\\cypress\\psoc creator\\4.2\\psoc creator\\import\\gnu\\arm\\5.4.
 1241              		.file 4 "Generated_Source\\PSoC6\\pdl\\drivers/peripheral/syslib/cy_syslib.h"
 1242              		.file 5 "c:\\program files (x86)\\cypress\\psoc creator\\4.2\\psoc creator\\import\\gnu\\arm\\5.4.
 1243              		.file 6 "Generated_Source\\PSoC6\\CapSense_Configuration.h"
 1244              		.file 7 "Generated_Source\\PSoC6\\CapSense_SmartSense_LL.h"
 1245              		.file 8 "Generated_Source\\PSoC6\\CapSense_TMG.h"
 1246              		.file 9 "Generated_Source\\PSoC6\\CapSense_Structure.h"
 1247              		.file 10 "c:\\program files (x86)\\cypress\\psoc creator\\4.2\\psoc creator\\import\\gnu\\arm\\5.4
 1248              		.file 11 "Generated_Source\\PSoC6\\CapSense_Filter.h"
 1249              		.file 12 "Generated_Source\\PSoC6\\CapSense_Centroid_LL.h"