ARM GAS  C:\Users\Austina\AppData\Local\Temp\ccARj7Xu.s 			page 1


   1              		.syntax unified
   2              		.cpu cortex-m4
   3              		.eabi_attribute 27, 1
   4              		.fpu fpv4-sp-d16
   5              		.eabi_attribute 20, 1
   6              		.eabi_attribute 21, 1
   7              		.eabi_attribute 23, 3
   8              		.eabi_attribute 24, 1
   9              		.eabi_attribute 25, 1
  10              		.eabi_attribute 26, 1
  11              		.eabi_attribute 30, 1
  12              		.eabi_attribute 34, 1
  13              		.eabi_attribute 18, 4
  14              		.thumb
  15              		.syntax unified
  16              		.file	"main_cm4.c"
  17              		.text
  18              	.Ltext0:
  19              		.cfi_sections	.debug_frame
  20              		.section	.text.bmi160Init,"ax",%progbits
  21              		.align	2
  22              		.thumb
  23              		.thumb_func
  24              		.type	bmi160Init, %function
  25              	bmi160Init:
  26              	.LFB516:
  27              		.file 1 "main_cm4.c"
   1:main_cm4.c    **** /* ========================================
   2:main_cm4.c    ****  *
   3:main_cm4.c    ****  * Copyright YOUR COMPANY, THE YEAR
   4:main_cm4.c    ****  * All Rights Reserved
   5:main_cm4.c    ****  * UNPUBLISHED, LICENSED SOFTWARE.
   6:main_cm4.c    ****  *
   7:main_cm4.c    ****  * CONFIDENTIAL AND PROPRIETARY INFORMATION
   8:main_cm4.c    ****  * WHICH IS THE PROPERTY OF your company.
   9:main_cm4.c    ****  *
  10:main_cm4.c    ****  * ========================================
  11:main_cm4.c    **** */
  12:main_cm4.c    **** #include "common.h"
  13:main_cm4.c    **** #include "bmi160.h"
  14:main_cm4.c    **** 
  15:main_cm4.c    **** static struct bmi160_dev bmi160Dev;
  16:main_cm4.c    **** 
  17:main_cm4.c    **** 
  18:main_cm4.c    **** typedef struct{
  19:main_cm4.c    ****     uint32_t i2cEvent;
  20:main_cm4.c    ****     char* i2cMessage;
  21:main_cm4.c    **** }i2cEvents_s;
  22:main_cm4.c    **** 
  23:main_cm4.c    **** volatile static uint32_t i2cStatus = 0;
  24:main_cm4.c    **** 
  25:main_cm4.c    **** i2cEvents_s i2cEvents[] = {
  26:main_cm4.c    ****     {CY_SCB_I2C_MASTER_MANUAL_ABORT_START,"CY_SCB_I2C_MASTER_MANUAL_ABORT_START"},
  27:main_cm4.c    ****     {CY_SCB_I2C_MASTER_MANUAL_BUS_ERR,"CY_SCB_I2C_MASTER_MANUAL_BUS_ERR"},
  28:main_cm4.c    ****     {CY_SCB_I2C_MASTER_MANUAL_ARB_LOST,"CY_SCB_I2C_MASTER_MANUAL_ARB_LOST"},
  29:main_cm4.c    ****     {CY_SCB_I2C_MASTER_MANUAL_NAK,"CY_SCB_I2C_MASTER_MANUAL_NAK"},
  30:main_cm4.c    ****     {CY_SCB_I2C_MASTER_MANUAL_ADDR_NAK,"CY_SCB_I2C_MASTER_MANUAL_ADDR_NAK"},
ARM GAS  C:\Users\Austina\AppData\Local\Temp\ccARj7Xu.s 			page 2


  31:main_cm4.c    ****     {CY_SCB_I2C_MASTER_MANUAL_TIMEOUT,"CY_SCB_I2C_MASTER_MANUAL_TIMEOUT"},
  32:main_cm4.c    ****     {CY_SCB_I2C_MASTER_NOT_READY,"CY_SCB_I2C_MASTER_NOT_READY"},
  33:main_cm4.c    ****     {CY_SCB_I2C_BAD_PARAM,"CY_SCB_I2C_BAD_PARAM"},
  34:main_cm4.c    ****     {0x00,"NONE"},
  35:main_cm4.c    **** };
  36:main_cm4.c    **** 
  37:main_cm4.c    **** void i2cStatusDecode( cy_en_scb_i2c_status_t i2cStatus)
  38:main_cm4.c    **** {
  39:main_cm4.c    ****     for(int i = 0; i2cEvents[i].i2cEvent != 0x00 ; i++)
  40:main_cm4.c    ****     {
  41:main_cm4.c    ****         if((i2cEvents[i].i2cEvent & i2cStatus)  == i2cEvents[i].i2cEvent)
  42:main_cm4.c    ****         {
  43:main_cm4.c    ****             serialPrint(i2cEvents[i].i2cMessage);
  44:main_cm4.c    ****         }
  45:main_cm4.c    ****     }
  46:main_cm4.c    **** }
  47:main_cm4.c    **** 
  48:main_cm4.c    **** #define I2C_TIMEOUT     20
  49:main_cm4.c    **** #if 1
  50:main_cm4.c    **** static int8_t BMI160BurstWrite(uint8_t devAddr,uint8_t regAddr,uint8_t *data,uint16_t len)
  51:main_cm4.c    **** {
  52:main_cm4.c    ****     cy_en_scb_i2c_status_t retStatus;
  53:main_cm4.c    ****     retStatus = Cy_SCB_I2C_MasterSendStart(I2C_1_HW,devAddr,CY_SCB_I2C_WRITE_XFER,0,&I2C_1_context)
  54:main_cm4.c    ****     if(retStatus)i2cStatusDecode(retStatus);
  55:main_cm4.c    ****     
  56:main_cm4.c    ****     retStatus = Cy_SCB_I2C_MasterWriteByte(I2C_1_HW,regAddr,I2C_TIMEOUT,&I2C_1_context);
  57:main_cm4.c    ****     if(retStatus)i2cStatusDecode(retStatus);
  58:main_cm4.c    ****     
  59:main_cm4.c    ****     for(int i =0;i<len;i++)
  60:main_cm4.c    ****     {
  61:main_cm4.c    ****         retStatus = Cy_SCB_I2C_MasterWriteByte(I2C_1_HW,data[i],I2C_TIMEOUT,&I2C_1_context);
  62:main_cm4.c    ****         if(retStatus)i2cStatusDecode(retStatus);
  63:main_cm4.c    ****     }
  64:main_cm4.c    ****     retStatus = Cy_SCB_I2C_MasterSendStop(I2C_1_HW,I2C_TIMEOUT,&I2C_1_context);
  65:main_cm4.c    ****     if(retStatus)i2cStatusDecode(retStatus);
  66:main_cm4.c    ****     return 0;
  67:main_cm4.c    **** }
  68:main_cm4.c    **** 
  69:main_cm4.c    **** 
  70:main_cm4.c    **** static int8_t BMI160BurstRead(uint8_t devAddr,uint8_t regAddr,uint8_t *data,uint16_t len)
  71:main_cm4.c    **** {
  72:main_cm4.c    ****     cy_en_scb_i2c_status_t retStatus;
  73:main_cm4.c    ****     retStatus = Cy_SCB_I2C_MasterSendStart(I2C_1_HW,devAddr,CY_SCB_I2C_WRITE_XFER,I2C_TIMEOUT,&I2C_
  74:main_cm4.c    ****     if(retStatus)i2cStatusDecode(retStatus);
  75:main_cm4.c    ****     
  76:main_cm4.c    ****     retStatus = Cy_SCB_I2C_MasterWriteByte(I2C_1_HW,regAddr,I2C_TIMEOUT,&I2C_1_context);
  77:main_cm4.c    ****     if(retStatus)i2cStatusDecode(retStatus);
  78:main_cm4.c    ****     
  79:main_cm4.c    ****     retStatus = Cy_SCB_I2C_MasterSendReStart(I2C_1_HW,devAddr,CY_SCB_I2C_READ_XFER,I2C_TIMEOUT,&I2C
  80:main_cm4.c    ****     if(retStatus)i2cStatusDecode(retStatus);
  81:main_cm4.c    ****     
  82:main_cm4.c    ****     for(int i = 0; i < len - 1; i++)
  83:main_cm4.c    ****     {
  84:main_cm4.c    ****         retStatus = Cy_SCB_I2C_MasterReadByte(I2C_1_HW,CY_SCB_I2C_ACK,&data[i],I2C_TIMEOUT,&I2C_1_c
  85:main_cm4.c    ****         if(retStatus)i2cStatusDecode(retStatus);
  86:main_cm4.c    ****     }
  87:main_cm4.c    ****     retStatus = Cy_SCB_I2C_MasterReadByte(I2C_1_HW,CY_SCB_I2C_NAK,&data[len-1],I2C_TIMEOUT,&I2C_1_c
ARM GAS  C:\Users\Austina\AppData\Local\Temp\ccARj7Xu.s 			page 3


  88:main_cm4.c    ****     if(retStatus)i2cStatusDecode(retStatus);
  89:main_cm4.c    ****     
  90:main_cm4.c    ****     retStatus = Cy_SCB_I2C_MasterSendStop(I2C_1_HW,I2C_TIMEOUT,&I2C_1_context);
  91:main_cm4.c    ****     if(retStatus)i2cStatusDecode(retStatus);
  92:main_cm4.c    ****     
  93:main_cm4.c    ****     return 0;
  94:main_cm4.c    **** }
  95:main_cm4.c    **** #else
  96:main_cm4.c    **** 
  97:main_cm4.c    **** static int8_t BMI160BurstWrite(uint8_t devAddr,uint8_t regAddr,uint8_t *data,uint16_t len)
  98:main_cm4.c    **** {
  99:main_cm4.c    ****     cy_stc_scb_i2c_master_xfer_config_t transfer;
 100:main_cm4.c    ****     /* Configure write transaction */
 101:main_cm4.c    ****     transfer.slaveAddress = devAddr;
 102:main_cm4.c    ****     transfer.buffer[0] = regAddr;
 103:main_cm4.c    ****     transfer.bufferSize   = len+1;
 104:main_cm4.c    ****     memcpy(&transfer.buffer[1],data,len);
 105:main_cm4.c    ****     //transfer.xferPending  = true; /* Do not generate Stop condition at the end of transaction */
 106:main_cm4.c    ****     transfer.xferPending  = false; /* Generate Stop condition at the end of transaction */
 107:main_cm4.c    ****     /* Initiate write transaction.
 108:main_cm4.c    ****     * The Start condition is generated to begin this transaction.
 109:main_cm4.c    ****     */
 110:main_cm4.c    ****     (void) Cy_SCB_I2C_MasterWrite(I2C_1_HW, &transfer, &I2C_1_context);
 111:main_cm4.c    ****     /* Wait for transaction completion */
 112:main_cm4.c    ****     while (0UL != (CY_SCB_I2C_MASTER_BUSY & Cy_SCB_I2C_MasterGetStatus(I2C_1_HW, &I2C_1_context)))
 113:main_cm4.c    ****     { 
 114:main_cm4.c    ****     }
 115:main_cm4.c    ****     
 116:main_cm4.c    ****     return 0;
 117:main_cm4.c    **** }
 118:main_cm4.c    **** 
 119:main_cm4.c    **** static int8_t BMI160BurstRead(uint8_t devAddr,uint8_t regAddr,uint8_t *data,uint16_t len)
 120:main_cm4.c    **** {
 121:main_cm4.c    ****     (void)regAddr;
 122:main_cm4.c    ****     cy_stc_scb_i2c_master_xfer_config_t transfer;
 123:main_cm4.c    ****     /* Configure write transaction */
 124:main_cm4.c    ****     transfer.slaveAddress = devAddr;
 125:main_cm4.c    ****     transfer.buffer = data;
 126:main_cm4.c    ****     transfer.bufferSize   = len;
 127:main_cm4.c    ****     //transfer.xferPending  = true; /* Do not generate Stop condition at the end of transaction */
 128:main_cm4.c    ****     transfer.xferPending  = false; /* Generate Stop condition at the end of transaction */
 129:main_cm4.c    ****     
 130:main_cm4.c    ****     BMI160BurstWrite(devAddr,regAddr,(uint8_t*)"NONE",0);
 131:main_cm4.c    ****     /* Initiate write transaction.
 132:main_cm4.c    ****     * The Start condition is generated to begin this transaction.
 133:main_cm4.c    ****     */
 134:main_cm4.c    ****     (void) Cy_SCB_I2C_MasterRead(I2C_1_HW, &transfer, &I2C_1_context);
 135:main_cm4.c    ****     /* Wait for transaction completion */
 136:main_cm4.c    ****     while (0UL != (CY_SCB_I2C_MASTER_BUSY & Cy_SCB_I2C_MasterGetStatus(I2C_1_HW, &I2C_1_context)))
 137:main_cm4.c    ****     { 
 138:main_cm4.c    ****     }
 139:main_cm4.c    ****     
 140:main_cm4.c    ****     return 0;
 141:main_cm4.c    **** }
 142:main_cm4.c    **** 
 143:main_cm4.c    **** #endif
 144:main_cm4.c    **** 
ARM GAS  C:\Users\Austina\AppData\Local\Temp\ccARj7Xu.s 			page 4


 145:main_cm4.c    **** static void bmi160Init(void)
 146:main_cm4.c    **** {
  28              		.loc 1 146 0
  29              		.cfi_startproc
  30              		@ args = 0, pretend = 0, frame = 0
  31              		@ frame_needed = 0, uses_anonymous_args = 0
  32 0000 10B5     		push	{r4, lr}
  33              		.cfi_def_cfa_offset 8
  34              		.cfi_offset 4, -8
  35              		.cfi_offset 14, -4
 147:main_cm4.c    ****     vTaskDelay(200);
  36              		.loc 1 147 0
  37 0002 C820     		movs	r0, #200
  38 0004 FFF7FEFF 		bl	vTaskDelay
  39              	.LVL0:
 148:main_cm4.c    ****     
 149:main_cm4.c    ****     bmi160Dev.read = (bmi160_read_fptr_t)BMI160BurstRead;
  40              		.loc 1 149 0
  41 0008 104C     		ldr	r4, .L3
  42 000a 114B     		ldr	r3, .L3+4
  43 000c E361     		str	r3, [r4, #28]
 150:main_cm4.c    ****     bmi160Dev.write = (bmi160_write_fptr_t)BMI160BurstWrite;
  44              		.loc 1 150 0
  45 000e 114B     		ldr	r3, .L3+8
  46 0010 2362     		str	r3, [r4, #32]
 151:main_cm4.c    ****     bmi160Dev.delay_ms = (bmi160_delay_fptr_t) vTaskDelay;
  47              		.loc 1 151 0
  48 0012 114B     		ldr	r3, .L3+12
  49 0014 6362     		str	r3, [r4, #36]
 152:main_cm4.c    ****     bmi160Dev.id = BMI160_I2C_ADDR;
  50              		.loc 1 152 0
  51 0016 6823     		movs	r3, #104
  52 0018 6370     		strb	r3, [r4, #1]
 153:main_cm4.c    ****     
 154:main_cm4.c    ****     bmi160_init(&bmi160Dev); //initialize the device
  53              		.loc 1 154 0
  54 001a 2046     		mov	r0, r4
  55 001c FFF7FEFF 		bl	bmi160_init
  56              	.LVL1:
 155:main_cm4.c    ****     
 156:main_cm4.c    ****     bmi160Dev.gyro_cfg.odr = BMI160_GYRO_ODR_800HZ;
  57              		.loc 1 156 0
  58 0020 0B23     		movs	r3, #11
  59 0022 6373     		strb	r3, [r4, #13]
 157:main_cm4.c    ****     bmi160Dev.gyro_cfg.range = BMI160_GYRO_RANGE_125_DPS;
  60              		.loc 1 157 0
  61 0024 0423     		movs	r3, #4
  62 0026 A373     		strb	r3, [r4, #14]
 158:main_cm4.c    ****     bmi160Dev.gyro_cfg.bw = BMI160_GYRO_BW_OSR4_MODE;
  63              		.loc 1 158 0
  64 0028 0023     		movs	r3, #0
  65 002a E373     		strb	r3, [r4, #15]
 159:main_cm4.c    ****     
 160:main_cm4.c    ****     bmi160Dev.gyro_cfg.power = BMI160_GYRO_NORMAL_MODE;
  66              		.loc 1 160 0
  67 002c 1522     		movs	r2, #21
  68 002e 2273     		strb	r2, [r4, #12]
ARM GAS  C:\Users\Austina\AppData\Local\Temp\ccARj7Xu.s 			page 5


 161:main_cm4.c    ****     
 162:main_cm4.c    ****     bmi160Dev.accel_cfg.odr = BMI160_ACCEL_ODR_1600HZ;
  69              		.loc 1 162 0
  70 0030 0C22     		movs	r2, #12
  71 0032 6271     		strb	r2, [r4, #5]
 163:main_cm4.c    ****     bmi160Dev.accel_cfg.range = BMI160_ACCEL_RANGE_2G;
  72              		.loc 1 163 0
  73 0034 0322     		movs	r2, #3
  74 0036 A271     		strb	r2, [r4, #6]
 164:main_cm4.c    ****     bmi160Dev.accel_cfg.bw = BMI160_ACCEL_BW_OSR4_AVG1;
  75              		.loc 1 164 0
  76 0038 E371     		strb	r3, [r4, #7]
 165:main_cm4.c    ****     bmi160Dev.accel_cfg.power = BMI160_ACCEL_NORMAL_MODE;
  77              		.loc 1 165 0
  78 003a 1123     		movs	r3, #17
  79 003c 2371     		strb	r3, [r4, #4]
 166:main_cm4.c    ****     
 167:main_cm4.c    ****     bmi160_set_sens_conf(&bmi160Dev);
  80              		.loc 1 167 0
  81 003e 2046     		mov	r0, r4
  82 0040 FFF7FEFF 		bl	bmi160_set_sens_conf
  83              	.LVL2:
 168:main_cm4.c    ****     bmi160Dev.delay_ms(50);   
  84              		.loc 1 168 0
  85 0044 636A     		ldr	r3, [r4, #36]
  86 0046 3220     		movs	r0, #50
  87 0048 9847     		blx	r3
  88              	.LVL3:
  89 004a 10BD     		pop	{r4, pc}
  90              	.L4:
  91              		.align	2
  92              	.L3:
  93 004c 00000000 		.word	.LANCHOR0
  94 0050 00000000 		.word	BMI160BurstRead
  95 0054 00000000 		.word	BMI160BurstWrite
  96 0058 00000000 		.word	vTaskDelay
  97              		.cfi_endproc
  98              	.LFE516:
  99              		.size	bmi160Init, .-bmi160Init
 100              		.global	__aeabi_f2d
 101              		.section	.text.motionTask,"ax",%progbits
 102              		.align	2
 103              		.global	motionTask
 104              		.thumb
 105              		.thumb_func
 106              		.type	motionTask, %function
 107              	motionTask:
 108              	.LFB517:
 169:main_cm4.c    ****     
 170:main_cm4.c    **** }
 171:main_cm4.c    **** 
 172:main_cm4.c    **** #define MAXACCEL        32768*2
 173:main_cm4.c    **** 
 174:main_cm4.c    **** void motionTask(void *arg)
 175:main_cm4.c    **** {
 109              		.loc 1 175 0
 110              		.cfi_startproc
ARM GAS  C:\Users\Austina\AppData\Local\Temp\ccARj7Xu.s 			page 6


 111              		@ args = 0, pretend = 0, frame = 16
 112              		@ frame_needed = 0, uses_anonymous_args = 0
 113              	.LVL4:
 114 0000 30B5     		push	{r4, r5, lr}
 115              		.cfi_def_cfa_offset 12
 116              		.cfi_offset 4, -12
 117              		.cfi_offset 5, -8
 118              		.cfi_offset 14, -4
 119 0002 2DED048B 		vpush.64	{d8, d9}
 120              		.cfi_def_cfa_offset 28
 121              		.cfi_offset 80, -28
 122              		.cfi_offset 81, -24
 123              		.cfi_offset 82, -20
 124              		.cfi_offset 83, -16
 125 0006 89B0     		sub	sp, sp, #36
 126              		.cfi_def_cfa_offset 64
 176:main_cm4.c    ****     (void) arg;
 177:main_cm4.c    ****     serialPrint("\x1b[2J\x1b[;H");
 127              		.loc 1 177 0
 128 0008 304D     		ldr	r5, .L8
 129 000a 2846     		mov	r0, r5
 130              	.LVL5:
 131 000c FFF7FEFF 		bl	printf
 132              	.LVL6:
 133 0010 2F48     		ldr	r0, .L8+4
 134 0012 FFF7FEFF 		bl	printf
 135              	.LVL7:
 136 0016 2F4C     		ldr	r4, .L8+8
 137 0018 2046     		mov	r0, r4
 138 001a FFF7FEFF 		bl	puts
 139              	.LVL8:
 178:main_cm4.c    ****     serialPrint("Starting Motion TASK");
 140              		.loc 1 178 0
 141 001e 2846     		mov	r0, r5
 142 0020 FFF7FEFF 		bl	printf
 143              	.LVL9:
 144 0024 2C48     		ldr	r0, .L8+12
 145 0026 FFF7FEFF 		bl	printf
 146              	.LVL10:
 147 002a 2046     		mov	r0, r4
 148 002c FFF7FEFF 		bl	puts
 149              	.LVL11:
 179:main_cm4.c    ****     I2C_1_Start();
 150              		.loc 1 179 0
 151 0030 FFF7FEFF 		bl	I2C_1_Start
 152              	.LVL12:
 180:main_cm4.c    ****     
 181:main_cm4.c    ****         vTaskDelay(20);
 153              		.loc 1 181 0
 154 0034 1420     		movs	r0, #20
 155 0036 FFF7FEFF 		bl	vTaskDelay
 156              	.LVL13:
 182:main_cm4.c    ****     bmi160Init();
 157              		.loc 1 182 0
 158 003a FFF7FEFF 		bl	bmi160Init
 159              	.LVL14:
 160              	.L6:
ARM GAS  C:\Users\Austina\AppData\Local\Temp\ccARj7Xu.s 			page 7


 183:main_cm4.c    ****     struct bmi160_sensor_data acc;
 184:main_cm4.c    ****     
 185:main_cm4.c    ****     float gx,gy,gz;
 186:main_cm4.c    ****     while(1)
 187:main_cm4.c    ****     {
 188:main_cm4.c    ****         bmi160_get_sensor_data(BMI160_ACCEL_ONLY,&acc,NULL,&bmi160Dev);
 161              		.loc 1 188 0 discriminator 1
 162 003e 274B     		ldr	r3, .L8+16
 163 0040 0022     		movs	r2, #0
 164 0042 05A9     		add	r1, sp, #20
 165 0044 0120     		movs	r0, #1
 166 0046 FFF7FEFF 		bl	bmi160_get_sensor_data
 167              	.LVL15:
 189:main_cm4.c    ****         
 190:main_cm4.c    ****         gx = (float)acc.x/MAXACCEL;
 168              		.loc 1 190 0 discriminator 1
 169 004a BDF91430 		ldrsh	r3, [sp, #20]
 170 004e 07EE103A 		vmov	s14, r3	@ int
 171 0052 B8EEC77A 		vcvt.f32.s32	s14, s14
 172 0056 DFED226A 		vldr.32	s13, .L8+20
 173 005a 27EE267A 		vmul.f32	s14, s14, s13
 174 005e 37EE079A 		vadd.f32	s18, s14, s14
 175              	.LVL16:
 191:main_cm4.c    ****         gy = (float)acc.y/MAXACCEL;
 176              		.loc 1 191 0 discriminator 1
 177 0062 BDF91630 		ldrsh	r3, [sp, #22]
 178 0066 07EE903A 		vmov	s15, r3	@ int
 179 006a F8EEE77A 		vcvt.f32.s32	s15, s15
 180 006e 67EEA67A 		vmul.f32	s15, s15, s13
 181 0072 37EEA78A 		vadd.f32	s16, s15, s15
 182              	.LVL17:
 192:main_cm4.c    ****         gz = (float)acc.z/MAXACCEL;
 183              		.loc 1 192 0 discriminator 1
 184 0076 BDF91830 		ldrsh	r3, [sp, #24]
 185 007a 07EE903A 		vmov	s15, r3	@ int
 186 007e F8EEE77A 		vcvt.f32.s32	s15, s15
 187 0082 67EEA67A 		vmul.f32	s15, s15, s13
 188 0086 77EEA78A 		vadd.f32	s17, s15, s15
 189              	.LVL18:
 193:main_cm4.c    ****         
 194:main_cm4.c    ****         serialPrintf("%1.2f\t%1.2f\t%1.2f\t",gx,gy,gz);
 190              		.loc 1 194 0 discriminator 1
 191 008a 1048     		ldr	r0, .L8
 192 008c FFF7FEFF 		bl	printf
 193              	.LVL19:
 194 0090 19EE100A 		vmov	r0, s18
 195 0094 FFF7FEFF 		bl	__aeabi_f2d
 196              	.LVL20:
 197 0098 0446     		mov	r4, r0
 198 009a 0D46     		mov	r5, r1
 199 009c 18EE900A 		vmov	r0, s17
 200 00a0 FFF7FEFF 		bl	__aeabi_f2d
 201              	.LVL21:
 202 00a4 CDE90201 		strd	r0, [sp, #8]
 203 00a8 18EE100A 		vmov	r0, s16
 204 00ac FFF7FEFF 		bl	__aeabi_f2d
 205              	.LVL22:
ARM GAS  C:\Users\Austina\AppData\Local\Temp\ccARj7Xu.s 			page 8


 206 00b0 CDE90001 		strd	r0, [sp]
 207 00b4 2246     		mov	r2, r4
 208 00b6 2B46     		mov	r3, r5
 209 00b8 0A48     		ldr	r0, .L8+24
 210 00ba FFF7FEFF 		bl	printf
 211              	.LVL23:
 212 00be 0548     		ldr	r0, .L8+8
 213 00c0 FFF7FEFF 		bl	puts
 214              	.LVL24:
 195:main_cm4.c    ****         vTaskDelay(100);
 215              		.loc 1 195 0 discriminator 1
 216 00c4 6420     		movs	r0, #100
 217 00c6 FFF7FEFF 		bl	vTaskDelay
 218              	.LVL25:
 219 00ca B8E7     		b	.L6
 220              	.L9:
 221              		.align	2
 222              	.L8:
 223 00cc 00000000 		.word	.LC0
 224 00d0 0C000000 		.word	.LC1
 225 00d4 18000000 		.word	.LC2
 226 00d8 1C000000 		.word	.LC3
 227 00dc 00000000 		.word	.LANCHOR0
 228 00e0 00000038 		.word	939524096
 229 00e4 34000000 		.word	.LC4
 230              		.cfi_endproc
 231              	.LFE517:
 232              		.size	motionTask, .-motionTask
 233              		.section	.text.i2cStatusDecode,"ax",%progbits
 234              		.align	2
 235              		.global	i2cStatusDecode
 236              		.thumb
 237              		.thumb_func
 238              		.type	i2cStatusDecode, %function
 239              	i2cStatusDecode:
 240              	.LFB513:
  38:main_cm4.c    ****     for(int i = 0; i2cEvents[i].i2cEvent != 0x00 ; i++)
 241              		.loc 1 38 0
 242              		.cfi_startproc
 243              		@ args = 0, pretend = 0, frame = 0
 244              		@ frame_needed = 0, uses_anonymous_args = 0
 245              	.LVL26:
 246 0000 38B5     		push	{r3, r4, r5, lr}
 247              		.cfi_def_cfa_offset 16
 248              		.cfi_offset 3, -16
 249              		.cfi_offset 4, -12
 250              		.cfi_offset 5, -8
 251              		.cfi_offset 14, -4
 252 0002 0546     		mov	r5, r0
 253              	.LVL27:
 254              	.LBB4:
  39:main_cm4.c    ****     {
 255              		.loc 1 39 0
 256 0004 0024     		movs	r4, #0
 257 0006 0EE0     		b	.L11
 258              	.LVL28:
 259              	.L13:
ARM GAS  C:\Users\Austina\AppData\Local\Temp\ccARj7Xu.s 			page 9


  41:main_cm4.c    ****         {
 260              		.loc 1 41 0
 261 0008 AB43     		bics	r3, r3, r5
 262 000a 0BD1     		bne	.L12
  43:main_cm4.c    ****         }
 263              		.loc 1 43 0
 264 000c 0948     		ldr	r0, .L15
 265 000e FFF7FEFF 		bl	printf
 266              	.LVL29:
 267 0012 094B     		ldr	r3, .L15+4
 268 0014 03EBC403 		add	r3, r3, r4, lsl #3
 269 0018 5868     		ldr	r0, [r3, #4]
 270 001a FFF7FEFF 		bl	printf
 271              	.LVL30:
 272 001e 0748     		ldr	r0, .L15+8
 273 0020 FFF7FEFF 		bl	puts
 274              	.LVL31:
 275              	.L12:
  39:main_cm4.c    ****     {
 276              		.loc 1 39 0 discriminator 2
 277 0024 0134     		adds	r4, r4, #1
 278              	.LVL32:
 279              	.L11:
  39:main_cm4.c    ****     {
 280              		.loc 1 39 0 is_stmt 0 discriminator 1
 281 0026 044B     		ldr	r3, .L15+4
 282 0028 53F83430 		ldr	r3, [r3, r4, lsl #3]
 283 002c 002B     		cmp	r3, #0
 284 002e EBD1     		bne	.L13
 285              	.LBE4:
  46:main_cm4.c    **** 
 286              		.loc 1 46 0 is_stmt 1
 287 0030 38BD     		pop	{r3, r4, r5, pc}
 288              	.LVL33:
 289              	.L16:
 290 0032 00BF     		.align	2
 291              	.L15:
 292 0034 00000000 		.word	.LC0
 293 0038 00000000 		.word	.LANCHOR1
 294 003c 18000000 		.word	.LC2
 295              		.cfi_endproc
 296              	.LFE513:
 297              		.size	i2cStatusDecode, .-i2cStatusDecode
 298              		.section	.text.BMI160BurstWrite,"ax",%progbits
 299              		.align	2
 300              		.thumb
 301              		.thumb_func
 302              		.type	BMI160BurstWrite, %function
 303              	BMI160BurstWrite:
 304              	.LFB514:
  51:main_cm4.c    ****     cy_en_scb_i2c_status_t retStatus;
 305              		.loc 1 51 0
 306              		.cfi_startproc
 307              		@ args = 0, pretend = 0, frame = 0
 308              		@ frame_needed = 0, uses_anonymous_args = 0
 309              	.LVL34:
 310 0000 70B5     		push	{r4, r5, r6, lr}
ARM GAS  C:\Users\Austina\AppData\Local\Temp\ccARj7Xu.s 			page 10


 311              		.cfi_def_cfa_offset 16
 312              		.cfi_offset 4, -16
 313              		.cfi_offset 5, -12
 314              		.cfi_offset 6, -8
 315              		.cfi_offset 14, -4
 316 0002 82B0     		sub	sp, sp, #8
 317              		.cfi_def_cfa_offset 24
 318 0004 0C46     		mov	r4, r1
 319 0006 1646     		mov	r6, r2
 320 0008 1D46     		mov	r5, r3
  53:main_cm4.c    ****     if(retStatus)i2cStatusDecode(retStatus);
 321              		.loc 1 53 0
 322 000a 164B     		ldr	r3, .L25
 323              	.LVL35:
 324 000c 0093     		str	r3, [sp]
 325 000e 0023     		movs	r3, #0
 326 0010 1A46     		mov	r2, r3
 327              	.LVL36:
 328 0012 0146     		mov	r1, r0
 329              	.LVL37:
 330 0014 1448     		ldr	r0, .L25+4
 331              	.LVL38:
 332 0016 FFF7FEFF 		bl	Cy_SCB_I2C_MasterSendStart
 333              	.LVL39:
  54:main_cm4.c    ****     
 334              		.loc 1 54 0
 335 001a 08B1     		cbz	r0, .L18
  54:main_cm4.c    ****     
 336              		.loc 1 54 0 is_stmt 0 discriminator 1
 337 001c FFF7FEFF 		bl	i2cStatusDecode
 338              	.LVL40:
 339              	.L18:
  56:main_cm4.c    ****     if(retStatus)i2cStatusDecode(retStatus);
 340              		.loc 1 56 0 is_stmt 1
 341 0020 104B     		ldr	r3, .L25
 342 0022 1422     		movs	r2, #20
 343 0024 2146     		mov	r1, r4
 344 0026 1048     		ldr	r0, .L25+4
 345 0028 FFF7FEFF 		bl	Cy_SCB_I2C_MasterWriteByte
 346              	.LVL41:
  57:main_cm4.c    ****     
 347              		.loc 1 57 0
 348 002c 08B1     		cbz	r0, .L19
  57:main_cm4.c    ****     
 349              		.loc 1 57 0 is_stmt 0 discriminator 1
 350 002e FFF7FEFF 		bl	i2cStatusDecode
 351              	.LVL42:
 352              	.L19:
  51:main_cm4.c    ****     cy_en_scb_i2c_status_t retStatus;
 353              		.loc 1 51 0 is_stmt 1 discriminator 1
 354 0032 0024     		movs	r4, #0
 355 0034 09E0     		b	.L20
 356              	.LVL43:
 357              	.L22:
 358              	.LBB5:
  61:main_cm4.c    ****         if(retStatus)i2cStatusDecode(retStatus);
 359              		.loc 1 61 0
ARM GAS  C:\Users\Austina\AppData\Local\Temp\ccARj7Xu.s 			page 11


 360 0036 0B4B     		ldr	r3, .L25
 361 0038 1422     		movs	r2, #20
 362 003a 315D     		ldrb	r1, [r6, r4]	@ zero_extendqisi2
 363 003c 0A48     		ldr	r0, .L25+4
 364 003e FFF7FEFF 		bl	Cy_SCB_I2C_MasterWriteByte
 365              	.LVL44:
  62:main_cm4.c    ****     }
 366              		.loc 1 62 0
 367 0042 08B1     		cbz	r0, .L21
  62:main_cm4.c    ****     }
 368              		.loc 1 62 0 is_stmt 0 discriminator 1
 369 0044 FFF7FEFF 		bl	i2cStatusDecode
 370              	.LVL45:
 371              	.L21:
  59:main_cm4.c    ****     {
 372              		.loc 1 59 0 is_stmt 1 discriminator 2
 373 0048 0134     		adds	r4, r4, #1
 374              	.LVL46:
 375              	.L20:
  59:main_cm4.c    ****     {
 376              		.loc 1 59 0 is_stmt 0 discriminator 1
 377 004a AC42     		cmp	r4, r5
 378 004c F3DB     		blt	.L22
 379              	.LBE5:
  64:main_cm4.c    ****     if(retStatus)i2cStatusDecode(retStatus);
 380              		.loc 1 64 0 is_stmt 1
 381 004e 054A     		ldr	r2, .L25
 382 0050 1421     		movs	r1, #20
 383 0052 0548     		ldr	r0, .L25+4
 384 0054 FFF7FEFF 		bl	Cy_SCB_I2C_MasterSendStop
 385              	.LVL47:
  65:main_cm4.c    ****     return 0;
 386              		.loc 1 65 0
 387 0058 08B1     		cbz	r0, .L23
  65:main_cm4.c    ****     return 0;
 388              		.loc 1 65 0 is_stmt 0 discriminator 1
 389 005a FFF7FEFF 		bl	i2cStatusDecode
 390              	.LVL48:
 391              	.L23:
  67:main_cm4.c    **** 
 392              		.loc 1 67 0 is_stmt 1
 393 005e 0020     		movs	r0, #0
 394 0060 02B0     		add	sp, sp, #8
 395              		.cfi_def_cfa_offset 16
 396              		@ sp needed
 397 0062 70BD     		pop	{r4, r5, r6, pc}
 398              	.LVL49:
 399              	.L26:
 400              		.align	2
 401              	.L25:
 402 0064 00000000 		.word	I2C_1_context
 403 0068 00006440 		.word	1080295424
 404              		.cfi_endproc
 405              	.LFE514:
 406              		.size	BMI160BurstWrite, .-BMI160BurstWrite
 407              		.section	.text.BMI160BurstRead,"ax",%progbits
 408              		.align	2
ARM GAS  C:\Users\Austina\AppData\Local\Temp\ccARj7Xu.s 			page 12


 409              		.thumb
 410              		.thumb_func
 411              		.type	BMI160BurstRead, %function
 412              	BMI160BurstRead:
 413              	.LFB515:
  71:main_cm4.c    ****     cy_en_scb_i2c_status_t retStatus;
 414              		.loc 1 71 0
 415              		.cfi_startproc
 416              		@ args = 0, pretend = 0, frame = 0
 417              		@ frame_needed = 0, uses_anonymous_args = 0
 418              	.LVL50:
 419 0000 F0B5     		push	{r4, r5, r6, r7, lr}
 420              		.cfi_def_cfa_offset 20
 421              		.cfi_offset 4, -20
 422              		.cfi_offset 5, -16
 423              		.cfi_offset 6, -12
 424              		.cfi_offset 7, -8
 425              		.cfi_offset 14, -4
 426 0002 83B0     		sub	sp, sp, #12
 427              		.cfi_def_cfa_offset 32
 428 0004 0446     		mov	r4, r0
 429 0006 0F46     		mov	r7, r1
 430 0008 1646     		mov	r6, r2
 431 000a 1D46     		mov	r5, r3
  73:main_cm4.c    ****     if(retStatus)i2cStatusDecode(retStatus);
 432              		.loc 1 73 0
 433 000c 234B     		ldr	r3, .L37
 434              	.LVL51:
 435 000e 0093     		str	r3, [sp]
 436 0010 1423     		movs	r3, #20
 437 0012 0022     		movs	r2, #0
 438              	.LVL52:
 439 0014 0146     		mov	r1, r0
 440              	.LVL53:
 441 0016 2248     		ldr	r0, .L37+4
 442              	.LVL54:
 443 0018 FFF7FEFF 		bl	Cy_SCB_I2C_MasterSendStart
 444              	.LVL55:
  74:main_cm4.c    ****     
 445              		.loc 1 74 0
 446 001c 08B1     		cbz	r0, .L28
  74:main_cm4.c    ****     
 447              		.loc 1 74 0 is_stmt 0 discriminator 1
 448 001e FFF7FEFF 		bl	i2cStatusDecode
 449              	.LVL56:
 450              	.L28:
  76:main_cm4.c    ****     if(retStatus)i2cStatusDecode(retStatus);
 451              		.loc 1 76 0 is_stmt 1
 452 0022 1E4B     		ldr	r3, .L37
 453 0024 1422     		movs	r2, #20
 454 0026 3946     		mov	r1, r7
 455 0028 1D48     		ldr	r0, .L37+4
 456 002a FFF7FEFF 		bl	Cy_SCB_I2C_MasterWriteByte
 457              	.LVL57:
  77:main_cm4.c    ****     
 458              		.loc 1 77 0
 459 002e 08B1     		cbz	r0, .L29
ARM GAS  C:\Users\Austina\AppData\Local\Temp\ccARj7Xu.s 			page 13


  77:main_cm4.c    ****     
 460              		.loc 1 77 0 is_stmt 0 discriminator 1
 461 0030 FFF7FEFF 		bl	i2cStatusDecode
 462              	.LVL58:
 463              	.L29:
  79:main_cm4.c    ****     if(retStatus)i2cStatusDecode(retStatus);
 464              		.loc 1 79 0 is_stmt 1
 465 0034 194B     		ldr	r3, .L37
 466 0036 0093     		str	r3, [sp]
 467 0038 1423     		movs	r3, #20
 468 003a 0122     		movs	r2, #1
 469 003c 2146     		mov	r1, r4
 470 003e 1848     		ldr	r0, .L37+4
 471 0040 FFF7FEFF 		bl	Cy_SCB_I2C_MasterSendReStart
 472              	.LVL59:
  80:main_cm4.c    ****     
 473              		.loc 1 80 0
 474 0044 08B1     		cbz	r0, .L30
  80:main_cm4.c    ****     
 475              		.loc 1 80 0 is_stmt 0 discriminator 1
 476 0046 FFF7FEFF 		bl	i2cStatusDecode
 477              	.LVL60:
 478              	.L30:
  71:main_cm4.c    ****     cy_en_scb_i2c_status_t retStatus;
 479              		.loc 1 71 0 is_stmt 1 discriminator 1
 480 004a 0024     		movs	r4, #0
 481 004c 0BE0     		b	.L31
 482              	.LVL61:
 483              	.L33:
 484              	.LBB6:
  84:main_cm4.c    ****         if(retStatus)i2cStatusDecode(retStatus);
 485              		.loc 1 84 0
 486 004e 134B     		ldr	r3, .L37
 487 0050 0093     		str	r3, [sp]
 488 0052 1423     		movs	r3, #20
 489 0054 3219     		adds	r2, r6, r4
 490 0056 0021     		movs	r1, #0
 491 0058 1148     		ldr	r0, .L37+4
 492 005a FFF7FEFF 		bl	Cy_SCB_I2C_MasterReadByte
 493              	.LVL62:
  85:main_cm4.c    ****     }
 494              		.loc 1 85 0
 495 005e 08B1     		cbz	r0, .L32
  85:main_cm4.c    ****     }
 496              		.loc 1 85 0 is_stmt 0 discriminator 1
 497 0060 FFF7FEFF 		bl	i2cStatusDecode
 498              	.LVL63:
 499              	.L32:
  82:main_cm4.c    ****     {
 500              		.loc 1 82 0 is_stmt 1 discriminator 2
 501 0064 0134     		adds	r4, r4, #1
 502              	.LVL64:
 503              	.L31:
  82:main_cm4.c    ****     {
 504              		.loc 1 82 0 is_stmt 0 discriminator 1
 505 0066 6B1E     		subs	r3, r5, #1
 506 0068 9C42     		cmp	r4, r3
ARM GAS  C:\Users\Austina\AppData\Local\Temp\ccARj7Xu.s 			page 14


 507 006a F0DB     		blt	.L33
 508              	.LBE6:
  87:main_cm4.c    ****     if(retStatus)i2cStatusDecode(retStatus);
 509              		.loc 1 87 0 is_stmt 1
 510 006c 1A46     		mov	r2, r3
 511 006e 0B4B     		ldr	r3, .L37
 512 0070 0093     		str	r3, [sp]
 513 0072 1423     		movs	r3, #20
 514 0074 3244     		add	r2, r2, r6
 515 0076 0121     		movs	r1, #1
 516 0078 0948     		ldr	r0, .L37+4
 517 007a FFF7FEFF 		bl	Cy_SCB_I2C_MasterReadByte
 518              	.LVL65:
  88:main_cm4.c    ****     
 519              		.loc 1 88 0
 520 007e 08B1     		cbz	r0, .L34
  88:main_cm4.c    ****     
 521              		.loc 1 88 0 is_stmt 0 discriminator 1
 522 0080 FFF7FEFF 		bl	i2cStatusDecode
 523              	.LVL66:
 524              	.L34:
  90:main_cm4.c    ****     if(retStatus)i2cStatusDecode(retStatus);
 525              		.loc 1 90 0 is_stmt 1
 526 0084 054A     		ldr	r2, .L37
 527 0086 1421     		movs	r1, #20
 528 0088 0548     		ldr	r0, .L37+4
 529 008a FFF7FEFF 		bl	Cy_SCB_I2C_MasterSendStop
 530              	.LVL67:
  91:main_cm4.c    ****     
 531              		.loc 1 91 0
 532 008e 08B1     		cbz	r0, .L35
  91:main_cm4.c    ****     
 533              		.loc 1 91 0 is_stmt 0 discriminator 1
 534 0090 FFF7FEFF 		bl	i2cStatusDecode
 535              	.LVL68:
 536              	.L35:
  94:main_cm4.c    **** #else
 537              		.loc 1 94 0 is_stmt 1
 538 0094 0020     		movs	r0, #0
 539 0096 03B0     		add	sp, sp, #12
 540              		.cfi_def_cfa_offset 20
 541              		@ sp needed
 542 0098 F0BD     		pop	{r4, r5, r6, r7, pc}
 543              	.LVL69:
 544              	.L38:
 545 009a 00BF     		.align	2
 546              	.L37:
 547 009c 00000000 		.word	I2C_1_context
 548 00a0 00006440 		.word	1080295424
 549              		.cfi_endproc
 550              	.LFE515:
 551              		.size	BMI160BurstRead, .-BMI160BurstRead
 552              		.section	.text.main,"ax",%progbits
 553              		.align	2
 554              		.global	main
 555              		.thumb
 556              		.thumb_func
ARM GAS  C:\Users\Austina\AppData\Local\Temp\ccARj7Xu.s 			page 15


 557              		.type	main, %function
 558              	main:
 559              	.LFB518:
 196:main_cm4.c    ****         
 197:main_cm4.c    ****     }
 198:main_cm4.c    **** }
 199:main_cm4.c    **** int main(void)
 200:main_cm4.c    **** {
 560              		.loc 1 200 0
 561              		.cfi_startproc
 562              		@ Volatile: function does not return.
 563              		@ args = 0, pretend = 0, frame = 0
 564              		@ frame_needed = 0, uses_anonymous_args = 0
 565 0000 00B5     		push	{lr}
 566              		.cfi_def_cfa_offset 4
 567              		.cfi_offset 14, -4
 568 0002 83B0     		sub	sp, sp, #12
 569              		.cfi_def_cfa_offset 16
 570              	.LBB7:
 571              	.LBB8:
 572              		.file 2 "Generated_Source\\PSoC6\\pdl\\cmsis/include/cmsis_gcc.h"
   1:Generated_Source\PSoC6\pdl\cmsis/include/cmsis_gcc.h **** /**************************************************************************//**
   2:Generated_Source\PSoC6\pdl\cmsis/include/cmsis_gcc.h ****  * @file     cmsis_gcc.h
   3:Generated_Source\PSoC6\pdl\cmsis/include/cmsis_gcc.h ****  * @brief    CMSIS compiler GCC header file
   4:Generated_Source\PSoC6\pdl\cmsis/include/cmsis_gcc.h ****  * @version  V5.0.3
   5:Generated_Source\PSoC6\pdl\cmsis/include/cmsis_gcc.h ****  * @date     16. January 2018
   6:Generated_Source\PSoC6\pdl\cmsis/include/cmsis_gcc.h ****  ******************************************************************************/
   7:Generated_Source\PSoC6\pdl\cmsis/include/cmsis_gcc.h **** /*
   8:Generated_Source\PSoC6\pdl\cmsis/include/cmsis_gcc.h ****  * Copyright (c) 2009-2017 ARM Limited. All rights reserved.
   9:Generated_Source\PSoC6\pdl\cmsis/include/cmsis_gcc.h ****  *
  10:Generated_Source\PSoC6\pdl\cmsis/include/cmsis_gcc.h ****  * SPDX-License-Identifier: Apache-2.0
  11:Generated_Source\PSoC6\pdl\cmsis/include/cmsis_gcc.h ****  *
  12:Generated_Source\PSoC6\pdl\cmsis/include/cmsis_gcc.h ****  * Licensed under the Apache License, Version 2.0 (the License); you may
  13:Generated_Source\PSoC6\pdl\cmsis/include/cmsis_gcc.h ****  * not use this file except in compliance with the License.
  14:Generated_Source\PSoC6\pdl\cmsis/include/cmsis_gcc.h ****  * You may obtain a copy of the License at
  15:Generated_Source\PSoC6\pdl\cmsis/include/cmsis_gcc.h ****  *
  16:Generated_Source\PSoC6\pdl\cmsis/include/cmsis_gcc.h ****  * www.apache.org/licenses/LICENSE-2.0
  17:Generated_Source\PSoC6\pdl\cmsis/include/cmsis_gcc.h ****  *
  18:Generated_Source\PSoC6\pdl\cmsis/include/cmsis_gcc.h ****  * Unless required by applicable law or agreed to in writing, software
  19:Generated_Source\PSoC6\pdl\cmsis/include/cmsis_gcc.h ****  * distributed under the License is distributed on an AS IS BASIS, WITHOUT
  20:Generated_Source\PSoC6\pdl\cmsis/include/cmsis_gcc.h ****  * WARRANTIES OR CONDITIONS OF ANY KIND, either express or implied.
  21:Generated_Source\PSoC6\pdl\cmsis/include/cmsis_gcc.h ****  * See the License for the specific language governing permissions and
  22:Generated_Source\PSoC6\pdl\cmsis/include/cmsis_gcc.h ****  * limitations under the License.
  23:Generated_Source\PSoC6\pdl\cmsis/include/cmsis_gcc.h ****  */
  24:Generated_Source\PSoC6\pdl\cmsis/include/cmsis_gcc.h **** 
  25:Generated_Source\PSoC6\pdl\cmsis/include/cmsis_gcc.h **** #ifndef __CMSIS_GCC_H
  26:Generated_Source\PSoC6\pdl\cmsis/include/cmsis_gcc.h **** #define __CMSIS_GCC_H
  27:Generated_Source\PSoC6\pdl\cmsis/include/cmsis_gcc.h **** 
  28:Generated_Source\PSoC6\pdl\cmsis/include/cmsis_gcc.h **** /* ignore some GCC warnings */
  29:Generated_Source\PSoC6\pdl\cmsis/include/cmsis_gcc.h **** #pragma GCC diagnostic push
  30:Generated_Source\PSoC6\pdl\cmsis/include/cmsis_gcc.h **** #pragma GCC diagnostic ignored "-Wsign-conversion"
  31:Generated_Source\PSoC6\pdl\cmsis/include/cmsis_gcc.h **** #pragma GCC diagnostic ignored "-Wconversion"
  32:Generated_Source\PSoC6\pdl\cmsis/include/cmsis_gcc.h **** #pragma GCC diagnostic ignored "-Wunused-parameter"
  33:Generated_Source\PSoC6\pdl\cmsis/include/cmsis_gcc.h **** 
  34:Generated_Source\PSoC6\pdl\cmsis/include/cmsis_gcc.h **** /* Fallback for __has_builtin */
  35:Generated_Source\PSoC6\pdl\cmsis/include/cmsis_gcc.h **** #ifndef __has_builtin
  36:Generated_Source\PSoC6\pdl\cmsis/include/cmsis_gcc.h ****   #define __has_builtin(x) (0)
ARM GAS  C:\Users\Austina\AppData\Local\Temp\ccARj7Xu.s 			page 16


  37:Generated_Source\PSoC6\pdl\cmsis/include/cmsis_gcc.h **** #endif
  38:Generated_Source\PSoC6\pdl\cmsis/include/cmsis_gcc.h **** 
  39:Generated_Source\PSoC6\pdl\cmsis/include/cmsis_gcc.h **** /* CMSIS compiler specific defines */
  40:Generated_Source\PSoC6\pdl\cmsis/include/cmsis_gcc.h **** #ifndef   __ASM
  41:Generated_Source\PSoC6\pdl\cmsis/include/cmsis_gcc.h ****   #define __ASM                                  __asm
  42:Generated_Source\PSoC6\pdl\cmsis/include/cmsis_gcc.h **** #endif
  43:Generated_Source\PSoC6\pdl\cmsis/include/cmsis_gcc.h **** #ifndef   __INLINE
  44:Generated_Source\PSoC6\pdl\cmsis/include/cmsis_gcc.h ****   #define __INLINE                               inline
  45:Generated_Source\PSoC6\pdl\cmsis/include/cmsis_gcc.h **** #endif
  46:Generated_Source\PSoC6\pdl\cmsis/include/cmsis_gcc.h **** #ifndef   __STATIC_INLINE
  47:Generated_Source\PSoC6\pdl\cmsis/include/cmsis_gcc.h ****   #define __STATIC_INLINE                        static inline
  48:Generated_Source\PSoC6\pdl\cmsis/include/cmsis_gcc.h **** #endif
  49:Generated_Source\PSoC6\pdl\cmsis/include/cmsis_gcc.h **** #ifndef   __STATIC_FORCEINLINE                 
  50:Generated_Source\PSoC6\pdl\cmsis/include/cmsis_gcc.h ****   #define __STATIC_FORCEINLINE                   __attribute__((always_inline)) static inline
  51:Generated_Source\PSoC6\pdl\cmsis/include/cmsis_gcc.h **** #endif                                           
  52:Generated_Source\PSoC6\pdl\cmsis/include/cmsis_gcc.h **** #ifndef   __NO_RETURN
  53:Generated_Source\PSoC6\pdl\cmsis/include/cmsis_gcc.h ****   #define __NO_RETURN                            __attribute__((__noreturn__))
  54:Generated_Source\PSoC6\pdl\cmsis/include/cmsis_gcc.h **** #endif
  55:Generated_Source\PSoC6\pdl\cmsis/include/cmsis_gcc.h **** #ifndef   __USED
  56:Generated_Source\PSoC6\pdl\cmsis/include/cmsis_gcc.h ****   #define __USED                                 __attribute__((used))
  57:Generated_Source\PSoC6\pdl\cmsis/include/cmsis_gcc.h **** #endif
  58:Generated_Source\PSoC6\pdl\cmsis/include/cmsis_gcc.h **** #ifndef   __WEAK
  59:Generated_Source\PSoC6\pdl\cmsis/include/cmsis_gcc.h ****   #define __WEAK                                 __attribute__((weak))
  60:Generated_Source\PSoC6\pdl\cmsis/include/cmsis_gcc.h **** #endif
  61:Generated_Source\PSoC6\pdl\cmsis/include/cmsis_gcc.h **** #ifndef   __PACKED
  62:Generated_Source\PSoC6\pdl\cmsis/include/cmsis_gcc.h ****   #define __PACKED                               __attribute__((packed, aligned(1)))
  63:Generated_Source\PSoC6\pdl\cmsis/include/cmsis_gcc.h **** #endif
  64:Generated_Source\PSoC6\pdl\cmsis/include/cmsis_gcc.h **** #ifndef   __PACKED_STRUCT
  65:Generated_Source\PSoC6\pdl\cmsis/include/cmsis_gcc.h ****   #define __PACKED_STRUCT                        struct __attribute__((packed, aligned(1)))
  66:Generated_Source\PSoC6\pdl\cmsis/include/cmsis_gcc.h **** #endif
  67:Generated_Source\PSoC6\pdl\cmsis/include/cmsis_gcc.h **** #ifndef   __PACKED_UNION
  68:Generated_Source\PSoC6\pdl\cmsis/include/cmsis_gcc.h ****   #define __PACKED_UNION                         union __attribute__((packed, aligned(1)))
  69:Generated_Source\PSoC6\pdl\cmsis/include/cmsis_gcc.h **** #endif
  70:Generated_Source\PSoC6\pdl\cmsis/include/cmsis_gcc.h **** #ifndef   __UNALIGNED_UINT32        /* deprecated */
  71:Generated_Source\PSoC6\pdl\cmsis/include/cmsis_gcc.h ****   #pragma GCC diagnostic push
  72:Generated_Source\PSoC6\pdl\cmsis/include/cmsis_gcc.h ****   #pragma GCC diagnostic ignored "-Wpacked"
  73:Generated_Source\PSoC6\pdl\cmsis/include/cmsis_gcc.h ****   #pragma GCC diagnostic ignored "-Wattributes"
  74:Generated_Source\PSoC6\pdl\cmsis/include/cmsis_gcc.h ****   struct __attribute__((packed)) T_UINT32 { uint32_t v; };
  75:Generated_Source\PSoC6\pdl\cmsis/include/cmsis_gcc.h ****   #pragma GCC diagnostic pop
  76:Generated_Source\PSoC6\pdl\cmsis/include/cmsis_gcc.h ****   #define __UNALIGNED_UINT32(x)                  (((struct T_UINT32 *)(x))->v)
  77:Generated_Source\PSoC6\pdl\cmsis/include/cmsis_gcc.h **** #endif
  78:Generated_Source\PSoC6\pdl\cmsis/include/cmsis_gcc.h **** #ifndef   __UNALIGNED_UINT16_WRITE
  79:Generated_Source\PSoC6\pdl\cmsis/include/cmsis_gcc.h ****   #pragma GCC diagnostic push
  80:Generated_Source\PSoC6\pdl\cmsis/include/cmsis_gcc.h ****   #pragma GCC diagnostic ignored "-Wpacked"
  81:Generated_Source\PSoC6\pdl\cmsis/include/cmsis_gcc.h ****   #pragma GCC diagnostic ignored "-Wattributes"
  82:Generated_Source\PSoC6\pdl\cmsis/include/cmsis_gcc.h ****   __PACKED_STRUCT T_UINT16_WRITE { uint16_t v; };
  83:Generated_Source\PSoC6\pdl\cmsis/include/cmsis_gcc.h ****   #pragma GCC diagnostic pop
  84:Generated_Source\PSoC6\pdl\cmsis/include/cmsis_gcc.h ****   #define __UNALIGNED_UINT16_WRITE(addr, val)    (void)((((struct T_UINT16_WRITE *)(void *)(addr))-
  85:Generated_Source\PSoC6\pdl\cmsis/include/cmsis_gcc.h **** #endif
  86:Generated_Source\PSoC6\pdl\cmsis/include/cmsis_gcc.h **** #ifndef   __UNALIGNED_UINT16_READ
  87:Generated_Source\PSoC6\pdl\cmsis/include/cmsis_gcc.h ****   #pragma GCC diagnostic push
  88:Generated_Source\PSoC6\pdl\cmsis/include/cmsis_gcc.h ****   #pragma GCC diagnostic ignored "-Wpacked"
  89:Generated_Source\PSoC6\pdl\cmsis/include/cmsis_gcc.h ****   #pragma GCC diagnostic ignored "-Wattributes"
  90:Generated_Source\PSoC6\pdl\cmsis/include/cmsis_gcc.h ****   __PACKED_STRUCT T_UINT16_READ { uint16_t v; };
  91:Generated_Source\PSoC6\pdl\cmsis/include/cmsis_gcc.h ****   #pragma GCC diagnostic pop
  92:Generated_Source\PSoC6\pdl\cmsis/include/cmsis_gcc.h ****   #define __UNALIGNED_UINT16_READ(addr)          (((const struct T_UINT16_READ *)(const void *)(add
  93:Generated_Source\PSoC6\pdl\cmsis/include/cmsis_gcc.h **** #endif
ARM GAS  C:\Users\Austina\AppData\Local\Temp\ccARj7Xu.s 			page 17


  94:Generated_Source\PSoC6\pdl\cmsis/include/cmsis_gcc.h **** #ifndef   __UNALIGNED_UINT32_WRITE
  95:Generated_Source\PSoC6\pdl\cmsis/include/cmsis_gcc.h ****   #pragma GCC diagnostic push
  96:Generated_Source\PSoC6\pdl\cmsis/include/cmsis_gcc.h ****   #pragma GCC diagnostic ignored "-Wpacked"
  97:Generated_Source\PSoC6\pdl\cmsis/include/cmsis_gcc.h ****   #pragma GCC diagnostic ignored "-Wattributes"
  98:Generated_Source\PSoC6\pdl\cmsis/include/cmsis_gcc.h ****   __PACKED_STRUCT T_UINT32_WRITE { uint32_t v; };
  99:Generated_Source\PSoC6\pdl\cmsis/include/cmsis_gcc.h ****   #pragma GCC diagnostic pop
 100:Generated_Source\PSoC6\pdl\cmsis/include/cmsis_gcc.h ****   #define __UNALIGNED_UINT32_WRITE(addr, val)    (void)((((struct T_UINT32_WRITE *)(void *)(addr))-
 101:Generated_Source\PSoC6\pdl\cmsis/include/cmsis_gcc.h **** #endif
 102:Generated_Source\PSoC6\pdl\cmsis/include/cmsis_gcc.h **** #ifndef   __UNALIGNED_UINT32_READ
 103:Generated_Source\PSoC6\pdl\cmsis/include/cmsis_gcc.h ****   #pragma GCC diagnostic push
 104:Generated_Source\PSoC6\pdl\cmsis/include/cmsis_gcc.h ****   #pragma GCC diagnostic ignored "-Wpacked"
 105:Generated_Source\PSoC6\pdl\cmsis/include/cmsis_gcc.h ****   #pragma GCC diagnostic ignored "-Wattributes"
 106:Generated_Source\PSoC6\pdl\cmsis/include/cmsis_gcc.h ****   __PACKED_STRUCT T_UINT32_READ { uint32_t v; };
 107:Generated_Source\PSoC6\pdl\cmsis/include/cmsis_gcc.h ****   #pragma GCC diagnostic pop
 108:Generated_Source\PSoC6\pdl\cmsis/include/cmsis_gcc.h ****   #define __UNALIGNED_UINT32_READ(addr)          (((const struct T_UINT32_READ *)(const void *)(add
 109:Generated_Source\PSoC6\pdl\cmsis/include/cmsis_gcc.h **** #endif
 110:Generated_Source\PSoC6\pdl\cmsis/include/cmsis_gcc.h **** #ifndef   __ALIGNED
 111:Generated_Source\PSoC6\pdl\cmsis/include/cmsis_gcc.h ****   #define __ALIGNED(x)                           __attribute__((aligned(x)))
 112:Generated_Source\PSoC6\pdl\cmsis/include/cmsis_gcc.h **** #endif
 113:Generated_Source\PSoC6\pdl\cmsis/include/cmsis_gcc.h **** #ifndef   __RESTRICT
 114:Generated_Source\PSoC6\pdl\cmsis/include/cmsis_gcc.h ****   #define __RESTRICT                             __restrict
 115:Generated_Source\PSoC6\pdl\cmsis/include/cmsis_gcc.h **** #endif
 116:Generated_Source\PSoC6\pdl\cmsis/include/cmsis_gcc.h **** 
 117:Generated_Source\PSoC6\pdl\cmsis/include/cmsis_gcc.h **** 
 118:Generated_Source\PSoC6\pdl\cmsis/include/cmsis_gcc.h **** /* ###########################  Core Function Access  ########################### */
 119:Generated_Source\PSoC6\pdl\cmsis/include/cmsis_gcc.h **** /** \ingroup  CMSIS_Core_FunctionInterface
 120:Generated_Source\PSoC6\pdl\cmsis/include/cmsis_gcc.h ****     \defgroup CMSIS_Core_RegAccFunctions CMSIS Core Register Access Functions
 121:Generated_Source\PSoC6\pdl\cmsis/include/cmsis_gcc.h ****   @{
 122:Generated_Source\PSoC6\pdl\cmsis/include/cmsis_gcc.h ****  */
 123:Generated_Source\PSoC6\pdl\cmsis/include/cmsis_gcc.h **** 
 124:Generated_Source\PSoC6\pdl\cmsis/include/cmsis_gcc.h **** /**
 125:Generated_Source\PSoC6\pdl\cmsis/include/cmsis_gcc.h ****   \brief   Enable IRQ Interrupts
 126:Generated_Source\PSoC6\pdl\cmsis/include/cmsis_gcc.h ****   \details Enables IRQ interrupts by clearing the I-bit in the CPSR.
 127:Generated_Source\PSoC6\pdl\cmsis/include/cmsis_gcc.h ****            Can only be executed in Privileged modes.
 128:Generated_Source\PSoC6\pdl\cmsis/include/cmsis_gcc.h ****  */
 129:Generated_Source\PSoC6\pdl\cmsis/include/cmsis_gcc.h **** __STATIC_FORCEINLINE void __enable_irq(void)
 130:Generated_Source\PSoC6\pdl\cmsis/include/cmsis_gcc.h **** {
 131:Generated_Source\PSoC6\pdl\cmsis/include/cmsis_gcc.h ****   __ASM volatile ("cpsie i" : : : "memory");
 573              		.loc 2 131 0
 574              		.syntax unified
 575              	@ 131 "Generated_Source\PSoC6\pdl\cmsis/include/cmsis_gcc.h" 1
 576 0004 62B6     		cpsie i
 577              	@ 0 "" 2
 578              		.thumb
 579              		.syntax unified
 580              	.LBE8:
 581              	.LBE7:
 201:main_cm4.c    ****     __enable_irq(); /* Enable global interrupts. */
 202:main_cm4.c    **** 
 203:main_cm4.c    ****     UART_1_Start();
 582              		.loc 1 203 0
 583 0006 FFF7FEFF 		bl	UART_1_Start
 584              	.LVL70:
 204:main_cm4.c    ****     xTaskCreate(motionTask,"MOTION TASK",400,0,1,0);
 585              		.loc 1 204 0
 586 000a 0023     		movs	r3, #0
 587 000c 0193     		str	r3, [sp, #4]
ARM GAS  C:\Users\Austina\AppData\Local\Temp\ccARj7Xu.s 			page 18


 588 000e 0122     		movs	r2, #1
 589 0010 0092     		str	r2, [sp]
 590 0012 4FF4C872 		mov	r2, #400
 591 0016 0349     		ldr	r1, .L42
 592 0018 0348     		ldr	r0, .L42+4
 593 001a FFF7FEFF 		bl	xTaskCreate
 594              	.LVL71:
 205:main_cm4.c    ****     vTaskStartScheduler();
 595              		.loc 1 205 0
 596 001e FFF7FEFF 		bl	vTaskStartScheduler
 597              	.LVL72:
 598              	.L40:
 599 0022 FEE7     		b	.L40
 600              	.L43:
 601              		.align	2
 602              	.L42:
 603 0024 48000000 		.word	.LC5
 604 0028 00000000 		.word	motionTask
 605              		.cfi_endproc
 606              	.LFE518:
 607              		.size	main, .-main
 608              		.global	i2cEvents
 609              		.comm	temp,100,4
 610              		.data
 611              		.align	2
 612              		.set	.LANCHOR1,. + 0
 613              		.type	i2cEvents, %object
 614              		.size	i2cEvents, 72
 615              	i2cEvents:
 616 0000 0820AA00 		.word	11149320
 617 0004 54000000 		.word	.LC6
 618 0008 0720AA00 		.word	11149319
 619 000c 7C000000 		.word	.LC7
 620 0010 0620AA00 		.word	11149318
 621 0014 A0000000 		.word	.LC8
 622 0018 0520AA00 		.word	11149317
 623 001c C4000000 		.word	.LC9
 624 0020 0420AA00 		.word	11149316
 625 0024 E4000000 		.word	.LC10
 626 0028 0320AA00 		.word	11149315
 627 002c 08010000 		.word	.LC11
 628 0030 0220AA00 		.word	11149314
 629 0034 2C010000 		.word	.LC12
 630 0038 0120AA00 		.word	11149313
 631 003c 48010000 		.word	.LC13
 632 0040 00000000 		.word	0
 633 0044 60010000 		.word	.LC14
 634              		.section	.rodata.str1.4,"aMS",%progbits,1
 635              		.align	2
 636              	.LC0:
 637 0000 5B205541 		.ascii	"[ UART ] : \000"
 637      5254205D 
 637      203A2000 
 638              	.LC1:
 639 000c 1B5B324A 		.ascii	"\033[2J\033[;H\000"
 639      1B5B3B48 
 639      00
ARM GAS  C:\Users\Austina\AppData\Local\Temp\ccARj7Xu.s 			page 19


 640 0015 000000   		.space	3
 641              	.LC2:
 642 0018 0D00     		.ascii	"\015\000"
 643 001a 0000     		.space	2
 644              	.LC3:
 645 001c 53746172 		.ascii	"Starting Motion TASK\000"
 645      74696E67 
 645      204D6F74 
 645      696F6E20 
 645      5441534B 
 646 0031 000000   		.space	3
 647              	.LC4:
 648 0034 25312E32 		.ascii	"%1.2f\011%1.2f\011%1.2f\011\000"
 648      66092531 
 648      2E326609 
 648      25312E32 
 648      660900
 649 0047 00       		.space	1
 650              	.LC5:
 651 0048 4D4F5449 		.ascii	"MOTION TASK\000"
 651      4F4E2054 
 651      41534B00 
 652              	.LC6:
 653 0054 43595F53 		.ascii	"CY_SCB_I2C_MASTER_MANUAL_ABORT_START\000"
 653      43425F49 
 653      32435F4D 
 653      41535445 
 653      525F4D41 
 654 0079 000000   		.space	3
 655              	.LC7:
 656 007c 43595F53 		.ascii	"CY_SCB_I2C_MASTER_MANUAL_BUS_ERR\000"
 656      43425F49 
 656      32435F4D 
 656      41535445 
 656      525F4D41 
 657 009d 000000   		.space	3
 658              	.LC8:
 659 00a0 43595F53 		.ascii	"CY_SCB_I2C_MASTER_MANUAL_ARB_LOST\000"
 659      43425F49 
 659      32435F4D 
 659      41535445 
 659      525F4D41 
 660 00c2 0000     		.space	2
 661              	.LC9:
 662 00c4 43595F53 		.ascii	"CY_SCB_I2C_MASTER_MANUAL_NAK\000"
 662      43425F49 
 662      32435F4D 
 662      41535445 
 662      525F4D41 
 663 00e1 000000   		.space	3
 664              	.LC10:
 665 00e4 43595F53 		.ascii	"CY_SCB_I2C_MASTER_MANUAL_ADDR_NAK\000"
 665      43425F49 
 665      32435F4D 
 665      41535445 
 665      525F4D41 
 666 0106 0000     		.space	2
ARM GAS  C:\Users\Austina\AppData\Local\Temp\ccARj7Xu.s 			page 20


 667              	.LC11:
 668 0108 43595F53 		.ascii	"CY_SCB_I2C_MASTER_MANUAL_TIMEOUT\000"
 668      43425F49 
 668      32435F4D 
 668      41535445 
 668      525F4D41 
 669 0129 000000   		.space	3
 670              	.LC12:
 671 012c 43595F53 		.ascii	"CY_SCB_I2C_MASTER_NOT_READY\000"
 671      43425F49 
 671      32435F4D 
 671      41535445 
 671      525F4E4F 
 672              	.LC13:
 673 0148 43595F53 		.ascii	"CY_SCB_I2C_BAD_PARAM\000"
 673      43425F49 
 673      32435F42 
 673      41445F50 
 673      4152414D 
 674 015d 000000   		.space	3
 675              	.LC14:
 676 0160 4E4F4E45 		.ascii	"NONE\000"
 676      00
 677              		.bss
 678              		.align	2
 679              		.set	.LANCHOR0,. + 0
 680              		.type	bmi160Dev, %object
 681              		.size	bmi160Dev, 44
 682              	bmi160Dev:
 683 0000 00000000 		.space	44
 683      00000000 
 683      00000000 
 683      00000000 
 683      00000000 
 684              		.type	i2cStatus, %object
 685              		.size	i2cStatus, 4
 686              	i2cStatus:
 687 002c 00000000 		.space	4
 688              		.text
 689              	.Letext0:
 690              		.file 3 "c:\\program files (x86)\\cypress\\psoc creator\\4.4\\psoc creator\\import\\gnu\\arm\\5.4.
 691              		.file 4 "c:\\program files (x86)\\cypress\\psoc creator\\4.4\\psoc creator\\import\\gnu\\arm\\5.4.
 692              		.file 5 "Generated_Source\\PSoC6\\pdl\\drivers/peripheral/device/cy_device.h"
 693              		.file 6 "Generated_Source\\PSoC6\\pdl\\devices/psoc6/include/ip/cyip_scb.h"
 694              		.file 7 "Generated_Source\\PSoC6\\pdl\\devices/psoc6/include/psoc6_01_config.h"
 695              		.file 8 "Generated_Source\\PSoC6\\pdl\\drivers/peripheral/scb/cy_scb_i2c.h"
 696              		.file 9 "Generated_Source\\PSoC6\\pdl\\drivers/peripheral/scb/cy_scb_uart.h"
 697              		.file 10 ".\\BMI160_driver-master/bmi160_defs.h"
 698              		.file 11 "Generated_Source\\PSoC6\\pdl\\cmsis/include/core_cm4.h"
 699              		.file 12 "Generated_Source\\PSoC6/I2C_1.h"
 700              		.file 13 "Generated_Source\\PSoC6/UART_1.h"
 701              		.file 14 "common.h"
 702              		.file 15 "Generated_Source\\PSoC6\\pdl\\rtos/FreeRTOS/10.0.1/Source/include/task.h"
 703              		.file 16 ".\\BMI160_driver-master/bmi160.h"
 704              		.file 17 "c:\\program files (x86)\\cypress\\psoc creator\\4.4\\psoc creator\\import\\gnu\\arm\\5.4
 705              		.file 18 "<built-in>"