ARM GAS  C:\Users\Austina\AppData\Local\Temp\cc8acxV8.s 			page 1


   1              		.syntax unified
   2              		.cpu cortex-m4
   3              		.eabi_attribute 27, 1
   4              		.fpu fpv4-sp-d16
   5              		.eabi_attribute 20, 1
   6              		.eabi_attribute 21, 1
   7              		.eabi_attribute 23, 3
   8              		.eabi_attribute 24, 1
   9              		.eabi_attribute 25, 1
  10              		.eabi_attribute 26, 1
  11              		.eabi_attribute 30, 1
  12              		.eabi_attribute 34, 1
  13              		.eabi_attribute 18, 4
  14              		.thumb
  15              		.syntax unified
  16              		.file	"BLETask.c"
  17              		.text
  18              	.Ltext0:
  19              		.cfi_sections	.debug_frame
  20              		.section	.text.bleInterruptNotify,"ax",%progbits
  21              		.align	2
  22              		.global	bleInterruptNotify
  23              		.thumb
  24              		.thumb_func
  25              		.type	bleInterruptNotify, %function
  26              	bleInterruptNotify:
  27              	.LFB505:
  28              		.file 1 "BLETask.c"
   1:BLETask.c     **** /* ========================================
   2:BLETask.c     ****  *
   3:BLETask.c     ****  * Copyright YOUR COMPANY, THE YEAR
   4:BLETask.c     ****  * All Rights Reserved
   5:BLETask.c     ****  * UNPUBLISHED, LICENSED SOFTWARE.
   6:BLETask.c     ****  *
   7:BLETask.c     ****  * CONFIDENTIAL AND PROPRIETARY INFORMATION
   8:BLETask.c     ****  * WHICH IS THE PROPERTY OF your company.
   9:BLETask.c     ****  *
  10:BLETask.c     ****  * ========================================
  11:BLETask.c     **** */
  12:BLETask.c     **** 
  13:BLETask.c     **** #include "BLETask.h"
  14:BLETask.c     **** 
  15:BLETask.c     **** SemaphoreHandle_t bleSemaphore;
  16:BLETask.c     **** 
  17:BLETask.c     **** motorToControl_t motorToControl[MOTORS_TO_CONTROL_MAX] = {
  18:BLETask.c     ****     {M1, POS_ABSOLUTE,CY_BLE_CUSTOMC_MOTOR_M1_CHAR_INDEX},
  19:BLETask.c     ****     {M1, POS_RELATIVE,CY_BLE_CUSTOMC_MOTOR_M1_REL_CHAR_INDEX},
  20:BLETask.c     ****     {M2, POS_ABSOLUTE,CY_BLE_CUSTOMC_MOTOR_M2_CHAR_INDEX},
  21:BLETask.c     ****     {M2, POS_RELATIVE,CY_BLE_CUSTOMC_MOTOR_M2_REL_CHAR_INDEX},
  22:BLETask.c     ****     {M3, POS_ABSOLUTE,CY_BLE_CUSTOMC_MOTOR_M3_CHAR_INDEX},
  23:BLETask.c     ****     {M3, POS_RELATIVE,CY_BLE_CUSTOMC_MOTOR_M3_REL_CHAR_INDEX},
  24:BLETask.c     ****     {M4, POS_ABSOLUTE,CY_BLE_CUSTOMC_MOTOR_M4_CHAR_INDEX},
  25:BLETask.c     ****     {M4, POS_RELATIVE,CY_BLE_CUSTOMC_MOTOR_M4_REL_CHAR_INDEX}
  26:BLETask.c     **** };
  27:BLETask.c     **** 
  28:BLETask.c     **** 
  29:BLETask.c     **** void writeMotorPosition(motors_t motor,motor_change_t type,uint8_t percent)
ARM GAS  C:\Users\Austina\AppData\Local\Temp\cc8acxV8.s 			page 2


  30:BLETask.c     **** {
  31:BLETask.c     ****     if(Cy_BLE_GetConnectionState(cy_ble_connHandle[0]) != CY_BLE_CONN_STATE_CLIENT_DISCOVERED)
  32:BLETask.c     ****     {
  33:BLETask.c     ****         ble_print("Not connected");
  34:BLETask.c     ****         return;
  35:BLETask.c     ****     }
  36:BLETask.c     ****     
  37:BLETask.c     ****     ble_printf("Motor = %d\tType = %d\tpercent = %d",motor,type,percent);
  38:BLETask.c     ****     
  39:BLETask.c     ****     cy_stc_ble_gattc_write_req_t myVal;
  40:BLETask.c     ****       
  41:BLETask.c     ****     
  42:BLETask.c     ****     for(int i = 0; i < MOTORS_TO_CONTROL_MAX; i++)
  43:BLETask.c     ****     {
  44:BLETask.c     ****         if((motor == motorToControl[i].motor) && (type == motorToControl[i].type))
  45:BLETask.c     ****         {
  46:BLETask.c     ****             myVal.handleValPair.attrHandle = cy_ble_customCServ[CY_BLE_CUSTOMC_MOTOR_SERVICE_INDEX]
  47:BLETask.c     ****         }
  48:BLETask.c     ****         
  49:BLETask.c     ****     }
  50:BLETask.c     ****     
  51:BLETask.c     ****     myVal.handleValPair.value.len = 1;
  52:BLETask.c     ****     myVal.handleValPair.value.val = (uint8_t *)&percent;
  53:BLETask.c     ****     ble_printf("Sent data %d",*(myVal.handleValPair.value.val));
  54:BLETask.c     ****     myVal.connHandle = cy_ble_connHandle[0];
  55:BLETask.c     ****     
  56:BLETask.c     ****     int i = 0;
  57:BLETask.c     ****     //wait for the data transfer to complete
  58:BLETask.c     ****     while(Cy_BLE_GATTC_WriteCharacteristicValue(&myVal) != CY_BLE_SUCCESS)
  59:BLETask.c     ****     {
  60:BLETask.c     ****         Cy_BLE_ProcessEvents();
  61:BLETask.c     ****         i++;
  62:BLETask.c     ****         if(i > 0xFFFE)
  63:BLETask.c     ****         {
  64:BLETask.c     ****             ble_print("BLE GATTC write error");
  65:BLETask.c     ****             return;
  66:BLETask.c     ****         }
  67:BLETask.c     ****     }
  68:BLETask.c     **** }
  69:BLETask.c     **** 
  70:BLETask.c     **** 
  71:BLETask.c     **** typedef struct{
  72:BLETask.c     ****     char * name;
  73:BLETask.c     ****     uint8_t * serviceUUID;
  74:BLETask.c     ****     int name_len;
  75:BLETask.c     ****     uint8_t servUUID_len;
  76:BLETask.c     **** }advInfo_t;
  77:BLETask.c     ****  
  78:BLETask.c     **** advInfo_t currentAdvInfo;
  79:BLETask.c     **** 
  80:BLETask.c     **** void findAdvInfo(uint8_t*adv,uint8_t len)
  81:BLETask.c     **** {
  82:BLETask.c     ****     memset (&currentAdvInfo,0,sizeof(currentAdvInfo));
  83:BLETask.c     ****     
  84:BLETask.c     ****     for(uint8_t i = 0; i< len;)
  85:BLETask.c     ****     {
  86:BLETask.c     ****         switch(adv[i+1])
ARM GAS  C:\Users\Austina\AppData\Local\Temp\cc8acxV8.s 			page 3


  87:BLETask.c     ****         {
  88:BLETask.c     ****             //Service ID to check for the service uuid
  89:BLETask.c     ****             case 0x07:
  90:BLETask.c     ****                 currentAdvInfo.serviceUUID = &adv[i+2];
  91:BLETask.c     ****                 currentAdvInfo.servUUID_len = adv[i]-1;
  92:BLETask.c     ****                 break;
  93:BLETask.c     ****             
  94:BLETask.c     ****             //Peripheral advertiser name
  95:BLETask.c     ****             case 0x09:
  96:BLETask.c     ****                 currentAdvInfo.name = (char*)&adv[i+2];                
  97:BLETask.c     ****                 currentAdvInfo.name_len = adv[i]-1;
  98:BLETask.c     ****             break;
  99:BLETask.c     ****             default:
 100:BLETask.c     ****             break;
 101:BLETask.c     ****                 
 102:BLETask.c     ****         }
 103:BLETask.c     ****         //if packet id does not match, then skip the whole packet by adding i with length
 104:BLETask.c     ****         i = i +  adv[i] + 1;
 105:BLETask.c     ****     }
 106:BLETask.c     **** }
 107:BLETask.c     **** 
 108:BLETask.c     **** void genericEventHandler(uint32_t event,void* eventParameter)
 109:BLETask.c     **** {
 110:BLETask.c     ****     switch(event)
 111:BLETask.c     ****     {
 112:BLETask.c     ****         case CY_BLE_EVT_STACK_ON:
 113:BLETask.c     ****         case CY_BLE_EVT_GAP_DEVICE_DISCONNECTED:
 114:BLETask.c     ****             ble_print("Starting Scan");
 115:BLETask.c     ****             //Start scan operation
 116:BLETask.c     ****             Cy_BLE_GAPC_StartScan(CY_BLE_SCANNING_FAST,0);
 117:BLETask.c     ****             //turn off the led
 118:BLETask.c     ****             Cy_GPIO_Set(GREEN_PORT,GREEN_NUM);
 119:BLETask.c     ****             Cy_GPIO_Clr(RED_PORT,RED_NUM);
 120:BLETask.c     ****         break;
 121:BLETask.c     ****         case CY_BLE_EVT_GAPC_SCAN_PROGRESS_RESULT:
 122:BLETask.c     ****             //Print out information about the device that was found
 123:BLETask.c     ****             ble_print("Device");
 124:BLETask.c     ****             cy_stc_ble_gapc_adv_report_param_t *scanProgressParam = (cy_stc_ble_gapc_adv_report_par
 125:BLETask.c     ****             printf("[ BLE ] : BD Addr = ");
 126:BLETask.c     ****             for(unsigned int i = 0; i < CY_BLE_BD_ADDR_SIZE;i++)
 127:BLETask.c     ****             {
 128:BLETask.c     ****                 printf("%02X ",scanProgressParam->peerBdAddr[i]);
 129:BLETask.c     ****             }
 130:BLETask.c     ****             printf("\r\n");
 131:BLETask.c     ****             ble_printf("Length = %d",scanProgressParam->dataLen);
 132:BLETask.c     ****             
 133:BLETask.c     ****             findAdvInfo(scanProgressParam->data,scanProgressParam->dataLen);
 134:BLETask.c     ****             if(currentAdvInfo.name != 0)
 135:BLETask.c     ****                 ble_printf("%.*s",currentAdvInfo.name_len,currentAdvInfo.name);
 136:BLETask.c     ****             
 137:BLETask.c     ****             if( (currentAdvInfo.servUUID_len > 0 )
 138:BLETask.c     ****                  && (memcmp(currentAdvInfo.serviceUUID,cy_ble_customCServ[CY_BLE_CUSTOMC_MOTOR_SERV
 139:BLETask.c     ****                   ,currentAdvInfo.servUUID_len) == 0))
 140:BLETask.c     ****             {
 141:BLETask.c     ****                 
 142:BLETask.c     ****                 ble_print("Found MOTOR Service ");
 143:BLETask.c     ****                 cy_stc_ble_bd_addr_t connectAddr;
ARM GAS  C:\Users\Austina\AppData\Local\Temp\cc8acxV8.s 			page 4


 144:BLETask.c     ****                 memcpy(&connectAddr.bdAddr[0],&scanProgressParam->peerBdAddr[0],CY_BLE_BD_ADDR_SIZE
 145:BLETask.c     ****                 connectAddr.type = scanProgressParam->peerAddrType;
 146:BLETask.c     ****                 Cy_BLE_GAPC_ConnectDevice(&connectAddr,0);
 147:BLETask.c     ****                 Cy_BLE_GAPC_StopScan();
 148:BLETask.c     ****             }
 149:BLETask.c     ****                 
 150:BLETask.c     ****         break;
 151:BLETask.c     ****         case CY_BLE_EVT_GATT_DISCONNECT_IND:
 152:BLETask.c     ****             Cy_GPIO_Set(GREEN_PORT,GREEN_NUM);
 153:BLETask.c     ****             Cy_GPIO_Clr(RED_PORT,RED_NUM);
 154:BLETask.c     ****             ble_print("Disconnected");
 155:BLETask.c     ****         break;
 156:BLETask.c     ****         case CY_BLE_EVT_GATT_CONNECT_IND:
 157:BLETask.c     ****             Cy_GPIO_Clr(GREEN_PORT,GREEN_NUM);
 158:BLETask.c     ****             Cy_GPIO_Set(RED_PORT,RED_NUM);
 159:BLETask.c     ****             ble_print("Made a connection, starting service discovery");
 160:BLETask.c     ****             Cy_BLE_GATTC_StartDiscovery(cy_ble_connHandle[0]);
 161:BLETask.c     ****         break;
 162:BLETask.c     ****         
 163:BLETask.c     ****         case CY_BLE_EVT_GATTC_DISCOVERY_COMPLETE:
 164:BLETask.c     ****             ble_print("Discovery Complete");
 165:BLETask.c     ****         break;
 166:BLETask.c     ****             
 167:BLETask.c     ****         case CY_BLE_EVT_GATTC_ERROR_RSP:
 168:BLETask.c     ****             ble_print("GATTC Error Response");
 169:BLETask.c     ****         break;
 170:BLETask.c     ****             
 171:BLETask.c     ****         case CY_BLE_EVT_GATTC_WRITE_RSP:
 172:BLETask.c     ****             ble_print("GATTC Write Succeeded");
 173:BLETask.c     ****         break;
 174:BLETask.c     ****             
 175:BLETask.c     ****         default:
 176:BLETask.c     ****         break;
 177:BLETask.c     ****     }
 178:BLETask.c     **** }
 179:BLETask.c     **** 
 180:BLETask.c     **** 
 181:BLETask.c     **** 
 182:BLETask.c     **** void bleInterruptNotify()
 183:BLETask.c     **** {
  29              		.loc 1 183 0
  30              		.cfi_startproc
  31              		@ args = 0, pretend = 0, frame = 8
  32              		@ frame_needed = 0, uses_anonymous_args = 0
  33 0000 00B5     		push	{lr}
  34              		.cfi_def_cfa_offset 4
  35              		.cfi_offset 14, -4
  36 0002 83B0     		sub	sp, sp, #12
  37              		.cfi_def_cfa_offset 16
 184:BLETask.c     ****     BaseType_t xHigherPriorityTaskWoken;
 185:BLETask.c     ****     xHigherPriorityTaskWoken = pdFALSE;
  38              		.loc 1 185 0
  39 0004 02A9     		add	r1, sp, #8
  40 0006 0023     		movs	r3, #0
  41 0008 41F8043D 		str	r3, [r1, #-4]!
 186:BLETask.c     ****     xSemaphoreGiveFromISR(bleSemaphore,&xHigherPriorityTaskWoken);
  42              		.loc 1 186 0
ARM GAS  C:\Users\Austina\AppData\Local\Temp\cc8acxV8.s 			page 5


  43 000c 084B     		ldr	r3, .L4
  44 000e 1868     		ldr	r0, [r3]
  45 0010 FFF7FEFF 		bl	xQueueGiveFromISR
  46              	.LVL0:
 187:BLETask.c     ****     //This part does a context switch by calling the scheduler to go the task where the semaphore c
 188:BLETask.c     ****     portYIELD_FROM_ISR(xHigherPriorityTaskWoken);
  47              		.loc 1 188 0
  48 0014 019B     		ldr	r3, [sp, #4]
  49 0016 3BB1     		cbz	r3, .L1
  50              		.loc 1 188 0 is_stmt 0 discriminator 1
  51 0018 4FF08052 		mov	r2, #268435456
  52 001c 054B     		ldr	r3, .L4+4
  53 001e 1A60     		str	r2, [r3]
  54              		.syntax unified
  55              	@ 188 "BLETask.c" 1
  56 0020 BFF34F8F 		dsb
  57              	@ 0 "" 2
  58              	@ 188 "BLETask.c" 1
  59 0024 BFF36F8F 		isb
  60              	@ 0 "" 2
  61              		.thumb
  62              		.syntax unified
  63              	.L1:
 189:BLETask.c     ****     
 190:BLETask.c     **** }
  64              		.loc 1 190 0 is_stmt 1
  65 0028 03B0     		add	sp, sp, #12
  66              		.cfi_def_cfa_offset 4
  67              		@ sp needed
  68 002a 5DF804FB 		ldr	pc, [sp], #4
  69              	.L5:
  70 002e 00BF     		.align	2
  71              	.L4:
  72 0030 00000000 		.word	bleSemaphore
  73 0034 04ED00E0 		.word	-536810236
  74              		.cfi_endproc
  75              	.LFE505:
  76              		.size	bleInterruptNotify, .-bleInterruptNotify
  77              		.section	.text.writeMotorPosition,"ax",%progbits
  78              		.align	2
  79              		.global	writeMotorPosition
  80              		.thumb
  81              		.thumb_func
  82              		.type	writeMotorPosition, %function
  83              	writeMotorPosition:
  84              	.LFB502:
  30:BLETask.c     ****     if(Cy_BLE_GetConnectionState(cy_ble_connHandle[0]) != CY_BLE_CONN_STATE_CLIENT_DISCOVERED)
  85              		.loc 1 30 0
  86              		.cfi_startproc
  87              		@ args = 0, pretend = 0, frame = 32
  88              		@ frame_needed = 0, uses_anonymous_args = 0
  89              	.LVL1:
  90 0000 30B5     		push	{r4, r5, lr}
  91              		.cfi_def_cfa_offset 12
  92              		.cfi_offset 4, -12
  93              		.cfi_offset 5, -8
  94              		.cfi_offset 14, -4
ARM GAS  C:\Users\Austina\AppData\Local\Temp\cc8acxV8.s 			page 6


  95 0002 89B0     		sub	sp, sp, #36
  96              		.cfi_def_cfa_offset 48
  97 0004 0446     		mov	r4, r0
  98 0006 0D46     		mov	r5, r1
  99 0008 8DF80720 		strb	r2, [sp, #7]
 100 000c 374B     		ldr	r3, .L18
 101 000e 1B88     		ldrh	r3, [r3]	@ unaligned
 102 0010 ADF80C30 		strh	r3, [sp, #12]	@ unaligned
 103              	.LBB20:
 104              	.LBB21:
 105              		.file 2 "Generated_Source\\PSoC6\\pdl\\middleware/ble/cy_ble_gap.h"
   1:Generated_Source\PSoC6\pdl\middleware/ble/cy_ble_gap.h **** /***************************************************************************//**
   2:Generated_Source\PSoC6\pdl\middleware/ble/cy_ble_gap.h **** * \file cy_ble_gap.h
   3:Generated_Source\PSoC6\pdl\middleware/ble/cy_ble_gap.h **** * \version 2.70
   4:Generated_Source\PSoC6\pdl\middleware/ble/cy_ble_gap.h **** *
   5:Generated_Source\PSoC6\pdl\middleware/ble/cy_ble_gap.h **** * \brief
   6:Generated_Source\PSoC6\pdl\middleware/ble/cy_ble_gap.h **** *  Contains the prototypes and constants used in the BLE GAP profile.
   7:Generated_Source\PSoC6\pdl\middleware/ble/cy_ble_gap.h **** *
   8:Generated_Source\PSoC6\pdl\middleware/ble/cy_ble_gap.h **** ********************************************************************************
   9:Generated_Source\PSoC6\pdl\middleware/ble/cy_ble_gap.h **** * \copyright
  10:Generated_Source\PSoC6\pdl\middleware/ble/cy_ble_gap.h **** * Copyright 2017-2021, Cypress Semiconductor Corporation.  All rights reserved.
  11:Generated_Source\PSoC6\pdl\middleware/ble/cy_ble_gap.h **** * You may use this file only in accordance with the license, terms, conditions,
  12:Generated_Source\PSoC6\pdl\middleware/ble/cy_ble_gap.h **** * disclaimers, and limitations in the end user license agreement accompanying
  13:Generated_Source\PSoC6\pdl\middleware/ble/cy_ble_gap.h **** * the software package with which this file was provided.
  14:Generated_Source\PSoC6\pdl\middleware/ble/cy_ble_gap.h **** *******************************************************************************/
  15:Generated_Source\PSoC6\pdl\middleware/ble/cy_ble_gap.h **** 
  16:Generated_Source\PSoC6\pdl\middleware/ble/cy_ble_gap.h **** 
  17:Generated_Source\PSoC6\pdl\middleware/ble/cy_ble_gap.h **** #ifndef CY_BLE_GAP_H
  18:Generated_Source\PSoC6\pdl\middleware/ble/cy_ble_gap.h **** #define CY_BLE_GAP_H
  19:Generated_Source\PSoC6\pdl\middleware/ble/cy_ble_gap.h **** 
  20:Generated_Source\PSoC6\pdl\middleware/ble/cy_ble_gap.h **** #include "cy_ble_config.h"
  21:Generated_Source\PSoC6\pdl\middleware/ble/cy_ble_gap.h **** 
  22:Generated_Source\PSoC6\pdl\middleware/ble/cy_ble_gap.h **** /***************************************
  23:Generated_Source\PSoC6\pdl\middleware/ble/cy_ble_gap.h **** * BLE Stack includes
  24:Generated_Source\PSoC6\pdl\middleware/ble/cy_ble_gap.h **** ***************************************/
  25:Generated_Source\PSoC6\pdl\middleware/ble/cy_ble_gap.h **** #include "cy_ble_stack_gatt.h"
  26:Generated_Source\PSoC6\pdl\middleware/ble/cy_ble_gap.h **** #include "cy_ble_stack_gap.h"
  27:Generated_Source\PSoC6\pdl\middleware/ble/cy_ble_gap.h **** #include "cy_ble_stack_gap_central.h"
  28:Generated_Source\PSoC6\pdl\middleware/ble/cy_ble_gap.h **** #include "cy_ble_stack_gap_peripheral.h"
  29:Generated_Source\PSoC6\pdl\middleware/ble/cy_ble_gap.h **** 
  30:Generated_Source\PSoC6\pdl\middleware/ble/cy_ble_gap.h **** /* C binding of definitions if building with C++ compiler */
  31:Generated_Source\PSoC6\pdl\middleware/ble/cy_ble_gap.h **** #ifdef __cplusplus
  32:Generated_Source\PSoC6\pdl\middleware/ble/cy_ble_gap.h **** extern "C" {
  33:Generated_Source\PSoC6\pdl\middleware/ble/cy_ble_gap.h **** #endif /* __cplusplus */
  34:Generated_Source\PSoC6\pdl\middleware/ble/cy_ble_gap.h **** 
  35:Generated_Source\PSoC6\pdl\middleware/ble/cy_ble_gap.h **** /***************************************
  36:Generated_Source\PSoC6\pdl\middleware/ble/cy_ble_gap.h **** * Conditional Compilation Parameters
  37:Generated_Source\PSoC6\pdl\middleware/ble/cy_ble_gap.h **** ***************************************/
  38:Generated_Source\PSoC6\pdl\middleware/ble/cy_ble_gap.h **** /**
  39:Generated_Source\PSoC6\pdl\middleware/ble/cy_ble_gap.h ****  * The BLE operation mode.
  40:Generated_Source\PSoC6\pdl\middleware/ble/cy_ble_gap.h ****  */
  41:Generated_Source\PSoC6\pdl\middleware/ble/cy_ble_gap.h **** #define CY_BLE_MODE                          (CY_BLE_CONFIG_MODE)
  42:Generated_Source\PSoC6\pdl\middleware/ble/cy_ble_gap.h **** 
  43:Generated_Source\PSoC6\pdl\middleware/ble/cy_ble_gap.h **** /**
  44:Generated_Source\PSoC6\pdl\middleware/ble/cy_ble_gap.h ****  * Maximum number of BLE connections
  45:Generated_Source\PSoC6\pdl\middleware/ble/cy_ble_gap.h ****  * This parameter displays how many BLE connections (both Central and
  46:Generated_Source\PSoC6\pdl\middleware/ble/cy_ble_gap.h ****  * Peripheral) are allowed. Valid range is from 1 to 4.
ARM GAS  C:\Users\Austina\AppData\Local\Temp\cc8acxV8.s 			page 7


  47:Generated_Source\PSoC6\pdl\middleware/ble/cy_ble_gap.h ****  */
  48:Generated_Source\PSoC6\pdl\middleware/ble/cy_ble_gap.h **** #define CY_BLE_CONN_COUNT                    (CY_BLE_CONFIG_CONN_COUNT)
  49:Generated_Source\PSoC6\pdl\middleware/ble/cy_ble_gap.h **** 
  50:Generated_Source\PSoC6\pdl\middleware/ble/cy_ble_gap.h **** /**
  51:Generated_Source\PSoC6\pdl\middleware/ble/cy_ble_gap.h ****  * The GAP Role
  52:Generated_Source\PSoC6\pdl\middleware/ble/cy_ble_gap.h ****  * The following defined mask can be used:
  53:Generated_Source\PSoC6\pdl\middleware/ble/cy_ble_gap.h ****  * CY_BLE_GAP_PERIPHERAL  (0x01u) - device operates as peripheral.
  54:Generated_Source\PSoC6\pdl\middleware/ble/cy_ble_gap.h ****  * CY_BLE_GAP_CENTRAL     (0x02u) - device operates as central.
  55:Generated_Source\PSoC6\pdl\middleware/ble/cy_ble_gap.h ****  * CY_BLE_GAP_BROADCASTER (0x04u) - device operates as broadcaster.
  56:Generated_Source\PSoC6\pdl\middleware/ble/cy_ble_gap.h ****  * CY_BLE_GAP_OBSERVER    (0x08u) - device operates as observer.
  57:Generated_Source\PSoC6\pdl\middleware/ble/cy_ble_gap.h ****  * CY_BLE_GAP_HCI         (0x00u) - used when BLE operates in HCI mode.
  58:Generated_Source\PSoC6\pdl\middleware/ble/cy_ble_gap.h ****  */
  59:Generated_Source\PSoC6\pdl\middleware/ble/cy_ble_gap.h **** #define CY_BLE_GAP_ROLE                       (CY_BLE_CONFIG_GAP_ROLE)
  60:Generated_Source\PSoC6\pdl\middleware/ble/cy_ble_gap.h **** 
  61:Generated_Source\PSoC6\pdl\middleware/ble/cy_ble_gap.h **** /** The number of GAP Peripheral configurations structures */
  62:Generated_Source\PSoC6\pdl\middleware/ble/cy_ble_gap.h **** #define CY_BLE_GAP_PERIPHERAL_COUNT           (CY_BLE_CONFIG_GAP_PERIPHERAL_COUNT)
  63:Generated_Source\PSoC6\pdl\middleware/ble/cy_ble_gap.h **** 
  64:Generated_Source\PSoC6\pdl\middleware/ble/cy_ble_gap.h **** /** The number of GAP Broadcaster configurations structures */
  65:Generated_Source\PSoC6\pdl\middleware/ble/cy_ble_gap.h **** #define CY_BLE_GAP_BROADCASTER_COUNT          (CY_BLE_CONFIG_GAP_BROADCASTER_COUNT)
  66:Generated_Source\PSoC6\pdl\middleware/ble/cy_ble_gap.h **** 
  67:Generated_Source\PSoC6\pdl\middleware/ble/cy_ble_gap.h **** /** The number of GAP Central configurations structures */
  68:Generated_Source\PSoC6\pdl\middleware/ble/cy_ble_gap.h **** #define CY_BLE_GAP_CENTRAL_COUNT              (CY_BLE_CONFIG_GAP_CENTRAL_COUNT)
  69:Generated_Source\PSoC6\pdl\middleware/ble/cy_ble_gap.h **** 
  70:Generated_Source\PSoC6\pdl\middleware/ble/cy_ble_gap.h **** /** The number of GAP Observer configurations structures */
  71:Generated_Source\PSoC6\pdl\middleware/ble/cy_ble_gap.h **** #define CY_BLE_GAP_OBSERVER_COUNT             (CY_BLE_CONFIG_GAP_OBSERVER_COUNT)
  72:Generated_Source\PSoC6\pdl\middleware/ble/cy_ble_gap.h **** 
  73:Generated_Source\PSoC6\pdl\middleware/ble/cy_ble_gap.h **** /** The number of Security configurations structures */
  74:Generated_Source\PSoC6\pdl\middleware/ble/cy_ble_gap.h **** #define CY_BLE_AUTH_INFO_COUNT                (CY_BLE_CONFIG_AUTH_INFO_COUNT)
  75:Generated_Source\PSoC6\pdl\middleware/ble/cy_ble_gap.h **** 
  76:Generated_Source\PSoC6\pdl\middleware/ble/cy_ble_gap.h **** /** The Bonding Requirement structures */
  77:Generated_Source\PSoC6\pdl\middleware/ble/cy_ble_gap.h **** #define CY_BLE_BONDING_REQUIREMENT            (CY_BLE_CONFIG_BONDING_REQUIREMENT)
  78:Generated_Source\PSoC6\pdl\middleware/ble/cy_ble_gap.h **** 
  79:Generated_Source\PSoC6\pdl\middleware/ble/cy_ble_gap.h **** /** The GAP Role defines */
  80:Generated_Source\PSoC6\pdl\middleware/ble/cy_ble_gap.h **** #define CY_BLE_GAP_ROLE_PERIPHERAL            (0u != (CY_BLE_GAP_ROLE & CY_BLE_GAP_PERIPHERAL))
  81:Generated_Source\PSoC6\pdl\middleware/ble/cy_ble_gap.h **** #define CY_BLE_GAP_ROLE_CENTRAL               (0u != (CY_BLE_GAP_ROLE & CY_BLE_GAP_CENTRAL))
  82:Generated_Source\PSoC6\pdl\middleware/ble/cy_ble_gap.h **** #define CY_BLE_GAP_ROLE_OBSERVER              (0u != (CY_BLE_GAP_ROLE & CY_BLE_GAP_OBSERVER))
  83:Generated_Source\PSoC6\pdl\middleware/ble/cy_ble_gap.h **** #define CY_BLE_GAP_ROLE_BROADCASTER           (0u != (CY_BLE_GAP_ROLE & CY_BLE_GAP_BROADCASTER))
  84:Generated_Source\PSoC6\pdl\middleware/ble/cy_ble_gap.h **** 
  85:Generated_Source\PSoC6\pdl\middleware/ble/cy_ble_gap.h **** #define CY_BLE_GAPP_CONF_COUNT                (CY_BLE_GAP_PERIPHERAL_COUNT + CY_BLE_GAP_BROADCASTER
  86:Generated_Source\PSoC6\pdl\middleware/ble/cy_ble_gap.h **** #define CY_BLE_GAPC_CONF_COUNT                (CY_BLE_GAP_CENTRAL_COUNT + CY_BLE_GAP_OBSERVER_COUNT
  87:Generated_Source\PSoC6\pdl\middleware/ble/cy_ble_gap.h **** 
  88:Generated_Source\PSoC6\pdl\middleware/ble/cy_ble_gap.h **** /***************************************
  89:Generated_Source\PSoC6\pdl\middleware/ble/cy_ble_gap.h **** * Type Definitions
  90:Generated_Source\PSoC6\pdl\middleware/ble/cy_ble_gap.h **** ***************************************/
  91:Generated_Source\PSoC6\pdl\middleware/ble/cy_ble_gap.h **** 
  92:Generated_Source\PSoC6\pdl\middleware/ble/cy_ble_gap.h **** #if (CY_BLE_MODE_PROFILE)
  93:Generated_Source\PSoC6\pdl\middleware/ble/cy_ble_gap.h **** 
  94:Generated_Source\PSoC6\pdl\middleware/ble/cy_ble_gap.h **** /***************************************
  95:Generated_Source\PSoC6\pdl\middleware/ble/cy_ble_gap.h **** * Enumerated Types and Structures
  96:Generated_Source\PSoC6\pdl\middleware/ble/cy_ble_gap.h **** ***************************************/
  97:Generated_Source\PSoC6\pdl\middleware/ble/cy_ble_gap.h **** 
  98:Generated_Source\PSoC6\pdl\middleware/ble/cy_ble_gap.h **** /**
  99:Generated_Source\PSoC6\pdl\middleware/ble/cy_ble_gap.h ****  * \addtogroup group_ble_common_api_gap_definitions
 100:Generated_Source\PSoC6\pdl\middleware/ble/cy_ble_gap.h ****  * @{
 101:Generated_Source\PSoC6\pdl\middleware/ble/cy_ble_gap.h ****  */
 102:Generated_Source\PSoC6\pdl\middleware/ble/cy_ble_gap.h **** 
 103:Generated_Source\PSoC6\pdl\middleware/ble/cy_ble_gap.h **** /** BLE state machine type */
ARM GAS  C:\Users\Austina\AppData\Local\Temp\cc8acxV8.s 			page 8


 104:Generated_Source\PSoC6\pdl\middleware/ble/cy_ble_gap.h **** typedef enum
 105:Generated_Source\PSoC6\pdl\middleware/ble/cy_ble_gap.h **** {
 106:Generated_Source\PSoC6\pdl\middleware/ble/cy_ble_gap.h ****     CY_BLE_STATE_STOPPED,                             /**< BLE is turned off */
 107:Generated_Source\PSoC6\pdl\middleware/ble/cy_ble_gap.h ****     CY_BLE_STATE_INITIALIZING,                        /**< Initializing state */
 108:Generated_Source\PSoC6\pdl\middleware/ble/cy_ble_gap.h ****     CY_BLE_STATE_ON,                                  /**< BLE is turned on */
 109:Generated_Source\PSoC6\pdl\middleware/ble/cy_ble_gap.h **** #if (CY_BLE_GAP_ROLE_CENTRAL)
 110:Generated_Source\PSoC6\pdl\middleware/ble/cy_ble_gap.h ****     CY_BLE_STATE_CONNECTING,                          /**< Connecting */
 111:Generated_Source\PSoC6\pdl\middleware/ble/cy_ble_gap.h **** #endif /* CY_BLE_GAP_ROLE_CENTRAL */
 112:Generated_Source\PSoC6\pdl\middleware/ble/cy_ble_gap.h **** } cy_en_ble_state_t;
 113:Generated_Source\PSoC6\pdl\middleware/ble/cy_ble_gap.h **** 
 114:Generated_Source\PSoC6\pdl\middleware/ble/cy_ble_gap.h **** 
 115:Generated_Source\PSoC6\pdl\middleware/ble/cy_ble_gap.h **** /** Scanning state machine type */
 116:Generated_Source\PSoC6\pdl\middleware/ble/cy_ble_gap.h **** typedef enum
 117:Generated_Source\PSoC6\pdl\middleware/ble/cy_ble_gap.h **** {
 118:Generated_Source\PSoC6\pdl\middleware/ble/cy_ble_gap.h ****     CY_BLE_SCAN_STATE_STOPPED,                        /**< Scanning is stopped */
 119:Generated_Source\PSoC6\pdl\middleware/ble/cy_ble_gap.h ****     CY_BLE_SCAN_STATE_SCAN_INITIATED,                 /**< Scanning is initiated */
 120:Generated_Source\PSoC6\pdl\middleware/ble/cy_ble_gap.h ****     CY_BLE_SCAN_STATE_SCANNING,                       /**< Scanning process */
 121:Generated_Source\PSoC6\pdl\middleware/ble/cy_ble_gap.h ****     CY_BLE_SCAN_STATE_STOP_INITIATED                  /**< Stop scanning is initiated */
 122:Generated_Source\PSoC6\pdl\middleware/ble/cy_ble_gap.h **** } cy_en_ble_scan_state_t;
 123:Generated_Source\PSoC6\pdl\middleware/ble/cy_ble_gap.h **** 
 124:Generated_Source\PSoC6\pdl\middleware/ble/cy_ble_gap.h **** /** Advertising state machine type */
 125:Generated_Source\PSoC6\pdl\middleware/ble/cy_ble_gap.h **** typedef enum
 126:Generated_Source\PSoC6\pdl\middleware/ble/cy_ble_gap.h **** {
 127:Generated_Source\PSoC6\pdl\middleware/ble/cy_ble_gap.h ****     CY_BLE_ADV_STATE_STOPPED,                         /**< Advertising is stopped */
 128:Generated_Source\PSoC6\pdl\middleware/ble/cy_ble_gap.h ****     CY_BLE_ADV_STATE_ADV_INITIATED,                   /**< Advertising is initiated */
 129:Generated_Source\PSoC6\pdl\middleware/ble/cy_ble_gap.h ****     CY_BLE_ADV_STATE_ADVERTISING,                     /**< Advertising process */
 130:Generated_Source\PSoC6\pdl\middleware/ble/cy_ble_gap.h ****     CY_BLE_ADV_STATE_STOP_INITIATED                   /**< Stop advertising is initiated */
 131:Generated_Source\PSoC6\pdl\middleware/ble/cy_ble_gap.h **** } cy_en_ble_adv_state_t;
 132:Generated_Source\PSoC6\pdl\middleware/ble/cy_ble_gap.h **** 
 133:Generated_Source\PSoC6\pdl\middleware/ble/cy_ble_gap.h **** /** Connection state machine type */
 134:Generated_Source\PSoC6\pdl\middleware/ble/cy_ble_gap.h **** typedef enum
 135:Generated_Source\PSoC6\pdl\middleware/ble/cy_ble_gap.h **** {
 136:Generated_Source\PSoC6\pdl\middleware/ble/cy_ble_gap.h ****     CY_BLE_CONN_STATE_DISCONNECTED,                   /**< Essentially idle state */
 137:Generated_Source\PSoC6\pdl\middleware/ble/cy_ble_gap.h ****     CY_BLE_CONN_STATE_CLIENT_DISCONNECTED_DISCOVERED, /**< Server is disconnected but discovered */
 138:Generated_Source\PSoC6\pdl\middleware/ble/cy_ble_gap.h ****     CY_BLE_CONN_STATE_CONNECTED,                      /**< Peer device is connected for this and fo
 139:Generated_Source\PSoC6\pdl\middleware/ble/cy_ble_gap.h ****     CY_BLE_CONN_STATE_CLIENT_SRVC_DISCOVERING,        /**< Server services are being discovered */
 140:Generated_Source\PSoC6\pdl\middleware/ble/cy_ble_gap.h ****     CY_BLE_CONN_STATE_CLIENT_INCL_DISCOVERING,        /**< Server included services are being disco
 141:Generated_Source\PSoC6\pdl\middleware/ble/cy_ble_gap.h ****     CY_BLE_CONN_STATE_CLIENT_CHAR_DISCOVERING,        /**< Server characteristics are being discove
 142:Generated_Source\PSoC6\pdl\middleware/ble/cy_ble_gap.h ****     CY_BLE_CONN_STATE_CLIENT_DESCR_DISCOVERING,       /**< Server char. descriptors are being disco
 143:Generated_Source\PSoC6\pdl\middleware/ble/cy_ble_gap.h ****     CY_BLE_CONN_STATE_CLIENT_DISCOVERED               /**< Server is discovered */
 144:Generated_Source\PSoC6\pdl\middleware/ble/cy_ble_gap.h **** } cy_en_ble_conn_state_t;
 145:Generated_Source\PSoC6\pdl\middleware/ble/cy_ble_gap.h **** 
 146:Generated_Source\PSoC6\pdl\middleware/ble/cy_ble_gap.h **** /** Structure with Generic Access Profile Service (GAPS) attribute handles */
 147:Generated_Source\PSoC6\pdl\middleware/ble/cy_ble_gap.h **** typedef struct
 148:Generated_Source\PSoC6\pdl\middleware/ble/cy_ble_gap.h **** {
 149:Generated_Source\PSoC6\pdl\middleware/ble/cy_ble_gap.h ****     /** Service handle*/
 150:Generated_Source\PSoC6\pdl\middleware/ble/cy_ble_gap.h ****     cy_ble_gatt_db_attr_handle_t serviceHandle;
 151:Generated_Source\PSoC6\pdl\middleware/ble/cy_ble_gap.h **** 
 152:Generated_Source\PSoC6\pdl\middleware/ble/cy_ble_gap.h ****     /** Handle of the GAPS Device Name Characteristic */
 153:Generated_Source\PSoC6\pdl\middleware/ble/cy_ble_gap.h ****     cy_ble_gatt_db_attr_handle_t deviceNameCharHandle;
 154:Generated_Source\PSoC6\pdl\middleware/ble/cy_ble_gap.h **** 
 155:Generated_Source\PSoC6\pdl\middleware/ble/cy_ble_gap.h ****     /** Handle of the GAPS Appearance Characteristic */
 156:Generated_Source\PSoC6\pdl\middleware/ble/cy_ble_gap.h ****     cy_ble_gatt_db_attr_handle_t appearanceCharHandle;
 157:Generated_Source\PSoC6\pdl\middleware/ble/cy_ble_gap.h **** 
 158:Generated_Source\PSoC6\pdl\middleware/ble/cy_ble_gap.h ****     /** Handle of the GAPS Peripheral Preferred Connection Parameters Characteristic */
 159:Generated_Source\PSoC6\pdl\middleware/ble/cy_ble_gap.h ****     cy_ble_gatt_db_attr_handle_t prefConnParamCharHandle;
 160:Generated_Source\PSoC6\pdl\middleware/ble/cy_ble_gap.h **** 
ARM GAS  C:\Users\Austina\AppData\Local\Temp\cc8acxV8.s 			page 9


 161:Generated_Source\PSoC6\pdl\middleware/ble/cy_ble_gap.h ****     /** Handle of the GAPS Central Address Resolution characteristic */
 162:Generated_Source\PSoC6\pdl\middleware/ble/cy_ble_gap.h ****     cy_ble_gatt_db_attr_handle_t centralAddrResolutionCharHandle;
 163:Generated_Source\PSoC6\pdl\middleware/ble/cy_ble_gap.h **** 
 164:Generated_Source\PSoC6\pdl\middleware/ble/cy_ble_gap.h ****     /** Handle of the GAPS Resolvable Private Address Only characteristic */
 165:Generated_Source\PSoC6\pdl\middleware/ble/cy_ble_gap.h ****     cy_ble_gatt_db_attr_handle_t resolvablePrivateAddressOnly;
 166:Generated_Source\PSoC6\pdl\middleware/ble/cy_ble_gap.h **** } cy_stc_ble_gaps_t;
 167:Generated_Source\PSoC6\pdl\middleware/ble/cy_ble_gap.h **** 
 168:Generated_Source\PSoC6\pdl\middleware/ble/cy_ble_gap.h **** /** GAP Service characteristics server's GATT DB handles structure type */
 169:Generated_Source\PSoC6\pdl\middleware/ble/cy_ble_gap.h **** typedef struct
 170:Generated_Source\PSoC6\pdl\middleware/ble/cy_ble_gap.h **** {
 171:Generated_Source\PSoC6\pdl\middleware/ble/cy_ble_gap.h ****     /** Handle of the GAPS Device Name Characteristic */
 172:Generated_Source\PSoC6\pdl\middleware/ble/cy_ble_gap.h ****     cy_ble_gatt_db_attr_handle_t deviceNameCharHandle;
 173:Generated_Source\PSoC6\pdl\middleware/ble/cy_ble_gap.h **** 
 174:Generated_Source\PSoC6\pdl\middleware/ble/cy_ble_gap.h ****     /** Handle of the GAPS Appearance Characteristic */
 175:Generated_Source\PSoC6\pdl\middleware/ble/cy_ble_gap.h ****     cy_ble_gatt_db_attr_handle_t appearanceCharHandle;
 176:Generated_Source\PSoC6\pdl\middleware/ble/cy_ble_gap.h **** 
 177:Generated_Source\PSoC6\pdl\middleware/ble/cy_ble_gap.h ****     /** Handle of the GAPS Peripheral Privacy Flag Parameters Characteristic */
 178:Generated_Source\PSoC6\pdl\middleware/ble/cy_ble_gap.h ****     cy_ble_gatt_db_attr_handle_t periphPrivacyCharHandle;
 179:Generated_Source\PSoC6\pdl\middleware/ble/cy_ble_gap.h **** 
 180:Generated_Source\PSoC6\pdl\middleware/ble/cy_ble_gap.h ****     /** Handle of the GAPS Reconnection Address Characteristic */
 181:Generated_Source\PSoC6\pdl\middleware/ble/cy_ble_gap.h ****     cy_ble_gatt_db_attr_handle_t reconnAddrCharHandle;
 182:Generated_Source\PSoC6\pdl\middleware/ble/cy_ble_gap.h **** 
 183:Generated_Source\PSoC6\pdl\middleware/ble/cy_ble_gap.h ****     /** Handle of the GAPS Peripheral Preferred Connection Parameters Characteristic */
 184:Generated_Source\PSoC6\pdl\middleware/ble/cy_ble_gap.h ****     cy_ble_gatt_db_attr_handle_t prefConnParamCharHandle;
 185:Generated_Source\PSoC6\pdl\middleware/ble/cy_ble_gap.h **** 
 186:Generated_Source\PSoC6\pdl\middleware/ble/cy_ble_gap.h ****     /** Handle of the GAPS Central Address Resolution characteristic */
 187:Generated_Source\PSoC6\pdl\middleware/ble/cy_ble_gap.h ****     cy_ble_gatt_db_attr_handle_t centralAddrResolutionCharHandle;
 188:Generated_Source\PSoC6\pdl\middleware/ble/cy_ble_gap.h **** 
 189:Generated_Source\PSoC6\pdl\middleware/ble/cy_ble_gap.h ****     /** Handle of the GAPS Resolvable Private Address Only characteristic */
 190:Generated_Source\PSoC6\pdl\middleware/ble/cy_ble_gap.h ****     cy_ble_gatt_db_attr_handle_t resolvablePrivateAddressOnly;
 191:Generated_Source\PSoC6\pdl\middleware/ble/cy_ble_gap.h **** }cy_stc_ble_gapc_t;
 192:Generated_Source\PSoC6\pdl\middleware/ble/cy_ble_gap.h **** 
 193:Generated_Source\PSoC6\pdl\middleware/ble/cy_ble_gap.h **** /* Stack mode defines */
 194:Generated_Source\PSoC6\pdl\middleware/ble/cy_ble_gap.h **** 
 195:Generated_Source\PSoC6\pdl\middleware/ble/cy_ble_gap.h **** /** Advertisement SIG assigned numbers */
 196:Generated_Source\PSoC6\pdl\middleware/ble/cy_ble_gap.h **** typedef enum
 197:Generated_Source\PSoC6\pdl\middleware/ble/cy_ble_gap.h **** {
 198:Generated_Source\PSoC6\pdl\middleware/ble/cy_ble_gap.h ****     /** Flags */
 199:Generated_Source\PSoC6\pdl\middleware/ble/cy_ble_gap.h ****     CY_BLE_GAP_ADV_FLAGS = 0x01u,
 200:Generated_Source\PSoC6\pdl\middleware/ble/cy_ble_gap.h **** 
 201:Generated_Source\PSoC6\pdl\middleware/ble/cy_ble_gap.h ****     /** Incomplete List of 16-bit Service Class UUIDs */
 202:Generated_Source\PSoC6\pdl\middleware/ble/cy_ble_gap.h ****     CY_BLE_GAP_ADV_INCOMPL_16UUID,
 203:Generated_Source\PSoC6\pdl\middleware/ble/cy_ble_gap.h **** 
 204:Generated_Source\PSoC6\pdl\middleware/ble/cy_ble_gap.h ****     /** Complete List of 16-bit Service Class UUIDs */
 205:Generated_Source\PSoC6\pdl\middleware/ble/cy_ble_gap.h ****     CY_BLE_GAP_ADV_COMPL_16UUID,
 206:Generated_Source\PSoC6\pdl\middleware/ble/cy_ble_gap.h **** 
 207:Generated_Source\PSoC6\pdl\middleware/ble/cy_ble_gap.h ****     /** Incomplete List of 32-bit Service Class UUIDs */
 208:Generated_Source\PSoC6\pdl\middleware/ble/cy_ble_gap.h ****     CY_BLE_GAP_ADV_INCOMPL_32_UUID,
 209:Generated_Source\PSoC6\pdl\middleware/ble/cy_ble_gap.h **** 
 210:Generated_Source\PSoC6\pdl\middleware/ble/cy_ble_gap.h ****     /** Complete List of 32-bit Service Class UUIDs */
 211:Generated_Source\PSoC6\pdl\middleware/ble/cy_ble_gap.h ****     CY_BLE_GAP_ADV_COMPL_32_UUID,
 212:Generated_Source\PSoC6\pdl\middleware/ble/cy_ble_gap.h **** 
 213:Generated_Source\PSoC6\pdl\middleware/ble/cy_ble_gap.h ****     /** Incomplete List of 128-bit Service Class UUIDs */
 214:Generated_Source\PSoC6\pdl\middleware/ble/cy_ble_gap.h ****     CY_BLE_GAP_ADV_INCOMPL_128_UUID,
 215:Generated_Source\PSoC6\pdl\middleware/ble/cy_ble_gap.h **** 
 216:Generated_Source\PSoC6\pdl\middleware/ble/cy_ble_gap.h ****     /** Complete List of 128-bit Service Class UUIDs */
 217:Generated_Source\PSoC6\pdl\middleware/ble/cy_ble_gap.h ****     CY_BLE_GAP_ADV_COMPL_128_UUID,
ARM GAS  C:\Users\Austina\AppData\Local\Temp\cc8acxV8.s 			page 10


 218:Generated_Source\PSoC6\pdl\middleware/ble/cy_ble_gap.h **** 
 219:Generated_Source\PSoC6\pdl\middleware/ble/cy_ble_gap.h ****     /** Shortened Local Name */
 220:Generated_Source\PSoC6\pdl\middleware/ble/cy_ble_gap.h ****     CY_BLE_GAP_ADV_SHORT_NAME,
 221:Generated_Source\PSoC6\pdl\middleware/ble/cy_ble_gap.h **** 
 222:Generated_Source\PSoC6\pdl\middleware/ble/cy_ble_gap.h ****     /** Complete Local Name */
 223:Generated_Source\PSoC6\pdl\middleware/ble/cy_ble_gap.h ****     CY_BLE_GAP_ADV_COMPL_NAME,
 224:Generated_Source\PSoC6\pdl\middleware/ble/cy_ble_gap.h **** 
 225:Generated_Source\PSoC6\pdl\middleware/ble/cy_ble_gap.h ****     /** Tx Power Level */
 226:Generated_Source\PSoC6\pdl\middleware/ble/cy_ble_gap.h ****     CY_BLE_GAP_ADV_TX_PWR_LVL,
 227:Generated_Source\PSoC6\pdl\middleware/ble/cy_ble_gap.h **** 
 228:Generated_Source\PSoC6\pdl\middleware/ble/cy_ble_gap.h ****     /** Class of Device */
 229:Generated_Source\PSoC6\pdl\middleware/ble/cy_ble_gap.h ****     CY_BLE_GAP_ADV_CLASS_OF_DEVICE = 0x0Du,
 230:Generated_Source\PSoC6\pdl\middleware/ble/cy_ble_gap.h **** 
 231:Generated_Source\PSoC6\pdl\middleware/ble/cy_ble_gap.h ****     /** Simple Pairing Hash C */
 232:Generated_Source\PSoC6\pdl\middleware/ble/cy_ble_gap.h ****     CY_BLE_GAP_ADV_SMPL_PAIR_HASH_C,
 233:Generated_Source\PSoC6\pdl\middleware/ble/cy_ble_gap.h **** 
 234:Generated_Source\PSoC6\pdl\middleware/ble/cy_ble_gap.h ****     /** Simple Pairing Randomizer R */
 235:Generated_Source\PSoC6\pdl\middleware/ble/cy_ble_gap.h ****     CY_BLE_GAP_ADV_SMPL_PAIR_RANDOM_R,
 236:Generated_Source\PSoC6\pdl\middleware/ble/cy_ble_gap.h **** 
 237:Generated_Source\PSoC6\pdl\middleware/ble/cy_ble_gap.h ****     /** Device ID*/
 238:Generated_Source\PSoC6\pdl\middleware/ble/cy_ble_gap.h ****     CY_BLE_GAP_ADV_DEVICE_ID,
 239:Generated_Source\PSoC6\pdl\middleware/ble/cy_ble_gap.h **** 
 240:Generated_Source\PSoC6\pdl\middleware/ble/cy_ble_gap.h ****     /** Security Manager TK Value */
 241:Generated_Source\PSoC6\pdl\middleware/ble/cy_ble_gap.h ****     CY_BLE_GAP_ADV_SCRT_MNGR_TK_VAL = 0x10u,
 242:Generated_Source\PSoC6\pdl\middleware/ble/cy_ble_gap.h **** 
 243:Generated_Source\PSoC6\pdl\middleware/ble/cy_ble_gap.h ****     /** Security Manager Out of Band Flags */
 244:Generated_Source\PSoC6\pdl\middleware/ble/cy_ble_gap.h ****     CY_BLE_GAP_ADV_SCRT_MNGR_OOB_FLAGS,
 245:Generated_Source\PSoC6\pdl\middleware/ble/cy_ble_gap.h **** 
 246:Generated_Source\PSoC6\pdl\middleware/ble/cy_ble_gap.h ****     /** Slave Connection Interval Range */
 247:Generated_Source\PSoC6\pdl\middleware/ble/cy_ble_gap.h ****     CY_BLE_GAP_ADV_SLAVE_CONN_INTRV_RANGE,
 248:Generated_Source\PSoC6\pdl\middleware/ble/cy_ble_gap.h **** 
 249:Generated_Source\PSoC6\pdl\middleware/ble/cy_ble_gap.h ****     /** List of 16-bit Service Solicitation UUIDs */
 250:Generated_Source\PSoC6\pdl\middleware/ble/cy_ble_gap.h ****     CY_BLE_GAP_ADV_SOLICIT_16UUID = 0x14u,
 251:Generated_Source\PSoC6\pdl\middleware/ble/cy_ble_gap.h **** 
 252:Generated_Source\PSoC6\pdl\middleware/ble/cy_ble_gap.h ****     /** List of 128-bit Service Solicitation UUIDs */
 253:Generated_Source\PSoC6\pdl\middleware/ble/cy_ble_gap.h ****     CY_BLE_GAP_ADV_SOLICIT_128UUID,
 254:Generated_Source\PSoC6\pdl\middleware/ble/cy_ble_gap.h **** 
 255:Generated_Source\PSoC6\pdl\middleware/ble/cy_ble_gap.h ****     /** Service Data - 16-bit UUID */
 256:Generated_Source\PSoC6\pdl\middleware/ble/cy_ble_gap.h ****     CY_BLE_GAP_ADV_SRVC_DATA_16UUID,
 257:Generated_Source\PSoC6\pdl\middleware/ble/cy_ble_gap.h **** 
 258:Generated_Source\PSoC6\pdl\middleware/ble/cy_ble_gap.h ****     /** Public Target Address */
 259:Generated_Source\PSoC6\pdl\middleware/ble/cy_ble_gap.h ****     CY_BLE_GAP_ADV_PUBLIC_TARGET_ADDR,
 260:Generated_Source\PSoC6\pdl\middleware/ble/cy_ble_gap.h **** 
 261:Generated_Source\PSoC6\pdl\middleware/ble/cy_ble_gap.h ****     /** Random Target Address */
 262:Generated_Source\PSoC6\pdl\middleware/ble/cy_ble_gap.h ****     CY_BLE_GAP_ADV_RANDOM_TARGET_ADDR,
 263:Generated_Source\PSoC6\pdl\middleware/ble/cy_ble_gap.h **** 
 264:Generated_Source\PSoC6\pdl\middleware/ble/cy_ble_gap.h ****     /** Appearance */
 265:Generated_Source\PSoC6\pdl\middleware/ble/cy_ble_gap.h ****     CY_BLE_GAP_ADV_APPEARANCE,
 266:Generated_Source\PSoC6\pdl\middleware/ble/cy_ble_gap.h **** 
 267:Generated_Source\PSoC6\pdl\middleware/ble/cy_ble_gap.h ****     /** Advertising Interval */
 268:Generated_Source\PSoC6\pdl\middleware/ble/cy_ble_gap.h ****     CY_BLE_GAP_ADV_ADVERT_INTERVAL,
 269:Generated_Source\PSoC6\pdl\middleware/ble/cy_ble_gap.h **** 
 270:Generated_Source\PSoC6\pdl\middleware/ble/cy_ble_gap.h ****     /** LE Bluetooth Device Address */
 271:Generated_Source\PSoC6\pdl\middleware/ble/cy_ble_gap.h ****     CY_BLE_GAP_ADV_LE_BT_DEVICE_ADDR,
 272:Generated_Source\PSoC6\pdl\middleware/ble/cy_ble_gap.h **** 
 273:Generated_Source\PSoC6\pdl\middleware/ble/cy_ble_gap.h ****     /** LE Role */
 274:Generated_Source\PSoC6\pdl\middleware/ble/cy_ble_gap.h ****     CY_BLE_GAP_ADV_LE_ROLE,
ARM GAS  C:\Users\Austina\AppData\Local\Temp\cc8acxV8.s 			page 11


 275:Generated_Source\PSoC6\pdl\middleware/ble/cy_ble_gap.h **** 
 276:Generated_Source\PSoC6\pdl\middleware/ble/cy_ble_gap.h ****     /** Simple Pairing Hash C-256 */
 277:Generated_Source\PSoC6\pdl\middleware/ble/cy_ble_gap.h ****     CY_BLE_GAP_ADV_SMPL_PAIR_HASH_C256,
 278:Generated_Source\PSoC6\pdl\middleware/ble/cy_ble_gap.h **** 
 279:Generated_Source\PSoC6\pdl\middleware/ble/cy_ble_gap.h ****     /** Simple Pairing Randomizer R-256 */
 280:Generated_Source\PSoC6\pdl\middleware/ble/cy_ble_gap.h ****     CY_BLE_GAP_ADV_SMPL_PAIR_RANDOM_R256,
 281:Generated_Source\PSoC6\pdl\middleware/ble/cy_ble_gap.h **** 
 282:Generated_Source\PSoC6\pdl\middleware/ble/cy_ble_gap.h ****     /** List of 32-bit Service Solicitation UUIDs */
 283:Generated_Source\PSoC6\pdl\middleware/ble/cy_ble_gap.h ****     CY_BLE_GAP_ADV_SOLICIT_32UUID,
 284:Generated_Source\PSoC6\pdl\middleware/ble/cy_ble_gap.h **** 
 285:Generated_Source\PSoC6\pdl\middleware/ble/cy_ble_gap.h ****     /** Service Data - 32-bit UUID */
 286:Generated_Source\PSoC6\pdl\middleware/ble/cy_ble_gap.h ****     CY_BLE_GAP_ADV_SRVC_DATA_32UUID,
 287:Generated_Source\PSoC6\pdl\middleware/ble/cy_ble_gap.h **** 
 288:Generated_Source\PSoC6\pdl\middleware/ble/cy_ble_gap.h ****     /** Service Data - 128-bit UUID */
 289:Generated_Source\PSoC6\pdl\middleware/ble/cy_ble_gap.h ****     CY_BLE_GAP_ADV_SRVC_DATA_128UUID,
 290:Generated_Source\PSoC6\pdl\middleware/ble/cy_ble_gap.h **** 
 291:Generated_Source\PSoC6\pdl\middleware/ble/cy_ble_gap.h ****     /** 3D Information Data */
 292:Generated_Source\PSoC6\pdl\middleware/ble/cy_ble_gap.h ****     CY_BLE_GAP_ADV_3D_INFO_DATA = 0x3D,
 293:Generated_Source\PSoC6\pdl\middleware/ble/cy_ble_gap.h **** 
 294:Generated_Source\PSoC6\pdl\middleware/ble/cy_ble_gap.h ****     /** Manufacturer Specific Data */
 295:Generated_Source\PSoC6\pdl\middleware/ble/cy_ble_gap.h ****     CY_BLE_GAP_ADV_MANUFACTURER_SPECIFIC_DATA = 0xFF
 296:Generated_Source\PSoC6\pdl\middleware/ble/cy_ble_gap.h **** }cy_en_ble_gap_adv_assign_numbers_t;
 297:Generated_Source\PSoC6\pdl\middleware/ble/cy_ble_gap.h **** 
 298:Generated_Source\PSoC6\pdl\middleware/ble/cy_ble_gap.h **** /** GAPP advertising configuration parameters structure */
 299:Generated_Source\PSoC6\pdl\middleware/ble/cy_ble_gap.h **** typedef struct
 300:Generated_Source\PSoC6\pdl\middleware/ble/cy_ble_gap.h **** {
 301:Generated_Source\PSoC6\pdl\middleware/ble/cy_ble_gap.h ****     /** The minimum interval for fast advertising the data and establishing the LE Connection */
 302:Generated_Source\PSoC6\pdl\middleware/ble/cy_ble_gap.h ****     uint16_t fastAdvIntervalMin;
 303:Generated_Source\PSoC6\pdl\middleware/ble/cy_ble_gap.h **** 
 304:Generated_Source\PSoC6\pdl\middleware/ble/cy_ble_gap.h ****     /** The maximum interval for fast advertising the data and establishing the LE Connection */
 305:Generated_Source\PSoC6\pdl\middleware/ble/cy_ble_gap.h ****     uint16_t fastAdvIntervalMax;
 306:Generated_Source\PSoC6\pdl\middleware/ble/cy_ble_gap.h **** 
 307:Generated_Source\PSoC6\pdl\middleware/ble/cy_ble_gap.h ****     /** The timeout value of  fast advertising with fast advertising interval parameters */
 308:Generated_Source\PSoC6\pdl\middleware/ble/cy_ble_gap.h ****     uint16_t fastAdvTimeOut;
 309:Generated_Source\PSoC6\pdl\middleware/ble/cy_ble_gap.h **** 
 310:Generated_Source\PSoC6\pdl\middleware/ble/cy_ble_gap.h ****     /** Slow advertising enable */
 311:Generated_Source\PSoC6\pdl\middleware/ble/cy_ble_gap.h ****     uint8_t  slowAdvEnable;
 312:Generated_Source\PSoC6\pdl\middleware/ble/cy_ble_gap.h **** 
 313:Generated_Source\PSoC6\pdl\middleware/ble/cy_ble_gap.h ****     /** The minimum interval for slow advertising the data and establishing the LE Connection */
 314:Generated_Source\PSoC6\pdl\middleware/ble/cy_ble_gap.h ****     uint16_t slowAdvIntervalMin;
 315:Generated_Source\PSoC6\pdl\middleware/ble/cy_ble_gap.h **** 
 316:Generated_Source\PSoC6\pdl\middleware/ble/cy_ble_gap.h ****     /** The maximum interval for slow  advertising the data and establishing the LE Connection */
 317:Generated_Source\PSoC6\pdl\middleware/ble/cy_ble_gap.h ****     uint16_t slowAdvIntervalMax;
 318:Generated_Source\PSoC6\pdl\middleware/ble/cy_ble_gap.h **** 
 319:Generated_Source\PSoC6\pdl\middleware/ble/cy_ble_gap.h ****     /** The timeout value of slow advertising with slow advertising interval parameters */
 320:Generated_Source\PSoC6\pdl\middleware/ble/cy_ble_gap.h ****     uint16_t slowAdvTimeOut;
 321:Generated_Source\PSoC6\pdl\middleware/ble/cy_ble_gap.h **** }cy_stc_ble_gapp_adv_params_t;
 322:Generated_Source\PSoC6\pdl\middleware/ble/cy_ble_gap.h **** 
 323:Generated_Source\PSoC6\pdl\middleware/ble/cy_ble_gap.h **** /** GAPC advertising configuration parameters structure */
 324:Generated_Source\PSoC6\pdl\middleware/ble/cy_ble_gap.h **** typedef struct
 325:Generated_Source\PSoC6\pdl\middleware/ble/cy_ble_gap.h **** {
 326:Generated_Source\PSoC6\pdl\middleware/ble/cy_ble_gap.h ****     /** The scan interval when operating in Fast connection */
 327:Generated_Source\PSoC6\pdl\middleware/ble/cy_ble_gap.h ****     uint16_t fastScanInterval;
 328:Generated_Source\PSoC6\pdl\middleware/ble/cy_ble_gap.h **** 
 329:Generated_Source\PSoC6\pdl\middleware/ble/cy_ble_gap.h ****     /** Defines the scan window when operating in Fast connection */
 330:Generated_Source\PSoC6\pdl\middleware/ble/cy_ble_gap.h ****     uint16_t fastScanWindow;
 331:Generated_Source\PSoC6\pdl\middleware/ble/cy_ble_gap.h **** 
ARM GAS  C:\Users\Austina\AppData\Local\Temp\cc8acxV8.s 			page 12


 332:Generated_Source\PSoC6\pdl\middleware/ble/cy_ble_gap.h ****     /** The timeout value of scanning with fast scan parameters */
 333:Generated_Source\PSoC6\pdl\middleware/ble/cy_ble_gap.h ****     uint16_t fastScanTimeOut;
 334:Generated_Source\PSoC6\pdl\middleware/ble/cy_ble_gap.h **** 
 335:Generated_Source\PSoC6\pdl\middleware/ble/cy_ble_gap.h ****     /** Slow scan enable/disable */
 336:Generated_Source\PSoC6\pdl\middleware/ble/cy_ble_gap.h ****     uint8_t  slowScanEnabled;
 337:Generated_Source\PSoC6\pdl\middleware/ble/cy_ble_gap.h **** 
 338:Generated_Source\PSoC6\pdl\middleware/ble/cy_ble_gap.h ****     /** The scan interval when operating in Slow connection */
 339:Generated_Source\PSoC6\pdl\middleware/ble/cy_ble_gap.h ****     uint16_t slowScanInterval;
 340:Generated_Source\PSoC6\pdl\middleware/ble/cy_ble_gap.h **** 
 341:Generated_Source\PSoC6\pdl\middleware/ble/cy_ble_gap.h ****     /** Defines the scan window when operating in Slow connection */
 342:Generated_Source\PSoC6\pdl\middleware/ble/cy_ble_gap.h ****     uint16_t slowScanWindow;
 343:Generated_Source\PSoC6\pdl\middleware/ble/cy_ble_gap.h **** 
 344:Generated_Source\PSoC6\pdl\middleware/ble/cy_ble_gap.h ****     /** The timeout value of scanning with Slow scan parameters */
 345:Generated_Source\PSoC6\pdl\middleware/ble/cy_ble_gap.h ****     uint16_t slowScanTimeOut;
 346:Generated_Source\PSoC6\pdl\middleware/ble/cy_ble_gap.h **** 
 347:Generated_Source\PSoC6\pdl\middleware/ble/cy_ble_gap.h ****     /** The minimum permissible connection time value to be used during a connection event */
 348:Generated_Source\PSoC6\pdl\middleware/ble/cy_ble_gap.h ****     uint16_t gapcConnectionIntervalMin;
 349:Generated_Source\PSoC6\pdl\middleware/ble/cy_ble_gap.h **** 
 350:Generated_Source\PSoC6\pdl\middleware/ble/cy_ble_gap.h ****     /** The maximum permissible connection time value to be used during a connection event */
 351:Generated_Source\PSoC6\pdl\middleware/ble/cy_ble_gap.h ****     uint16_t gapcConnectionIntervalMax;
 352:Generated_Source\PSoC6\pdl\middleware/ble/cy_ble_gap.h **** 
 353:Generated_Source\PSoC6\pdl\middleware/ble/cy_ble_gap.h ****     /** Defines the maximum time between two received Data Packet PDUs before
 354:Generated_Source\PSoC6\pdl\middleware/ble/cy_ble_gap.h ****      *  the connection is considered lost */
 355:Generated_Source\PSoC6\pdl\middleware/ble/cy_ble_gap.h ****     uint16_t gapcConnectionSlaveLatency;
 356:Generated_Source\PSoC6\pdl\middleware/ble/cy_ble_gap.h **** 
 357:Generated_Source\PSoC6\pdl\middleware/ble/cy_ble_gap.h ****     /** Defines the LE link supervision timeout interval */
 358:Generated_Source\PSoC6\pdl\middleware/ble/cy_ble_gap.h ****     uint16_t gapcConnectionTimeOut;
 359:Generated_Source\PSoC6\pdl\middleware/ble/cy_ble_gap.h **** }cy_stc_ble_gapc_scan_params_t;
 360:Generated_Source\PSoC6\pdl\middleware/ble/cy_ble_gap.h **** 
 361:Generated_Source\PSoC6\pdl\middleware/ble/cy_ble_gap.h **** /** Store BLE Application Data parameter into flash */
 362:Generated_Source\PSoC6\pdl\middleware/ble/cy_ble_gap.h **** typedef struct
 363:Generated_Source\PSoC6\pdl\middleware/ble/cy_ble_gap.h **** {
 364:Generated_Source\PSoC6\pdl\middleware/ble/cy_ble_gap.h ****     /** Source buffer */
 365:Generated_Source\PSoC6\pdl\middleware/ble/cy_ble_gap.h ****     const uint8_t *srcBuff;
 366:Generated_Source\PSoC6\pdl\middleware/ble/cy_ble_gap.h **** 
 367:Generated_Source\PSoC6\pdl\middleware/ble/cy_ble_gap.h ****     /** Destination buffer */
 368:Generated_Source\PSoC6\pdl\middleware/ble/cy_ble_gap.h ****     const uint8_t *destAddr;
 369:Generated_Source\PSoC6\pdl\middleware/ble/cy_ble_gap.h **** 
 370:Generated_Source\PSoC6\pdl\middleware/ble/cy_ble_gap.h ****     /** Source buffer length */
 371:Generated_Source\PSoC6\pdl\middleware/ble/cy_ble_gap.h ****     uint32_t      buffLen;
 372:Generated_Source\PSoC6\pdl\middleware/ble/cy_ble_gap.h **** 
 373:Generated_Source\PSoC6\pdl\middleware/ble/cy_ble_gap.h ****     /** Write mode: blocking (default) / non-blocking */
 374:Generated_Source\PSoC6\pdl\middleware/ble/cy_ble_gap.h ****     uint32_t      writeMode;
 375:Generated_Source\PSoC6\pdl\middleware/ble/cy_ble_gap.h **** 
 376:Generated_Source\PSoC6\pdl\middleware/ble/cy_ble_gap.h **** } cy_stc_ble_app_flash_param_t;
 377:Generated_Source\PSoC6\pdl\middleware/ble/cy_ble_gap.h **** 
 378:Generated_Source\PSoC6\pdl\middleware/ble/cy_ble_gap.h **** /** @} group_ble_common_api_gap_definitions */
 379:Generated_Source\PSoC6\pdl\middleware/ble/cy_ble_gap.h **** 
 380:Generated_Source\PSoC6\pdl\middleware/ble/cy_ble_gap.h **** /***************************************
 381:Generated_Source\PSoC6\pdl\middleware/ble/cy_ble_gap.h **** * API Constants
 382:Generated_Source\PSoC6\pdl\middleware/ble/cy_ble_gap.h **** ***************************************/
 383:Generated_Source\PSoC6\pdl\middleware/ble/cy_ble_gap.h **** #define CY_BLE_AD_TYPE_MORE16UUID                  (0x02u)
 384:Generated_Source\PSoC6\pdl\middleware/ble/cy_ble_gap.h **** #define CY_BLE_AD_TYPE_CMPL16UUID                  (0x03u)
 385:Generated_Source\PSoC6\pdl\middleware/ble/cy_ble_gap.h **** #define CY_BLE_AD_TYPE_MORE32UUID                  (0x04u)
 386:Generated_Source\PSoC6\pdl\middleware/ble/cy_ble_gap.h **** #define CY_BLE_AD_TYPE_CMPL32UUID                  (0x05u)
 387:Generated_Source\PSoC6\pdl\middleware/ble/cy_ble_gap.h **** #define CY_BLE_AD_TYPE_MORE128UUID                 (0x06u)
 388:Generated_Source\PSoC6\pdl\middleware/ble/cy_ble_gap.h **** #define CY_BLE_AD_TYPE_CMPL128UUID                 (0x07u)
ARM GAS  C:\Users\Austina\AppData\Local\Temp\cc8acxV8.s 			page 13


 389:Generated_Source\PSoC6\pdl\middleware/ble/cy_ble_gap.h **** 
 390:Generated_Source\PSoC6\pdl\middleware/ble/cy_ble_gap.h **** #define CY_BLE_AD_TYPE_SERVICE_DATA                (0x16u)
 391:Generated_Source\PSoC6\pdl\middleware/ble/cy_ble_gap.h **** #define CY_BLE_AD_SERVICE_DATA_OVERHEAD            (0x03u)
 392:Generated_Source\PSoC6\pdl\middleware/ble/cy_ble_gap.h **** 
 393:Generated_Source\PSoC6\pdl\middleware/ble/cy_ble_gap.h **** #define CY_BLE_DISCOVERY_IDLE                      (0x00u)
 394:Generated_Source\PSoC6\pdl\middleware/ble/cy_ble_gap.h **** #define CY_BLE_DISCOVERY_SERVICE                   (0x01u)
 395:Generated_Source\PSoC6\pdl\middleware/ble/cy_ble_gap.h **** #define CY_BLE_DISCOVERY_CHAR                      (0x02u)
 396:Generated_Source\PSoC6\pdl\middleware/ble/cy_ble_gap.h **** #define CY_BLE_DISCOVERY_DESCR                     (0x03u)
 397:Generated_Source\PSoC6\pdl\middleware/ble/cy_ble_gap.h **** #define CY_BLE_DISCOVERY_DONE                      (0x04u)
 398:Generated_Source\PSoC6\pdl\middleware/ble/cy_ble_gap.h **** 
 399:Generated_Source\PSoC6\pdl\middleware/ble/cy_ble_gap.h **** /* Cy_BLE_NextCharDscrDiscovery parameters */
 400:Generated_Source\PSoC6\pdl\middleware/ble/cy_ble_gap.h **** #define CY_BLE_DISCOVERY_INIT                      (0x00u)
 401:Generated_Source\PSoC6\pdl\middleware/ble/cy_ble_gap.h **** #define CY_BLE_DISCOVERY_CONTINUE                  (0x01u)
 402:Generated_Source\PSoC6\pdl\middleware/ble/cy_ble_gap.h **** 
 403:Generated_Source\PSoC6\pdl\middleware/ble/cy_ble_gap.h **** #define CY_BLE_SFLASH_DIE_X_MASK                   (0x3Fu)
 404:Generated_Source\PSoC6\pdl\middleware/ble/cy_ble_gap.h **** #define CY_BLE_SFLASH_DIE_X_BITS                   (6u)
 405:Generated_Source\PSoC6\pdl\middleware/ble/cy_ble_gap.h **** #define CY_BLE_SFLASH_DIE_Y_MASK                   (0x3Fu)
 406:Generated_Source\PSoC6\pdl\middleware/ble/cy_ble_gap.h **** #define CY_BLE_SFLASH_DIE_Y_BITS                   (6u)
 407:Generated_Source\PSoC6\pdl\middleware/ble/cy_ble_gap.h **** #define CY_BLE_SFLASH_DIE_XY_BITS                  (CY_BLE_SFLASH_DIE_X_BITS + CY_BLE_SFLASH_DIE_Y_
 408:Generated_Source\PSoC6\pdl\middleware/ble/cy_ble_gap.h **** #define CY_BLE_SFLASH_DIE_WAFER_MASK               (0x1Fu)
 409:Generated_Source\PSoC6\pdl\middleware/ble/cy_ble_gap.h **** #define CY_BLE_SFLASH_DIE_WAFER_BITS               (5u)
 410:Generated_Source\PSoC6\pdl\middleware/ble/cy_ble_gap.h **** #define CY_BLE_SFLASH_DIE_XYWAFER_BITS             (CY_BLE_SFLASH_DIE_XY_BITS + CY_BLE_SFLASH_DIE_W
 411:Generated_Source\PSoC6\pdl\middleware/ble/cy_ble_gap.h **** #define CY_BLE_SFLASH_DIE_LOT_MASK                 (0x7Fu)
 412:Generated_Source\PSoC6\pdl\middleware/ble/cy_ble_gap.h **** #define CY_BLE_SFLASH_DIE_LOT_BITS                 (7u)
 413:Generated_Source\PSoC6\pdl\middleware/ble/cy_ble_gap.h **** 
 414:Generated_Source\PSoC6\pdl\middleware/ble/cy_ble_gap.h **** /* Device address stored by user in ROW4 of the SFLASH */
 415:Generated_Source\PSoC6\pdl\middleware/ble/cy_ble_gap.h **** #define CY_BLE_SFLASH_DEVICE_ADDRESS_PTR           ((cy_stc_ble_gap_bd_addr_t*)(SFLASH->BLE_DEVICE_
 416:Generated_Source\PSoC6\pdl\middleware/ble/cy_ble_gap.h **** #define CY_BLE_AD_STRUCTURE_MAX_LENGTH             (31u)
 417:Generated_Source\PSoC6\pdl\middleware/ble/cy_ble_gap.h **** 
 418:Generated_Source\PSoC6\pdl\middleware/ble/cy_ble_gap.h **** /* AD types for complete, shortened local name and device address */
 419:Generated_Source\PSoC6\pdl\middleware/ble/cy_ble_gap.h **** #define CY_BLE_SHORT_LOCAL_NAME                    (0x08u)  /**< Shortened Local Name */
 420:Generated_Source\PSoC6\pdl\middleware/ble/cy_ble_gap.h **** #define CY_BLE_COMPLETE_LOCAL_NAME                 (0x09u)  /**< Complete Local Name */
 421:Generated_Source\PSoC6\pdl\middleware/ble/cy_ble_gap.h **** #define CY_BLE_ADV_DEVICE_ADDR                     (0x1Bu)  /**< LE Bluetooth Device Address */
 422:Generated_Source\PSoC6\pdl\middleware/ble/cy_ble_gap.h **** 
 423:Generated_Source\PSoC6\pdl\middleware/ble/cy_ble_gap.h **** #define CY_BLE_ADVERTISING_FAST                    (0x00u)
 424:Generated_Source\PSoC6\pdl\middleware/ble/cy_ble_gap.h **** #define CY_BLE_ADVERTISING_SLOW                    (0x01u)
 425:Generated_Source\PSoC6\pdl\middleware/ble/cy_ble_gap.h **** #define CY_BLE_ADVERTISING_CUSTOM                  (0x02u)
 426:Generated_Source\PSoC6\pdl\middleware/ble/cy_ble_gap.h **** 
 427:Generated_Source\PSoC6\pdl\middleware/ble/cy_ble_gap.h **** #define CY_BLE_SCANNING_FAST                       (0x00u)
 428:Generated_Source\PSoC6\pdl\middleware/ble/cy_ble_gap.h **** #define CY_BLE_SCANNING_SLOW                       (0x01u)
 429:Generated_Source\PSoC6\pdl\middleware/ble/cy_ble_gap.h **** #define CY_BLE_SCANNING_CUSTOM                     (0x02u)
 430:Generated_Source\PSoC6\pdl\middleware/ble/cy_ble_gap.h **** 
 431:Generated_Source\PSoC6\pdl\middleware/ble/cy_ble_gap.h **** #define CY_BLE_PENDING_STACK_FLASH_WRITE_BIT       (0x01u)
 432:Generated_Source\PSoC6\pdl\middleware/ble/cy_ble_gap.h **** #define CY_BLE_PENDING_CCCD_FLASH_WRITE_BIT        (0x02u)
 433:Generated_Source\PSoC6\pdl\middleware/ble/cy_ble_gap.h **** #define CY_BLE_PENDING_CCCD_FLASH_CLEAR_BIT        (0x04u)
 434:Generated_Source\PSoC6\pdl\middleware/ble/cy_ble_gap.h **** #define CY_BLE_PENDING_CCCD_FLASH_CLEAR_ALL_BIT    (0x08u)
 435:Generated_Source\PSoC6\pdl\middleware/ble/cy_ble_gap.h **** #define CY_BLE_PENDING_CCCD_FLASH_CLEAR_MASK \
 436:Generated_Source\PSoC6\pdl\middleware/ble/cy_ble_gap.h ****     (CY_BLE_PENDING_CCCD_FLASH_CLEAR_BIT | CY_BLE_PENDING_CCCD_FLASH_CLEAR_ALL_BIT)
 437:Generated_Source\PSoC6\pdl\middleware/ble/cy_ble_gap.h **** 
 438:Generated_Source\PSoC6\pdl\middleware/ble/cy_ble_gap.h **** /**
 439:Generated_Source\PSoC6\pdl\middleware/ble/cy_ble_gap.h ****  * \addtogroup group_ble_common_api_macros
 440:Generated_Source\PSoC6\pdl\middleware/ble/cy_ble_gap.h ****  * @{
 441:Generated_Source\PSoC6\pdl\middleware/ble/cy_ble_gap.h ****  */
 442:Generated_Source\PSoC6\pdl\middleware/ble/cy_ble_gap.h **** 
 443:Generated_Source\PSoC6\pdl\middleware/ble/cy_ble_gap.h **** /* GAP Advertisement Flags */
 444:Generated_Source\PSoC6\pdl\middleware/ble/cy_ble_gap.h **** #define CY_BLE_GAP_ADV_FLAG_LE_LIMITED_DISC_MODE        (0x01u)     /**< LE Limited Discoverable Mo
 445:Generated_Source\PSoC6\pdl\middleware/ble/cy_ble_gap.h **** #define CY_BLE_GAP_ADV_FLAG_LE_GENERAL_DISC_MODE        (0x02u)     /**< LE General Discoverable Mo
ARM GAS  C:\Users\Austina\AppData\Local\Temp\cc8acxV8.s 			page 14


 446:Generated_Source\PSoC6\pdl\middleware/ble/cy_ble_gap.h **** #define CY_BLE_GAP_ADV_FLAG_BR_EDR_NOT_SUPPORTED        (0x04u)     /**< BR/EDR not supported. */
 447:Generated_Source\PSoC6\pdl\middleware/ble/cy_ble_gap.h **** #define CY_BLE_GAP_ADV_FLAG_LE_BR_EDR_CONTROLLER        (0x08u)     /**< Simultaneous LE and BR/EDR
 448:Generated_Source\PSoC6\pdl\middleware/ble/cy_ble_gap.h **** #define CY_BLE_GAP_ADV_FLAG_LE_BR_EDR_HOST              (0x10u)     /**< Simultaneous LE and BR/EDR
 449:Generated_Source\PSoC6\pdl\middleware/ble/cy_ble_gap.h **** #define CY_BLE_GAP_ADV_FLAGS_PACKET_LENGTH              (0x02u)     /**< Length of flags in an adve
 450:Generated_Source\PSoC6\pdl\middleware/ble/cy_ble_gap.h **** 
 451:Generated_Source\PSoC6\pdl\middleware/ble/cy_ble_gap.h **** /* GAP Advertising interval min and max */
 452:Generated_Source\PSoC6\pdl\middleware/ble/cy_ble_gap.h **** #define CY_BLE_GAP_ADV_ADVERT_INTERVAL_MIN              (0x0020u)   /**< Minimum Advertising interv
 453:Generated_Source\PSoC6\pdl\middleware/ble/cy_ble_gap.h ****                                                                      *   i.e. 20 ms. */
 454:Generated_Source\PSoC6\pdl\middleware/ble/cy_ble_gap.h **** #define CY_BLE_GAP_ADV_ADVERT_INTERVAL_NONCON_MIN       (0x00A0u)   /**< Minimum Advertising interv
 455:Generated_Source\PSoC6\pdl\middleware/ble/cy_ble_gap.h ****                                                                      *   for non connectable mode, 
 456:Generated_Source\PSoC6\pdl\middleware/ble/cy_ble_gap.h **** #define CY_BLE_GAP_ADV_ADVERT_INTERVAL_MAX              (0x4000u)   /**< Maximum Advertising interv
 457:Generated_Source\PSoC6\pdl\middleware/ble/cy_ble_gap.h ****                                                                      *   i.e. 10.24 s. */
 458:Generated_Source\PSoC6\pdl\middleware/ble/cy_ble_gap.h **** #define CY_BLE_GAP_ADV_ADVERT_INTERVAL_PACKET_LENGTH    (0x03u)     /**< Length of the Advertising 
 459:Generated_Source\PSoC6\pdl\middleware/ble/cy_ble_gap.h ****                                                                      *   an advertisement packet */
 460:Generated_Source\PSoC6\pdl\middleware/ble/cy_ble_gap.h **** #define CY_BLE_GAPC_CONNECTING_TIMEOUT                  (30u)       /**< Seconds */
 461:Generated_Source\PSoC6\pdl\middleware/ble/cy_ble_gap.h **** #define CY_BLE_INVALID_CONN_HANDLE_VALUE                (0xFFu)     /**< Invalid Connection Handle 
 462:Generated_Source\PSoC6\pdl\middleware/ble/cy_ble_gap.h **** 
 463:Generated_Source\PSoC6\pdl\middleware/ble/cy_ble_gap.h **** /* Write mode for Cy_BLE_StoreAppData */
 464:Generated_Source\PSoC6\pdl\middleware/ble/cy_ble_gap.h **** #define CY_BLE_STORE_DATA_MODE_BLOCKING                 (0x0u)      /**< Blocking write */
 465:Generated_Source\PSoC6\pdl\middleware/ble/cy_ble_gap.h **** #define CY_BLE_STORE_DATA_MODE_NON_BLOCKING             (0x1u)      /**< Non-blocking write */
 466:Generated_Source\PSoC6\pdl\middleware/ble/cy_ble_gap.h **** 
 467:Generated_Source\PSoC6\pdl\middleware/ble/cy_ble_gap.h **** /** @} group_ble_common_api_macros */
 468:Generated_Source\PSoC6\pdl\middleware/ble/cy_ble_gap.h **** 
 469:Generated_Source\PSoC6\pdl\middleware/ble/cy_ble_gap.h **** /***************************************
 470:Generated_Source\PSoC6\pdl\middleware/ble/cy_ble_gap.h **** * Private Function Prototypes
 471:Generated_Source\PSoC6\pdl\middleware/ble/cy_ble_gap.h **** ***************************************/
 472:Generated_Source\PSoC6\pdl\middleware/ble/cy_ble_gap.h **** void Cy_BLE_ServiceInit(void);
 473:Generated_Source\PSoC6\pdl\middleware/ble/cy_ble_gap.h **** uint32_t Cy_BLE_GetDiscoveryIdx(cy_stc_ble_conn_handle_t connHandle);
 474:Generated_Source\PSoC6\pdl\middleware/ble/cy_ble_gap.h **** 
 475:Generated_Source\PSoC6\pdl\middleware/ble/cy_ble_gap.h **** /***************************************
 476:Generated_Source\PSoC6\pdl\middleware/ble/cy_ble_gap.h **** * Function Prototypes
 477:Generated_Source\PSoC6\pdl\middleware/ble/cy_ble_gap.h **** ***************************************/
 478:Generated_Source\PSoC6\pdl\middleware/ble/cy_ble_gap.h **** /**
 479:Generated_Source\PSoC6\pdl\middleware/ble/cy_ble_gap.h ****  * \addtogroup group_ble_common_api_functions
 480:Generated_Source\PSoC6\pdl\middleware/ble/cy_ble_gap.h ****  * @{
 481:Generated_Source\PSoC6\pdl\middleware/ble/cy_ble_gap.h ****  */
 482:Generated_Source\PSoC6\pdl\middleware/ble/cy_ble_gap.h **** 
 483:Generated_Source\PSoC6\pdl\middleware/ble/cy_ble_gap.h **** cy_en_ble_api_result_t Cy_BLE_StoreAppData(const cy_stc_ble_app_flash_param_t *param);
 484:Generated_Source\PSoC6\pdl\middleware/ble/cy_ble_gap.h **** 
 485:Generated_Source\PSoC6\pdl\middleware/ble/cy_ble_gap.h **** #if ((CY_BLE_GAP_ROLE_PERIPHERAL || CY_BLE_GAP_ROLE_CENTRAL) && (CY_BLE_BONDING_REQUIREMENT == CY_B
 486:Generated_Source\PSoC6\pdl\middleware/ble/cy_ble_gap.h **** cy_en_ble_api_result_t Cy_BLE_StoreBondingData(void);
 487:Generated_Source\PSoC6\pdl\middleware/ble/cy_ble_gap.h **** cy_en_ble_api_result_t Cy_BLE_GAP_RemoveBondedDevice(cy_stc_ble_gap_bd_addr_t* bdAddr);
 488:Generated_Source\PSoC6\pdl\middleware/ble/cy_ble_gap.h **** #endif /* (CY_BLE_GAP_ROLE_PERIPHERAL || CY_BLE_GAP_ROLE_CENTRAL) && (CY_BLE_BONDING_REQUIREMENT ==
 489:Generated_Source\PSoC6\pdl\middleware/ble/cy_ble_gap.h **** 
 490:Generated_Source\PSoC6\pdl\middleware/ble/cy_ble_gap.h **** #if (CY_BLE_GAP_ROLE_PERIPHERAL || CY_BLE_GAP_ROLE_CENTRAL)
 491:Generated_Source\PSoC6\pdl\middleware/ble/cy_ble_gap.h **** bool Cy_BLE_IsPeerConnected(uint8_t *bdAddr);
 492:Generated_Source\PSoC6\pdl\middleware/ble/cy_ble_gap.h **** bool Cy_BLE_IsDevicePaired(cy_stc_ble_conn_handle_t *connHandle);
 493:Generated_Source\PSoC6\pdl\middleware/ble/cy_ble_gap.h **** uint8_t Cy_BLE_GetDeviceRole(cy_stc_ble_conn_handle_t *connHandle);
 494:Generated_Source\PSoC6\pdl\middleware/ble/cy_ble_gap.h **** 
 495:Generated_Source\PSoC6\pdl\middleware/ble/cy_ble_gap.h **** cy_en_ble_api_result_t Cy_BLE_GetRssiPeer(uint8_t  bdHandle);
 496:Generated_Source\PSoC6\pdl\middleware/ble/cy_ble_gap.h **** #endif /* (CY_BLE_GAP_ROLE_PERIPHERAL || CY_BLE_GAP_ROLE_CENTRAL) */
 497:Generated_Source\PSoC6\pdl\middleware/ble/cy_ble_gap.h **** /** @} group_ble_common_api_functions */
 498:Generated_Source\PSoC6\pdl\middleware/ble/cy_ble_gap.h **** 
 499:Generated_Source\PSoC6\pdl\middleware/ble/cy_ble_gap.h **** /**
 500:Generated_Source\PSoC6\pdl\middleware/ble/cy_ble_gap.h ****  * \addtogroup group_ble_common_api_gap_peripheral_functions
 501:Generated_Source\PSoC6\pdl\middleware/ble/cy_ble_gap.h ****  * @{
 502:Generated_Source\PSoC6\pdl\middleware/ble/cy_ble_gap.h ****  */
ARM GAS  C:\Users\Austina\AppData\Local\Temp\cc8acxV8.s 			page 15


 503:Generated_Source\PSoC6\pdl\middleware/ble/cy_ble_gap.h **** 
 504:Generated_Source\PSoC6\pdl\middleware/ble/cy_ble_gap.h **** #if (CY_BLE_GAP_ROLE_PERIPHERAL || CY_BLE_GAP_ROLE_BROADCASTER)
 505:Generated_Source\PSoC6\pdl\middleware/ble/cy_ble_gap.h **** cy_en_ble_api_result_t Cy_BLE_GAPP_StartAdvertisement(uint8_t advertisingIntervalType, uint8_t adve
 506:Generated_Source\PSoC6\pdl\middleware/ble/cy_ble_gap.h **** cy_en_ble_api_result_t Cy_BLE_GAPP_StopAdvertisement(void);
 507:Generated_Source\PSoC6\pdl\middleware/ble/cy_ble_gap.h **** 
 508:Generated_Source\PSoC6\pdl\middleware/ble/cy_ble_gap.h **** /** \cond IGNORE */
 509:Generated_Source\PSoC6\pdl\middleware/ble/cy_ble_gap.h **** void Cy_BLE_ChangeAdDeviceAddress(const cy_stc_ble_gap_bd_addr_t* bdAddr, uint8_t dest);
 510:Generated_Source\PSoC6\pdl\middleware/ble/cy_ble_gap.h **** /** \endcond */
 511:Generated_Source\PSoC6\pdl\middleware/ble/cy_ble_gap.h **** 
 512:Generated_Source\PSoC6\pdl\middleware/ble/cy_ble_gap.h **** #endif /* CY_BLE_GAP_ROLE_PERIPHERAL */
 513:Generated_Source\PSoC6\pdl\middleware/ble/cy_ble_gap.h **** 
 514:Generated_Source\PSoC6\pdl\middleware/ble/cy_ble_gap.h **** /** @} group_ble_common_api_gap_peripheral_functions */
 515:Generated_Source\PSoC6\pdl\middleware/ble/cy_ble_gap.h **** 
 516:Generated_Source\PSoC6\pdl\middleware/ble/cy_ble_gap.h **** /**
 517:Generated_Source\PSoC6\pdl\middleware/ble/cy_ble_gap.h ****  * \addtogroup group_ble_common_api_gap_central_functions
 518:Generated_Source\PSoC6\pdl\middleware/ble/cy_ble_gap.h ****  * @{
 519:Generated_Source\PSoC6\pdl\middleware/ble/cy_ble_gap.h ****  */
 520:Generated_Source\PSoC6\pdl\middleware/ble/cy_ble_gap.h **** 
 521:Generated_Source\PSoC6\pdl\middleware/ble/cy_ble_gap.h **** #if (CY_BLE_GAP_ROLE_CENTRAL || CY_BLE_GAP_ROLE_OBSERVER)
 522:Generated_Source\PSoC6\pdl\middleware/ble/cy_ble_gap.h **** cy_en_ble_api_result_t Cy_BLE_GAPC_StartScan(uint8_t scanningIntervalType, uint8_t scanParamIndex);
 523:Generated_Source\PSoC6\pdl\middleware/ble/cy_ble_gap.h **** cy_en_ble_api_result_t Cy_BLE_GAPC_StopScan(void);
 524:Generated_Source\PSoC6\pdl\middleware/ble/cy_ble_gap.h **** #endif /* CY_BLE_GAP_ROLE_CENTRAL || CY_BLE_GAP_ROLE_OBSERVER */
 525:Generated_Source\PSoC6\pdl\middleware/ble/cy_ble_gap.h **** 
 526:Generated_Source\PSoC6\pdl\middleware/ble/cy_ble_gap.h **** #if (CY_BLE_GAP_ROLE_CENTRAL)
 527:Generated_Source\PSoC6\pdl\middleware/ble/cy_ble_gap.h **** cy_en_ble_api_result_t Cy_BLE_GAPC_ConnectDevice(const cy_stc_ble_gap_bd_addr_t * address, uint8_t 
 528:Generated_Source\PSoC6\pdl\middleware/ble/cy_ble_gap.h **** cy_en_ble_api_result_t Cy_BLE_GAPC_CancelDeviceConnection(void);
 529:Generated_Source\PSoC6\pdl\middleware/ble/cy_ble_gap.h **** #endif /* CY_BLE_GAP_ROLE_CENTRAL */
 530:Generated_Source\PSoC6\pdl\middleware/ble/cy_ble_gap.h **** 
 531:Generated_Source\PSoC6\pdl\middleware/ble/cy_ble_gap.h **** /** @} group_ble_common_api_gap_central_functions */
 532:Generated_Source\PSoC6\pdl\middleware/ble/cy_ble_gap.h **** 
 533:Generated_Source\PSoC6\pdl\middleware/ble/cy_ble_gap.h **** /***************************************
 534:Generated_Source\PSoC6\pdl\middleware/ble/cy_ble_gap.h **** * External data references
 535:Generated_Source\PSoC6\pdl\middleware/ble/cy_ble_gap.h **** ***************************************/
 536:Generated_Source\PSoC6\pdl\middleware/ble/cy_ble_gap.h **** extern volatile uint8_t cy_ble_eventHandlerFlag;
 537:Generated_Source\PSoC6\pdl\middleware/ble/cy_ble_gap.h **** extern cy_stc_ble_gap_bd_addr_t *cy_ble_sflashDeviceAddress;
 538:Generated_Source\PSoC6\pdl\middleware/ble/cy_ble_gap.h **** extern cy_stc_ble_gap_bd_addr_t cy_ble_deviceAddress;
 539:Generated_Source\PSoC6\pdl\middleware/ble/cy_ble_gap.h **** extern cy_en_ble_state_t cy_ble_state;
 540:Generated_Source\PSoC6\pdl\middleware/ble/cy_ble_gap.h **** 
 541:Generated_Source\PSoC6\pdl\middleware/ble/cy_ble_gap.h **** #if ((CY_BLE_GAP_ROLE_PERIPHERAL || CY_BLE_GAP_ROLE_CENTRAL))
 542:Generated_Source\PSoC6\pdl\middleware/ble/cy_ble_gap.h **** extern cy_stc_ble_gap_auth_info_t cy_ble_authInfo[CY_BLE_AUTH_INFO_COUNT];
 543:Generated_Source\PSoC6\pdl\middleware/ble/cy_ble_gap.h **** #endif /* ((CY_BLE_GAP_ROLE_PERIPHERAL || CY_BLE_GAP_ROLE_CENTRAL)) */
 544:Generated_Source\PSoC6\pdl\middleware/ble/cy_ble_gap.h **** 
 545:Generated_Source\PSoC6\pdl\middleware/ble/cy_ble_gap.h **** #if (CY_BLE_GAP_ROLE_PERIPHERAL || CY_BLE_GAP_ROLE_BROADCASTER)
 546:Generated_Source\PSoC6\pdl\middleware/ble/cy_ble_gap.h **** extern cy_en_ble_adv_state_t cy_ble_advState;
 547:Generated_Source\PSoC6\pdl\middleware/ble/cy_ble_gap.h **** extern uint8_t cy_ble_advIndex;
 548:Generated_Source\PSoC6\pdl\middleware/ble/cy_ble_gap.h **** #endif  /* (CY_BLE_GAP_ROLE_PERIPHERAL || CY_BLE_GAP_ROLE_BROADCASTER) */
 549:Generated_Source\PSoC6\pdl\middleware/ble/cy_ble_gap.h **** 
 550:Generated_Source\PSoC6\pdl\middleware/ble/cy_ble_gap.h **** #if (CY_BLE_GAP_ROLE_CENTRAL || CY_BLE_GAP_ROLE_OBSERVER)
 551:Generated_Source\PSoC6\pdl\middleware/ble/cy_ble_gap.h **** extern cy_en_ble_scan_state_t cy_ble_scanState;
 552:Generated_Source\PSoC6\pdl\middleware/ble/cy_ble_gap.h **** extern uint8_t cy_ble_scanIndex;
 553:Generated_Source\PSoC6\pdl\middleware/ble/cy_ble_gap.h **** #endif /* (CY_BLE_GAP_ROLE_CENTRAL || CY_BLE_GAP_ROLE_OBSERVER) */
 554:Generated_Source\PSoC6\pdl\middleware/ble/cy_ble_gap.h **** 
 555:Generated_Source\PSoC6\pdl\middleware/ble/cy_ble_gap.h **** #if ((CY_BLE_GAP_ROLE_PERIPHERAL || CY_BLE_GAP_ROLE_CENTRAL))
 556:Generated_Source\PSoC6\pdl\middleware/ble/cy_ble_gap.h **** extern cy_stc_ble_conn_handle_t cy_ble_connHandle[CY_BLE_CONN_COUNT];
 557:Generated_Source\PSoC6\pdl\middleware/ble/cy_ble_gap.h **** extern cy_en_ble_conn_state_t cy_ble_connState[CY_BLE_CONN_COUNT];
 558:Generated_Source\PSoC6\pdl\middleware/ble/cy_ble_gap.h **** 
 559:Generated_Source\PSoC6\pdl\middleware/ble/cy_ble_gap.h **** extern volatile uint8_t cy_ble_devConnRole[CY_BLE_CONN_COUNT];
ARM GAS  C:\Users\Austina\AppData\Local\Temp\cc8acxV8.s 			page 16


 560:Generated_Source\PSoC6\pdl\middleware/ble/cy_ble_gap.h **** extern volatile bool cy_ble_pairStatus[CY_BLE_CONN_COUNT];
 561:Generated_Source\PSoC6\pdl\middleware/ble/cy_ble_gap.h **** 
 562:Generated_Source\PSoC6\pdl\middleware/ble/cy_ble_gap.h **** #endif /* ((CY_BLE_GAP_ROLE_PERIPHERAL || CY_BLE_GAP_ROLE_CENTRAL)) */
 563:Generated_Source\PSoC6\pdl\middleware/ble/cy_ble_gap.h **** 
 564:Generated_Source\PSoC6\pdl\middleware/ble/cy_ble_gap.h **** #if (CY_BLE_GAP_ROLE_CENTRAL || CY_BLE_GAP_ROLE_OBSERVER)
 565:Generated_Source\PSoC6\pdl\middleware/ble/cy_ble_gap.h **** extern cy_stc_ble_gapc_disc_info_t cy_ble_discoveryInfo[CY_BLE_GAPC_CONF_COUNT];
 566:Generated_Source\PSoC6\pdl\middleware/ble/cy_ble_gap.h **** #endif /* CY_BLE_GAP_ROLE_CENTRAL || CY_BLE_GAP_ROLE_OBSERVER */
 567:Generated_Source\PSoC6\pdl\middleware/ble/cy_ble_gap.h **** 
 568:Generated_Source\PSoC6\pdl\middleware/ble/cy_ble_gap.h **** #if (CY_BLE_GAP_ROLE_CENTRAL)
 569:Generated_Source\PSoC6\pdl\middleware/ble/cy_ble_gap.h **** extern cy_stc_ble_gapc_conn_info_t cy_ble_connectionParameters;
 570:Generated_Source\PSoC6\pdl\middleware/ble/cy_ble_gap.h **** extern cy_stc_ble_timer_info_t cy_ble_connectingTimeout;
 571:Generated_Source\PSoC6\pdl\middleware/ble/cy_ble_gap.h **** #endif /* CY_BLE_GAP_ROLE_CENTRAL */
 572:Generated_Source\PSoC6\pdl\middleware/ble/cy_ble_gap.h **** 
 573:Generated_Source\PSoC6\pdl\middleware/ble/cy_ble_gap.h **** #if (CY_BLE_GAP_ROLE_PERIPHERAL || CY_BLE_GAP_ROLE_BROADCASTER)
 574:Generated_Source\PSoC6\pdl\middleware/ble/cy_ble_gap.h **** extern cy_stc_ble_gapp_disc_mode_info_t cy_ble_discoveryModeInfo[CY_BLE_GAPP_CONF_COUNT];
 575:Generated_Source\PSoC6\pdl\middleware/ble/cy_ble_gap.h **** extern cy_stc_ble_gapp_disc_param_t cy_ble_discoveryParam[CY_BLE_GAPP_CONF_COUNT];
 576:Generated_Source\PSoC6\pdl\middleware/ble/cy_ble_gap.h **** extern cy_stc_ble_gapp_disc_data_t cy_ble_discoveryData[CY_BLE_GAPP_CONF_COUNT];
 577:Generated_Source\PSoC6\pdl\middleware/ble/cy_ble_gap.h **** extern cy_stc_ble_gapp_scan_rsp_data_t cy_ble_scanRspData[CY_BLE_GAPP_CONF_COUNT];
 578:Generated_Source\PSoC6\pdl\middleware/ble/cy_ble_gap.h **** #endif /* CY_BLE_GAP_ROLE_PERIPHERAL || CY_BLE_GAP_ROLE_BROADCASTER */
 579:Generated_Source\PSoC6\pdl\middleware/ble/cy_ble_gap.h **** 
 580:Generated_Source\PSoC6\pdl\middleware/ble/cy_ble_gap.h **** #if ((CY_BLE_GAP_ROLE_PERIPHERAL || CY_BLE_GAP_ROLE_CENTRAL) && (CY_BLE_BONDING_REQUIREMENT == CY_B
 581:Generated_Source\PSoC6\pdl\middleware/ble/cy_ble_gap.h **** 
 582:Generated_Source\PSoC6\pdl\middleware/ble/cy_ble_gap.h **** /**
 583:Generated_Source\PSoC6\pdl\middleware/ble/cy_ble_gap.h ****  * \addtogroup group_ble_common_api_global_variables
 584:Generated_Source\PSoC6\pdl\middleware/ble/cy_ble_gap.h ****  * @{
 585:Generated_Source\PSoC6\pdl\middleware/ble/cy_ble_gap.h ****  */
 586:Generated_Source\PSoC6\pdl\middleware/ble/cy_ble_gap.h **** /** This is a two-bit variable that contains status of pending write to flash operation.
 587:Generated_Source\PSoC6\pdl\middleware/ble/cy_ble_gap.h ****  * This variable is initialized to zero in Cy_BLE_Init().
 588:Generated_Source\PSoC6\pdl\middleware/ble/cy_ble_gap.h ****  * CY_BLE_PENDING_CCCD_FLASH_WRITE_BIT flag is set after write to CCCD event when a
 589:Generated_Source\PSoC6\pdl\middleware/ble/cy_ble_gap.h ****  * peer device supports bonding (cy_ble_peerBonding[eventParam->connHandle.attId] == CY_BLE_GAP_BON
 590:Generated_Source\PSoC6\pdl\middleware/ble/cy_ble_gap.h ****  * CY_BLE_PENDING_STACK_FLASH_WRITE_BIT flag is set after CY_BLE_EVT_PENDING_FLASH_WRITE event.
 591:Generated_Source\PSoC6\pdl\middleware/ble/cy_ble_gap.h ****  * Cy_BLE_StoreBondingData() should be called to store pending bonding data.
 592:Generated_Source\PSoC6\pdl\middleware/ble/cy_ble_gap.h ****  * This function automatically clears pending bits after write operation is complete.
 593:Generated_Source\PSoC6\pdl\middleware/ble/cy_ble_gap.h ****  */
 594:Generated_Source\PSoC6\pdl\middleware/ble/cy_ble_gap.h **** extern uint8_t cy_ble_pendingFlashWrite;
 595:Generated_Source\PSoC6\pdl\middleware/ble/cy_ble_gap.h **** /** @} group_ble_common_api_global_variables */
 596:Generated_Source\PSoC6\pdl\middleware/ble/cy_ble_gap.h **** 
 597:Generated_Source\PSoC6\pdl\middleware/ble/cy_ble_gap.h **** /** Bonding type setting of peer device, CY_BLE_GAP_BONDING_NONE or CY_BLE_GAP_BONDING.
 598:Generated_Source\PSoC6\pdl\middleware/ble/cy_ble_gap.h ****  * It is initialized after pairing with peer device and used for cy_ble_pendingFlashWrite variable
 599:Generated_Source\PSoC6\pdl\middleware/ble/cy_ble_gap.h ****  * setting.
 600:Generated_Source\PSoC6\pdl\middleware/ble/cy_ble_gap.h ****  */
 601:Generated_Source\PSoC6\pdl\middleware/ble/cy_ble_gap.h **** extern uint8_t cy_ble_peerBonding[CY_BLE_CONN_COUNT];
 602:Generated_Source\PSoC6\pdl\middleware/ble/cy_ble_gap.h **** 
 603:Generated_Source\PSoC6\pdl\middleware/ble/cy_ble_gap.h **** #endif  /* (CY_BLE_BONDING_REQUIREMENT == CY_BLE_BONDING_YES) */
 604:Generated_Source\PSoC6\pdl\middleware/ble/cy_ble_gap.h **** 
 605:Generated_Source\PSoC6\pdl\middleware/ble/cy_ble_gap.h **** 
 606:Generated_Source\PSoC6\pdl\middleware/ble/cy_ble_gap.h **** /***************************************
 607:Generated_Source\PSoC6\pdl\middleware/ble/cy_ble_gap.h **** * Exported Functions (MACROS)
 608:Generated_Source\PSoC6\pdl\middleware/ble/cy_ble_gap.h **** ***************************************/
 609:Generated_Source\PSoC6\pdl\middleware/ble/cy_ble_gap.h **** #if ((CY_BLE_GAP_ROLE_PERIPHERAL || CY_BLE_GAP_ROLE_CENTRAL))
 610:Generated_Source\PSoC6\pdl\middleware/ble/cy_ble_gap.h **** 
 611:Generated_Source\PSoC6\pdl\middleware/ble/cy_ble_gap.h **** /******************************************************************************
 612:Generated_Source\PSoC6\pdl\middleware/ble/cy_ble_gap.h **** * Function Name: Cy_BLE_GetConnHandleIdx
 613:Generated_Source\PSoC6\pdl\middleware/ble/cy_ble_gap.h **** ***************************************************************************//**
 614:Generated_Source\PSoC6\pdl\middleware/ble/cy_ble_gap.h **** *
 615:Generated_Source\PSoC6\pdl\middleware/ble/cy_ble_gap.h **** *  This function searches the array of connection handles (cy_ble_connHandle[])
 616:Generated_Source\PSoC6\pdl\middleware/ble/cy_ble_gap.h **** *  for the location (index) of a handle that corresponds to the input parameter
ARM GAS  C:\Users\Austina\AppData\Local\Temp\cc8acxV8.s 			page 17


 617:Generated_Source\PSoC6\pdl\middleware/ble/cy_ble_gap.h **** *  connHandle. bdHandle.
 618:Generated_Source\PSoC6\pdl\middleware/ble/cy_ble_gap.h **** *
 619:Generated_Source\PSoC6\pdl\middleware/ble/cy_ble_gap.h **** *  This function is designated for internal usage.
 620:Generated_Source\PSoC6\pdl\middleware/ble/cy_ble_gap.h **** *
 621:Generated_Source\PSoC6\pdl\middleware/ble/cy_ble_gap.h **** *  \param connHandle: The connection handle.
 622:Generated_Source\PSoC6\pdl\middleware/ble/cy_ble_gap.h **** *
 623:Generated_Source\PSoC6\pdl\middleware/ble/cy_ble_gap.h **** *  \return
 624:Generated_Source\PSoC6\pdl\middleware/ble/cy_ble_gap.h **** *  retValue: the index of connHandle
 625:Generated_Source\PSoC6\pdl\middleware/ble/cy_ble_gap.h **** *
 626:Generated_Source\PSoC6\pdl\middleware/ble/cy_ble_gap.h **** ******************************************************************************/
 627:Generated_Source\PSoC6\pdl\middleware/ble/cy_ble_gap.h **** __STATIC_INLINE uint8_t Cy_BLE_GetConnHandleIdx(cy_stc_ble_conn_handle_t connHandle)
 628:Generated_Source\PSoC6\pdl\middleware/ble/cy_ble_gap.h **** {
 629:Generated_Source\PSoC6\pdl\middleware/ble/cy_ble_gap.h ****     uint8_t idx;
 630:Generated_Source\PSoC6\pdl\middleware/ble/cy_ble_gap.h ****     uint8_t retValue = CY_BLE_CONN_COUNT;
 631:Generated_Source\PSoC6\pdl\middleware/ble/cy_ble_gap.h **** 
 632:Generated_Source\PSoC6\pdl\middleware/ble/cy_ble_gap.h ****     for(idx = 0u; idx < CY_BLE_CONN_COUNT; idx++)
 633:Generated_Source\PSoC6\pdl\middleware/ble/cy_ble_gap.h ****     {
 634:Generated_Source\PSoC6\pdl\middleware/ble/cy_ble_gap.h ****         if(cy_ble_connHandle[idx].bdHandle == connHandle.bdHandle)
 635:Generated_Source\PSoC6\pdl\middleware/ble/cy_ble_gap.h ****         {
 636:Generated_Source\PSoC6\pdl\middleware/ble/cy_ble_gap.h ****             retValue = idx;
 637:Generated_Source\PSoC6\pdl\middleware/ble/cy_ble_gap.h ****             break;
 638:Generated_Source\PSoC6\pdl\middleware/ble/cy_ble_gap.h ****         }
 639:Generated_Source\PSoC6\pdl\middleware/ble/cy_ble_gap.h ****     }
 640:Generated_Source\PSoC6\pdl\middleware/ble/cy_ble_gap.h ****     if(retValue == CY_BLE_CONN_COUNT)
 641:Generated_Source\PSoC6\pdl\middleware/ble/cy_ble_gap.h ****     {
 642:Generated_Source\PSoC6\pdl\middleware/ble/cy_ble_gap.h ****         /* HALT in debug mode */
 643:Generated_Source\PSoC6\pdl\middleware/ble/cy_ble_gap.h ****         CY_ASSERT(retValue != CY_BLE_CONN_COUNT);
 644:Generated_Source\PSoC6\pdl\middleware/ble/cy_ble_gap.h ****         retValue = 0u;
 645:Generated_Source\PSoC6\pdl\middleware/ble/cy_ble_gap.h ****     }
 646:Generated_Source\PSoC6\pdl\middleware/ble/cy_ble_gap.h **** 
 647:Generated_Source\PSoC6\pdl\middleware/ble/cy_ble_gap.h ****     return(retValue);
 648:Generated_Source\PSoC6\pdl\middleware/ble/cy_ble_gap.h **** }
 649:Generated_Source\PSoC6\pdl\middleware/ble/cy_ble_gap.h **** #endif  /* ((CY_BLE_GAP_ROLE_PERIPHERAL || CY_BLE_GAP_ROLE_CENTRAL)) */
 650:Generated_Source\PSoC6\pdl\middleware/ble/cy_ble_gap.h **** 
 651:Generated_Source\PSoC6\pdl\middleware/ble/cy_ble_gap.h **** /**
 652:Generated_Source\PSoC6\pdl\middleware/ble/cy_ble_gap.h ****  * \addtogroup group_ble_common_api_functions
 653:Generated_Source\PSoC6\pdl\middleware/ble/cy_ble_gap.h ****  * @{
 654:Generated_Source\PSoC6\pdl\middleware/ble/cy_ble_gap.h **** */
 655:Generated_Source\PSoC6\pdl\middleware/ble/cy_ble_gap.h **** /******************************************************************************
 656:Generated_Source\PSoC6\pdl\middleware/ble/cy_ble_gap.h **** * Function Name: Cy_BLE_GetState
 657:Generated_Source\PSoC6\pdl\middleware/ble/cy_ble_gap.h **** ***************************************************************************//**
 658:Generated_Source\PSoC6\pdl\middleware/ble/cy_ble_gap.h **** *
 659:Generated_Source\PSoC6\pdl\middleware/ble/cy_ble_gap.h **** *  This function is used to determine the current state of the BLE Middleware
 660:Generated_Source\PSoC6\pdl\middleware/ble/cy_ble_gap.h **** *  state machine :
 661:Generated_Source\PSoC6\pdl\middleware/ble/cy_ble_gap.h **** *
 662:Generated_Source\PSoC6\pdl\middleware/ble/cy_ble_gap.h **** *  \image html ble_middleware_state_machine.png
 663:Generated_Source\PSoC6\pdl\middleware/ble/cy_ble_gap.h **** *
 664:Generated_Source\PSoC6\pdl\middleware/ble/cy_ble_gap.h **** *  The BLE Middleware is in the state #CY_BLE_STATE_INITIALIZING after the
 665:Generated_Source\PSoC6\pdl\middleware/ble/cy_ble_gap.h **** *  Cy_BLE_Enable() is called and until the #CY_BLE_EVT_STACK_ON event is not
 666:Generated_Source\PSoC6\pdl\middleware/ble/cy_ble_gap.h **** *  received. After successful initialization the state is changed to
 667:Generated_Source\PSoC6\pdl\middleware/ble/cy_ble_gap.h **** *  #CY_BLE_STATE_ON.
 668:Generated_Source\PSoC6\pdl\middleware/ble/cy_ble_gap.h **** *
 669:Generated_Source\PSoC6\pdl\middleware/ble/cy_ble_gap.h **** *  The BLE Middleware is in the state #CY_BLE_STATE_STOPPED
 670:Generated_Source\PSoC6\pdl\middleware/ble/cy_ble_gap.h **** *  when the #CY_BLE_EVT_STACK_SHUTDOWN_COMPLETE event is received (after the
 671:Generated_Source\PSoC6\pdl\middleware/ble/cy_ble_gap.h **** *  Cy_BLE_Disable() is called).
 672:Generated_Source\PSoC6\pdl\middleware/ble/cy_ble_gap.h **** *
 673:Generated_Source\PSoC6\pdl\middleware/ble/cy_ble_gap.h **** *  For GAP Central role when the Cy_BLE_GAPC_ConnectDevice() is called, the state
ARM GAS  C:\Users\Austina\AppData\Local\Temp\cc8acxV8.s 			page 18


 674:Generated_Source\PSoC6\pdl\middleware/ble/cy_ble_gap.h **** *  is changed to #CY_BLE_STATE_CONNECTING. After successful connection indicated
 675:Generated_Source\PSoC6\pdl\middleware/ble/cy_ble_gap.h **** *  by #CY_BLE_EVT_GAP_DEVICE_CONNECTED or #CY_BLE_EVT_GAP_ENHANCE_CONN_COMPLETE
 676:Generated_Source\PSoC6\pdl\middleware/ble/cy_ble_gap.h **** *  event or the timeout indicated by #CY_BLE_EVT_TIMEOUT event, the state is
 677:Generated_Source\PSoC6\pdl\middleware/ble/cy_ble_gap.h **** *  changed to #CY_BLE_STATE_ON.
 678:Generated_Source\PSoC6\pdl\middleware/ble/cy_ble_gap.h **** *
 679:Generated_Source\PSoC6\pdl\middleware/ble/cy_ble_gap.h **** * \return
 680:Generated_Source\PSoC6\pdl\middleware/ble/cy_ble_gap.h **** * \ref cy_en_ble_state_t : The current BLE Middleware state. The following are
 681:Generated_Source\PSoC6\pdl\middleware/ble/cy_ble_gap.h **** *                         possible states:
 682:Generated_Source\PSoC6\pdl\middleware/ble/cy_ble_gap.h **** *
 683:Generated_Source\PSoC6\pdl\middleware/ble/cy_ble_gap.h **** *   State                      | Description
 684:Generated_Source\PSoC6\pdl\middleware/ble/cy_ble_gap.h **** *   -------------------------- | -----------
 685:Generated_Source\PSoC6\pdl\middleware/ble/cy_ble_gap.h **** *   CY_BLE_STATE_STOPPED       | BLE is turned off.
 686:Generated_Source\PSoC6\pdl\middleware/ble/cy_ble_gap.h **** *   CY_BLE_STATE_INITIALIZING  | BLE is initializing (waiting for #CY_BLE_EVT_STACK_ON event).
 687:Generated_Source\PSoC6\pdl\middleware/ble/cy_ble_gap.h **** *   CY_BLE_STATE_ON            | BLE is turned on.
 688:Generated_Source\PSoC6\pdl\middleware/ble/cy_ble_gap.h **** *   CY_BLE_STATE_CONNECTING    | BLE is connecting.
 689:Generated_Source\PSoC6\pdl\middleware/ble/cy_ble_gap.h **** 
 690:Generated_Source\PSoC6\pdl\middleware/ble/cy_ble_gap.h **** ******************************************************************************/
 691:Generated_Source\PSoC6\pdl\middleware/ble/cy_ble_gap.h **** #define Cy_BLE_GetState()    (cy_ble_state)
 692:Generated_Source\PSoC6\pdl\middleware/ble/cy_ble_gap.h **** 
 693:Generated_Source\PSoC6\pdl\middleware/ble/cy_ble_gap.h **** /** \cond IGNORE */
 694:Generated_Source\PSoC6\pdl\middleware/ble/cy_ble_gap.h **** /******************************************************************************
 695:Generated_Source\PSoC6\pdl\middleware/ble/cy_ble_gap.h **** * Function Name: Cy_BLE_SetState
 696:Generated_Source\PSoC6\pdl\middleware/ble/cy_ble_gap.h **** ***************************************************************************//**
 697:Generated_Source\PSoC6\pdl\middleware/ble/cy_ble_gap.h **** *
 698:Generated_Source\PSoC6\pdl\middleware/ble/cy_ble_gap.h **** *  Used to set the BLE Middleware state machine's state.
 699:Generated_Source\PSoC6\pdl\middleware/ble/cy_ble_gap.h **** *
 700:Generated_Source\PSoC6\pdl\middleware/ble/cy_ble_gap.h **** *  \param state: The desired state to which the event handler's
 701:Generated_Source\PSoC6\pdl\middleware/ble/cy_ble_gap.h **** *   state machine should be set. The parameter state is a variable
 702:Generated_Source\PSoC6\pdl\middleware/ble/cy_ble_gap.h **** *   of type cy_en_ble_state_t.
 703:Generated_Source\PSoC6\pdl\middleware/ble/cy_ble_gap.h **** *
 704:Generated_Source\PSoC6\pdl\middleware/ble/cy_ble_gap.h **** * \return
 705:Generated_Source\PSoC6\pdl\middleware/ble/cy_ble_gap.h **** *  None
 706:Generated_Source\PSoC6\pdl\middleware/ble/cy_ble_gap.h **** *
 707:Generated_Source\PSoC6\pdl\middleware/ble/cy_ble_gap.h **** ******************************************************************************/
 708:Generated_Source\PSoC6\pdl\middleware/ble/cy_ble_gap.h **** #define Cy_BLE_SetState(state)    (cy_ble_state = (state))
 709:Generated_Source\PSoC6\pdl\middleware/ble/cy_ble_gap.h **** /** \endcond */
 710:Generated_Source\PSoC6\pdl\middleware/ble/cy_ble_gap.h **** 
 711:Generated_Source\PSoC6\pdl\middleware/ble/cy_ble_gap.h **** #if (CY_BLE_GAP_ROLE_PERIPHERAL || CY_BLE_GAP_ROLE_BROADCASTER)
 712:Generated_Source\PSoC6\pdl\middleware/ble/cy_ble_gap.h **** 
 713:Generated_Source\PSoC6\pdl\middleware/ble/cy_ble_gap.h **** 
 714:Generated_Source\PSoC6\pdl\middleware/ble/cy_ble_gap.h **** /******************************************************************************
 715:Generated_Source\PSoC6\pdl\middleware/ble/cy_ble_gap.h **** * Function Name: Cy_BLE_GetAdvertisementState
 716:Generated_Source\PSoC6\pdl\middleware/ble/cy_ble_gap.h **** ***************************************************************************//**
 717:Generated_Source\PSoC6\pdl\middleware/ble/cy_ble_gap.h **** *
 718:Generated_Source\PSoC6\pdl\middleware/ble/cy_ble_gap.h **** *  This function returns the state of the link layer hardware advertisement
 719:Generated_Source\PSoC6\pdl\middleware/ble/cy_ble_gap.h **** *  engine.
 720:Generated_Source\PSoC6\pdl\middleware/ble/cy_ble_gap.h **** *
 721:Generated_Source\PSoC6\pdl\middleware/ble/cy_ble_gap.h **** *  \image html ble_advertisement_state_machine.png
 722:Generated_Source\PSoC6\pdl\middleware/ble/cy_ble_gap.h **** *
 723:Generated_Source\PSoC6\pdl\middleware/ble/cy_ble_gap.h **** *  When Cy_BLE_GAPP_StartAdvertisement() is called, the state is set to
 724:Generated_Source\PSoC6\pdl\middleware/ble/cy_ble_gap.h **** *  #CY_BLE_ADV_STATE_ADV_INITIATED. It automatically changes to
 725:Generated_Source\PSoC6\pdl\middleware/ble/cy_ble_gap.h **** *  #CY_BLE_ADV_STATE_ADVERTISING when #CY_BLE_EVT_GAPP_ADVERTISEMENT_START_STOP
 726:Generated_Source\PSoC6\pdl\middleware/ble/cy_ble_gap.h **** *  event is received. When Cy_BLE_GAPP_StopAdvertisement() is called, the
 727:Generated_Source\PSoC6\pdl\middleware/ble/cy_ble_gap.h **** *  state is set to #CY_BLE_ADV_STATE_STOP_INITIATED. It automatically changes
 728:Generated_Source\PSoC6\pdl\middleware/ble/cy_ble_gap.h **** *  to #CY_BLE_ADV_STATE_STOPPED when the #CY_BLE_EVT_GAPP_ADVERTISEMENT_START_STOP
 729:Generated_Source\PSoC6\pdl\middleware/ble/cy_ble_gap.h **** *  event is received.
 730:Generated_Source\PSoC6\pdl\middleware/ble/cy_ble_gap.h **** *
ARM GAS  C:\Users\Austina\AppData\Local\Temp\cc8acxV8.s 			page 19


 731:Generated_Source\PSoC6\pdl\middleware/ble/cy_ble_gap.h **** * \return
 732:Generated_Source\PSoC6\pdl\middleware/ble/cy_ble_gap.h **** * \ref cy_en_ble_adv_state_t :The current advertising state. The following are
 733:Generated_Source\PSoC6\pdl\middleware/ble/cy_ble_gap.h **** *                              possible states.
 734:Generated_Source\PSoC6\pdl\middleware/ble/cy_ble_gap.h **** *
 735:Generated_Source\PSoC6\pdl\middleware/ble/cy_ble_gap.h **** *               State                |         Description
 736:Generated_Source\PSoC6\pdl\middleware/ble/cy_ble_gap.h **** *   -------------------------------- | -----------------------------
 737:Generated_Source\PSoC6\pdl\middleware/ble/cy_ble_gap.h **** *   CY_BLE_ADV_STATE_STOPPED         | Advertising is stopped.
 738:Generated_Source\PSoC6\pdl\middleware/ble/cy_ble_gap.h **** *   CY_BLE_ADV_STATE_ADV_INITIATED   | Advertising is initiated.
 739:Generated_Source\PSoC6\pdl\middleware/ble/cy_ble_gap.h **** *   CY_BLE_ADV_STATE_ADVERTISING     | Advertising is initiated.
 740:Generated_Source\PSoC6\pdl\middleware/ble/cy_ble_gap.h **** *   CY_BLE_ADV_STATE_STOP_INITIATED  | Stop advertising is initiated.
 741:Generated_Source\PSoC6\pdl\middleware/ble/cy_ble_gap.h **** *
 742:Generated_Source\PSoC6\pdl\middleware/ble/cy_ble_gap.h **** ******************************************************************************/
 743:Generated_Source\PSoC6\pdl\middleware/ble/cy_ble_gap.h **** __STATIC_INLINE cy_en_ble_adv_state_t Cy_BLE_GetAdvertisementState(void)
 744:Generated_Source\PSoC6\pdl\middleware/ble/cy_ble_gap.h **** {
 745:Generated_Source\PSoC6\pdl\middleware/ble/cy_ble_gap.h ****     return(cy_ble_advState);
 746:Generated_Source\PSoC6\pdl\middleware/ble/cy_ble_gap.h **** }
 747:Generated_Source\PSoC6\pdl\middleware/ble/cy_ble_gap.h **** 
 748:Generated_Source\PSoC6\pdl\middleware/ble/cy_ble_gap.h **** /** \cond IGNORE */
 749:Generated_Source\PSoC6\pdl\middleware/ble/cy_ble_gap.h **** /******************************************************************************
 750:Generated_Source\PSoC6\pdl\middleware/ble/cy_ble_gap.h **** * Function Name: Cy_BLE_SetAdvertisementState
 751:Generated_Source\PSoC6\pdl\middleware/ble/cy_ble_gap.h **** ***************************************************************************//**
 752:Generated_Source\PSoC6\pdl\middleware/ble/cy_ble_gap.h **** *
 753:Generated_Source\PSoC6\pdl\middleware/ble/cy_ble_gap.h **** *  Used to set the state of the link layer hardware advertisement engine.
 754:Generated_Source\PSoC6\pdl\middleware/ble/cy_ble_gap.h **** *
 755:Generated_Source\PSoC6\pdl\middleware/ble/cy_ble_gap.h **** *  \param state: The desired state.
 756:Generated_Source\PSoC6\pdl\middleware/ble/cy_ble_gap.h **** *
 757:Generated_Source\PSoC6\pdl\middleware/ble/cy_ble_gap.h **** * \return
 758:Generated_Source\PSoC6\pdl\middleware/ble/cy_ble_gap.h **** *  None
 759:Generated_Source\PSoC6\pdl\middleware/ble/cy_ble_gap.h **** *
 760:Generated_Source\PSoC6\pdl\middleware/ble/cy_ble_gap.h **** ******************************************************************************/
 761:Generated_Source\PSoC6\pdl\middleware/ble/cy_ble_gap.h **** __STATIC_INLINE void Cy_BLE_SetAdvertisementState(cy_en_ble_adv_state_t state)
 762:Generated_Source\PSoC6\pdl\middleware/ble/cy_ble_gap.h **** {
 763:Generated_Source\PSoC6\pdl\middleware/ble/cy_ble_gap.h ****     cy_ble_advState = state;
 764:Generated_Source\PSoC6\pdl\middleware/ble/cy_ble_gap.h **** }
 765:Generated_Source\PSoC6\pdl\middleware/ble/cy_ble_gap.h **** /** \endcond */
 766:Generated_Source\PSoC6\pdl\middleware/ble/cy_ble_gap.h **** 
 767:Generated_Source\PSoC6\pdl\middleware/ble/cy_ble_gap.h **** #endif /* (CY_BLE_GAP_ROLE_PERIPHERAL || CY_BLE_GAP_ROLE_BROADCASTER) */
 768:Generated_Source\PSoC6\pdl\middleware/ble/cy_ble_gap.h **** 
 769:Generated_Source\PSoC6\pdl\middleware/ble/cy_ble_gap.h **** #if (CY_BLE_GAP_ROLE_CENTRAL || CY_BLE_GAP_ROLE_OBSERVER)
 770:Generated_Source\PSoC6\pdl\middleware/ble/cy_ble_gap.h **** 
 771:Generated_Source\PSoC6\pdl\middleware/ble/cy_ble_gap.h **** /******************************************************************************
 772:Generated_Source\PSoC6\pdl\middleware/ble/cy_ble_gap.h **** * Function Name: Cy_BLE_GetScanState
 773:Generated_Source\PSoC6\pdl\middleware/ble/cy_ble_gap.h **** ***************************************************************************//**
 774:Generated_Source\PSoC6\pdl\middleware/ble/cy_ble_gap.h **** *
 775:Generated_Source\PSoC6\pdl\middleware/ble/cy_ble_gap.h **** *  This returns the state of the link layer hardware scan engine.
 776:Generated_Source\PSoC6\pdl\middleware/ble/cy_ble_gap.h **** *
 777:Generated_Source\PSoC6\pdl\middleware/ble/cy_ble_gap.h **** *  \image html ble_scanning_state_machine.png
 778:Generated_Source\PSoC6\pdl\middleware/ble/cy_ble_gap.h **** *
 779:Generated_Source\PSoC6\pdl\middleware/ble/cy_ble_gap.h **** *  When Cy_BLE_GAPC_StartScan() is called the state is set to
 780:Generated_Source\PSoC6\pdl\middleware/ble/cy_ble_gap.h **** *  #CY_BLE_SCAN_STATE_SCAN_INITIATED. It automatically changes to
 781:Generated_Source\PSoC6\pdl\middleware/ble/cy_ble_gap.h **** *  #CY_BLE_SCAN_STATE_SCANNING when the #CY_BLE_EVT_GAPC_SCAN_START_STOP event is
 782:Generated_Source\PSoC6\pdl\middleware/ble/cy_ble_gap.h **** *  received.
 783:Generated_Source\PSoC6\pdl\middleware/ble/cy_ble_gap.h **** *  When Cy_BLE_GAPC_StopScan() is called, the state is set to
 784:Generated_Source\PSoC6\pdl\middleware/ble/cy_ble_gap.h **** *  #CY_BLE_SCAN_STATE_STOP_INITIATED. It automatically changes to
 785:Generated_Source\PSoC6\pdl\middleware/ble/cy_ble_gap.h **** *  #CY_BLE_SCAN_STATE_STOPPED when the #CY_BLE_EVT_GAPC_SCAN_START_STOP event is
 786:Generated_Source\PSoC6\pdl\middleware/ble/cy_ble_gap.h **** *  received.
 787:Generated_Source\PSoC6\pdl\middleware/ble/cy_ble_gap.h **** *
ARM GAS  C:\Users\Austina\AppData\Local\Temp\cc8acxV8.s 			page 20


 788:Generated_Source\PSoC6\pdl\middleware/ble/cy_ble_gap.h **** *  \return
 789:Generated_Source\PSoC6\pdl\middleware/ble/cy_ble_gap.h **** *  \ref cy_en_ble_scan_state_t : The current scan state. The following are
 790:Generated_Source\PSoC6\pdl\middleware/ble/cy_ble_gap.h **** *                                possible states.
 791:Generated_Source\PSoC6\pdl\middleware/ble/cy_ble_gap.h **** *
 792:Generated_Source\PSoC6\pdl\middleware/ble/cy_ble_gap.h **** *               State                |         Description
 793:Generated_Source\PSoC6\pdl\middleware/ble/cy_ble_gap.h **** *   -------------------------------- | -----------------------------
 794:Generated_Source\PSoC6\pdl\middleware/ble/cy_ble_gap.h **** *   CY_BLE_SCAN_STATE_STOPPED        | Scanning is stopped.
 795:Generated_Source\PSoC6\pdl\middleware/ble/cy_ble_gap.h **** *   CY_BLE_SCAN_STATE_SCAN_INITIATED | Scanning is initiated.
 796:Generated_Source\PSoC6\pdl\middleware/ble/cy_ble_gap.h **** *   CY_BLE_SCAN_STATE_SCANNING       | Scanning process.
 797:Generated_Source\PSoC6\pdl\middleware/ble/cy_ble_gap.h **** *   CY_BLE_SCAN_STATE_STOP_INITIATED | Stop scanning is initiated.
 798:Generated_Source\PSoC6\pdl\middleware/ble/cy_ble_gap.h **** *
 799:Generated_Source\PSoC6\pdl\middleware/ble/cy_ble_gap.h **** ******************************************************************************/
 800:Generated_Source\PSoC6\pdl\middleware/ble/cy_ble_gap.h **** __STATIC_INLINE cy_en_ble_scan_state_t Cy_BLE_GetScanState(void)
 801:Generated_Source\PSoC6\pdl\middleware/ble/cy_ble_gap.h **** {
 802:Generated_Source\PSoC6\pdl\middleware/ble/cy_ble_gap.h ****     return(cy_ble_scanState);
 803:Generated_Source\PSoC6\pdl\middleware/ble/cy_ble_gap.h **** }
 804:Generated_Source\PSoC6\pdl\middleware/ble/cy_ble_gap.h **** 
 805:Generated_Source\PSoC6\pdl\middleware/ble/cy_ble_gap.h **** /** \cond IGNORE */
 806:Generated_Source\PSoC6\pdl\middleware/ble/cy_ble_gap.h **** /******************************************************************************
 807:Generated_Source\PSoC6\pdl\middleware/ble/cy_ble_gap.h **** * Function Name: Cy_BLE_SetScanState
 808:Generated_Source\PSoC6\pdl\middleware/ble/cy_ble_gap.h **** ***************************************************************************//**
 809:Generated_Source\PSoC6\pdl\middleware/ble/cy_ble_gap.h **** *
 810:Generated_Source\PSoC6\pdl\middleware/ble/cy_ble_gap.h **** *  Used to set the state of the link layer hardware scan engine.
 811:Generated_Source\PSoC6\pdl\middleware/ble/cy_ble_gap.h **** *
 812:Generated_Source\PSoC6\pdl\middleware/ble/cy_ble_gap.h **** *  \param state: The desired state.
 813:Generated_Source\PSoC6\pdl\middleware/ble/cy_ble_gap.h **** *
 814:Generated_Source\PSoC6\pdl\middleware/ble/cy_ble_gap.h **** *  \return
 815:Generated_Source\PSoC6\pdl\middleware/ble/cy_ble_gap.h **** *  None
 816:Generated_Source\PSoC6\pdl\middleware/ble/cy_ble_gap.h **** *
 817:Generated_Source\PSoC6\pdl\middleware/ble/cy_ble_gap.h **** ******************************************************************************/
 818:Generated_Source\PSoC6\pdl\middleware/ble/cy_ble_gap.h **** __STATIC_INLINE void Cy_BLE_SetScanState(cy_en_ble_scan_state_t state)
 819:Generated_Source\PSoC6\pdl\middleware/ble/cy_ble_gap.h **** {
 820:Generated_Source\PSoC6\pdl\middleware/ble/cy_ble_gap.h ****     cy_ble_scanState = state;
 821:Generated_Source\PSoC6\pdl\middleware/ble/cy_ble_gap.h **** }
 822:Generated_Source\PSoC6\pdl\middleware/ble/cy_ble_gap.h **** /** \endcond */
 823:Generated_Source\PSoC6\pdl\middleware/ble/cy_ble_gap.h **** 
 824:Generated_Source\PSoC6\pdl\middleware/ble/cy_ble_gap.h **** #endif  /* (CY_BLE_GAP_ROLE_CENTRAL || CY_BLE_GAP_ROLE_OBSERVER) */
 825:Generated_Source\PSoC6\pdl\middleware/ble/cy_ble_gap.h **** 
 826:Generated_Source\PSoC6\pdl\middleware/ble/cy_ble_gap.h **** 
 827:Generated_Source\PSoC6\pdl\middleware/ble/cy_ble_gap.h **** #if ((CY_BLE_GAP_ROLE_PERIPHERAL || CY_BLE_GAP_ROLE_CENTRAL))
 828:Generated_Source\PSoC6\pdl\middleware/ble/cy_ble_gap.h **** 
 829:Generated_Source\PSoC6\pdl\middleware/ble/cy_ble_gap.h **** /******************************************************************************
 830:Generated_Source\PSoC6\pdl\middleware/ble/cy_ble_gap.h **** * Function Name: Cy_BLE_GetConnectionState
 831:Generated_Source\PSoC6\pdl\middleware/ble/cy_ble_gap.h **** ***************************************************************************//**
 832:Generated_Source\PSoC6\pdl\middleware/ble/cy_ble_gap.h **** *  This function returns the state of the BLE link for the specified connection
 833:Generated_Source\PSoC6\pdl\middleware/ble/cy_ble_gap.h **** *  handle.
 834:Generated_Source\PSoC6\pdl\middleware/ble/cy_ble_gap.h **** *
 835:Generated_Source\PSoC6\pdl\middleware/ble/cy_ble_gap.h **** *  The state is set to #CY_BLE_CONN_STATE_CONNECTED when #CY_BLE_EVT_GATT_CONNECT_IND
 836:Generated_Source\PSoC6\pdl\middleware/ble/cy_ble_gap.h **** *  event is received with the corresponding connection handle.
 837:Generated_Source\PSoC6\pdl\middleware/ble/cy_ble_gap.h **** *  The state is set to #CY_BLE_CONN_STATE_DISCONNECTED when the
 838:Generated_Source\PSoC6\pdl\middleware/ble/cy_ble_gap.h **** *  #CY_BLE_EVT_GATT_DISCONNECT_IND event is received.
 839:Generated_Source\PSoC6\pdl\middleware/ble/cy_ble_gap.h **** *
 840:Generated_Source\PSoC6\pdl\middleware/ble/cy_ble_gap.h **** *  For GATT Client role when Cy_BLE_GATTC_StartDiscovery() is called, the state
 841:Generated_Source\PSoC6\pdl\middleware/ble/cy_ble_gap.h **** *  indicates the current flow of the discovery procedure by
 842:Generated_Source\PSoC6\pdl\middleware/ble/cy_ble_gap.h **** *  #CY_BLE_CONN_STATE_CLIENT_SRVC_DISCOVERING,
 843:Generated_Source\PSoC6\pdl\middleware/ble/cy_ble_gap.h **** *  #CY_BLE_CONN_STATE_CLIENT_INCL_DISCOVERING,
 844:Generated_Source\PSoC6\pdl\middleware/ble/cy_ble_gap.h **** *  #CY_BLE_CONN_STATE_CLIENT_CHAR_DISCOVERING,
ARM GAS  C:\Users\Austina\AppData\Local\Temp\cc8acxV8.s 			page 21


 845:Generated_Source\PSoC6\pdl\middleware/ble/cy_ble_gap.h **** *  #CY_BLE_CONN_STATE_CLIENT_DESCR_DISCOVERING and changes to
 846:Generated_Source\PSoC6\pdl\middleware/ble/cy_ble_gap.h **** *  #CY_BLE_CONN_STATE_CLIENT_DISCOVERED when the procedure successfully completes.
 847:Generated_Source\PSoC6\pdl\middleware/ble/cy_ble_gap.h **** *
 848:Generated_Source\PSoC6\pdl\middleware/ble/cy_ble_gap.h **** *  The state changes from #CY_BLE_CONN_STATE_CLIENT_DISCOVERED to
 849:Generated_Source\PSoC6\pdl\middleware/ble/cy_ble_gap.h **** *  #CY_BLE_CONN_STATE_CLIENT_DISCONNECTED_DISCOVERED when
 850:Generated_Source\PSoC6\pdl\middleware/ble/cy_ble_gap.h **** *  the #CY_BLE_EVT_GATT_DISCONNECT_IND event is received.
 851:Generated_Source\PSoC6\pdl\middleware/ble/cy_ble_gap.h **** *  The state comes backs to #CY_BLE_CONN_STATE_CLIENT_DISCOVERED when
 852:Generated_Source\PSoC6\pdl\middleware/ble/cy_ble_gap.h **** *  #CY_BLE_EVT_GATT_CONNECT_IND event is received and resolvable device
 853:Generated_Source\PSoC6\pdl\middleware/ble/cy_ble_gap.h **** *  address is not changed.
 854:Generated_Source\PSoC6\pdl\middleware/ble/cy_ble_gap.h **** *
 855:Generated_Source\PSoC6\pdl\middleware/ble/cy_ble_gap.h **** *  \param connHandle: The connection handle.
 856:Generated_Source\PSoC6\pdl\middleware/ble/cy_ble_gap.h **** *
 857:Generated_Source\PSoC6\pdl\middleware/ble/cy_ble_gap.h **** * \return
 858:Generated_Source\PSoC6\pdl\middleware/ble/cy_ble_gap.h **** * \ref cy_en_ble_conn_state_t : The current client state. The following are
 859:Generated_Source\PSoC6\pdl\middleware/ble/cy_ble_gap.h **** *                               possible states.
 860:Generated_Source\PSoC6\pdl\middleware/ble/cy_ble_gap.h **** *
 861:Generated_Source\PSoC6\pdl\middleware/ble/cy_ble_gap.h **** *               State                                |         Description
 862:Generated_Source\PSoC6\pdl\middleware/ble/cy_ble_gap.h **** *   ------------------------------------------------ | -----------------------------
 863:Generated_Source\PSoC6\pdl\middleware/ble/cy_ble_gap.h **** *   CY_BLE_CONN_STATE_DISCONNECTED                   | Essentially idle state
 864:Generated_Source\PSoC6\pdl\middleware/ble/cy_ble_gap.h **** *   CY_BLE_CONN_STATE_CLIENT_DISCONNECTED_DISCOVERED | Server is disconnected but discovered.
 865:Generated_Source\PSoC6\pdl\middleware/ble/cy_ble_gap.h **** *   CY_BLE_CONN_STATE_CONNECTED                      | Peer device is connected for this and follow
 866:Generated_Source\PSoC6\pdl\middleware/ble/cy_ble_gap.h **** *   CY_BLE_CONN_STATE_CLIENT_SRVC_DISCOVERING        | Server services are being discovered.
 867:Generated_Source\PSoC6\pdl\middleware/ble/cy_ble_gap.h **** *   CY_BLE_CONN_STATE_CLIENT_INCL_DISCOVERING        | Server included services are being discovere
 868:Generated_Source\PSoC6\pdl\middleware/ble/cy_ble_gap.h **** *   CY_BLE_CONN_STATE_CLIENT_CHAR_DISCOVERING        | Server characteristics are being discovered
 869:Generated_Source\PSoC6\pdl\middleware/ble/cy_ble_gap.h **** *   CY_BLE_CONN_STATE_CLIENT_DESCR_DISCOVERING       | Server char. descriptors are being discovere
 870:Generated_Source\PSoC6\pdl\middleware/ble/cy_ble_gap.h **** *   CY_BLE_CONN_STATE_CLIENT_DISCOVERED              | Server is discovered
 871:Generated_Source\PSoC6\pdl\middleware/ble/cy_ble_gap.h **** *
 872:Generated_Source\PSoC6\pdl\middleware/ble/cy_ble_gap.h **** *  \funcusage
 873:Generated_Source\PSoC6\pdl\middleware/ble/cy_ble_gap.h **** *  \snippet ble\3.0\snippet\main.c BLE Common API: Cy_BLE_GetConnectionState()
 874:Generated_Source\PSoC6\pdl\middleware/ble/cy_ble_gap.h **** *
 875:Generated_Source\PSoC6\pdl\middleware/ble/cy_ble_gap.h **** ******************************************************************************/
 876:Generated_Source\PSoC6\pdl\middleware/ble/cy_ble_gap.h **** __STATIC_INLINE cy_en_ble_conn_state_t Cy_BLE_GetConnectionState(cy_stc_ble_conn_handle_t connHandl
 877:Generated_Source\PSoC6\pdl\middleware/ble/cy_ble_gap.h **** {
 878:Generated_Source\PSoC6\pdl\middleware/ble/cy_ble_gap.h ****     return((connHandle.attId < CY_BLE_CONN_COUNT) ? cy_ble_connState[connHandle.attId] : CY_BLE_CON
 106              		.loc 2 878 0
 107 0014 9DF80D30 		ldrb	r3, [sp, #13]	@ zero_extendqisi2
 108 0018 13B9     		cbnz	r3, .L16
 109 001a 354A     		ldr	r2, .L18+4
 110              	.LVL2:
 111 001c D35C     		ldrb	r3, [r2, r3]	@ zero_extendqisi2
 112 001e 00E0     		b	.L7
 113              	.LVL3:
 114              	.L16:
 115 0020 0023     		movs	r3, #0
 116              	.LVL4:
 117              	.L7:
 118              	.LBE21:
 119              	.LBE20:
  31:BLETask.c     ****     {
 120              		.loc 1 31 0
 121 0022 072B     		cmp	r3, #7
 122 0024 09D0     		beq	.L8
  33:BLETask.c     ****         return;
 123              		.loc 1 33 0
 124 0026 3348     		ldr	r0, .L18+8
 125              	.LVL5:
 126 0028 FFF7FEFF 		bl	printf
ARM GAS  C:\Users\Austina\AppData\Local\Temp\cc8acxV8.s 			page 22


 127              	.LVL6:
 128 002c 3248     		ldr	r0, .L18+12
 129 002e FFF7FEFF 		bl	printf
 130              	.LVL7:
 131 0032 3248     		ldr	r0, .L18+16
 132 0034 FFF7FEFF 		bl	puts
 133              	.LVL8:
  34:BLETask.c     ****     }
 134              		.loc 1 34 0
 135 0038 55E0     		b	.L6
 136              	.LVL9:
 137              	.L8:
  37:BLETask.c     ****     
 138              		.loc 1 37 0
 139 003a 2E48     		ldr	r0, .L18+8
 140              	.LVL10:
 141 003c FFF7FEFF 		bl	printf
 142              	.LVL11:
 143 0040 9DF80730 		ldrb	r3, [sp, #7]	@ zero_extendqisi2
 144 0044 2A46     		mov	r2, r5
 145 0046 2146     		mov	r1, r4
 146 0048 2D48     		ldr	r0, .L18+20
 147 004a FFF7FEFF 		bl	printf
 148              	.LVL12:
 149 004e 2B48     		ldr	r0, .L18+16
 150 0050 FFF7FEFF 		bl	puts
 151              	.LVL13:
 152              	.LBB22:
  42:BLETask.c     ****     {
 153              		.loc 1 42 0
 154 0054 0023     		movs	r3, #0
 155 0056 17E0     		b	.L10
 156              	.LVL14:
 157              	.L12:
  44:BLETask.c     ****         {
 158              		.loc 1 44 0
 159 0058 03EB4302 		add	r2, r3, r3, lsl #1
 160 005c 2949     		ldr	r1, .L18+24
 161 005e 8A5C     		ldrb	r2, [r1, r2]	@ zero_extendqisi2
 162 0060 9442     		cmp	r4, r2
 163 0062 10D1     		bne	.L11
  44:BLETask.c     ****         {
 164              		.loc 1 44 0 is_stmt 0 discriminator 1
 165 0064 03EB4302 		add	r2, r3, r3, lsl #1
 166 0068 0A44     		add	r2, r2, r1
 167 006a 5278     		ldrb	r2, [r2, #1]	@ zero_extendqisi2
 168 006c 9542     		cmp	r5, r2
 169 006e 0AD1     		bne	.L11
  46:BLETask.c     ****         }
 170              		.loc 1 46 0 is_stmt 1
 171 0070 254A     		ldr	r2, .L18+28
 172 0072 D168     		ldr	r1, [r2, #12]
 173 0074 03EB4302 		add	r2, r3, r3, lsl #1
 174 0078 2248     		ldr	r0, .L18+24
 175 007a 0244     		add	r2, r2, r0
 176 007c 9278     		ldrb	r2, [r2, #2]	@ zero_extendqisi2
 177 007e 1201     		lsls	r2, r2, #4
ARM GAS  C:\Users\Austina\AppData\Local\Temp\cc8acxV8.s 			page 23


 178 0080 8A5A     		ldrh	r2, [r1, r2]
 179 0082 ADF81820 		strh	r2, [sp, #24]	@ movhi
 180              	.L11:
  42:BLETask.c     ****     {
 181              		.loc 1 42 0 discriminator 2
 182 0086 0133     		adds	r3, r3, #1
 183              	.LVL15:
 184              	.L10:
  42:BLETask.c     ****     {
 185              		.loc 1 42 0 is_stmt 0 discriminator 1
 186 0088 072B     		cmp	r3, #7
 187 008a E5DD     		ble	.L12
 188              	.LBE22:
  51:BLETask.c     ****     myVal.handleValPair.value.val = (uint8_t *)&percent;
 189              		.loc 1 51 0 is_stmt 1
 190 008c 0123     		movs	r3, #1
 191              	.LVL16:
 192 008e ADF81430 		strh	r3, [sp, #20]	@ movhi
  52:BLETask.c     ****     ble_printf("Sent data %d",*(myVal.handleValPair.value.val));
 193              		.loc 1 52 0
 194 0092 0DF10703 		add	r3, sp, #7
 195              	.LVL17:
 196 0096 0493     		str	r3, [sp, #16]
  53:BLETask.c     ****     myVal.connHandle = cy_ble_connHandle[0];
 197              		.loc 1 53 0
 198 0098 1648     		ldr	r0, .L18+8
 199 009a FFF7FEFF 		bl	printf
 200              	.LVL18:
 201 009e 049B     		ldr	r3, [sp, #16]
 202 00a0 1978     		ldrb	r1, [r3]	@ zero_extendqisi2
 203 00a2 1A48     		ldr	r0, .L18+32
 204 00a4 FFF7FEFF 		bl	printf
 205              	.LVL19:
 206 00a8 1448     		ldr	r0, .L18+16
 207 00aa FFF7FEFF 		bl	puts
 208              	.LVL20:
  54:BLETask.c     ****     
 209              		.loc 1 54 0
 210 00ae 0F4B     		ldr	r3, .L18
 211 00b0 1B88     		ldrh	r3, [r3]	@ unaligned
 212 00b2 ADF81C30 		strh	r3, [sp, #28]	@ unaligned
 213              	.LVL21:
  56:BLETask.c     ****     //wait for the data transfer to complete
 214              		.loc 1 56 0
 215 00b6 0024     		movs	r4, #0
  58:BLETask.c     ****     {
 216              		.loc 1 58 0
 217 00b8 10E0     		b	.L13
 218              	.LVL22:
 219              	.L14:
  60:BLETask.c     ****         i++;
 220              		.loc 1 60 0
 221 00ba FFF7FEFF 		bl	Cy_BLE_ProcessEvents
 222              	.LVL23:
  61:BLETask.c     ****         if(i > 0xFFFE)
 223              		.loc 1 61 0
 224 00be 0134     		adds	r4, r4, #1
ARM GAS  C:\Users\Austina\AppData\Local\Temp\cc8acxV8.s 			page 24


 225              	.LVL24:
  62:BLETask.c     ****         {
 226              		.loc 1 62 0
 227 00c0 4FF6FE73 		movw	r3, #65534
 228 00c4 9C42     		cmp	r4, r3
 229 00c6 09DD     		ble	.L13
  64:BLETask.c     ****             return;
 230              		.loc 1 64 0
 231 00c8 0A48     		ldr	r0, .L18+8
 232 00ca FFF7FEFF 		bl	printf
 233              	.LVL25:
 234 00ce 1048     		ldr	r0, .L18+36
 235 00d0 FFF7FEFF 		bl	printf
 236              	.LVL26:
 237 00d4 0948     		ldr	r0, .L18+16
 238 00d6 FFF7FEFF 		bl	puts
 239              	.LVL27:
  65:BLETask.c     ****         }
 240              		.loc 1 65 0
 241 00da 04E0     		b	.L6
 242              	.LVL28:
 243              	.L13:
  58:BLETask.c     ****     {
 244              		.loc 1 58 0
 245 00dc 04A8     		add	r0, sp, #16
 246 00de FFF7FEFF 		bl	Cy_BLE_GATTC_WriteCharacteristicValue
 247              	.LVL29:
 248 00e2 0028     		cmp	r0, #0
 249 00e4 E9D1     		bne	.L14
 250              	.LVL30:
 251              	.L6:
  68:BLETask.c     **** 
 252              		.loc 1 68 0
 253 00e6 09B0     		add	sp, sp, #36
 254              		.cfi_def_cfa_offset 12
 255              		@ sp needed
 256 00e8 30BD     		pop	{r4, r5, pc}
 257              	.LVL31:
 258              	.L19:
 259 00ea 00BF     		.align	2
 260              	.L18:
 261 00ec 00000000 		.word	cy_ble_connHandle
 262 00f0 00000000 		.word	cy_ble_connState
 263 00f4 00000000 		.word	.LC0
 264 00f8 14000000 		.word	.LC1
 265 00fc 24000000 		.word	.LC2
 266 0100 28000000 		.word	.LC3
 267 0104 00000000 		.word	.LANCHOR0
 268 0108 00000000 		.word	cy_ble_customCServ
 269 010c 4C000000 		.word	.LC4
 270 0110 5C000000 		.word	.LC5
 271              		.cfi_endproc
 272              	.LFE502:
 273              		.size	writeMotorPosition, .-writeMotorPosition
 274              		.section	.text.findAdvInfo,"ax",%progbits
 275              		.align	2
 276              		.global	findAdvInfo
ARM GAS  C:\Users\Austina\AppData\Local\Temp\cc8acxV8.s 			page 25


 277              		.thumb
 278              		.thumb_func
 279              		.type	findAdvInfo, %function
 280              	findAdvInfo:
 281              	.LFB503:
  81:BLETask.c     ****     memset (&currentAdvInfo,0,sizeof(currentAdvInfo));
 282              		.loc 1 81 0
 283              		.cfi_startproc
 284              		@ args = 0, pretend = 0, frame = 0
 285              		@ frame_needed = 0, uses_anonymous_args = 0
 286              		@ link register save eliminated.
 287              	.LVL32:
 288 0000 30B4     		push	{r4, r5}
 289              		.cfi_def_cfa_offset 8
 290              		.cfi_offset 4, -8
 291              		.cfi_offset 5, -4
  82:BLETask.c     ****     
 292              		.loc 1 82 0
 293 0002 134A     		ldr	r2, .L27
 294 0004 0023     		movs	r3, #0
 295 0006 1360     		str	r3, [r2]
 296 0008 5360     		str	r3, [r2, #4]
 297 000a 9360     		str	r3, [r2, #8]
 298 000c D360     		str	r3, [r2, #12]
 299              	.LVL33:
 300              	.LBB23:
  84:BLETask.c     ****     {
 301              		.loc 1 84 0
 302 000e 1BE0     		b	.L21
 303              	.LVL34:
 304              	.L25:
  86:BLETask.c     ****         {
 305              		.loc 1 86 0
 306 0010 1C46     		mov	r4, r3
 307 0012 C218     		adds	r2, r0, r3
 308 0014 5278     		ldrb	r2, [r2, #1]	@ zero_extendqisi2
 309 0016 072A     		cmp	r2, #7
 310 0018 02D0     		beq	.L23
 311 001a 092A     		cmp	r2, #9
 312 001c 08D0     		beq	.L24
 313 001e 0EE0     		b	.L22
 314              	.L23:
  90:BLETask.c     ****                 currentAdvInfo.servUUID_len = adv[i]-1;
 315              		.loc 1 90 0
 316 0020 9A1C     		adds	r2, r3, #2
 317 0022 0244     		add	r2, r2, r0
 318 0024 0A4D     		ldr	r5, .L27
 319 0026 6A60     		str	r2, [r5, #4]
  91:BLETask.c     ****                 break;
 320              		.loc 1 91 0
 321 0028 C25C     		ldrb	r2, [r0, r3]	@ zero_extendqisi2
 322 002a 013A     		subs	r2, r2, #1
 323 002c 2A73     		strb	r2, [r5, #12]
  92:BLETask.c     ****             
 324              		.loc 1 92 0
 325 002e 06E0     		b	.L22
 326              	.L24:
ARM GAS  C:\Users\Austina\AppData\Local\Temp\cc8acxV8.s 			page 26


  96:BLETask.c     ****                 currentAdvInfo.name_len = adv[i]-1;
 327              		.loc 1 96 0
 328 0030 9A1C     		adds	r2, r3, #2
 329 0032 0244     		add	r2, r2, r0
 330 0034 064D     		ldr	r5, .L27
 331 0036 2A60     		str	r2, [r5]
  97:BLETask.c     ****             break;
 332              		.loc 1 97 0
 333 0038 C25C     		ldrb	r2, [r0, r3]	@ zero_extendqisi2
 334 003a 013A     		subs	r2, r2, #1
 335 003c AA60     		str	r2, [r5, #8]
 336              	.L22:
 104:BLETask.c     ****     }
 337              		.loc 1 104 0
 338 003e 025D     		ldrb	r2, [r0, r4]	@ zero_extendqisi2
 339 0040 1344     		add	r3, r3, r2
 340              	.LVL35:
 341 0042 DBB2     		uxtb	r3, r3
 342 0044 0133     		adds	r3, r3, #1
 343 0046 DBB2     		uxtb	r3, r3
 344              	.LVL36:
 345              	.L21:
  84:BLETask.c     ****     {
 346              		.loc 1 84 0 discriminator 1
 347 0048 8B42     		cmp	r3, r1
 348 004a E1D3     		bcc	.L25
 349              	.LBE23:
 106:BLETask.c     **** 
 350              		.loc 1 106 0
 351 004c 30BC     		pop	{r4, r5}
 352              		.cfi_restore 5
 353              		.cfi_restore 4
 354              		.cfi_def_cfa_offset 0
 355 004e 7047     		bx	lr
 356              	.L28:
 357              		.align	2
 358              	.L27:
 359 0050 00000000 		.word	currentAdvInfo
 360              		.cfi_endproc
 361              	.LFE503:
 362              		.size	findAdvInfo, .-findAdvInfo
 363              		.section	.text.genericEventHandler,"ax",%progbits
 364              		.align	2
 365              		.global	genericEventHandler
 366              		.thumb
 367              		.thumb_func
 368              		.type	genericEventHandler, %function
 369              	genericEventHandler:
 370              	.LFB504:
 109:BLETask.c     ****     switch(event)
 371              		.loc 1 109 0
 372              		.cfi_startproc
 373              		@ args = 0, pretend = 0, frame = 8
 374              		@ frame_needed = 0, uses_anonymous_args = 0
 375              	.LVL37:
 376 0000 30B5     		push	{r4, r5, lr}
 377              		.cfi_def_cfa_offset 12
ARM GAS  C:\Users\Austina\AppData\Local\Temp\cc8acxV8.s 			page 27


 378              		.cfi_offset 4, -12
 379              		.cfi_offset 5, -8
 380              		.cfi_offset 14, -4
 381 0002 83B0     		sub	sp, sp, #12
 382              		.cfi_def_cfa_offset 24
 110:BLETask.c     ****     {
 383              		.loc 1 110 0
 384 0004 B0F5A04F 		cmp	r0, #20480
 385 0008 00F0BD80 		beq	.L31
 386 000c 0D46     		mov	r5, r1
 387 000e 0BD8     		bhi	.L32
 388 0010 B0F5804F 		cmp	r0, #16384
 389 0014 2CD0     		beq	.L33
 390 0016 44F20803 		movw	r3, #16392
 391 001a 9842     		cmp	r0, r3
 392 001c 14D0     		beq	.L34
 393 001e B0F5805F 		cmp	r0, #4096
 394 0022 40F0C380 		bne	.L29
 395 0026 0FE0     		b	.L34
 396              	.L32:
 397 0028 45F20203 		movw	r3, #20482
 398 002c 9842     		cmp	r0, r3
 399 002e 79D0     		beq	.L35
 400 0030 C0F08880 		bcc	.L36
 401 0034 45F20D03 		movw	r3, #20493
 402 0038 9842     		cmp	r0, r3
 403 003a 00F0AE80 		beq	.L37
 404 003e 5C4B     		ldr	r3, .L43
 405 0040 9842     		cmp	r0, r3
 406 0042 00F09680 		beq	.L38
 407 0046 B1E0     		b	.L29
 408              	.L34:
 409              	.LBB24:
 114:BLETask.c     ****             //Start scan operation
 410              		.loc 1 114 0
 411 0048 5A48     		ldr	r0, .L43+4
 412              	.LVL38:
 413 004a FFF7FEFF 		bl	printf
 414              	.LVL39:
 415 004e 5A48     		ldr	r0, .L43+8
 416 0050 FFF7FEFF 		bl	printf
 417              	.LVL40:
 418 0054 5948     		ldr	r0, .L43+12
 419 0056 FFF7FEFF 		bl	puts
 420              	.LVL41:
 116:BLETask.c     ****             //turn off the led
 421              		.loc 1 116 0
 422 005a 0021     		movs	r1, #0
 423 005c 0846     		mov	r0, r1
 424 005e FFF7FEFF 		bl	Cy_BLE_GAPC_StartScan
 425              	.LVL42:
 426              	.LBB25:
 427              	.LBB26:
 428              		.file 3 "Generated_Source\\PSoC6\\pdl\\drivers/peripheral/gpio/cy_gpio.h"
   1:Generated_Source\PSoC6\pdl\drivers/peripheral/gpio/cy_gpio.h **** /***************************************************************************//**
   2:Generated_Source\PSoC6\pdl\drivers/peripheral/gpio/cy_gpio.h **** * \file cy_gpio.h
   3:Generated_Source\PSoC6\pdl\drivers/peripheral/gpio/cy_gpio.h **** * \version 1.20
ARM GAS  C:\Users\Austina\AppData\Local\Temp\cc8acxV8.s 			page 28


   4:Generated_Source\PSoC6\pdl\drivers/peripheral/gpio/cy_gpio.h **** *
   5:Generated_Source\PSoC6\pdl\drivers/peripheral/gpio/cy_gpio.h **** * Provides an API declaration of the GPIO driver
   6:Generated_Source\PSoC6\pdl\drivers/peripheral/gpio/cy_gpio.h **** *
   7:Generated_Source\PSoC6\pdl\drivers/peripheral/gpio/cy_gpio.h **** ********************************************************************************
   8:Generated_Source\PSoC6\pdl\drivers/peripheral/gpio/cy_gpio.h **** * \copyright
   9:Generated_Source\PSoC6\pdl\drivers/peripheral/gpio/cy_gpio.h **** * Copyright 2016-2018, Cypress Semiconductor Corporation. All rights reserved.
  10:Generated_Source\PSoC6\pdl\drivers/peripheral/gpio/cy_gpio.h **** * You may use this file only in accordance with the license, terms, conditions,
  11:Generated_Source\PSoC6\pdl\drivers/peripheral/gpio/cy_gpio.h **** * disclaimers, and limitations in the end user license agreement accompanying
  12:Generated_Source\PSoC6\pdl\drivers/peripheral/gpio/cy_gpio.h **** * the software package with which this file was provided.
  13:Generated_Source\PSoC6\pdl\drivers/peripheral/gpio/cy_gpio.h **** *******************************************************************************/
  14:Generated_Source\PSoC6\pdl\drivers/peripheral/gpio/cy_gpio.h **** 
  15:Generated_Source\PSoC6\pdl\drivers/peripheral/gpio/cy_gpio.h **** /**
  16:Generated_Source\PSoC6\pdl\drivers/peripheral/gpio/cy_gpio.h **** * \addtogroup group_gpio
  17:Generated_Source\PSoC6\pdl\drivers/peripheral/gpio/cy_gpio.h **** * \{
  18:Generated_Source\PSoC6\pdl\drivers/peripheral/gpio/cy_gpio.h **** * The GPIO driver provides an API to configure and access device Input/Output pins.
  19:Generated_Source\PSoC6\pdl\drivers/peripheral/gpio/cy_gpio.h **** *
  20:Generated_Source\PSoC6\pdl\drivers/peripheral/gpio/cy_gpio.h **** * The functions and other declarations used in this driver are in cy_gpio.h. 
  21:Generated_Source\PSoC6\pdl\drivers/peripheral/gpio/cy_gpio.h **** * You can include cy_pdl.h (ModusToolbox only) to get access to all functions 
  22:Generated_Source\PSoC6\pdl\drivers/peripheral/gpio/cy_gpio.h **** * and declarations in the PDL.
  23:Generated_Source\PSoC6\pdl\drivers/peripheral/gpio/cy_gpio.h **** *
  24:Generated_Source\PSoC6\pdl\drivers/peripheral/gpio/cy_gpio.h **** * IO pins include all general purpose types such as GPIO, SIO, HSIO, AUXIO, and
  25:Generated_Source\PSoC6\pdl\drivers/peripheral/gpio/cy_gpio.h **** * their variants.
  26:Generated_Source\PSoC6\pdl\drivers/peripheral/gpio/cy_gpio.h **** *
  27:Generated_Source\PSoC6\pdl\drivers/peripheral/gpio/cy_gpio.h **** * Initialization can be performed either at the port level or by configuring the
  28:Generated_Source\PSoC6\pdl\drivers/peripheral/gpio/cy_gpio.h **** * individual pins. For efficient use of code space, port
  29:Generated_Source\PSoC6\pdl\drivers/peripheral/gpio/cy_gpio.h **** * configuration should be used in the field. Refer to the product device header files 
  30:Generated_Source\PSoC6\pdl\drivers/peripheral/gpio/cy_gpio.h **** * for the list of supported ports and pins.
  31:Generated_Source\PSoC6\pdl\drivers/peripheral/gpio/cy_gpio.h **** * 
  32:Generated_Source\PSoC6\pdl\drivers/peripheral/gpio/cy_gpio.h **** * - Single pin configuration is performed by using \ref Cy_GPIO_Pin_FastInit 
  33:Generated_Source\PSoC6\pdl\drivers/peripheral/gpio/cy_gpio.h **** *   (provide specific values) or \ref Cy_GPIO_Pin_Init (provide a filled
  34:Generated_Source\PSoC6\pdl\drivers/peripheral/gpio/cy_gpio.h **** *   cy_stc_gpio_pin_config_t structure).
  35:Generated_Source\PSoC6\pdl\drivers/peripheral/gpio/cy_gpio.h **** * - An entire port can be configured using \ref Cy_GPIO_Port_Init. Provide a filled 
  36:Generated_Source\PSoC6\pdl\drivers/peripheral/gpio/cy_gpio.h **** *   cy_stc_gpio_prt_config_t structure. The values in the structure are 
  37:Generated_Source\PSoC6\pdl\drivers/peripheral/gpio/cy_gpio.h **** *   bitfields representing the desired value for each pin in the port.
  38:Generated_Source\PSoC6\pdl\drivers/peripheral/gpio/cy_gpio.h **** * - Pin configuration and management is based on the port address and pin number.
  39:Generated_Source\PSoC6\pdl\drivers/peripheral/gpio/cy_gpio.h **** *   \ref Cy_GPIO_PortToAddr function can optionally be used to calculate the port
  40:Generated_Source\PSoC6\pdl\drivers/peripheral/gpio/cy_gpio.h **** *   address from the port number at run-time.
  41:Generated_Source\PSoC6\pdl\drivers/peripheral/gpio/cy_gpio.h **** *
  42:Generated_Source\PSoC6\pdl\drivers/peripheral/gpio/cy_gpio.h **** * Once the pin/port initialization is complete, each pin can be accessed by 
  43:Generated_Source\PSoC6\pdl\drivers/peripheral/gpio/cy_gpio.h **** * specifying the port (GPIO_PRT_Type) and the pin (0-7) in the provided API 
  44:Generated_Source\PSoC6\pdl\drivers/peripheral/gpio/cy_gpio.h **** * functions.
  45:Generated_Source\PSoC6\pdl\drivers/peripheral/gpio/cy_gpio.h **** *
  46:Generated_Source\PSoC6\pdl\drivers/peripheral/gpio/cy_gpio.h **** * \section group_gpio_configuration Configuration Considerations
  47:Generated_Source\PSoC6\pdl\drivers/peripheral/gpio/cy_gpio.h **** *
  48:Generated_Source\PSoC6\pdl\drivers/peripheral/gpio/cy_gpio.h **** * 1. Pin multiplexing is controlled through the High-Speed IO Matrix (HSIOM) selection.
  49:Generated_Source\PSoC6\pdl\drivers/peripheral/gpio/cy_gpio.h **** *    This allows the pin to connect to signal sources/sinks throughout the device,
  50:Generated_Source\PSoC6\pdl\drivers/peripheral/gpio/cy_gpio.h **** *    as defined by the pin HSIOM selection options (en_hsiom_sel_t).
  51:Generated_Source\PSoC6\pdl\drivers/peripheral/gpio/cy_gpio.h **** * 2. All pins are initialized to High-Z drive mode with HSIOM connected to CPU (SW
  52:Generated_Source\PSoC6\pdl\drivers/peripheral/gpio/cy_gpio.h **** *    control digital pin only) at Power-On-Reset(POR).
  53:Generated_Source\PSoC6\pdl\drivers/peripheral/gpio/cy_gpio.h **** * 3. Some API functions perform read-modify-write operations on shared port
  54:Generated_Source\PSoC6\pdl\drivers/peripheral/gpio/cy_gpio.h **** *    registers. These functions are not thread safe and care must be taken when
  55:Generated_Source\PSoC6\pdl\drivers/peripheral/gpio/cy_gpio.h **** *    called by the application.
  56:Generated_Source\PSoC6\pdl\drivers/peripheral/gpio/cy_gpio.h **** * 4. Digital input buffer provides a high-impedance buffer for the external 
  57:Generated_Source\PSoC6\pdl\drivers/peripheral/gpio/cy_gpio.h **** *    digital input. The input buffer is connected to the HSIOM for routing to 
  58:Generated_Source\PSoC6\pdl\drivers/peripheral/gpio/cy_gpio.h **** *    the CPU port registers and selected peripheral. Enabling the input 
  59:Generated_Source\PSoC6\pdl\drivers/peripheral/gpio/cy_gpio.h **** *    buffer provides possibility to read the pin state via the CPU.
  60:Generated_Source\PSoC6\pdl\drivers/peripheral/gpio/cy_gpio.h **** *    If pin is connected to an analog signal, the input buffer should be 
ARM GAS  C:\Users\Austina\AppData\Local\Temp\cc8acxV8.s 			page 29


  61:Generated_Source\PSoC6\pdl\drivers/peripheral/gpio/cy_gpio.h **** *    disabled to avoid crowbar currents. For more information refer to device 
  62:Generated_Source\PSoC6\pdl\drivers/peripheral/gpio/cy_gpio.h **** *    TRM and the device datasheet.
  63:Generated_Source\PSoC6\pdl\drivers/peripheral/gpio/cy_gpio.h **** *
  64:Generated_Source\PSoC6\pdl\drivers/peripheral/gpio/cy_gpio.h **** * Multiple pins on a port can be updated using direct port register writes with an
  65:Generated_Source\PSoC6\pdl\drivers/peripheral/gpio/cy_gpio.h **** * appropriate port mask. An example is shown below, highlighting the different ways of 
  66:Generated_Source\PSoC6\pdl\drivers/peripheral/gpio/cy_gpio.h **** * configuring Port 1 pins using:
  67:Generated_Source\PSoC6\pdl\drivers/peripheral/gpio/cy_gpio.h **** * 
  68:Generated_Source\PSoC6\pdl\drivers/peripheral/gpio/cy_gpio.h **** * - Port output data register
  69:Generated_Source\PSoC6\pdl\drivers/peripheral/gpio/cy_gpio.h **** * - Port output data set register
  70:Generated_Source\PSoC6\pdl\drivers/peripheral/gpio/cy_gpio.h **** * - Port output data clear register
  71:Generated_Source\PSoC6\pdl\drivers/peripheral/gpio/cy_gpio.h **** *
  72:Generated_Source\PSoC6\pdl\drivers/peripheral/gpio/cy_gpio.h **** * \snippet gpio/gpio_v1_10_sut_01.cydsn/main_cm4.c Cy_GPIO_Snippet
  73:Generated_Source\PSoC6\pdl\drivers/peripheral/gpio/cy_gpio.h **** *
  74:Generated_Source\PSoC6\pdl\drivers/peripheral/gpio/cy_gpio.h **** * \section group_gpio_more_information More Information
  75:Generated_Source\PSoC6\pdl\drivers/peripheral/gpio/cy_gpio.h **** *
  76:Generated_Source\PSoC6\pdl\drivers/peripheral/gpio/cy_gpio.h **** * Refer to the technical reference manual (TRM) and the device datasheet.
  77:Generated_Source\PSoC6\pdl\drivers/peripheral/gpio/cy_gpio.h **** *
  78:Generated_Source\PSoC6\pdl\drivers/peripheral/gpio/cy_gpio.h **** * \section group_gpio_MISRA MISRA-C Compliance
  79:Generated_Source\PSoC6\pdl\drivers/peripheral/gpio/cy_gpio.h **** * The GPIO driver has the following specific deviations:
  80:Generated_Source\PSoC6\pdl\drivers/peripheral/gpio/cy_gpio.h **** *
  81:Generated_Source\PSoC6\pdl\drivers/peripheral/gpio/cy_gpio.h **** * <table class="doxtable">
  82:Generated_Source\PSoC6\pdl\drivers/peripheral/gpio/cy_gpio.h **** *   <tr>
  83:Generated_Source\PSoC6\pdl\drivers/peripheral/gpio/cy_gpio.h **** *     <th>MISRA Rule</th>
  84:Generated_Source\PSoC6\pdl\drivers/peripheral/gpio/cy_gpio.h **** *     <th>Rule Class (Required/Advisory)</th>
  85:Generated_Source\PSoC6\pdl\drivers/peripheral/gpio/cy_gpio.h **** *     <th>Rule Description</th>
  86:Generated_Source\PSoC6\pdl\drivers/peripheral/gpio/cy_gpio.h **** *     <th>Description of Deviation(s)</th>
  87:Generated_Source\PSoC6\pdl\drivers/peripheral/gpio/cy_gpio.h **** *   </tr>
  88:Generated_Source\PSoC6\pdl\drivers/peripheral/gpio/cy_gpio.h **** *   <tr>
  89:Generated_Source\PSoC6\pdl\drivers/peripheral/gpio/cy_gpio.h **** *     <td>11.4</td>
  90:Generated_Source\PSoC6\pdl\drivers/peripheral/gpio/cy_gpio.h **** *     <td>A</td>
  91:Generated_Source\PSoC6\pdl\drivers/peripheral/gpio/cy_gpio.h **** *     <td>A cast should not be performed between a pointer to object type and
  92:Generated_Source\PSoC6\pdl\drivers/peripheral/gpio/cy_gpio.h **** *         a different pointer to object type.</td>
  93:Generated_Source\PSoC6\pdl\drivers/peripheral/gpio/cy_gpio.h **** *     <td> This code is safe because the elements of both GPIO_PRT_V1_Type and GPIO_PRT_V2_Type 
  94:Generated_Source\PSoC6\pdl\drivers/peripheral/gpio/cy_gpio.h **** *          types have identical alignment.</td>
  95:Generated_Source\PSoC6\pdl\drivers/peripheral/gpio/cy_gpio.h **** *   </tr>
  96:Generated_Source\PSoC6\pdl\drivers/peripheral/gpio/cy_gpio.h **** *   <tr>
  97:Generated_Source\PSoC6\pdl\drivers/peripheral/gpio/cy_gpio.h **** *     <td>16.7</td>
  98:Generated_Source\PSoC6\pdl\drivers/peripheral/gpio/cy_gpio.h **** *     <td>A</td>
  99:Generated_Source\PSoC6\pdl\drivers/peripheral/gpio/cy_gpio.h **** *     <td>A pointer parameter in a function prototype should be declared as pointer 
 100:Generated_Source\PSoC6\pdl\drivers/peripheral/gpio/cy_gpio.h **** *         to const if the pointer is not used to modify the addressed object.</td>
 101:Generated_Source\PSoC6\pdl\drivers/peripheral/gpio/cy_gpio.h **** *     <td>The objects pointed to by the base addresses of the GPIO port are not always modified.
 102:Generated_Source\PSoC6\pdl\drivers/peripheral/gpio/cy_gpio.h **** *         While a const qualifier can be used in select scenarios, it brings little benefit
 103:Generated_Source\PSoC6\pdl\drivers/peripheral/gpio/cy_gpio.h **** *         in adding this to the affected functions. </td>
 104:Generated_Source\PSoC6\pdl\drivers/peripheral/gpio/cy_gpio.h **** *   </tr>
 105:Generated_Source\PSoC6\pdl\drivers/peripheral/gpio/cy_gpio.h **** * </table>
 106:Generated_Source\PSoC6\pdl\drivers/peripheral/gpio/cy_gpio.h **** *
 107:Generated_Source\PSoC6\pdl\drivers/peripheral/gpio/cy_gpio.h **** * \section group_gpio_changelog Changelog
 108:Generated_Source\PSoC6\pdl\drivers/peripheral/gpio/cy_gpio.h **** * <table class="doxtable">
 109:Generated_Source\PSoC6\pdl\drivers/peripheral/gpio/cy_gpio.h **** *   <tr><th>Version</th><th>Changes</th><th>Reason for Change</th></tr>
 110:Generated_Source\PSoC6\pdl\drivers/peripheral/gpio/cy_gpio.h **** *   <tr>
 111:Generated_Source\PSoC6\pdl\drivers/peripheral/gpio/cy_gpio.h **** *     <td rowspan="3">1.20</td>
 112:Generated_Source\PSoC6\pdl\drivers/peripheral/gpio/cy_gpio.h **** *     <td>Flattened the organization of the driver source code into the single source directory and
 113:Generated_Source\PSoC6\pdl\drivers/peripheral/gpio/cy_gpio.h **** *     <td>Driver library directory-structure simplification.</td>
 114:Generated_Source\PSoC6\pdl\drivers/peripheral/gpio/cy_gpio.h **** *   </tr>
 115:Generated_Source\PSoC6\pdl\drivers/peripheral/gpio/cy_gpio.h **** *   <tr>
 116:Generated_Source\PSoC6\pdl\drivers/peripheral/gpio/cy_gpio.h **** *     <td>Added the functions for configuring the AMux bus splitter switch cells:
 117:Generated_Source\PSoC6\pdl\drivers/peripheral/gpio/cy_gpio.h **** *     - \ref Cy_GPIO_SetAmuxSplit
ARM GAS  C:\Users\Austina\AppData\Local\Temp\cc8acxV8.s 			page 30


 118:Generated_Source\PSoC6\pdl\drivers/peripheral/gpio/cy_gpio.h **** *     - \ref Cy_GPIO_GetAmuxSplit
 119:Generated_Source\PSoC6\pdl\drivers/peripheral/gpio/cy_gpio.h **** *     </td>
 120:Generated_Source\PSoC6\pdl\drivers/peripheral/gpio/cy_gpio.h **** *     <td>Added a new functionality related to AMux bus.</td>
 121:Generated_Source\PSoC6\pdl\drivers/peripheral/gpio/cy_gpio.h **** *   </tr>
 122:Generated_Source\PSoC6\pdl\drivers/peripheral/gpio/cy_gpio.h **** *   <tr>
 123:Generated_Source\PSoC6\pdl\drivers/peripheral/gpio/cy_gpio.h **** *     <td>Added register access layer. Use register access macros instead
 124:Generated_Source\PSoC6\pdl\drivers/peripheral/gpio/cy_gpio.h **** *         of direct register access using dereferenced pointers.</td>
 125:Generated_Source\PSoC6\pdl\drivers/peripheral/gpio/cy_gpio.h **** *     <td>Makes register access device-independent, so that the PDL does 
 126:Generated_Source\PSoC6\pdl\drivers/peripheral/gpio/cy_gpio.h **** *         not need to be recompiled for each supported part number.</td>
 127:Generated_Source\PSoC6\pdl\drivers/peripheral/gpio/cy_gpio.h **** *   </tr>
 128:Generated_Source\PSoC6\pdl\drivers/peripheral/gpio/cy_gpio.h **** *   <tr>
 129:Generated_Source\PSoC6\pdl\drivers/peripheral/gpio/cy_gpio.h **** *     <td>1.10.1</td>
 130:Generated_Source\PSoC6\pdl\drivers/peripheral/gpio/cy_gpio.h **** *     <td>Updated description for the functions: \ref Cy_GPIO_GetInterruptStatus, 
 131:Generated_Source\PSoC6\pdl\drivers/peripheral/gpio/cy_gpio.h **** *         \ref Cy_GPIO_GetInterruptMask, \ref Cy_GPIO_GetInterruptStatusMasked.
 132:Generated_Source\PSoC6\pdl\drivers/peripheral/gpio/cy_gpio.h **** *
 133:Generated_Source\PSoC6\pdl\drivers/peripheral/gpio/cy_gpio.h **** *         Minor documentation edits.
 134:Generated_Source\PSoC6\pdl\drivers/peripheral/gpio/cy_gpio.h **** *     </td>
 135:Generated_Source\PSoC6\pdl\drivers/peripheral/gpio/cy_gpio.h **** *     <td>Documentation update and clarification</td>
 136:Generated_Source\PSoC6\pdl\drivers/peripheral/gpio/cy_gpio.h **** *   </tr>
 137:Generated_Source\PSoC6\pdl\drivers/peripheral/gpio/cy_gpio.h **** *   <tr>
 138:Generated_Source\PSoC6\pdl\drivers/peripheral/gpio/cy_gpio.h **** *     <td>1.10</td>
 139:Generated_Source\PSoC6\pdl\drivers/peripheral/gpio/cy_gpio.h **** *     <td>Added input parameter validation to the API functions</td>
 140:Generated_Source\PSoC6\pdl\drivers/peripheral/gpio/cy_gpio.h **** *     <td></td>
 141:Generated_Source\PSoC6\pdl\drivers/peripheral/gpio/cy_gpio.h **** *   </tr>
 142:Generated_Source\PSoC6\pdl\drivers/peripheral/gpio/cy_gpio.h **** *   <tr>
 143:Generated_Source\PSoC6\pdl\drivers/peripheral/gpio/cy_gpio.h **** *     <td>1.0</td>
 144:Generated_Source\PSoC6\pdl\drivers/peripheral/gpio/cy_gpio.h **** *     <td>Initial version</td>
 145:Generated_Source\PSoC6\pdl\drivers/peripheral/gpio/cy_gpio.h **** *     <td></td>
 146:Generated_Source\PSoC6\pdl\drivers/peripheral/gpio/cy_gpio.h **** *   </tr>
 147:Generated_Source\PSoC6\pdl\drivers/peripheral/gpio/cy_gpio.h **** * </table>
 148:Generated_Source\PSoC6\pdl\drivers/peripheral/gpio/cy_gpio.h **** *
 149:Generated_Source\PSoC6\pdl\drivers/peripheral/gpio/cy_gpio.h **** * \defgroup group_gpio_macros Macros
 150:Generated_Source\PSoC6\pdl\drivers/peripheral/gpio/cy_gpio.h **** * \defgroup group_gpio_functions Functions
 151:Generated_Source\PSoC6\pdl\drivers/peripheral/gpio/cy_gpio.h **** * \{
 152:Generated_Source\PSoC6\pdl\drivers/peripheral/gpio/cy_gpio.h **** *   \defgroup group_gpio_functions_init       Initialization Functions
 153:Generated_Source\PSoC6\pdl\drivers/peripheral/gpio/cy_gpio.h **** *   \defgroup group_gpio_functions_gpio       GPIO Functions
 154:Generated_Source\PSoC6\pdl\drivers/peripheral/gpio/cy_gpio.h **** *   \defgroup group_gpio_functions_sio        SIO Functions
 155:Generated_Source\PSoC6\pdl\drivers/peripheral/gpio/cy_gpio.h **** *   \defgroup group_gpio_functions_interrupt  Port Interrupt Functions
 156:Generated_Source\PSoC6\pdl\drivers/peripheral/gpio/cy_gpio.h **** * \}
 157:Generated_Source\PSoC6\pdl\drivers/peripheral/gpio/cy_gpio.h **** * \defgroup group_gpio_data_structures Data Structures
 158:Generated_Source\PSoC6\pdl\drivers/peripheral/gpio/cy_gpio.h **** * \defgroup group_gpio_enums Enumerated Types
 159:Generated_Source\PSoC6\pdl\drivers/peripheral/gpio/cy_gpio.h **** */
 160:Generated_Source\PSoC6\pdl\drivers/peripheral/gpio/cy_gpio.h **** 
 161:Generated_Source\PSoC6\pdl\drivers/peripheral/gpio/cy_gpio.h **** #if !defined(CY_GPIO_H)
 162:Generated_Source\PSoC6\pdl\drivers/peripheral/gpio/cy_gpio.h **** #define CY_GPIO_H
 163:Generated_Source\PSoC6\pdl\drivers/peripheral/gpio/cy_gpio.h **** 
 164:Generated_Source\PSoC6\pdl\drivers/peripheral/gpio/cy_gpio.h **** #include <stddef.h>
 165:Generated_Source\PSoC6\pdl\drivers/peripheral/gpio/cy_gpio.h **** #include "cy_device.h"
 166:Generated_Source\PSoC6\pdl\drivers/peripheral/gpio/cy_gpio.h **** #include "cy_device_headers.h"
 167:Generated_Source\PSoC6\pdl\drivers/peripheral/gpio/cy_gpio.h **** #include "cy_syslib.h"
 168:Generated_Source\PSoC6\pdl\drivers/peripheral/gpio/cy_gpio.h **** 
 169:Generated_Source\PSoC6\pdl\drivers/peripheral/gpio/cy_gpio.h **** #if defined(__cplusplus)
 170:Generated_Source\PSoC6\pdl\drivers/peripheral/gpio/cy_gpio.h **** extern "C" {
 171:Generated_Source\PSoC6\pdl\drivers/peripheral/gpio/cy_gpio.h **** #endif
 172:Generated_Source\PSoC6\pdl\drivers/peripheral/gpio/cy_gpio.h **** 
 173:Generated_Source\PSoC6\pdl\drivers/peripheral/gpio/cy_gpio.h **** /** \addtogroup group_gpio_macros
 174:Generated_Source\PSoC6\pdl\drivers/peripheral/gpio/cy_gpio.h **** * \{
ARM GAS  C:\Users\Austina\AppData\Local\Temp\cc8acxV8.s 			page 31


 175:Generated_Source\PSoC6\pdl\drivers/peripheral/gpio/cy_gpio.h **** */
 176:Generated_Source\PSoC6\pdl\drivers/peripheral/gpio/cy_gpio.h **** 
 177:Generated_Source\PSoC6\pdl\drivers/peripheral/gpio/cy_gpio.h **** /** Driver major version */
 178:Generated_Source\PSoC6\pdl\drivers/peripheral/gpio/cy_gpio.h **** #define CY_GPIO_DRV_VERSION_MAJOR       1
 179:Generated_Source\PSoC6\pdl\drivers/peripheral/gpio/cy_gpio.h **** 
 180:Generated_Source\PSoC6\pdl\drivers/peripheral/gpio/cy_gpio.h **** /** Driver minor version */
 181:Generated_Source\PSoC6\pdl\drivers/peripheral/gpio/cy_gpio.h **** #define CY_GPIO_DRV_VERSION_MINOR       20
 182:Generated_Source\PSoC6\pdl\drivers/peripheral/gpio/cy_gpio.h **** 
 183:Generated_Source\PSoC6\pdl\drivers/peripheral/gpio/cy_gpio.h **** /** GPIO driver ID */
 184:Generated_Source\PSoC6\pdl\drivers/peripheral/gpio/cy_gpio.h **** #define CY_GPIO_ID CY_PDL_DRV_ID(0x16U)
 185:Generated_Source\PSoC6\pdl\drivers/peripheral/gpio/cy_gpio.h **** 
 186:Generated_Source\PSoC6\pdl\drivers/peripheral/gpio/cy_gpio.h **** /** \} group_gpio_macros */
 187:Generated_Source\PSoC6\pdl\drivers/peripheral/gpio/cy_gpio.h **** 
 188:Generated_Source\PSoC6\pdl\drivers/peripheral/gpio/cy_gpio.h **** 
 189:Generated_Source\PSoC6\pdl\drivers/peripheral/gpio/cy_gpio.h **** /***************************************
 190:Generated_Source\PSoC6\pdl\drivers/peripheral/gpio/cy_gpio.h **** *       Enumerations
 191:Generated_Source\PSoC6\pdl\drivers/peripheral/gpio/cy_gpio.h **** ***************************************/
 192:Generated_Source\PSoC6\pdl\drivers/peripheral/gpio/cy_gpio.h **** /**
 193:Generated_Source\PSoC6\pdl\drivers/peripheral/gpio/cy_gpio.h **** * \addtogroup group_gpio_enums
 194:Generated_Source\PSoC6\pdl\drivers/peripheral/gpio/cy_gpio.h **** * \{
 195:Generated_Source\PSoC6\pdl\drivers/peripheral/gpio/cy_gpio.h **** */
 196:Generated_Source\PSoC6\pdl\drivers/peripheral/gpio/cy_gpio.h **** 
 197:Generated_Source\PSoC6\pdl\drivers/peripheral/gpio/cy_gpio.h **** /** GPIO Driver error codes */
 198:Generated_Source\PSoC6\pdl\drivers/peripheral/gpio/cy_gpio.h **** typedef enum 
 199:Generated_Source\PSoC6\pdl\drivers/peripheral/gpio/cy_gpio.h **** {
 200:Generated_Source\PSoC6\pdl\drivers/peripheral/gpio/cy_gpio.h ****     CY_GPIO_SUCCESS   = 0x00U,                                    /**< Returned successful */
 201:Generated_Source\PSoC6\pdl\drivers/peripheral/gpio/cy_gpio.h ****     CY_GPIO_BAD_PARAM = CY_GPIO_ID | CY_PDL_STATUS_ERROR | 0x01U, /**< Bad parameter was passed */
 202:Generated_Source\PSoC6\pdl\drivers/peripheral/gpio/cy_gpio.h **** } cy_en_gpio_status_t;
 203:Generated_Source\PSoC6\pdl\drivers/peripheral/gpio/cy_gpio.h **** 
 204:Generated_Source\PSoC6\pdl\drivers/peripheral/gpio/cy_gpio.h **** /** AMux switch open/close config */
 205:Generated_Source\PSoC6\pdl\drivers/peripheral/gpio/cy_gpio.h **** typedef enum
 206:Generated_Source\PSoC6\pdl\drivers/peripheral/gpio/cy_gpio.h **** {
 207:Generated_Source\PSoC6\pdl\drivers/peripheral/gpio/cy_gpio.h ****     CY_GPIO_AMUX_OPENALL,   /**< Open ground switch. Open right switch. Open left switch */
 208:Generated_Source\PSoC6\pdl\drivers/peripheral/gpio/cy_gpio.h ****     CY_GPIO_AMUX_L,         /**< Open ground switch. Open right switch. Close left switch */
 209:Generated_Source\PSoC6\pdl\drivers/peripheral/gpio/cy_gpio.h ****     CY_GPIO_AMUX_R,         /**< Open ground switch. Close right switch. Open left switch */
 210:Generated_Source\PSoC6\pdl\drivers/peripheral/gpio/cy_gpio.h ****     CY_GPIO_AMUX_LR,        /**< Open ground switch. Close right switch. Close left switch */
 211:Generated_Source\PSoC6\pdl\drivers/peripheral/gpio/cy_gpio.h ****     CY_GPIO_AMUX_G,         /**< Close ground switch. Open right switch. Open left switch */
 212:Generated_Source\PSoC6\pdl\drivers/peripheral/gpio/cy_gpio.h ****     CY_GPIO_AMUX_GL,        /**< Close ground switch. Open right switch. Close left switch */
 213:Generated_Source\PSoC6\pdl\drivers/peripheral/gpio/cy_gpio.h ****     CY_GPIO_AMUX_GR,        /**< Close ground switch. Close right switch. Open left switch */
 214:Generated_Source\PSoC6\pdl\drivers/peripheral/gpio/cy_gpio.h ****     CY_GPIO_AMUX_GLR,       /**< Close ground switch. Close right switch. Close left switch */
 215:Generated_Source\PSoC6\pdl\drivers/peripheral/gpio/cy_gpio.h **** }cy_en_gpio_amuxconnect_t;
 216:Generated_Source\PSoC6\pdl\drivers/peripheral/gpio/cy_gpio.h **** 
 217:Generated_Source\PSoC6\pdl\drivers/peripheral/gpio/cy_gpio.h **** /**
 218:Generated_Source\PSoC6\pdl\drivers/peripheral/gpio/cy_gpio.h **** * AMux Bus selection
 219:Generated_Source\PSoC6\pdl\drivers/peripheral/gpio/cy_gpio.h **** */
 220:Generated_Source\PSoC6\pdl\drivers/peripheral/gpio/cy_gpio.h **** typedef enum
 221:Generated_Source\PSoC6\pdl\drivers/peripheral/gpio/cy_gpio.h **** {
 222:Generated_Source\PSoC6\pdl\drivers/peripheral/gpio/cy_gpio.h ****     CY_GPIO_AMUXBUSA,       /**< AMuxBus A */
 223:Generated_Source\PSoC6\pdl\drivers/peripheral/gpio/cy_gpio.h ****     CY_GPIO_AMUXBUSB        /**< AMuxBus B */
 224:Generated_Source\PSoC6\pdl\drivers/peripheral/gpio/cy_gpio.h **** }cy_en_gpio_amuxselect_t;
 225:Generated_Source\PSoC6\pdl\drivers/peripheral/gpio/cy_gpio.h **** 
 226:Generated_Source\PSoC6\pdl\drivers/peripheral/gpio/cy_gpio.h **** /** \} group_gpio_enums */
 227:Generated_Source\PSoC6\pdl\drivers/peripheral/gpio/cy_gpio.h **** 
 228:Generated_Source\PSoC6\pdl\drivers/peripheral/gpio/cy_gpio.h **** 
 229:Generated_Source\PSoC6\pdl\drivers/peripheral/gpio/cy_gpio.h **** /***************************************
 230:Generated_Source\PSoC6\pdl\drivers/peripheral/gpio/cy_gpio.h **** *       Configuration Structures
 231:Generated_Source\PSoC6\pdl\drivers/peripheral/gpio/cy_gpio.h **** ***************************************/
ARM GAS  C:\Users\Austina\AppData\Local\Temp\cc8acxV8.s 			page 32


 232:Generated_Source\PSoC6\pdl\drivers/peripheral/gpio/cy_gpio.h **** 
 233:Generated_Source\PSoC6\pdl\drivers/peripheral/gpio/cy_gpio.h **** /**
 234:Generated_Source\PSoC6\pdl\drivers/peripheral/gpio/cy_gpio.h **** * \addtogroup group_gpio_data_structures
 235:Generated_Source\PSoC6\pdl\drivers/peripheral/gpio/cy_gpio.h **** * \{
 236:Generated_Source\PSoC6\pdl\drivers/peripheral/gpio/cy_gpio.h **** */
 237:Generated_Source\PSoC6\pdl\drivers/peripheral/gpio/cy_gpio.h **** 
 238:Generated_Source\PSoC6\pdl\drivers/peripheral/gpio/cy_gpio.h **** /** This structure is used to initialize a port of GPIO pins */
 239:Generated_Source\PSoC6\pdl\drivers/peripheral/gpio/cy_gpio.h **** typedef struct 
 240:Generated_Source\PSoC6\pdl\drivers/peripheral/gpio/cy_gpio.h **** {
 241:Generated_Source\PSoC6\pdl\drivers/peripheral/gpio/cy_gpio.h ****     uint32_t out;           /**< Initial output data for the IO pins in the port */
 242:Generated_Source\PSoC6\pdl\drivers/peripheral/gpio/cy_gpio.h ****     uint32_t intrMask;      /**< Interrupt enable mask for the port interrupt */
 243:Generated_Source\PSoC6\pdl\drivers/peripheral/gpio/cy_gpio.h ****     uint32_t intrCfg;       /**< Port pin interrupt edge detection configuration */
 244:Generated_Source\PSoC6\pdl\drivers/peripheral/gpio/cy_gpio.h ****     uint32_t cfg;           /**< Port pin drive modes and input buffer enable configuration */
 245:Generated_Source\PSoC6\pdl\drivers/peripheral/gpio/cy_gpio.h ****     uint32_t cfgIn;         /**< Port pin input buffer configuration */
 246:Generated_Source\PSoC6\pdl\drivers/peripheral/gpio/cy_gpio.h ****     uint32_t cfgOut;        /**< Port pin output buffer configuration */
 247:Generated_Source\PSoC6\pdl\drivers/peripheral/gpio/cy_gpio.h ****     uint32_t cfgSIO;        /**< Port SIO pins configuration */
 248:Generated_Source\PSoC6\pdl\drivers/peripheral/gpio/cy_gpio.h ****     uint32_t sel0Active;    /**< HSIOM selection for port pins 0,1,2,3 */
 249:Generated_Source\PSoC6\pdl\drivers/peripheral/gpio/cy_gpio.h ****     uint32_t sel1Active;    /**< HSIOM selection for port pins 4,5,6,7 */
 250:Generated_Source\PSoC6\pdl\drivers/peripheral/gpio/cy_gpio.h **** } cy_stc_gpio_prt_config_t;
 251:Generated_Source\PSoC6\pdl\drivers/peripheral/gpio/cy_gpio.h **** 
 252:Generated_Source\PSoC6\pdl\drivers/peripheral/gpio/cy_gpio.h **** /** This structure is used to initialize a single GPIO pin */
 253:Generated_Source\PSoC6\pdl\drivers/peripheral/gpio/cy_gpio.h **** typedef struct
 254:Generated_Source\PSoC6\pdl\drivers/peripheral/gpio/cy_gpio.h **** {
 255:Generated_Source\PSoC6\pdl\drivers/peripheral/gpio/cy_gpio.h ****     uint32_t outVal;         /**< Pin output state */
 256:Generated_Source\PSoC6\pdl\drivers/peripheral/gpio/cy_gpio.h ****     uint32_t driveMode;      /**< Drive mode */
 257:Generated_Source\PSoC6\pdl\drivers/peripheral/gpio/cy_gpio.h ****     en_hsiom_sel_t hsiom;    /**< HSIOM selection */
 258:Generated_Source\PSoC6\pdl\drivers/peripheral/gpio/cy_gpio.h ****     uint32_t intEdge;        /**< Interrupt Edge type */
 259:Generated_Source\PSoC6\pdl\drivers/peripheral/gpio/cy_gpio.h ****     uint32_t intMask;        /**< Interrupt enable mask */
 260:Generated_Source\PSoC6\pdl\drivers/peripheral/gpio/cy_gpio.h ****     uint32_t vtrip;          /**< Input buffer voltage trip type */
 261:Generated_Source\PSoC6\pdl\drivers/peripheral/gpio/cy_gpio.h ****     uint32_t slewRate;       /**< Output buffer slew rate */
 262:Generated_Source\PSoC6\pdl\drivers/peripheral/gpio/cy_gpio.h ****     uint32_t driveSel;       /**< Drive strength */
 263:Generated_Source\PSoC6\pdl\drivers/peripheral/gpio/cy_gpio.h ****     uint32_t vregEn;         /**< SIO pair output buffer mode */
 264:Generated_Source\PSoC6\pdl\drivers/peripheral/gpio/cy_gpio.h ****     uint32_t ibufMode;       /**< SIO pair input buffer mode */
 265:Generated_Source\PSoC6\pdl\drivers/peripheral/gpio/cy_gpio.h ****     uint32_t vtripSel;       /**< SIO pair input buffer trip point */
 266:Generated_Source\PSoC6\pdl\drivers/peripheral/gpio/cy_gpio.h ****     uint32_t vrefSel;        /**< SIO pair reference voltage for input buffer trip point */
 267:Generated_Source\PSoC6\pdl\drivers/peripheral/gpio/cy_gpio.h ****     uint32_t vohSel;         /**< SIO pair regulated voltage output level */
 268:Generated_Source\PSoC6\pdl\drivers/peripheral/gpio/cy_gpio.h **** } cy_stc_gpio_pin_config_t;
 269:Generated_Source\PSoC6\pdl\drivers/peripheral/gpio/cy_gpio.h **** 
 270:Generated_Source\PSoC6\pdl\drivers/peripheral/gpio/cy_gpio.h **** /** \} group_gpio_data_structures */
 271:Generated_Source\PSoC6\pdl\drivers/peripheral/gpio/cy_gpio.h **** 
 272:Generated_Source\PSoC6\pdl\drivers/peripheral/gpio/cy_gpio.h **** /***************************************
 273:Generated_Source\PSoC6\pdl\drivers/peripheral/gpio/cy_gpio.h **** *        Constants
 274:Generated_Source\PSoC6\pdl\drivers/peripheral/gpio/cy_gpio.h **** ***************************************/
 275:Generated_Source\PSoC6\pdl\drivers/peripheral/gpio/cy_gpio.h **** 
 276:Generated_Source\PSoC6\pdl\drivers/peripheral/gpio/cy_gpio.h **** /** \cond INTERNAL */
 277:Generated_Source\PSoC6\pdl\drivers/peripheral/gpio/cy_gpio.h **** 
 278:Generated_Source\PSoC6\pdl\drivers/peripheral/gpio/cy_gpio.h **** /* General Constants */
 279:Generated_Source\PSoC6\pdl\drivers/peripheral/gpio/cy_gpio.h **** #define CY_GPIO_PRT_HALF                       (4UL)      /**< Half-way point of a GPIO port */
 280:Generated_Source\PSoC6\pdl\drivers/peripheral/gpio/cy_gpio.h **** #define CY_GPIO_PRT_DEINIT                     (0UL)      /**< De-init value for port registers */
 281:Generated_Source\PSoC6\pdl\drivers/peripheral/gpio/cy_gpio.h **** 
 282:Generated_Source\PSoC6\pdl\drivers/peripheral/gpio/cy_gpio.h **** /* GPIO Masks */
 283:Generated_Source\PSoC6\pdl\drivers/peripheral/gpio/cy_gpio.h **** #define CY_GPIO_HSIOM_MASK                     (0x1FUL)   /**< HSIOM selection mask */
 284:Generated_Source\PSoC6\pdl\drivers/peripheral/gpio/cy_gpio.h **** #define CY_GPIO_OUT_MASK                       (0x01UL)   /**< Single pin mask for OUT register */
 285:Generated_Source\PSoC6\pdl\drivers/peripheral/gpio/cy_gpio.h **** #define CY_GPIO_IN_MASK                        (0x01UL)   /**< Single pin mask for IN register */
 286:Generated_Source\PSoC6\pdl\drivers/peripheral/gpio/cy_gpio.h **** #define CY_GPIO_CFG_DM_MASK                    (0x0FUL)   /**< Single pin mask for drive mode in CF
 287:Generated_Source\PSoC6\pdl\drivers/peripheral/gpio/cy_gpio.h **** #define CY_GPIO_CFG_IN_VTRIP_SEL_MASK          (0x01UL)   /**< Single pin mask for VTRIP selection 
 288:Generated_Source\PSoC6\pdl\drivers/peripheral/gpio/cy_gpio.h **** #define CY_GPIO_CFG_OUT_SLOW_MASK              (0x01UL)   /**< Single pin mask for slew rate in CFG
ARM GAS  C:\Users\Austina\AppData\Local\Temp\cc8acxV8.s 			page 33


 289:Generated_Source\PSoC6\pdl\drivers/peripheral/gpio/cy_gpio.h **** #define CY_GPIO_CFG_OUT_DRIVE_SEL_MASK         (0x03UL)   /**< Single pin mask for drive strength i
 290:Generated_Source\PSoC6\pdl\drivers/peripheral/gpio/cy_gpio.h **** #define CY_GPIO_INTR_STATUS_MASK               (0x01UL)   /**< Single pin mask for interrupt status
 291:Generated_Source\PSoC6\pdl\drivers/peripheral/gpio/cy_gpio.h **** #define CY_GPIO_INTR_EN_MASK                   (0x01UL)   /**< Single pin mask for interrupt status
 292:Generated_Source\PSoC6\pdl\drivers/peripheral/gpio/cy_gpio.h **** #define CY_GPIO_INTR_MASKED_MASK               (0x01UL)   /**< Single pin mask for masked interrupt
 293:Generated_Source\PSoC6\pdl\drivers/peripheral/gpio/cy_gpio.h **** #define CY_GPIO_INTR_SET_MASK                  (0x01UL)   /**< Single pin mask for setting the inte
 294:Generated_Source\PSoC6\pdl\drivers/peripheral/gpio/cy_gpio.h **** #define CY_GPIO_INTR_EDGE_MASK                 (0x03UL)   /**< Single pin mask for interrupt edge t
 295:Generated_Source\PSoC6\pdl\drivers/peripheral/gpio/cy_gpio.h **** #define CY_GPIO_INTR_FLT_EDGE_MASK             (0x07UL)   /**< Single pin mask for setting filtered
 296:Generated_Source\PSoC6\pdl\drivers/peripheral/gpio/cy_gpio.h **** 
 297:Generated_Source\PSoC6\pdl\drivers/peripheral/gpio/cy_gpio.h **** /* SIO Masks */
 298:Generated_Source\PSoC6\pdl\drivers/peripheral/gpio/cy_gpio.h **** #define CY_GPIO_VREG_EN_MASK                   (0x01UL)   /**< Single SIO pin mask for voltage regu
 299:Generated_Source\PSoC6\pdl\drivers/peripheral/gpio/cy_gpio.h **** #define CY_GPIO_IBUF_MASK                      (0x01UL)   /**< Single SIO pin mask for input buffer
 300:Generated_Source\PSoC6\pdl\drivers/peripheral/gpio/cy_gpio.h **** #define CY_GPIO_IBUF_SHIFT                     (0x01UL)   /**< Single SIO pin shift for input buffe
 301:Generated_Source\PSoC6\pdl\drivers/peripheral/gpio/cy_gpio.h **** #define CY_GPIO_VTRIP_SEL_MASK                 (0x01UL)   /**< Single SIO pin mask for the input bu
 302:Generated_Source\PSoC6\pdl\drivers/peripheral/gpio/cy_gpio.h **** #define CY_GPIO_VTRIP_SEL_SHIFT                (0x02UL)   /**< Single SIO pin shift for the input b
 303:Generated_Source\PSoC6\pdl\drivers/peripheral/gpio/cy_gpio.h **** #define CY_GPIO_VREF_SEL_MASK                  (0x03UL)   /**< Single SIO pin mask for voltage refe
 304:Generated_Source\PSoC6\pdl\drivers/peripheral/gpio/cy_gpio.h **** #define CY_GPIO_VREF_SEL_SHIFT                 (0x03UL)   /**< Single SIO pin shift for voltage ref
 305:Generated_Source\PSoC6\pdl\drivers/peripheral/gpio/cy_gpio.h **** #define CY_GPIO_VOH_SEL_MASK                   (0x07UL)   /**< Single SIO pin mask for VOH */
 306:Generated_Source\PSoC6\pdl\drivers/peripheral/gpio/cy_gpio.h **** #define CY_GPIO_VOH_SEL_SHIFT                  (0x05UL)   /**< Single SIO pin shift for VOH */
 307:Generated_Source\PSoC6\pdl\drivers/peripheral/gpio/cy_gpio.h **** 
 308:Generated_Source\PSoC6\pdl\drivers/peripheral/gpio/cy_gpio.h **** /* Special mask for SIO pin pair setting */
 309:Generated_Source\PSoC6\pdl\drivers/peripheral/gpio/cy_gpio.h **** #define CY_GPIO_SIO_ODD_PIN_MASK               (0x00FEUL) /**< SIO pin pair selection mask */
 310:Generated_Source\PSoC6\pdl\drivers/peripheral/gpio/cy_gpio.h **** #define CY_GPIO_SIO_PIN_MASK                   (0x00FFUL) /**< SIO pin pair mask */
 311:Generated_Source\PSoC6\pdl\drivers/peripheral/gpio/cy_gpio.h **** 
 312:Generated_Source\PSoC6\pdl\drivers/peripheral/gpio/cy_gpio.h **** /* Offsets */
 313:Generated_Source\PSoC6\pdl\drivers/peripheral/gpio/cy_gpio.h **** #define CY_GPIO_HSIOM_OFFSET                   (3UL)      /**< Offset for HSIOM */
 314:Generated_Source\PSoC6\pdl\drivers/peripheral/gpio/cy_gpio.h **** #define CY_GPIO_DRIVE_MODE_OFFSET              (2UL)      /**< Offset for Drive mode */
 315:Generated_Source\PSoC6\pdl\drivers/peripheral/gpio/cy_gpio.h **** #define CY_GPIO_INBUF_OFFSET                   (3UL)      /**< Offset for input buffer */
 316:Generated_Source\PSoC6\pdl\drivers/peripheral/gpio/cy_gpio.h **** #define CY_GPIO_CFG_OUT_DRIVE_OFFSET           (16UL)     /**< Offset for drive strength */
 317:Generated_Source\PSoC6\pdl\drivers/peripheral/gpio/cy_gpio.h **** #define CY_GPIO_INTR_CFG_OFFSET                (1UL)      /**< Offset for interrupt config */
 318:Generated_Source\PSoC6\pdl\drivers/peripheral/gpio/cy_gpio.h **** #define CY_GPIO_INTR_FILT_OFFSET               (18UL)     /**< Offset for filtered interrupt config
 319:Generated_Source\PSoC6\pdl\drivers/peripheral/gpio/cy_gpio.h **** #define CY_GPIO_CFG_SIO_OFFSET                 (2UL)      /**< Offset for SIO config */
 320:Generated_Source\PSoC6\pdl\drivers/peripheral/gpio/cy_gpio.h **** 
 321:Generated_Source\PSoC6\pdl\drivers/peripheral/gpio/cy_gpio.h **** /* Parameter validation constants */
 322:Generated_Source\PSoC6\pdl\drivers/peripheral/gpio/cy_gpio.h **** #define CY_GPIO_PINS_MAX                       (8UL)      /**< Number of pins in the port */
 323:Generated_Source\PSoC6\pdl\drivers/peripheral/gpio/cy_gpio.h **** #define CY_GPIO_PRT_PINS_MASK                  (0x0000000FFUL)
 324:Generated_Source\PSoC6\pdl\drivers/peripheral/gpio/cy_gpio.h **** #define CY_GPIO_PRT_INTR_CFG_EDGE_SEL_MASK     (GPIO_PRT_INTR_CFG_EDGE0_SEL_Msk | \
 325:Generated_Source\PSoC6\pdl\drivers/peripheral/gpio/cy_gpio.h ****                                                 GPIO_PRT_INTR_CFG_EDGE1_SEL_Msk | \
 326:Generated_Source\PSoC6\pdl\drivers/peripheral/gpio/cy_gpio.h ****                                                 GPIO_PRT_INTR_CFG_EDGE2_SEL_Msk | \
 327:Generated_Source\PSoC6\pdl\drivers/peripheral/gpio/cy_gpio.h ****                                                 GPIO_PRT_INTR_CFG_EDGE3_SEL_Msk | \
 328:Generated_Source\PSoC6\pdl\drivers/peripheral/gpio/cy_gpio.h ****                                                 GPIO_PRT_INTR_CFG_EDGE4_SEL_Msk | \
 329:Generated_Source\PSoC6\pdl\drivers/peripheral/gpio/cy_gpio.h ****                                                 GPIO_PRT_INTR_CFG_EDGE5_SEL_Msk | \
 330:Generated_Source\PSoC6\pdl\drivers/peripheral/gpio/cy_gpio.h ****                                                 GPIO_PRT_INTR_CFG_EDGE6_SEL_Msk | \
 331:Generated_Source\PSoC6\pdl\drivers/peripheral/gpio/cy_gpio.h ****                                                 GPIO_PRT_INTR_CFG_EDGE7_SEL_Msk)
 332:Generated_Source\PSoC6\pdl\drivers/peripheral/gpio/cy_gpio.h **** #define CY_GPIO_PRT_INTR_CFG_RANGE_MASK        (CY_GPIO_PRT_INTR_CFG_EDGE_SEL_MASK | \
 333:Generated_Source\PSoC6\pdl\drivers/peripheral/gpio/cy_gpio.h ****                                                 GPIO_PRT_INTR_CFG_FLT_EDGE_SEL_Msk | \
 334:Generated_Source\PSoC6\pdl\drivers/peripheral/gpio/cy_gpio.h ****                                                 GPIO_PRT_INTR_CFG_FLT_SEL_Msk)
 335:Generated_Source\PSoC6\pdl\drivers/peripheral/gpio/cy_gpio.h **** #define CY_GPIO_PRT_INT_MASK_MASK              (0x0000001FFUL)
 336:Generated_Source\PSoC6\pdl\drivers/peripheral/gpio/cy_gpio.h **** #define CY_GPIO_PRT_SEL_ACTIVE_MASK            (0x1FFFFFFFUL)
 337:Generated_Source\PSoC6\pdl\drivers/peripheral/gpio/cy_gpio.h **** 
 338:Generated_Source\PSoC6\pdl\drivers/peripheral/gpio/cy_gpio.h **** #define GPIO_MAX_SPLIT_CELL_SEGMENTS           (9U)
 339:Generated_Source\PSoC6\pdl\drivers/peripheral/gpio/cy_gpio.h **** 
 340:Generated_Source\PSoC6\pdl\drivers/peripheral/gpio/cy_gpio.h **** /* Parameter validation macros */
 341:Generated_Source\PSoC6\pdl\drivers/peripheral/gpio/cy_gpio.h **** #define CY_GPIO_IS_PIN_VALID(pinNum)           (CY_GPIO_PINS_MAX > (pinNum))
 342:Generated_Source\PSoC6\pdl\drivers/peripheral/gpio/cy_gpio.h **** #define CY_GPIO_IS_FILTER_PIN_VALID(pinNum)    (CY_GPIO_PINS_MAX >= (pinNum))
 343:Generated_Source\PSoC6\pdl\drivers/peripheral/gpio/cy_gpio.h **** #define CY_GPIO_IS_VALUE_VALID(outVal)         (1UL >= (outVal))
 344:Generated_Source\PSoC6\pdl\drivers/peripheral/gpio/cy_gpio.h **** #define CY_GPIO_IS_DM_VALID(driveMode)         (0U == ((driveMode) & (uint32_t)~CY_GPIO_CFG_DM_MASK
 345:Generated_Source\PSoC6\pdl\drivers/peripheral/gpio/cy_gpio.h **** 
ARM GAS  C:\Users\Austina\AppData\Local\Temp\cc8acxV8.s 			page 34


 346:Generated_Source\PSoC6\pdl\drivers/peripheral/gpio/cy_gpio.h **** #define CY_GPIO_IS_HSIOM_VALID(hsiom)          (0U == ((hsiom) & (uint32_t)~CY_GPIO_HSIOM_MASK))
 347:Generated_Source\PSoC6\pdl\drivers/peripheral/gpio/cy_gpio.h **** 
 348:Generated_Source\PSoC6\pdl\drivers/peripheral/gpio/cy_gpio.h **** #define CY_GPIO_IS_INT_EDGE_VALID(intEdge)     ((CY_GPIO_INTR_DISABLE  == (intEdge)) || \
 349:Generated_Source\PSoC6\pdl\drivers/peripheral/gpio/cy_gpio.h ****                                                 (CY_GPIO_INTR_RISING   == (intEdge)) || \
 350:Generated_Source\PSoC6\pdl\drivers/peripheral/gpio/cy_gpio.h ****                                                 (CY_GPIO_INTR_FALLING  == (intEdge)) || \
 351:Generated_Source\PSoC6\pdl\drivers/peripheral/gpio/cy_gpio.h ****                                                 (CY_GPIO_INTR_BOTH     == (intEdge)))
 352:Generated_Source\PSoC6\pdl\drivers/peripheral/gpio/cy_gpio.h **** 
 353:Generated_Source\PSoC6\pdl\drivers/peripheral/gpio/cy_gpio.h **** #define CY_GPIO_IS_DRIVE_SEL_VALID(driveSel)   ((CY_GPIO_DRIVE_FULL    == (driveSel)) || \
 354:Generated_Source\PSoC6\pdl\drivers/peripheral/gpio/cy_gpio.h ****                                                 (CY_GPIO_DRIVE_1_2     == (driveSel)) || \
 355:Generated_Source\PSoC6\pdl\drivers/peripheral/gpio/cy_gpio.h ****                                                 (CY_GPIO_DRIVE_1_4     == (driveSel)) || \
 356:Generated_Source\PSoC6\pdl\drivers/peripheral/gpio/cy_gpio.h ****                                                 (CY_GPIO_DRIVE_1_8     == (driveSel)))
 357:Generated_Source\PSoC6\pdl\drivers/peripheral/gpio/cy_gpio.h **** 
 358:Generated_Source\PSoC6\pdl\drivers/peripheral/gpio/cy_gpio.h **** #define CY_GPIO_IS_VREF_SEL_VALID(vrefSel)     ((CY_SIO_VREF_PINREF    == (vrefSel)) || \
 359:Generated_Source\PSoC6\pdl\drivers/peripheral/gpio/cy_gpio.h ****                                                 (CY_SIO_VREF_1_2V      == (vrefSel)) || \
 360:Generated_Source\PSoC6\pdl\drivers/peripheral/gpio/cy_gpio.h ****                                                 (CY_SIO_VREF_AMUX_A    == (vrefSel)) || \
 361:Generated_Source\PSoC6\pdl\drivers/peripheral/gpio/cy_gpio.h ****                                                 (CY_SIO_VREF_AMUX_B    == (vrefSel)))
 362:Generated_Source\PSoC6\pdl\drivers/peripheral/gpio/cy_gpio.h **** 
 363:Generated_Source\PSoC6\pdl\drivers/peripheral/gpio/cy_gpio.h **** #define CY_GPIO_IS_VOH_SEL_VALID(vrefSel)      ((CY_SIO_VOH_1_00       == (vrefSel)) || \
 364:Generated_Source\PSoC6\pdl\drivers/peripheral/gpio/cy_gpio.h ****                                                 (CY_SIO_VOH_1_25       == (vrefSel)) || \
 365:Generated_Source\PSoC6\pdl\drivers/peripheral/gpio/cy_gpio.h ****                                                 (CY_SIO_VOH_1_49       == (vrefSel)) || \
 366:Generated_Source\PSoC6\pdl\drivers/peripheral/gpio/cy_gpio.h ****                                                 (CY_SIO_VOH_1_67       == (vrefSel)) || \
 367:Generated_Source\PSoC6\pdl\drivers/peripheral/gpio/cy_gpio.h ****                                                 (CY_SIO_VOH_2_08       == (vrefSel)) || \
 368:Generated_Source\PSoC6\pdl\drivers/peripheral/gpio/cy_gpio.h ****                                                 (CY_SIO_VOH_2_50       == (vrefSel)) || \
 369:Generated_Source\PSoC6\pdl\drivers/peripheral/gpio/cy_gpio.h ****                                                 (CY_SIO_VOH_2_78       == (vrefSel)) || \
 370:Generated_Source\PSoC6\pdl\drivers/peripheral/gpio/cy_gpio.h ****                                                 (CY_SIO_VOH_4_16       == (vrefSel)))
 371:Generated_Source\PSoC6\pdl\drivers/peripheral/gpio/cy_gpio.h ****                    
 372:Generated_Source\PSoC6\pdl\drivers/peripheral/gpio/cy_gpio.h **** #define CY_GPIO_IS_PIN_BIT_VALID(pinBit)       (0U == ((pinBit) & (uint32_t)~CY_GPIO_PRT_PINS_MASK)
 373:Generated_Source\PSoC6\pdl\drivers/peripheral/gpio/cy_gpio.h **** #define CY_GPIO_IS_INTR_CFG_VALID(intrCfg)     (0U == ((intrCfg) & (uint32_t)~CY_GPIO_PRT_INTR_CFG_
 374:Generated_Source\PSoC6\pdl\drivers/peripheral/gpio/cy_gpio.h **** #define CY_GPIO_IS_INTR_MASK_VALID(intrMask)   (0U == ((intrMask) & (uint32_t)~CY_GPIO_PRT_INT_MASK
 375:Generated_Source\PSoC6\pdl\drivers/peripheral/gpio/cy_gpio.h **** #define CY_GPIO_IS_SEL_ACT_VALID(selActive)    (0U == ((selActive) & (uint32_t)~CY_GPIO_PRT_SEL_ACT
 376:Generated_Source\PSoC6\pdl\drivers/peripheral/gpio/cy_gpio.h **** 
 377:Generated_Source\PSoC6\pdl\drivers/peripheral/gpio/cy_gpio.h **** #define CY_GPIO_IS_AMUX_SPLIT_VALID(switchCtrl)       (((uint32_t) (switchCtrl)) < GPIO_MAX_SPLIT_C
 378:Generated_Source\PSoC6\pdl\drivers/peripheral/gpio/cy_gpio.h **** 
 379:Generated_Source\PSoC6\pdl\drivers/peripheral/gpio/cy_gpio.h **** #define CY_GPIO_IS_AMUX_CONNECT_VALID(amuxConnect)    ((CY_GPIO_AMUX_OPENALL == (amuxConnect)) || \
 380:Generated_Source\PSoC6\pdl\drivers/peripheral/gpio/cy_gpio.h ****                                                        (CY_GPIO_AMUX_L       == (amuxConnect)) || \
 381:Generated_Source\PSoC6\pdl\drivers/peripheral/gpio/cy_gpio.h ****                                                        (CY_GPIO_AMUX_R       == (amuxConnect)) || \
 382:Generated_Source\PSoC6\pdl\drivers/peripheral/gpio/cy_gpio.h ****                                                        (CY_GPIO_AMUX_LR      == (amuxConnect)) || \
 383:Generated_Source\PSoC6\pdl\drivers/peripheral/gpio/cy_gpio.h ****                                                        (CY_GPIO_AMUX_G       == (amuxConnect)) || \
 384:Generated_Source\PSoC6\pdl\drivers/peripheral/gpio/cy_gpio.h ****                                                        (CY_GPIO_AMUX_GL      == (amuxConnect)) || \
 385:Generated_Source\PSoC6\pdl\drivers/peripheral/gpio/cy_gpio.h ****                                                        (CY_GPIO_AMUX_GR      == (amuxConnect)) || \
 386:Generated_Source\PSoC6\pdl\drivers/peripheral/gpio/cy_gpio.h ****                                                        (CY_GPIO_AMUX_GLR     == (amuxConnect)))
 387:Generated_Source\PSoC6\pdl\drivers/peripheral/gpio/cy_gpio.h **** 
 388:Generated_Source\PSoC6\pdl\drivers/peripheral/gpio/cy_gpio.h **** #define CY_GPIO_IS_AMUX_SELECT_VALID(amuxBus)       ((CY_GPIO_AMUXBUSA       == (amuxBus)) || \
 389:Generated_Source\PSoC6\pdl\drivers/peripheral/gpio/cy_gpio.h ****                                                      (CY_GPIO_AMUXBUSB       == (amuxBus)))
 390:Generated_Source\PSoC6\pdl\drivers/peripheral/gpio/cy_gpio.h **** /** \endcond */
 391:Generated_Source\PSoC6\pdl\drivers/peripheral/gpio/cy_gpio.h **** 
 392:Generated_Source\PSoC6\pdl\drivers/peripheral/gpio/cy_gpio.h **** 
 393:Generated_Source\PSoC6\pdl\drivers/peripheral/gpio/cy_gpio.h **** /***************************************
 394:Generated_Source\PSoC6\pdl\drivers/peripheral/gpio/cy_gpio.h **** *        Function Constants
 395:Generated_Source\PSoC6\pdl\drivers/peripheral/gpio/cy_gpio.h **** ***************************************/
 396:Generated_Source\PSoC6\pdl\drivers/peripheral/gpio/cy_gpio.h **** 
 397:Generated_Source\PSoC6\pdl\drivers/peripheral/gpio/cy_gpio.h **** /**
 398:Generated_Source\PSoC6\pdl\drivers/peripheral/gpio/cy_gpio.h **** * \addtogroup group_gpio_macros
 399:Generated_Source\PSoC6\pdl\drivers/peripheral/gpio/cy_gpio.h **** * \{
 400:Generated_Source\PSoC6\pdl\drivers/peripheral/gpio/cy_gpio.h **** */
 401:Generated_Source\PSoC6\pdl\drivers/peripheral/gpio/cy_gpio.h **** 
 402:Generated_Source\PSoC6\pdl\drivers/peripheral/gpio/cy_gpio.h **** /**
ARM GAS  C:\Users\Austina\AppData\Local\Temp\cc8acxV8.s 			page 35


 403:Generated_Source\PSoC6\pdl\drivers/peripheral/gpio/cy_gpio.h **** * \defgroup group_gpio_driveModes Pin drive mode
 404:Generated_Source\PSoC6\pdl\drivers/peripheral/gpio/cy_gpio.h **** * \{
 405:Generated_Source\PSoC6\pdl\drivers/peripheral/gpio/cy_gpio.h **** * Constants to be used for setting the drive mode of the pin.
 406:Generated_Source\PSoC6\pdl\drivers/peripheral/gpio/cy_gpio.h **** */
 407:Generated_Source\PSoC6\pdl\drivers/peripheral/gpio/cy_gpio.h **** #define CY_GPIO_DM_ANALOG                      (0x00UL) /**< Analog High-Z. Input buffer off */
 408:Generated_Source\PSoC6\pdl\drivers/peripheral/gpio/cy_gpio.h **** #define CY_GPIO_DM_PULLUP_IN_OFF               (0x02UL) /**< Resistive Pull-Up. Input buffer off */
 409:Generated_Source\PSoC6\pdl\drivers/peripheral/gpio/cy_gpio.h **** #define CY_GPIO_DM_PULLDOWN_IN_OFF             (0x03UL) /**< Resistive Pull-Down. Input buffer off 
 410:Generated_Source\PSoC6\pdl\drivers/peripheral/gpio/cy_gpio.h **** #define CY_GPIO_DM_OD_DRIVESLOW_IN_OFF         (0x04UL) /**< Open Drain, Drives Low. Input buffer o
 411:Generated_Source\PSoC6\pdl\drivers/peripheral/gpio/cy_gpio.h **** #define CY_GPIO_DM_OD_DRIVESHIGH_IN_OFF        (0x05UL) /**< Open Drain, Drives High. Input buffer 
 412:Generated_Source\PSoC6\pdl\drivers/peripheral/gpio/cy_gpio.h **** #define CY_GPIO_DM_STRONG_IN_OFF               (0x06UL) /**< Strong Drive. Input buffer off */
 413:Generated_Source\PSoC6\pdl\drivers/peripheral/gpio/cy_gpio.h **** #define CY_GPIO_DM_PULLUP_DOWN_IN_OFF          (0x07UL) /**< Resistive Pull-Up/Down. Input buffer o
 414:Generated_Source\PSoC6\pdl\drivers/peripheral/gpio/cy_gpio.h **** #define CY_GPIO_DM_HIGHZ                       (0x08UL) /**< Digital High-Z. Input buffer on */
 415:Generated_Source\PSoC6\pdl\drivers/peripheral/gpio/cy_gpio.h **** #define CY_GPIO_DM_PULLUP                      (0x0AUL) /**< Resistive Pull-Up. Input buffer on */
 416:Generated_Source\PSoC6\pdl\drivers/peripheral/gpio/cy_gpio.h **** #define CY_GPIO_DM_PULLDOWN                    (0x0BUL) /**< Resistive Pull-Down. Input buffer on *
 417:Generated_Source\PSoC6\pdl\drivers/peripheral/gpio/cy_gpio.h **** #define CY_GPIO_DM_OD_DRIVESLOW                (0x0CUL) /**< Open Drain, Drives Low. Input buffer o
 418:Generated_Source\PSoC6\pdl\drivers/peripheral/gpio/cy_gpio.h **** #define CY_GPIO_DM_OD_DRIVESHIGH               (0x0DUL) /**< Open Drain, Drives High. Input buffer 
 419:Generated_Source\PSoC6\pdl\drivers/peripheral/gpio/cy_gpio.h **** #define CY_GPIO_DM_STRONG                      (0x0EUL) /**< Strong Drive. Input buffer on */
 420:Generated_Source\PSoC6\pdl\drivers/peripheral/gpio/cy_gpio.h **** #define CY_GPIO_DM_PULLUP_DOWN                 (0x0FUL) /**< Resistive Pull-Up/Down. Input buffer o
 421:Generated_Source\PSoC6\pdl\drivers/peripheral/gpio/cy_gpio.h **** /** \} */
 422:Generated_Source\PSoC6\pdl\drivers/peripheral/gpio/cy_gpio.h **** 
 423:Generated_Source\PSoC6\pdl\drivers/peripheral/gpio/cy_gpio.h **** /**
 424:Generated_Source\PSoC6\pdl\drivers/peripheral/gpio/cy_gpio.h **** * \defgroup group_gpio_vtrip Voltage trip mode
 425:Generated_Source\PSoC6\pdl\drivers/peripheral/gpio/cy_gpio.h **** * \{
 426:Generated_Source\PSoC6\pdl\drivers/peripheral/gpio/cy_gpio.h **** * Constants to be used for setting the voltage trip type on the pin.
 427:Generated_Source\PSoC6\pdl\drivers/peripheral/gpio/cy_gpio.h **** */
 428:Generated_Source\PSoC6\pdl\drivers/peripheral/gpio/cy_gpio.h **** #define CY_GPIO_VTRIP_CMOS                     (0x00UL) /**< Input buffer compatible with CMOS and 
 429:Generated_Source\PSoC6\pdl\drivers/peripheral/gpio/cy_gpio.h **** #define CY_GPIO_VTRIP_TTL                      (0x01UL) /**< Input buffer compatible with TTL and M
 430:Generated_Source\PSoC6\pdl\drivers/peripheral/gpio/cy_gpio.h **** /** \} */
 431:Generated_Source\PSoC6\pdl\drivers/peripheral/gpio/cy_gpio.h **** 
 432:Generated_Source\PSoC6\pdl\drivers/peripheral/gpio/cy_gpio.h **** /**
 433:Generated_Source\PSoC6\pdl\drivers/peripheral/gpio/cy_gpio.h **** * \defgroup group_gpio_slewRate Slew Rate Mode
 434:Generated_Source\PSoC6\pdl\drivers/peripheral/gpio/cy_gpio.h **** * \{
 435:Generated_Source\PSoC6\pdl\drivers/peripheral/gpio/cy_gpio.h **** * Constants to be used for setting the slew rate of the pin.
 436:Generated_Source\PSoC6\pdl\drivers/peripheral/gpio/cy_gpio.h **** */
 437:Generated_Source\PSoC6\pdl\drivers/peripheral/gpio/cy_gpio.h **** #define CY_GPIO_SLEW_FAST                      (0x00UL) /**< Fast slew rate */
 438:Generated_Source\PSoC6\pdl\drivers/peripheral/gpio/cy_gpio.h **** #define CY_GPIO_SLEW_SLOW                      (0x01UL) /**< Slow slew rate */
 439:Generated_Source\PSoC6\pdl\drivers/peripheral/gpio/cy_gpio.h **** /** \} */
 440:Generated_Source\PSoC6\pdl\drivers/peripheral/gpio/cy_gpio.h **** 
 441:Generated_Source\PSoC6\pdl\drivers/peripheral/gpio/cy_gpio.h **** /**
 442:Generated_Source\PSoC6\pdl\drivers/peripheral/gpio/cy_gpio.h **** * \defgroup group_gpio_driveStrength Pin drive strength
 443:Generated_Source\PSoC6\pdl\drivers/peripheral/gpio/cy_gpio.h **** * \{
 444:Generated_Source\PSoC6\pdl\drivers/peripheral/gpio/cy_gpio.h **** * Constants to be used for setting the drive strength of the pin.
 445:Generated_Source\PSoC6\pdl\drivers/peripheral/gpio/cy_gpio.h **** */
 446:Generated_Source\PSoC6\pdl\drivers/peripheral/gpio/cy_gpio.h **** #define CY_GPIO_DRIVE_FULL                     (0x00UL) /**< Full drive strength: Max drive current
 447:Generated_Source\PSoC6\pdl\drivers/peripheral/gpio/cy_gpio.h **** #define CY_GPIO_DRIVE_1_2                      (0x01UL) /**< 1/2 drive strength: 1/2 drive current 
 448:Generated_Source\PSoC6\pdl\drivers/peripheral/gpio/cy_gpio.h **** #define CY_GPIO_DRIVE_1_4                      (0x02UL) /**< 1/4 drive strength: 1/4 drive current 
 449:Generated_Source\PSoC6\pdl\drivers/peripheral/gpio/cy_gpio.h **** #define CY_GPIO_DRIVE_1_8                      (0x03UL) /**< 1/8 drive strength: 1/8 drive current 
 450:Generated_Source\PSoC6\pdl\drivers/peripheral/gpio/cy_gpio.h **** /** \} */
 451:Generated_Source\PSoC6\pdl\drivers/peripheral/gpio/cy_gpio.h **** 
 452:Generated_Source\PSoC6\pdl\drivers/peripheral/gpio/cy_gpio.h **** /**
 453:Generated_Source\PSoC6\pdl\drivers/peripheral/gpio/cy_gpio.h **** * \defgroup group_gpio_interruptTrigger Interrupt trigger type
 454:Generated_Source\PSoC6\pdl\drivers/peripheral/gpio/cy_gpio.h **** * \{
 455:Generated_Source\PSoC6\pdl\drivers/peripheral/gpio/cy_gpio.h **** * Constants to be used for setting the interrupt trigger type on the pin.
 456:Generated_Source\PSoC6\pdl\drivers/peripheral/gpio/cy_gpio.h **** */
 457:Generated_Source\PSoC6\pdl\drivers/peripheral/gpio/cy_gpio.h **** #define CY_GPIO_INTR_DISABLE                   (0x00UL) /**< Disable the pin interrupt generation *
 458:Generated_Source\PSoC6\pdl\drivers/peripheral/gpio/cy_gpio.h **** #define CY_GPIO_INTR_RISING                    (0x01UL) /**< Rising-Edge interrupt */
 459:Generated_Source\PSoC6\pdl\drivers/peripheral/gpio/cy_gpio.h **** #define CY_GPIO_INTR_FALLING                   (0x02UL) /**< Falling-Edge interrupt */
ARM GAS  C:\Users\Austina\AppData\Local\Temp\cc8acxV8.s 			page 36


 460:Generated_Source\PSoC6\pdl\drivers/peripheral/gpio/cy_gpio.h **** #define CY_GPIO_INTR_BOTH                      (0x03UL) /**< Both-Edge interrupt */
 461:Generated_Source\PSoC6\pdl\drivers/peripheral/gpio/cy_gpio.h **** /** \} */
 462:Generated_Source\PSoC6\pdl\drivers/peripheral/gpio/cy_gpio.h **** 
 463:Generated_Source\PSoC6\pdl\drivers/peripheral/gpio/cy_gpio.h **** /**
 464:Generated_Source\PSoC6\pdl\drivers/peripheral/gpio/cy_gpio.h **** * \defgroup group_gpio_sioVreg SIO output buffer mode
 465:Generated_Source\PSoC6\pdl\drivers/peripheral/gpio/cy_gpio.h **** * \{
 466:Generated_Source\PSoC6\pdl\drivers/peripheral/gpio/cy_gpio.h **** * Constants to be used for setting the SIO output buffer mode on the pin.
 467:Generated_Source\PSoC6\pdl\drivers/peripheral/gpio/cy_gpio.h **** */
 468:Generated_Source\PSoC6\pdl\drivers/peripheral/gpio/cy_gpio.h **** #define CY_SIO_VREG_UNREGULATED                (0x00UL) /**< Unregulated output buffer */
 469:Generated_Source\PSoC6\pdl\drivers/peripheral/gpio/cy_gpio.h **** #define CY_SIO_VREG_REGULATED                  (0x01UL) /**< Regulated output buffer */
 470:Generated_Source\PSoC6\pdl\drivers/peripheral/gpio/cy_gpio.h **** /** \} */
 471:Generated_Source\PSoC6\pdl\drivers/peripheral/gpio/cy_gpio.h **** 
 472:Generated_Source\PSoC6\pdl\drivers/peripheral/gpio/cy_gpio.h **** /**
 473:Generated_Source\PSoC6\pdl\drivers/peripheral/gpio/cy_gpio.h **** * \defgroup group_gpio_sioIbuf SIO input buffer mode
 474:Generated_Source\PSoC6\pdl\drivers/peripheral/gpio/cy_gpio.h **** * \{
 475:Generated_Source\PSoC6\pdl\drivers/peripheral/gpio/cy_gpio.h **** * Constants to be used for setting the SIO input buffer mode on the pin.
 476:Generated_Source\PSoC6\pdl\drivers/peripheral/gpio/cy_gpio.h **** */
 477:Generated_Source\PSoC6\pdl\drivers/peripheral/gpio/cy_gpio.h **** #define CY_SIO_IBUF_SINGLEENDED                (0x00UL) /**< Single ended input buffer */
 478:Generated_Source\PSoC6\pdl\drivers/peripheral/gpio/cy_gpio.h **** #define CY_SIO_IBUF_DIFFERENTIAL               (0x01UL) /**< Differential input buffer */
 479:Generated_Source\PSoC6\pdl\drivers/peripheral/gpio/cy_gpio.h **** /** \} */
 480:Generated_Source\PSoC6\pdl\drivers/peripheral/gpio/cy_gpio.h **** 
 481:Generated_Source\PSoC6\pdl\drivers/peripheral/gpio/cy_gpio.h **** /**
 482:Generated_Source\PSoC6\pdl\drivers/peripheral/gpio/cy_gpio.h **** * \defgroup group_gpio_sioVtrip SIO input buffer trip-point
 483:Generated_Source\PSoC6\pdl\drivers/peripheral/gpio/cy_gpio.h **** * \{
 484:Generated_Source\PSoC6\pdl\drivers/peripheral/gpio/cy_gpio.h **** * Constants to be used for setting the SIO input buffer trip-point of the pin.
 485:Generated_Source\PSoC6\pdl\drivers/peripheral/gpio/cy_gpio.h **** */
 486:Generated_Source\PSoC6\pdl\drivers/peripheral/gpio/cy_gpio.h **** #define CY_SIO_VTRIP_CMOS                      (0x00UL) /**< CMOS input buffer (single-ended) */
 487:Generated_Source\PSoC6\pdl\drivers/peripheral/gpio/cy_gpio.h **** #define CY_SIO_VTRIP_TTL                       (0x01UL) /**< TTL input buffer (single-ended) */
 488:Generated_Source\PSoC6\pdl\drivers/peripheral/gpio/cy_gpio.h **** #define CY_SIO_VTRIP_0_5VDDIO_0_5VOH           (0x00UL) /**< 0.5xVddio or 0.5xVoh (differential) */
 489:Generated_Source\PSoC6\pdl\drivers/peripheral/gpio/cy_gpio.h **** #define CY_SIO_VTRIP_0_4VDDIO_1_0VREF          (0x01UL) /**< 0.4xVddio or 0.4xVoh (differential) */
 490:Generated_Source\PSoC6\pdl\drivers/peripheral/gpio/cy_gpio.h **** /** \} */
 491:Generated_Source\PSoC6\pdl\drivers/peripheral/gpio/cy_gpio.h **** 
 492:Generated_Source\PSoC6\pdl\drivers/peripheral/gpio/cy_gpio.h **** /**
 493:Generated_Source\PSoC6\pdl\drivers/peripheral/gpio/cy_gpio.h **** * \defgroup group_gpio_sioVref SIO reference voltage for input buffer trip-point
 494:Generated_Source\PSoC6\pdl\drivers/peripheral/gpio/cy_gpio.h **** * \{
 495:Generated_Source\PSoC6\pdl\drivers/peripheral/gpio/cy_gpio.h **** * Constants to be used for setting the reference voltage of SIO input buffer trip-point.
 496:Generated_Source\PSoC6\pdl\drivers/peripheral/gpio/cy_gpio.h **** */
 497:Generated_Source\PSoC6\pdl\drivers/peripheral/gpio/cy_gpio.h **** #define CY_SIO_VREF_PINREF                     (0x00UL) /**< Vref from analog pin */
 498:Generated_Source\PSoC6\pdl\drivers/peripheral/gpio/cy_gpio.h **** #define CY_SIO_VREF_1_2V                       (0x01UL) /**< Vref from internal 1.2V reference */
 499:Generated_Source\PSoC6\pdl\drivers/peripheral/gpio/cy_gpio.h **** #define CY_SIO_VREF_AMUX_A                     (0x02UL) /**< Vref from AMUXBUS_A */
 500:Generated_Source\PSoC6\pdl\drivers/peripheral/gpio/cy_gpio.h **** #define CY_SIO_VREF_AMUX_B                     (0x03UL) /**< Vref from AMUXBUS_B */
 501:Generated_Source\PSoC6\pdl\drivers/peripheral/gpio/cy_gpio.h **** /** \} */
 502:Generated_Source\PSoC6\pdl\drivers/peripheral/gpio/cy_gpio.h **** 
 503:Generated_Source\PSoC6\pdl\drivers/peripheral/gpio/cy_gpio.h **** /**
 504:Generated_Source\PSoC6\pdl\drivers/peripheral/gpio/cy_gpio.h **** * \defgroup group_gpio_sioVoh Regulated output voltage level (Voh) and input buffer trip-point of a
 505:Generated_Source\PSoC6\pdl\drivers/peripheral/gpio/cy_gpio.h **** * \{
 506:Generated_Source\PSoC6\pdl\drivers/peripheral/gpio/cy_gpio.h **** * Constants to be used for setting the Voh and input buffer trip-point of an SIO pair
 507:Generated_Source\PSoC6\pdl\drivers/peripheral/gpio/cy_gpio.h **** */
 508:Generated_Source\PSoC6\pdl\drivers/peripheral/gpio/cy_gpio.h **** #define CY_SIO_VOH_1_00                        (0x00UL) /**< Voh = 1 x Reference */
 509:Generated_Source\PSoC6\pdl\drivers/peripheral/gpio/cy_gpio.h **** #define CY_SIO_VOH_1_25                        (0x01UL) /**< Voh = 1.25 x Reference */
 510:Generated_Source\PSoC6\pdl\drivers/peripheral/gpio/cy_gpio.h **** #define CY_SIO_VOH_1_49                        (0x02UL) /**< Voh = 1.49 x Reference */
 511:Generated_Source\PSoC6\pdl\drivers/peripheral/gpio/cy_gpio.h **** #define CY_SIO_VOH_1_67                        (0x03UL) /**< Voh = 1.67 x Reference */
 512:Generated_Source\PSoC6\pdl\drivers/peripheral/gpio/cy_gpio.h **** #define CY_SIO_VOH_2_08                        (0x04UL) /**< Voh = 2.08 x Reference */
 513:Generated_Source\PSoC6\pdl\drivers/peripheral/gpio/cy_gpio.h **** #define CY_SIO_VOH_2_50                        (0x05UL) /**< Voh = 2.50 x Reference */
 514:Generated_Source\PSoC6\pdl\drivers/peripheral/gpio/cy_gpio.h **** #define CY_SIO_VOH_2_78                        (0x06UL) /**< Voh = 2.78 x Reference */
 515:Generated_Source\PSoC6\pdl\drivers/peripheral/gpio/cy_gpio.h **** #define CY_SIO_VOH_4_16                        (0x07UL) /**< Voh = 4.16 x Reference */
 516:Generated_Source\PSoC6\pdl\drivers/peripheral/gpio/cy_gpio.h **** /** \} */
ARM GAS  C:\Users\Austina\AppData\Local\Temp\cc8acxV8.s 			page 37


 517:Generated_Source\PSoC6\pdl\drivers/peripheral/gpio/cy_gpio.h **** 
 518:Generated_Source\PSoC6\pdl\drivers/peripheral/gpio/cy_gpio.h **** /** \} group_gpio_macros */
 519:Generated_Source\PSoC6\pdl\drivers/peripheral/gpio/cy_gpio.h **** 
 520:Generated_Source\PSoC6\pdl\drivers/peripheral/gpio/cy_gpio.h **** /***************************************
 521:Generated_Source\PSoC6\pdl\drivers/peripheral/gpio/cy_gpio.h **** *        Function Prototypes
 522:Generated_Source\PSoC6\pdl\drivers/peripheral/gpio/cy_gpio.h **** ***************************************/
 523:Generated_Source\PSoC6\pdl\drivers/peripheral/gpio/cy_gpio.h **** 
 524:Generated_Source\PSoC6\pdl\drivers/peripheral/gpio/cy_gpio.h **** /**
 525:Generated_Source\PSoC6\pdl\drivers/peripheral/gpio/cy_gpio.h **** * \addtogroup group_gpio_functions
 526:Generated_Source\PSoC6\pdl\drivers/peripheral/gpio/cy_gpio.h **** * \{
 527:Generated_Source\PSoC6\pdl\drivers/peripheral/gpio/cy_gpio.h **** */
 528:Generated_Source\PSoC6\pdl\drivers/peripheral/gpio/cy_gpio.h **** 
 529:Generated_Source\PSoC6\pdl\drivers/peripheral/gpio/cy_gpio.h **** /**
 530:Generated_Source\PSoC6\pdl\drivers/peripheral/gpio/cy_gpio.h **** * \addtogroup group_gpio_functions_init
 531:Generated_Source\PSoC6\pdl\drivers/peripheral/gpio/cy_gpio.h **** * \{
 532:Generated_Source\PSoC6\pdl\drivers/peripheral/gpio/cy_gpio.h **** */
 533:Generated_Source\PSoC6\pdl\drivers/peripheral/gpio/cy_gpio.h **** 
 534:Generated_Source\PSoC6\pdl\drivers/peripheral/gpio/cy_gpio.h **** cy_en_gpio_status_t Cy_GPIO_Pin_Init(GPIO_PRT_Type* base, uint32_t pinNum, const cy_stc_gpio_pin_co
 535:Generated_Source\PSoC6\pdl\drivers/peripheral/gpio/cy_gpio.h **** cy_en_gpio_status_t Cy_GPIO_Port_Init(GPIO_PRT_Type* base, const cy_stc_gpio_prt_config_t *config);
 536:Generated_Source\PSoC6\pdl\drivers/peripheral/gpio/cy_gpio.h **** void Cy_GPIO_Pin_FastInit(GPIO_PRT_Type* base, uint32_t pinNum, uint32_t driveMode, uint32_t outVal
 537:Generated_Source\PSoC6\pdl\drivers/peripheral/gpio/cy_gpio.h **** void Cy_GPIO_Port_Deinit(GPIO_PRT_Type* base);
 538:Generated_Source\PSoC6\pdl\drivers/peripheral/gpio/cy_gpio.h **** __STATIC_INLINE void Cy_GPIO_SetHSIOM(GPIO_PRT_Type* base, uint32_t pinNum, en_hsiom_sel_t value);
 539:Generated_Source\PSoC6\pdl\drivers/peripheral/gpio/cy_gpio.h **** __STATIC_INLINE en_hsiom_sel_t Cy_GPIO_GetHSIOM(GPIO_PRT_Type* base, uint32_t pinNum);
 540:Generated_Source\PSoC6\pdl\drivers/peripheral/gpio/cy_gpio.h **** __STATIC_INLINE GPIO_PRT_Type* Cy_GPIO_PortToAddr(uint32_t portNum);
 541:Generated_Source\PSoC6\pdl\drivers/peripheral/gpio/cy_gpio.h **** 
 542:Generated_Source\PSoC6\pdl\drivers/peripheral/gpio/cy_gpio.h **** /** \} group_gpio_functions_init */
 543:Generated_Source\PSoC6\pdl\drivers/peripheral/gpio/cy_gpio.h **** 
 544:Generated_Source\PSoC6\pdl\drivers/peripheral/gpio/cy_gpio.h **** /**
 545:Generated_Source\PSoC6\pdl\drivers/peripheral/gpio/cy_gpio.h **** * \addtogroup group_gpio_functions_gpio
 546:Generated_Source\PSoC6\pdl\drivers/peripheral/gpio/cy_gpio.h **** * \{
 547:Generated_Source\PSoC6\pdl\drivers/peripheral/gpio/cy_gpio.h **** */
 548:Generated_Source\PSoC6\pdl\drivers/peripheral/gpio/cy_gpio.h **** 
 549:Generated_Source\PSoC6\pdl\drivers/peripheral/gpio/cy_gpio.h **** void Cy_GPIO_SetAmuxSplit(cy_en_amux_split_t switchCtrl, cy_en_gpio_amuxconnect_t amuxConnect, cy_e
 550:Generated_Source\PSoC6\pdl\drivers/peripheral/gpio/cy_gpio.h **** cy_en_gpio_amuxconnect_t Cy_GPIO_GetAmuxSplit(cy_en_amux_split_t switchCtrl, cy_en_gpio_amuxselect_
 551:Generated_Source\PSoC6\pdl\drivers/peripheral/gpio/cy_gpio.h **** 
 552:Generated_Source\PSoC6\pdl\drivers/peripheral/gpio/cy_gpio.h **** __STATIC_INLINE uint32_t Cy_GPIO_Read(GPIO_PRT_Type* base, uint32_t pinNum);
 553:Generated_Source\PSoC6\pdl\drivers/peripheral/gpio/cy_gpio.h **** __STATIC_INLINE void Cy_GPIO_Write(GPIO_PRT_Type* base, uint32_t pinNum, uint32_t value);
 554:Generated_Source\PSoC6\pdl\drivers/peripheral/gpio/cy_gpio.h **** __STATIC_INLINE uint32_t Cy_GPIO_ReadOut(GPIO_PRT_Type* base, uint32_t pinNum);
 555:Generated_Source\PSoC6\pdl\drivers/peripheral/gpio/cy_gpio.h **** __STATIC_INLINE void Cy_GPIO_Set(GPIO_PRT_Type* base, uint32_t pinNum);
 556:Generated_Source\PSoC6\pdl\drivers/peripheral/gpio/cy_gpio.h **** __STATIC_INLINE void Cy_GPIO_Clr(GPIO_PRT_Type* base, uint32_t pinNum);
 557:Generated_Source\PSoC6\pdl\drivers/peripheral/gpio/cy_gpio.h **** __STATIC_INLINE void Cy_GPIO_Inv(GPIO_PRT_Type* base, uint32_t pinNum);
 558:Generated_Source\PSoC6\pdl\drivers/peripheral/gpio/cy_gpio.h **** __STATIC_INLINE void Cy_GPIO_SetDrivemode(GPIO_PRT_Type* base, uint32_t pinNum, uint32_t value);
 559:Generated_Source\PSoC6\pdl\drivers/peripheral/gpio/cy_gpio.h **** __STATIC_INLINE uint32_t Cy_GPIO_GetDrivemode(GPIO_PRT_Type* base, uint32_t pinNum);
 560:Generated_Source\PSoC6\pdl\drivers/peripheral/gpio/cy_gpio.h **** __STATIC_INLINE void Cy_GPIO_SetVtrip(GPIO_PRT_Type* base, uint32_t pinNum, uint32_t value);
 561:Generated_Source\PSoC6\pdl\drivers/peripheral/gpio/cy_gpio.h **** __STATIC_INLINE uint32_t Cy_GPIO_GetVtrip(GPIO_PRT_Type* base, uint32_t pinNum);
 562:Generated_Source\PSoC6\pdl\drivers/peripheral/gpio/cy_gpio.h **** __STATIC_INLINE void Cy_GPIO_SetSlewRate(GPIO_PRT_Type* base, uint32_t pinNum, uint32_t value);
 563:Generated_Source\PSoC6\pdl\drivers/peripheral/gpio/cy_gpio.h **** __STATIC_INLINE uint32_t Cy_GPIO_GetSlewRate(GPIO_PRT_Type* base, uint32_t pinNum);
 564:Generated_Source\PSoC6\pdl\drivers/peripheral/gpio/cy_gpio.h **** __STATIC_INLINE void Cy_GPIO_SetDriveSel(GPIO_PRT_Type* base, uint32_t pinNum, uint32_t value);
 565:Generated_Source\PSoC6\pdl\drivers/peripheral/gpio/cy_gpio.h **** __STATIC_INLINE uint32_t Cy_GPIO_GetDriveSel(GPIO_PRT_Type* base, uint32_t pinNum);
 566:Generated_Source\PSoC6\pdl\drivers/peripheral/gpio/cy_gpio.h **** 
 567:Generated_Source\PSoC6\pdl\drivers/peripheral/gpio/cy_gpio.h **** /** \} group_gpio_functions_gpio */
 568:Generated_Source\PSoC6\pdl\drivers/peripheral/gpio/cy_gpio.h **** 
 569:Generated_Source\PSoC6\pdl\drivers/peripheral/gpio/cy_gpio.h **** /**
 570:Generated_Source\PSoC6\pdl\drivers/peripheral/gpio/cy_gpio.h **** * \addtogroup group_gpio_functions_sio
 571:Generated_Source\PSoC6\pdl\drivers/peripheral/gpio/cy_gpio.h **** * \{
 572:Generated_Source\PSoC6\pdl\drivers/peripheral/gpio/cy_gpio.h **** */
 573:Generated_Source\PSoC6\pdl\drivers/peripheral/gpio/cy_gpio.h **** 
ARM GAS  C:\Users\Austina\AppData\Local\Temp\cc8acxV8.s 			page 38


 574:Generated_Source\PSoC6\pdl\drivers/peripheral/gpio/cy_gpio.h **** __STATIC_INLINE void Cy_GPIO_SetVregEn(GPIO_PRT_Type* base, uint32_t pinNum, uint32_t value);
 575:Generated_Source\PSoC6\pdl\drivers/peripheral/gpio/cy_gpio.h **** __STATIC_INLINE uint32_t Cy_GPIO_GetVregEn(GPIO_PRT_Type* base, uint32_t pinNum);
 576:Generated_Source\PSoC6\pdl\drivers/peripheral/gpio/cy_gpio.h **** __STATIC_INLINE void Cy_GPIO_SetIbufMode(GPIO_PRT_Type* base, uint32_t pinNum, uint32_t value);
 577:Generated_Source\PSoC6\pdl\drivers/peripheral/gpio/cy_gpio.h **** __STATIC_INLINE uint32_t Cy_GPIO_GetIbufMode(GPIO_PRT_Type* base, uint32_t pinNum);
 578:Generated_Source\PSoC6\pdl\drivers/peripheral/gpio/cy_gpio.h **** __STATIC_INLINE void Cy_GPIO_SetVtripSel(GPIO_PRT_Type* base, uint32_t pinNum, uint32_t value);
 579:Generated_Source\PSoC6\pdl\drivers/peripheral/gpio/cy_gpio.h **** __STATIC_INLINE uint32_t Cy_GPIO_GetVtripSel(GPIO_PRT_Type* base, uint32_t pinNum);
 580:Generated_Source\PSoC6\pdl\drivers/peripheral/gpio/cy_gpio.h **** __STATIC_INLINE void Cy_GPIO_SetVrefSel(GPIO_PRT_Type* base, uint32_t pinNum, uint32_t value);
 581:Generated_Source\PSoC6\pdl\drivers/peripheral/gpio/cy_gpio.h **** __STATIC_INLINE uint32_t Cy_GPIO_GetVrefSel(GPIO_PRT_Type* base, uint32_t pinNum);
 582:Generated_Source\PSoC6\pdl\drivers/peripheral/gpio/cy_gpio.h **** __STATIC_INLINE void Cy_GPIO_SetVohSel(GPIO_PRT_Type* base, uint32_t pinNum, uint32_t value);
 583:Generated_Source\PSoC6\pdl\drivers/peripheral/gpio/cy_gpio.h **** __STATIC_INLINE uint32_t Cy_GPIO_GetVohSel(GPIO_PRT_Type* base, uint32_t pinNum);
 584:Generated_Source\PSoC6\pdl\drivers/peripheral/gpio/cy_gpio.h **** 
 585:Generated_Source\PSoC6\pdl\drivers/peripheral/gpio/cy_gpio.h **** /** \} group_gpio_functions_sio */
 586:Generated_Source\PSoC6\pdl\drivers/peripheral/gpio/cy_gpio.h **** 
 587:Generated_Source\PSoC6\pdl\drivers/peripheral/gpio/cy_gpio.h **** /**
 588:Generated_Source\PSoC6\pdl\drivers/peripheral/gpio/cy_gpio.h **** * \addtogroup group_gpio_functions_interrupt
 589:Generated_Source\PSoC6\pdl\drivers/peripheral/gpio/cy_gpio.h **** * \{
 590:Generated_Source\PSoC6\pdl\drivers/peripheral/gpio/cy_gpio.h **** */
 591:Generated_Source\PSoC6\pdl\drivers/peripheral/gpio/cy_gpio.h **** 
 592:Generated_Source\PSoC6\pdl\drivers/peripheral/gpio/cy_gpio.h **** __STATIC_INLINE uint32_t Cy_GPIO_GetInterruptStatus(GPIO_PRT_Type* base, uint32_t pinNum);
 593:Generated_Source\PSoC6\pdl\drivers/peripheral/gpio/cy_gpio.h **** __STATIC_INLINE void Cy_GPIO_ClearInterrupt(GPIO_PRT_Type* base, uint32_t pinNum);
 594:Generated_Source\PSoC6\pdl\drivers/peripheral/gpio/cy_gpio.h **** __STATIC_INLINE void Cy_GPIO_SetInterruptMask(GPIO_PRT_Type* base, uint32_t pinNum, uint32_t value)
 595:Generated_Source\PSoC6\pdl\drivers/peripheral/gpio/cy_gpio.h **** __STATIC_INLINE uint32_t Cy_GPIO_GetInterruptMask(GPIO_PRT_Type* base, uint32_t pinNum);
 596:Generated_Source\PSoC6\pdl\drivers/peripheral/gpio/cy_gpio.h **** __STATIC_INLINE uint32_t Cy_GPIO_GetInterruptStatusMasked(GPIO_PRT_Type* base, uint32_t pinNum);
 597:Generated_Source\PSoC6\pdl\drivers/peripheral/gpio/cy_gpio.h **** __STATIC_INLINE void Cy_GPIO_SetSwInterrupt(GPIO_PRT_Type* base, uint32_t pinNum);
 598:Generated_Source\PSoC6\pdl\drivers/peripheral/gpio/cy_gpio.h **** __STATIC_INLINE void Cy_GPIO_SetInterruptEdge(GPIO_PRT_Type* base, uint32_t pinNum, uint32_t value)
 599:Generated_Source\PSoC6\pdl\drivers/peripheral/gpio/cy_gpio.h **** __STATIC_INLINE uint32_t Cy_GPIO_GetInterruptEdge(GPIO_PRT_Type* base, uint32_t pinNum);
 600:Generated_Source\PSoC6\pdl\drivers/peripheral/gpio/cy_gpio.h **** __STATIC_INLINE void Cy_GPIO_SetFilter(GPIO_PRT_Type* base, uint32_t value);
 601:Generated_Source\PSoC6\pdl\drivers/peripheral/gpio/cy_gpio.h **** __STATIC_INLINE uint32_t Cy_GPIO_GetFilter(GPIO_PRT_Type* base);
 602:Generated_Source\PSoC6\pdl\drivers/peripheral/gpio/cy_gpio.h **** 
 603:Generated_Source\PSoC6\pdl\drivers/peripheral/gpio/cy_gpio.h **** __STATIC_INLINE uint32_t Cy_GPIO_GetInterruptCause0(void);
 604:Generated_Source\PSoC6\pdl\drivers/peripheral/gpio/cy_gpio.h **** __STATIC_INLINE uint32_t Cy_GPIO_GetInterruptCause1(void);
 605:Generated_Source\PSoC6\pdl\drivers/peripheral/gpio/cy_gpio.h **** __STATIC_INLINE uint32_t Cy_GPIO_GetInterruptCause2(void);
 606:Generated_Source\PSoC6\pdl\drivers/peripheral/gpio/cy_gpio.h **** __STATIC_INLINE uint32_t Cy_GPIO_GetInterruptCause3(void);
 607:Generated_Source\PSoC6\pdl\drivers/peripheral/gpio/cy_gpio.h **** 
 608:Generated_Source\PSoC6\pdl\drivers/peripheral/gpio/cy_gpio.h **** /** \} group_gpio_functions_interrupt */
 609:Generated_Source\PSoC6\pdl\drivers/peripheral/gpio/cy_gpio.h **** 
 610:Generated_Source\PSoC6\pdl\drivers/peripheral/gpio/cy_gpio.h **** 
 611:Generated_Source\PSoC6\pdl\drivers/peripheral/gpio/cy_gpio.h **** /**
 612:Generated_Source\PSoC6\pdl\drivers/peripheral/gpio/cy_gpio.h **** * \addtogroup group_gpio_functions_init
 613:Generated_Source\PSoC6\pdl\drivers/peripheral/gpio/cy_gpio.h **** * \{
 614:Generated_Source\PSoC6\pdl\drivers/peripheral/gpio/cy_gpio.h **** */
 615:Generated_Source\PSoC6\pdl\drivers/peripheral/gpio/cy_gpio.h **** 
 616:Generated_Source\PSoC6\pdl\drivers/peripheral/gpio/cy_gpio.h **** /*******************************************************************************
 617:Generated_Source\PSoC6\pdl\drivers/peripheral/gpio/cy_gpio.h **** * Function Name: Cy_GPIO_SetHSIOM
 618:Generated_Source\PSoC6\pdl\drivers/peripheral/gpio/cy_gpio.h **** ****************************************************************************//**
 619:Generated_Source\PSoC6\pdl\drivers/peripheral/gpio/cy_gpio.h **** *
 620:Generated_Source\PSoC6\pdl\drivers/peripheral/gpio/cy_gpio.h **** * Configures the HSIOM connection to the pin.
 621:Generated_Source\PSoC6\pdl\drivers/peripheral/gpio/cy_gpio.h **** *
 622:Generated_Source\PSoC6\pdl\drivers/peripheral/gpio/cy_gpio.h **** * Connects the specified High-Speed Input Output Multiplexer (HSIOM) selection
 623:Generated_Source\PSoC6\pdl\drivers/peripheral/gpio/cy_gpio.h **** * to the pin.
 624:Generated_Source\PSoC6\pdl\drivers/peripheral/gpio/cy_gpio.h **** *
 625:Generated_Source\PSoC6\pdl\drivers/peripheral/gpio/cy_gpio.h **** * \param base
 626:Generated_Source\PSoC6\pdl\drivers/peripheral/gpio/cy_gpio.h **** * Pointer to the pin's port register base address
 627:Generated_Source\PSoC6\pdl\drivers/peripheral/gpio/cy_gpio.h **** *
 628:Generated_Source\PSoC6\pdl\drivers/peripheral/gpio/cy_gpio.h **** * \param pinNum
 629:Generated_Source\PSoC6\pdl\drivers/peripheral/gpio/cy_gpio.h **** * Position of the pin bit-field within the port register
 630:Generated_Source\PSoC6\pdl\drivers/peripheral/gpio/cy_gpio.h **** *
ARM GAS  C:\Users\Austina\AppData\Local\Temp\cc8acxV8.s 			page 39


 631:Generated_Source\PSoC6\pdl\drivers/peripheral/gpio/cy_gpio.h **** * \param value
 632:Generated_Source\PSoC6\pdl\drivers/peripheral/gpio/cy_gpio.h **** * HSIOM input selection
 633:Generated_Source\PSoC6\pdl\drivers/peripheral/gpio/cy_gpio.h **** *
 634:Generated_Source\PSoC6\pdl\drivers/peripheral/gpio/cy_gpio.h **** * \note 
 635:Generated_Source\PSoC6\pdl\drivers/peripheral/gpio/cy_gpio.h **** * This function modifies a port register in a read-modify-write operation. It is
 636:Generated_Source\PSoC6\pdl\drivers/peripheral/gpio/cy_gpio.h **** * not thread safe as the resource is shared among multiple pins on a port.
 637:Generated_Source\PSoC6\pdl\drivers/peripheral/gpio/cy_gpio.h **** *
 638:Generated_Source\PSoC6\pdl\drivers/peripheral/gpio/cy_gpio.h **** * \funcusage
 639:Generated_Source\PSoC6\pdl\drivers/peripheral/gpio/cy_gpio.h **** * \snippet gpio/gpio_v1_10_sut_01.cydsn/main_cm4.c snippet_Cy_GPIO_SetHSIOM
 640:Generated_Source\PSoC6\pdl\drivers/peripheral/gpio/cy_gpio.h **** *
 641:Generated_Source\PSoC6\pdl\drivers/peripheral/gpio/cy_gpio.h **** *******************************************************************************/
 642:Generated_Source\PSoC6\pdl\drivers/peripheral/gpio/cy_gpio.h **** __STATIC_INLINE void Cy_GPIO_SetHSIOM(GPIO_PRT_Type* base, uint32_t pinNum, en_hsiom_sel_t value)
 643:Generated_Source\PSoC6\pdl\drivers/peripheral/gpio/cy_gpio.h **** {
 644:Generated_Source\PSoC6\pdl\drivers/peripheral/gpio/cy_gpio.h ****     uint32_t portNum;
 645:Generated_Source\PSoC6\pdl\drivers/peripheral/gpio/cy_gpio.h ****     uint32_t tempReg;
 646:Generated_Source\PSoC6\pdl\drivers/peripheral/gpio/cy_gpio.h ****     HSIOM_PRT_V1_Type* portAddrHSIOM;
 647:Generated_Source\PSoC6\pdl\drivers/peripheral/gpio/cy_gpio.h **** 
 648:Generated_Source\PSoC6\pdl\drivers/peripheral/gpio/cy_gpio.h ****     CY_ASSERT_L2(CY_GPIO_IS_PIN_VALID(pinNum));
 649:Generated_Source\PSoC6\pdl\drivers/peripheral/gpio/cy_gpio.h ****     CY_ASSERT_L2(CY_GPIO_IS_HSIOM_VALID(value));
 650:Generated_Source\PSoC6\pdl\drivers/peripheral/gpio/cy_gpio.h **** 
 651:Generated_Source\PSoC6\pdl\drivers/peripheral/gpio/cy_gpio.h ****     portNum = ((uint32_t)(base) - CY_GPIO_BASE) / GPIO_PRT_SECTION_SIZE;
 652:Generated_Source\PSoC6\pdl\drivers/peripheral/gpio/cy_gpio.h ****     portAddrHSIOM = (HSIOM_PRT_V1_Type*)(CY_HSIOM_BASE + (HSIOM_PRT_SECTION_SIZE * portNum));
 653:Generated_Source\PSoC6\pdl\drivers/peripheral/gpio/cy_gpio.h **** 
 654:Generated_Source\PSoC6\pdl\drivers/peripheral/gpio/cy_gpio.h ****     if(pinNum < CY_GPIO_PRT_HALF)
 655:Generated_Source\PSoC6\pdl\drivers/peripheral/gpio/cy_gpio.h ****     {
 656:Generated_Source\PSoC6\pdl\drivers/peripheral/gpio/cy_gpio.h ****         tempReg = HSIOM_PRT_PORT_SEL0(portAddrHSIOM) & ~(CY_GPIO_HSIOM_MASK << (pinNum << CY_GPIO_H
 657:Generated_Source\PSoC6\pdl\drivers/peripheral/gpio/cy_gpio.h ****         HSIOM_PRT_PORT_SEL0(portAddrHSIOM) = tempReg | ((value & CY_GPIO_HSIOM_MASK) << (pinNum << 
 658:Generated_Source\PSoC6\pdl\drivers/peripheral/gpio/cy_gpio.h ****     }
 659:Generated_Source\PSoC6\pdl\drivers/peripheral/gpio/cy_gpio.h ****     else
 660:Generated_Source\PSoC6\pdl\drivers/peripheral/gpio/cy_gpio.h ****     {
 661:Generated_Source\PSoC6\pdl\drivers/peripheral/gpio/cy_gpio.h ****         pinNum -= CY_GPIO_PRT_HALF;
 662:Generated_Source\PSoC6\pdl\drivers/peripheral/gpio/cy_gpio.h ****         tempReg = HSIOM_PRT_PORT_SEL1(portAddrHSIOM) & ~(CY_GPIO_HSIOM_MASK << (pinNum << CY_GPIO_H
 663:Generated_Source\PSoC6\pdl\drivers/peripheral/gpio/cy_gpio.h ****         HSIOM_PRT_PORT_SEL1(portAddrHSIOM) = tempReg | ((value & CY_GPIO_HSIOM_MASK) << (pinNum << 
 664:Generated_Source\PSoC6\pdl\drivers/peripheral/gpio/cy_gpio.h ****     }
 665:Generated_Source\PSoC6\pdl\drivers/peripheral/gpio/cy_gpio.h **** }
 666:Generated_Source\PSoC6\pdl\drivers/peripheral/gpio/cy_gpio.h **** 
 667:Generated_Source\PSoC6\pdl\drivers/peripheral/gpio/cy_gpio.h **** 
 668:Generated_Source\PSoC6\pdl\drivers/peripheral/gpio/cy_gpio.h **** /*******************************************************************************
 669:Generated_Source\PSoC6\pdl\drivers/peripheral/gpio/cy_gpio.h **** * Function Name: Cy_GPIO_GetHSIOM
 670:Generated_Source\PSoC6\pdl\drivers/peripheral/gpio/cy_gpio.h **** ****************************************************************************//**
 671:Generated_Source\PSoC6\pdl\drivers/peripheral/gpio/cy_gpio.h **** *
 672:Generated_Source\PSoC6\pdl\drivers/peripheral/gpio/cy_gpio.h **** * Returns the current HSIOM multiplexer connection to the pin.
 673:Generated_Source\PSoC6\pdl\drivers/peripheral/gpio/cy_gpio.h **** *
 674:Generated_Source\PSoC6\pdl\drivers/peripheral/gpio/cy_gpio.h **** * \param base
 675:Generated_Source\PSoC6\pdl\drivers/peripheral/gpio/cy_gpio.h **** * Pointer to the pin's port register base address
 676:Generated_Source\PSoC6\pdl\drivers/peripheral/gpio/cy_gpio.h **** *
 677:Generated_Source\PSoC6\pdl\drivers/peripheral/gpio/cy_gpio.h **** * \param pinNum
 678:Generated_Source\PSoC6\pdl\drivers/peripheral/gpio/cy_gpio.h **** * Position of the pin bit-field within the port register
 679:Generated_Source\PSoC6\pdl\drivers/peripheral/gpio/cy_gpio.h **** *
 680:Generated_Source\PSoC6\pdl\drivers/peripheral/gpio/cy_gpio.h **** * \return
 681:Generated_Source\PSoC6\pdl\drivers/peripheral/gpio/cy_gpio.h **** * HSIOM input selection
 682:Generated_Source\PSoC6\pdl\drivers/peripheral/gpio/cy_gpio.h **** *
 683:Generated_Source\PSoC6\pdl\drivers/peripheral/gpio/cy_gpio.h **** * \funcusage
 684:Generated_Source\PSoC6\pdl\drivers/peripheral/gpio/cy_gpio.h **** * \snippet gpio/gpio_v1_10_sut_01.cydsn/main_cm4.c snippet_Cy_GPIO_SetHSIOM
 685:Generated_Source\PSoC6\pdl\drivers/peripheral/gpio/cy_gpio.h **** *
 686:Generated_Source\PSoC6\pdl\drivers/peripheral/gpio/cy_gpio.h **** *******************************************************************************/
 687:Generated_Source\PSoC6\pdl\drivers/peripheral/gpio/cy_gpio.h **** __STATIC_INLINE en_hsiom_sel_t Cy_GPIO_GetHSIOM(GPIO_PRT_Type* base, uint32_t pinNum)
ARM GAS  C:\Users\Austina\AppData\Local\Temp\cc8acxV8.s 			page 40


 688:Generated_Source\PSoC6\pdl\drivers/peripheral/gpio/cy_gpio.h **** {
 689:Generated_Source\PSoC6\pdl\drivers/peripheral/gpio/cy_gpio.h ****     uint32_t returnValue;
 690:Generated_Source\PSoC6\pdl\drivers/peripheral/gpio/cy_gpio.h ****     uint32_t portNum;
 691:Generated_Source\PSoC6\pdl\drivers/peripheral/gpio/cy_gpio.h ****     HSIOM_PRT_V1_Type* portAddrHSIOM;
 692:Generated_Source\PSoC6\pdl\drivers/peripheral/gpio/cy_gpio.h ****     
 693:Generated_Source\PSoC6\pdl\drivers/peripheral/gpio/cy_gpio.h ****     CY_ASSERT_L2(CY_GPIO_IS_PIN_VALID(pinNum));
 694:Generated_Source\PSoC6\pdl\drivers/peripheral/gpio/cy_gpio.h **** 
 695:Generated_Source\PSoC6\pdl\drivers/peripheral/gpio/cy_gpio.h ****     portNum = ((uint32_t)(base) - CY_GPIO_BASE) / GPIO_PRT_SECTION_SIZE;
 696:Generated_Source\PSoC6\pdl\drivers/peripheral/gpio/cy_gpio.h ****     portAddrHSIOM = (HSIOM_PRT_V1_Type*)(CY_HSIOM_BASE + (HSIOM_PRT_SECTION_SIZE * portNum));
 697:Generated_Source\PSoC6\pdl\drivers/peripheral/gpio/cy_gpio.h **** 
 698:Generated_Source\PSoC6\pdl\drivers/peripheral/gpio/cy_gpio.h ****     if(pinNum < CY_GPIO_PRT_HALF)
 699:Generated_Source\PSoC6\pdl\drivers/peripheral/gpio/cy_gpio.h ****     {
 700:Generated_Source\PSoC6\pdl\drivers/peripheral/gpio/cy_gpio.h ****         returnValue = (HSIOM_PRT_PORT_SEL0(portAddrHSIOM) >> (pinNum << CY_GPIO_HSIOM_OFFSET)) & CY
 701:Generated_Source\PSoC6\pdl\drivers/peripheral/gpio/cy_gpio.h ****     }
 702:Generated_Source\PSoC6\pdl\drivers/peripheral/gpio/cy_gpio.h ****     else
 703:Generated_Source\PSoC6\pdl\drivers/peripheral/gpio/cy_gpio.h ****     {
 704:Generated_Source\PSoC6\pdl\drivers/peripheral/gpio/cy_gpio.h ****         pinNum -= CY_GPIO_PRT_HALF;
 705:Generated_Source\PSoC6\pdl\drivers/peripheral/gpio/cy_gpio.h ****         returnValue = (HSIOM_PRT_PORT_SEL1(portAddrHSIOM) >> (pinNum << CY_GPIO_HSIOM_OFFSET)) & CY
 706:Generated_Source\PSoC6\pdl\drivers/peripheral/gpio/cy_gpio.h ****     }
 707:Generated_Source\PSoC6\pdl\drivers/peripheral/gpio/cy_gpio.h **** 
 708:Generated_Source\PSoC6\pdl\drivers/peripheral/gpio/cy_gpio.h ****     return (en_hsiom_sel_t)returnValue;
 709:Generated_Source\PSoC6\pdl\drivers/peripheral/gpio/cy_gpio.h **** }
 710:Generated_Source\PSoC6\pdl\drivers/peripheral/gpio/cy_gpio.h **** 
 711:Generated_Source\PSoC6\pdl\drivers/peripheral/gpio/cy_gpio.h **** 
 712:Generated_Source\PSoC6\pdl\drivers/peripheral/gpio/cy_gpio.h **** /*******************************************************************************
 713:Generated_Source\PSoC6\pdl\drivers/peripheral/gpio/cy_gpio.h **** * Function Name: Cy_GPIO_PortToAddr
 714:Generated_Source\PSoC6\pdl\drivers/peripheral/gpio/cy_gpio.h **** ****************************************************************************//**
 715:Generated_Source\PSoC6\pdl\drivers/peripheral/gpio/cy_gpio.h **** *
 716:Generated_Source\PSoC6\pdl\drivers/peripheral/gpio/cy_gpio.h **** * Retrieves the port address based on the given port number.
 717:Generated_Source\PSoC6\pdl\drivers/peripheral/gpio/cy_gpio.h **** *
 718:Generated_Source\PSoC6\pdl\drivers/peripheral/gpio/cy_gpio.h **** * This is a helper function to calculate the port base address when given a port
 719:Generated_Source\PSoC6\pdl\drivers/peripheral/gpio/cy_gpio.h **** * number. It is to be used when pin access needs to be calculated at runtime.
 720:Generated_Source\PSoC6\pdl\drivers/peripheral/gpio/cy_gpio.h **** *
 721:Generated_Source\PSoC6\pdl\drivers/peripheral/gpio/cy_gpio.h **** * \param portNum
 722:Generated_Source\PSoC6\pdl\drivers/peripheral/gpio/cy_gpio.h **** * Port number
 723:Generated_Source\PSoC6\pdl\drivers/peripheral/gpio/cy_gpio.h **** *
 724:Generated_Source\PSoC6\pdl\drivers/peripheral/gpio/cy_gpio.h **** * \return
 725:Generated_Source\PSoC6\pdl\drivers/peripheral/gpio/cy_gpio.h **** * Base address of the port register structure
 726:Generated_Source\PSoC6\pdl\drivers/peripheral/gpio/cy_gpio.h **** *
 727:Generated_Source\PSoC6\pdl\drivers/peripheral/gpio/cy_gpio.h **** * \funcusage
 728:Generated_Source\PSoC6\pdl\drivers/peripheral/gpio/cy_gpio.h **** * \snippet gpio/gpio_v1_10_sut_01.cydsn/main_cm4.c snippet_Cy_GPIO_PortToAddr
 729:Generated_Source\PSoC6\pdl\drivers/peripheral/gpio/cy_gpio.h **** *
 730:Generated_Source\PSoC6\pdl\drivers/peripheral/gpio/cy_gpio.h **** *******************************************************************************/
 731:Generated_Source\PSoC6\pdl\drivers/peripheral/gpio/cy_gpio.h **** __STATIC_INLINE GPIO_PRT_Type* Cy_GPIO_PortToAddr(uint32_t portNum)
 732:Generated_Source\PSoC6\pdl\drivers/peripheral/gpio/cy_gpio.h **** {
 733:Generated_Source\PSoC6\pdl\drivers/peripheral/gpio/cy_gpio.h ****     GPIO_PRT_Type* portBase;
 734:Generated_Source\PSoC6\pdl\drivers/peripheral/gpio/cy_gpio.h ****     
 735:Generated_Source\PSoC6\pdl\drivers/peripheral/gpio/cy_gpio.h ****     if(portNum < (uint32_t)IOSS_GPIO_GPIO_PORT_NR)
 736:Generated_Source\PSoC6\pdl\drivers/peripheral/gpio/cy_gpio.h ****     {
 737:Generated_Source\PSoC6\pdl\drivers/peripheral/gpio/cy_gpio.h ****         portBase = (GPIO_PRT_Type *)(CY_GPIO_BASE + (GPIO_PRT_SECTION_SIZE * portNum));
 738:Generated_Source\PSoC6\pdl\drivers/peripheral/gpio/cy_gpio.h ****     }
 739:Generated_Source\PSoC6\pdl\drivers/peripheral/gpio/cy_gpio.h ****     else
 740:Generated_Source\PSoC6\pdl\drivers/peripheral/gpio/cy_gpio.h ****     {
 741:Generated_Source\PSoC6\pdl\drivers/peripheral/gpio/cy_gpio.h ****         /* Error: Return default base address */
 742:Generated_Source\PSoC6\pdl\drivers/peripheral/gpio/cy_gpio.h ****         portBase = (GPIO_PRT_Type *)(CY_GPIO_BASE);
 743:Generated_Source\PSoC6\pdl\drivers/peripheral/gpio/cy_gpio.h ****     }
 744:Generated_Source\PSoC6\pdl\drivers/peripheral/gpio/cy_gpio.h **** 
ARM GAS  C:\Users\Austina\AppData\Local\Temp\cc8acxV8.s 			page 41


 745:Generated_Source\PSoC6\pdl\drivers/peripheral/gpio/cy_gpio.h ****     return (portBase);
 746:Generated_Source\PSoC6\pdl\drivers/peripheral/gpio/cy_gpio.h **** }
 747:Generated_Source\PSoC6\pdl\drivers/peripheral/gpio/cy_gpio.h **** 
 748:Generated_Source\PSoC6\pdl\drivers/peripheral/gpio/cy_gpio.h **** /** \} group_gpio_functions_init */
 749:Generated_Source\PSoC6\pdl\drivers/peripheral/gpio/cy_gpio.h **** 
 750:Generated_Source\PSoC6\pdl\drivers/peripheral/gpio/cy_gpio.h **** /**
 751:Generated_Source\PSoC6\pdl\drivers/peripheral/gpio/cy_gpio.h **** * \addtogroup group_gpio_functions_gpio
 752:Generated_Source\PSoC6\pdl\drivers/peripheral/gpio/cy_gpio.h **** * \{
 753:Generated_Source\PSoC6\pdl\drivers/peripheral/gpio/cy_gpio.h **** */
 754:Generated_Source\PSoC6\pdl\drivers/peripheral/gpio/cy_gpio.h **** 
 755:Generated_Source\PSoC6\pdl\drivers/peripheral/gpio/cy_gpio.h **** /*******************************************************************************
 756:Generated_Source\PSoC6\pdl\drivers/peripheral/gpio/cy_gpio.h **** * Function Name: Cy_GPIO_Read
 757:Generated_Source\PSoC6\pdl\drivers/peripheral/gpio/cy_gpio.h **** ****************************************************************************//**
 758:Generated_Source\PSoC6\pdl\drivers/peripheral/gpio/cy_gpio.h **** *
 759:Generated_Source\PSoC6\pdl\drivers/peripheral/gpio/cy_gpio.h **** * Reads the current logic level on the input buffer of the pin.
 760:Generated_Source\PSoC6\pdl\drivers/peripheral/gpio/cy_gpio.h **** *
 761:Generated_Source\PSoC6\pdl\drivers/peripheral/gpio/cy_gpio.h **** * \param base
 762:Generated_Source\PSoC6\pdl\drivers/peripheral/gpio/cy_gpio.h **** * Pointer to the pin's port register base address
 763:Generated_Source\PSoC6\pdl\drivers/peripheral/gpio/cy_gpio.h **** *
 764:Generated_Source\PSoC6\pdl\drivers/peripheral/gpio/cy_gpio.h **** * \param pinNum
 765:Generated_Source\PSoC6\pdl\drivers/peripheral/gpio/cy_gpio.h **** * Position of the pin bit-field within the port register.
 766:Generated_Source\PSoC6\pdl\drivers/peripheral/gpio/cy_gpio.h **** * Bit position 8 is the routed pin through the port glitch filter.
 767:Generated_Source\PSoC6\pdl\drivers/peripheral/gpio/cy_gpio.h **** *
 768:Generated_Source\PSoC6\pdl\drivers/peripheral/gpio/cy_gpio.h **** * \return
 769:Generated_Source\PSoC6\pdl\drivers/peripheral/gpio/cy_gpio.h **** * Logic level present on the pin
 770:Generated_Source\PSoC6\pdl\drivers/peripheral/gpio/cy_gpio.h **** *
 771:Generated_Source\PSoC6\pdl\drivers/peripheral/gpio/cy_gpio.h **** * \funcusage
 772:Generated_Source\PSoC6\pdl\drivers/peripheral/gpio/cy_gpio.h **** * \snippet gpio/gpio_v1_10_sut_01.cydsn/main_cm4.c snippet_Cy_GPIO_Read
 773:Generated_Source\PSoC6\pdl\drivers/peripheral/gpio/cy_gpio.h **** *
 774:Generated_Source\PSoC6\pdl\drivers/peripheral/gpio/cy_gpio.h **** *******************************************************************************/
 775:Generated_Source\PSoC6\pdl\drivers/peripheral/gpio/cy_gpio.h **** __STATIC_INLINE uint32_t Cy_GPIO_Read(GPIO_PRT_Type* base, uint32_t pinNum)
 776:Generated_Source\PSoC6\pdl\drivers/peripheral/gpio/cy_gpio.h **** {
 777:Generated_Source\PSoC6\pdl\drivers/peripheral/gpio/cy_gpio.h ****     CY_ASSERT_L2(CY_GPIO_IS_FILTER_PIN_VALID(pinNum));
 778:Generated_Source\PSoC6\pdl\drivers/peripheral/gpio/cy_gpio.h ****     
 779:Generated_Source\PSoC6\pdl\drivers/peripheral/gpio/cy_gpio.h ****     return (GPIO_PRT_IN(base) >> (pinNum)) & CY_GPIO_IN_MASK;
 780:Generated_Source\PSoC6\pdl\drivers/peripheral/gpio/cy_gpio.h **** }
 781:Generated_Source\PSoC6\pdl\drivers/peripheral/gpio/cy_gpio.h **** 
 782:Generated_Source\PSoC6\pdl\drivers/peripheral/gpio/cy_gpio.h **** 
 783:Generated_Source\PSoC6\pdl\drivers/peripheral/gpio/cy_gpio.h **** /*******************************************************************************
 784:Generated_Source\PSoC6\pdl\drivers/peripheral/gpio/cy_gpio.h **** * Function Name: Cy_GPIO_Write
 785:Generated_Source\PSoC6\pdl\drivers/peripheral/gpio/cy_gpio.h **** ****************************************************************************//**
 786:Generated_Source\PSoC6\pdl\drivers/peripheral/gpio/cy_gpio.h **** *
 787:Generated_Source\PSoC6\pdl\drivers/peripheral/gpio/cy_gpio.h **** * Write a logic 0 or logic 1 state to the output driver.
 788:Generated_Source\PSoC6\pdl\drivers/peripheral/gpio/cy_gpio.h **** *
 789:Generated_Source\PSoC6\pdl\drivers/peripheral/gpio/cy_gpio.h **** * This function should be used only for software driven pins. It does not have
 790:Generated_Source\PSoC6\pdl\drivers/peripheral/gpio/cy_gpio.h **** * any effect on peripheral driven pins.
 791:Generated_Source\PSoC6\pdl\drivers/peripheral/gpio/cy_gpio.h **** *
 792:Generated_Source\PSoC6\pdl\drivers/peripheral/gpio/cy_gpio.h **** * \param base
 793:Generated_Source\PSoC6\pdl\drivers/peripheral/gpio/cy_gpio.h **** * Pointer to the pin's port register base address
 794:Generated_Source\PSoC6\pdl\drivers/peripheral/gpio/cy_gpio.h **** *
 795:Generated_Source\PSoC6\pdl\drivers/peripheral/gpio/cy_gpio.h **** * \param pinNum
 796:Generated_Source\PSoC6\pdl\drivers/peripheral/gpio/cy_gpio.h **** * Position of the pin bit-field within the port register
 797:Generated_Source\PSoC6\pdl\drivers/peripheral/gpio/cy_gpio.h **** *
 798:Generated_Source\PSoC6\pdl\drivers/peripheral/gpio/cy_gpio.h **** * \param value
 799:Generated_Source\PSoC6\pdl\drivers/peripheral/gpio/cy_gpio.h **** * Logic level to drive out on the pin
 800:Generated_Source\PSoC6\pdl\drivers/peripheral/gpio/cy_gpio.h **** *
 801:Generated_Source\PSoC6\pdl\drivers/peripheral/gpio/cy_gpio.h **** * \funcusage
ARM GAS  C:\Users\Austina\AppData\Local\Temp\cc8acxV8.s 			page 42


 802:Generated_Source\PSoC6\pdl\drivers/peripheral/gpio/cy_gpio.h **** * \snippet gpio/gpio_v1_10_sut_01.cydsn/main_cm4.c snippet_Cy_GPIO_Write
 803:Generated_Source\PSoC6\pdl\drivers/peripheral/gpio/cy_gpio.h **** *
 804:Generated_Source\PSoC6\pdl\drivers/peripheral/gpio/cy_gpio.h **** *******************************************************************************/
 805:Generated_Source\PSoC6\pdl\drivers/peripheral/gpio/cy_gpio.h **** __STATIC_INLINE void Cy_GPIO_Write(GPIO_PRT_Type* base, uint32_t pinNum, uint32_t value)
 806:Generated_Source\PSoC6\pdl\drivers/peripheral/gpio/cy_gpio.h **** {
 807:Generated_Source\PSoC6\pdl\drivers/peripheral/gpio/cy_gpio.h ****     CY_ASSERT_L2(CY_GPIO_IS_PIN_VALID(pinNum));
 808:Generated_Source\PSoC6\pdl\drivers/peripheral/gpio/cy_gpio.h ****     CY_ASSERT_L2(CY_GPIO_IS_VALUE_VALID(value));
 809:Generated_Source\PSoC6\pdl\drivers/peripheral/gpio/cy_gpio.h **** 
 810:Generated_Source\PSoC6\pdl\drivers/peripheral/gpio/cy_gpio.h ****     /* Thread-safe: Directly access the pin registers instead of base->OUT */
 811:Generated_Source\PSoC6\pdl\drivers/peripheral/gpio/cy_gpio.h ****     if(0UL == value)
 812:Generated_Source\PSoC6\pdl\drivers/peripheral/gpio/cy_gpio.h ****     {
 813:Generated_Source\PSoC6\pdl\drivers/peripheral/gpio/cy_gpio.h ****         GPIO_PRT_OUT_CLR(base) = CY_GPIO_OUT_MASK << pinNum;
 814:Generated_Source\PSoC6\pdl\drivers/peripheral/gpio/cy_gpio.h ****     }
 815:Generated_Source\PSoC6\pdl\drivers/peripheral/gpio/cy_gpio.h ****     else
 816:Generated_Source\PSoC6\pdl\drivers/peripheral/gpio/cy_gpio.h ****     {
 817:Generated_Source\PSoC6\pdl\drivers/peripheral/gpio/cy_gpio.h ****         GPIO_PRT_OUT_SET(base) = CY_GPIO_OUT_MASK << pinNum;
 818:Generated_Source\PSoC6\pdl\drivers/peripheral/gpio/cy_gpio.h ****     }
 819:Generated_Source\PSoC6\pdl\drivers/peripheral/gpio/cy_gpio.h **** }
 820:Generated_Source\PSoC6\pdl\drivers/peripheral/gpio/cy_gpio.h **** 
 821:Generated_Source\PSoC6\pdl\drivers/peripheral/gpio/cy_gpio.h **** 
 822:Generated_Source\PSoC6\pdl\drivers/peripheral/gpio/cy_gpio.h **** /*******************************************************************************
 823:Generated_Source\PSoC6\pdl\drivers/peripheral/gpio/cy_gpio.h **** * Function Name: Cy_GPIO_ReadOut
 824:Generated_Source\PSoC6\pdl\drivers/peripheral/gpio/cy_gpio.h **** ****************************************************************************//**
 825:Generated_Source\PSoC6\pdl\drivers/peripheral/gpio/cy_gpio.h **** *
 826:Generated_Source\PSoC6\pdl\drivers/peripheral/gpio/cy_gpio.h **** * Reads the current logic level on the pin output driver.
 827:Generated_Source\PSoC6\pdl\drivers/peripheral/gpio/cy_gpio.h **** *
 828:Generated_Source\PSoC6\pdl\drivers/peripheral/gpio/cy_gpio.h **** * \param base
 829:Generated_Source\PSoC6\pdl\drivers/peripheral/gpio/cy_gpio.h **** * Pointer to the pin's port register base address
 830:Generated_Source\PSoC6\pdl\drivers/peripheral/gpio/cy_gpio.h **** *
 831:Generated_Source\PSoC6\pdl\drivers/peripheral/gpio/cy_gpio.h **** * \param pinNum
 832:Generated_Source\PSoC6\pdl\drivers/peripheral/gpio/cy_gpio.h **** * Position of the pin bit-field within the port register
 833:Generated_Source\PSoC6\pdl\drivers/peripheral/gpio/cy_gpio.h **** *
 834:Generated_Source\PSoC6\pdl\drivers/peripheral/gpio/cy_gpio.h **** * \return
 835:Generated_Source\PSoC6\pdl\drivers/peripheral/gpio/cy_gpio.h **** * Logic level on the pin output driver
 836:Generated_Source\PSoC6\pdl\drivers/peripheral/gpio/cy_gpio.h **** *
 837:Generated_Source\PSoC6\pdl\drivers/peripheral/gpio/cy_gpio.h **** * \funcusage
 838:Generated_Source\PSoC6\pdl\drivers/peripheral/gpio/cy_gpio.h **** * \snippet gpio/gpio_v1_10_sut_01.cydsn/main_cm4.c snippet_Cy_GPIO_ReadOut
 839:Generated_Source\PSoC6\pdl\drivers/peripheral/gpio/cy_gpio.h **** *
 840:Generated_Source\PSoC6\pdl\drivers/peripheral/gpio/cy_gpio.h **** *******************************************************************************/
 841:Generated_Source\PSoC6\pdl\drivers/peripheral/gpio/cy_gpio.h **** __STATIC_INLINE uint32_t Cy_GPIO_ReadOut(GPIO_PRT_Type* base, uint32_t pinNum)
 842:Generated_Source\PSoC6\pdl\drivers/peripheral/gpio/cy_gpio.h **** {
 843:Generated_Source\PSoC6\pdl\drivers/peripheral/gpio/cy_gpio.h ****     CY_ASSERT_L2(CY_GPIO_IS_PIN_VALID(pinNum));
 844:Generated_Source\PSoC6\pdl\drivers/peripheral/gpio/cy_gpio.h **** 
 845:Generated_Source\PSoC6\pdl\drivers/peripheral/gpio/cy_gpio.h ****     return (GPIO_PRT_OUT(base) >> pinNum) & CY_GPIO_OUT_MASK;
 846:Generated_Source\PSoC6\pdl\drivers/peripheral/gpio/cy_gpio.h **** }
 847:Generated_Source\PSoC6\pdl\drivers/peripheral/gpio/cy_gpio.h **** 
 848:Generated_Source\PSoC6\pdl\drivers/peripheral/gpio/cy_gpio.h **** 
 849:Generated_Source\PSoC6\pdl\drivers/peripheral/gpio/cy_gpio.h **** /*******************************************************************************
 850:Generated_Source\PSoC6\pdl\drivers/peripheral/gpio/cy_gpio.h **** * Function Name: Cy_GPIO_Set
 851:Generated_Source\PSoC6\pdl\drivers/peripheral/gpio/cy_gpio.h **** ****************************************************************************//**
 852:Generated_Source\PSoC6\pdl\drivers/peripheral/gpio/cy_gpio.h **** *
 853:Generated_Source\PSoC6\pdl\drivers/peripheral/gpio/cy_gpio.h **** * Set a pin output to logic state high.
 854:Generated_Source\PSoC6\pdl\drivers/peripheral/gpio/cy_gpio.h **** *
 855:Generated_Source\PSoC6\pdl\drivers/peripheral/gpio/cy_gpio.h **** * This function should be used only for software driven pins. It does not have
 856:Generated_Source\PSoC6\pdl\drivers/peripheral/gpio/cy_gpio.h **** * any effect on peripheral driven pins.
 857:Generated_Source\PSoC6\pdl\drivers/peripheral/gpio/cy_gpio.h **** *
 858:Generated_Source\PSoC6\pdl\drivers/peripheral/gpio/cy_gpio.h **** * \param base
ARM GAS  C:\Users\Austina\AppData\Local\Temp\cc8acxV8.s 			page 43


 859:Generated_Source\PSoC6\pdl\drivers/peripheral/gpio/cy_gpio.h **** * Pointer to the pin's port register base address
 860:Generated_Source\PSoC6\pdl\drivers/peripheral/gpio/cy_gpio.h **** *
 861:Generated_Source\PSoC6\pdl\drivers/peripheral/gpio/cy_gpio.h **** * \param pinNum
 862:Generated_Source\PSoC6\pdl\drivers/peripheral/gpio/cy_gpio.h **** * Position of the pin bit-field within the port register
 863:Generated_Source\PSoC6\pdl\drivers/peripheral/gpio/cy_gpio.h **** *
 864:Generated_Source\PSoC6\pdl\drivers/peripheral/gpio/cy_gpio.h **** * \funcusage
 865:Generated_Source\PSoC6\pdl\drivers/peripheral/gpio/cy_gpio.h **** * \snippet gpio/gpio_v1_10_sut_01.cydsn/main_cm4.c snippet_Cy_GPIO_Set
 866:Generated_Source\PSoC6\pdl\drivers/peripheral/gpio/cy_gpio.h **** *
 867:Generated_Source\PSoC6\pdl\drivers/peripheral/gpio/cy_gpio.h **** *******************************************************************************/
 868:Generated_Source\PSoC6\pdl\drivers/peripheral/gpio/cy_gpio.h **** __STATIC_INLINE void Cy_GPIO_Set(GPIO_PRT_Type* base, uint32_t pinNum)
 869:Generated_Source\PSoC6\pdl\drivers/peripheral/gpio/cy_gpio.h **** {
 870:Generated_Source\PSoC6\pdl\drivers/peripheral/gpio/cy_gpio.h ****     CY_ASSERT_L2(CY_GPIO_IS_PIN_VALID(pinNum));
 871:Generated_Source\PSoC6\pdl\drivers/peripheral/gpio/cy_gpio.h ****     
 872:Generated_Source\PSoC6\pdl\drivers/peripheral/gpio/cy_gpio.h ****     GPIO_PRT_OUT_SET(base) = CY_GPIO_OUT_MASK << pinNum;
 429              		.loc 3 872 0
 430 0062 0222     		movs	r2, #2
 431 0064 564B     		ldr	r3, .L43+16
 432 0066 9A60     		str	r2, [r3, #8]
 433              	.LVL43:
 434              	.LBE26:
 435              	.LBE25:
 436              	.LBB27:
 437              	.LBB28:
 873:Generated_Source\PSoC6\pdl\drivers/peripheral/gpio/cy_gpio.h **** }
 874:Generated_Source\PSoC6\pdl\drivers/peripheral/gpio/cy_gpio.h **** 
 875:Generated_Source\PSoC6\pdl\drivers/peripheral/gpio/cy_gpio.h **** 
 876:Generated_Source\PSoC6\pdl\drivers/peripheral/gpio/cy_gpio.h **** /*******************************************************************************
 877:Generated_Source\PSoC6\pdl\drivers/peripheral/gpio/cy_gpio.h **** * Function Name: Cy_GPIO_Clr
 878:Generated_Source\PSoC6\pdl\drivers/peripheral/gpio/cy_gpio.h **** ****************************************************************************//**
 879:Generated_Source\PSoC6\pdl\drivers/peripheral/gpio/cy_gpio.h **** *
 880:Generated_Source\PSoC6\pdl\drivers/peripheral/gpio/cy_gpio.h **** * Set a pin output to logic state Low.
 881:Generated_Source\PSoC6\pdl\drivers/peripheral/gpio/cy_gpio.h **** *
 882:Generated_Source\PSoC6\pdl\drivers/peripheral/gpio/cy_gpio.h **** * This function should be used only for software driven pins. It does not have
 883:Generated_Source\PSoC6\pdl\drivers/peripheral/gpio/cy_gpio.h **** * any effect on peripheral driven pins.
 884:Generated_Source\PSoC6\pdl\drivers/peripheral/gpio/cy_gpio.h **** *
 885:Generated_Source\PSoC6\pdl\drivers/peripheral/gpio/cy_gpio.h **** * \param base
 886:Generated_Source\PSoC6\pdl\drivers/peripheral/gpio/cy_gpio.h **** * Pointer to the pin's port register base address
 887:Generated_Source\PSoC6\pdl\drivers/peripheral/gpio/cy_gpio.h **** *
 888:Generated_Source\PSoC6\pdl\drivers/peripheral/gpio/cy_gpio.h **** * \param pinNum
 889:Generated_Source\PSoC6\pdl\drivers/peripheral/gpio/cy_gpio.h **** * Position of the pin bit-field within the port register
 890:Generated_Source\PSoC6\pdl\drivers/peripheral/gpio/cy_gpio.h **** *
 891:Generated_Source\PSoC6\pdl\drivers/peripheral/gpio/cy_gpio.h **** * \funcusage
 892:Generated_Source\PSoC6\pdl\drivers/peripheral/gpio/cy_gpio.h **** * \snippet gpio/gpio_v1_10_sut_01.cydsn/main_cm4.c snippet_Cy_GPIO_Clr
 893:Generated_Source\PSoC6\pdl\drivers/peripheral/gpio/cy_gpio.h **** *
 894:Generated_Source\PSoC6\pdl\drivers/peripheral/gpio/cy_gpio.h **** *******************************************************************************/
 895:Generated_Source\PSoC6\pdl\drivers/peripheral/gpio/cy_gpio.h **** __STATIC_INLINE void Cy_GPIO_Clr(GPIO_PRT_Type* base, uint32_t pinNum)
 896:Generated_Source\PSoC6\pdl\drivers/peripheral/gpio/cy_gpio.h **** {
 897:Generated_Source\PSoC6\pdl\drivers/peripheral/gpio/cy_gpio.h ****     CY_ASSERT_L2(CY_GPIO_IS_PIN_VALID(pinNum));
 898:Generated_Source\PSoC6\pdl\drivers/peripheral/gpio/cy_gpio.h ****     
 899:Generated_Source\PSoC6\pdl\drivers/peripheral/gpio/cy_gpio.h ****     GPIO_PRT_OUT_CLR(base) = CY_GPIO_OUT_MASK << pinNum;
 438              		.loc 3 899 0
 439 0068 0822     		movs	r2, #8
 440 006a 803B     		subs	r3, r3, #128
 441 006c 5A60     		str	r2, [r3, #4]
 442 006e 9DE0     		b	.L29
 443              	.LVL44:
 444              	.L33:
ARM GAS  C:\Users\Austina\AppData\Local\Temp\cc8acxV8.s 			page 44


 445              	.LBE28:
 446              	.LBE27:
 123:BLETask.c     ****             cy_stc_ble_gapc_adv_report_param_t *scanProgressParam = (cy_stc_ble_gapc_adv_report_par
 447              		.loc 1 123 0
 448 0070 5048     		ldr	r0, .L43+4
 449              	.LVL45:
 450 0072 FFF7FEFF 		bl	printf
 451              	.LVL46:
 452 0076 5348     		ldr	r0, .L43+20
 453 0078 FFF7FEFF 		bl	printf
 454              	.LVL47:
 455 007c 4F48     		ldr	r0, .L43+12
 456 007e FFF7FEFF 		bl	puts
 457              	.LVL48:
 125:BLETask.c     ****             for(unsigned int i = 0; i < CY_BLE_BD_ADDR_SIZE;i++)
 458              		.loc 1 125 0
 459 0082 5148     		ldr	r0, .L43+24
 460 0084 FFF7FEFF 		bl	printf
 461              	.LVL49:
 462              	.LBB29:
 126:BLETask.c     ****             {
 463              		.loc 1 126 0
 464 0088 0024     		movs	r4, #0
 465 008a 05E0     		b	.L39
 466              	.LVL50:
 467              	.L40:
 128:BLETask.c     ****             }
 468              		.loc 1 128 0 discriminator 3
 469 008c 6B68     		ldr	r3, [r5, #4]
 470 008e 195D     		ldrb	r1, [r3, r4]	@ zero_extendqisi2
 471 0090 4E48     		ldr	r0, .L43+28
 472 0092 FFF7FEFF 		bl	printf
 473              	.LVL51:
 126:BLETask.c     ****             {
 474              		.loc 1 126 0 discriminator 3
 475 0096 0134     		adds	r4, r4, #1
 476              	.LVL52:
 477              	.L39:
 126:BLETask.c     ****             {
 478              		.loc 1 126 0 is_stmt 0 discriminator 1
 479 0098 052C     		cmp	r4, #5
 480 009a F7D9     		bls	.L40
 481              	.LBE29:
 130:BLETask.c     ****             ble_printf("Length = %d",scanProgressParam->dataLen);
 482              		.loc 1 130 0 is_stmt 1
 483 009c 474C     		ldr	r4, .L43+12
 484              	.LVL53:
 485 009e 2046     		mov	r0, r4
 486 00a0 FFF7FEFF 		bl	puts
 487              	.LVL54:
 131:BLETask.c     ****             
 488              		.loc 1 131 0
 489 00a4 4348     		ldr	r0, .L43+4
 490 00a6 FFF7FEFF 		bl	printf
 491              	.LVL55:
 492 00aa 297A     		ldrb	r1, [r5, #8]	@ zero_extendqisi2
 493 00ac 4848     		ldr	r0, .L43+32
ARM GAS  C:\Users\Austina\AppData\Local\Temp\cc8acxV8.s 			page 45


 494 00ae FFF7FEFF 		bl	printf
 495              	.LVL56:
 496 00b2 2046     		mov	r0, r4
 497 00b4 FFF7FEFF 		bl	puts
 498              	.LVL57:
 133:BLETask.c     ****             if(currentAdvInfo.name != 0)
 499              		.loc 1 133 0
 500 00b8 297A     		ldrb	r1, [r5, #8]	@ zero_extendqisi2
 501 00ba E868     		ldr	r0, [r5, #12]
 502 00bc FFF7FEFF 		bl	findAdvInfo
 503              	.LVL58:
 134:BLETask.c     ****                 ble_printf("%.*s",currentAdvInfo.name_len,currentAdvInfo.name);
 504              		.loc 1 134 0
 505 00c0 444B     		ldr	r3, .L43+36
 506 00c2 1B68     		ldr	r3, [r3]
 507 00c4 13B1     		cbz	r3, .L41
 135:BLETask.c     ****             
 508              		.loc 1 135 0
 509 00c6 3B48     		ldr	r0, .L43+4
 510 00c8 FFF7FEFF 		bl	printf
 511              	.LVL59:
 512              	.L41:
 135:BLETask.c     ****             
 513              		.loc 1 135 0 is_stmt 0 discriminator 1
 514 00cc 414C     		ldr	r4, .L43+36
 515 00ce 2268     		ldr	r2, [r4]
 516 00d0 A168     		ldr	r1, [r4, #8]
 517 00d2 4148     		ldr	r0, .L43+40
 518 00d4 FFF7FEFF 		bl	printf
 519              	.LVL60:
 520 00d8 3848     		ldr	r0, .L43+12
 521 00da FFF7FEFF 		bl	puts
 522              	.LVL61:
 137:BLETask.c     ****                  && (memcmp(currentAdvInfo.serviceUUID,cy_ble_customCServ[CY_BLE_CUSTOMC_MOTOR_SERV
 523              		.loc 1 137 0 is_stmt 1 discriminator 1
 524 00de 227B     		ldrb	r2, [r4, #12]	@ zero_extendqisi2
 525 00e0 002A     		cmp	r2, #0
 526 00e2 63D0     		beq	.L29
 138:BLETask.c     ****                   ,currentAdvInfo.servUUID_len) == 0))
 527              		.loc 1 138 0
 528 00e4 3D4B     		ldr	r3, .L43+44
 529 00e6 5968     		ldr	r1, [r3, #4]
 530 00e8 6068     		ldr	r0, [r4, #4]
 531 00ea FFF7FEFF 		bl	memcmp
 532              	.LVL62:
 533 00ee 0028     		cmp	r0, #0
 534 00f0 5CD1     		bne	.L29
 535              	.LBB30:
 142:BLETask.c     ****                 cy_stc_ble_bd_addr_t connectAddr;
 536              		.loc 1 142 0
 537 00f2 3048     		ldr	r0, .L43+4
 538 00f4 FFF7FEFF 		bl	printf
 539              	.LVL63:
 540 00f8 3948     		ldr	r0, .L43+48
 541 00fa FFF7FEFF 		bl	printf
 542              	.LVL64:
 543 00fe 2F48     		ldr	r0, .L43+12
ARM GAS  C:\Users\Austina\AppData\Local\Temp\cc8acxV8.s 			page 46


 544 0100 FFF7FEFF 		bl	puts
 545              	.LVL65:
 144:BLETask.c     ****                 connectAddr.type = scanProgressParam->peerAddrType;
 546              		.loc 1 144 0
 547 0104 6B68     		ldr	r3, [r5, #4]
 548 0106 1868     		ldr	r0, [r3]	@ unaligned
 549 0108 0090     		str	r0, [sp]	@ unaligned
 550 010a 9B88     		ldrh	r3, [r3, #4]	@ unaligned
 551 010c ADF80430 		strh	r3, [sp, #4]	@ unaligned
 145:BLETask.c     ****                 Cy_BLE_GAPC_ConnectDevice(&connectAddr,0);
 552              		.loc 1 145 0
 553 0110 6B78     		ldrb	r3, [r5, #1]	@ zero_extendqisi2
 554 0112 8DF80630 		strb	r3, [sp, #6]
 146:BLETask.c     ****                 Cy_BLE_GAPC_StopScan();
 555              		.loc 1 146 0
 556 0116 0021     		movs	r1, #0
 557 0118 6846     		mov	r0, sp
 558 011a FFF7FEFF 		bl	Cy_BLE_GAPC_ConnectDevice
 559              	.LVL66:
 147:BLETask.c     ****             }
 560              		.loc 1 147 0
 561 011e FFF7FEFF 		bl	Cy_BLE_GAPC_StopScan
 562              	.LVL67:
 563 0122 43E0     		b	.L29
 564              	.LVL68:
 565              	.L35:
 566              	.LBE30:
 567              	.LBB31:
 568              	.LBB32:
 872:Generated_Source\PSoC6\pdl\drivers/peripheral/gpio/cy_gpio.h **** }
 569              		.loc 3 872 0
 570 0124 0222     		movs	r2, #2
 571 0126 264B     		ldr	r3, .L43+16
 572 0128 9A60     		str	r2, [r3, #8]
 573              	.LVL69:
 574              	.LBE32:
 575              	.LBE31:
 576              	.LBB33:
 577              	.LBB34:
 578              		.loc 3 899 0
 579 012a 0822     		movs	r2, #8
 580 012c 803B     		subs	r3, r3, #128
 581 012e 5A60     		str	r2, [r3, #4]
 582              	.LVL70:
 583              	.LBE34:
 584              	.LBE33:
 154:BLETask.c     ****         break;
 585              		.loc 1 154 0
 586 0130 2048     		ldr	r0, .L43+4
 587              	.LVL71:
 588 0132 FFF7FEFF 		bl	printf
 589              	.LVL72:
 590 0136 2B48     		ldr	r0, .L43+52
 591 0138 FFF7FEFF 		bl	printf
 592              	.LVL73:
 593 013c 1F48     		ldr	r0, .L43+12
 594 013e FFF7FEFF 		bl	puts
ARM GAS  C:\Users\Austina\AppData\Local\Temp\cc8acxV8.s 			page 47


 595              	.LVL74:
 155:BLETask.c     ****         case CY_BLE_EVT_GATT_CONNECT_IND:
 596              		.loc 1 155 0
 597 0142 33E0     		b	.L29
 598              	.LVL75:
 599              	.L36:
 600              	.LBB35:
 601              	.LBB36:
 602              		.loc 3 899 0
 603 0144 0222     		movs	r2, #2
 604 0146 1E4B     		ldr	r3, .L43+16
 605 0148 5A60     		str	r2, [r3, #4]
 606              	.LVL76:
 607              	.LBE36:
 608              	.LBE35:
 609              	.LBB37:
 610              	.LBB38:
 872:Generated_Source\PSoC6\pdl\drivers/peripheral/gpio/cy_gpio.h **** }
 611              		.loc 3 872 0
 612 014a 0822     		movs	r2, #8
 613 014c 803B     		subs	r3, r3, #128
 614 014e 9A60     		str	r2, [r3, #8]
 615              	.LVL77:
 616              	.LBE38:
 617              	.LBE37:
 159:BLETask.c     ****             Cy_BLE_GATTC_StartDiscovery(cy_ble_connHandle[0]);
 618              		.loc 1 159 0
 619 0150 1848     		ldr	r0, .L43+4
 620              	.LVL78:
 621 0152 FFF7FEFF 		bl	printf
 622              	.LVL79:
 623 0156 2448     		ldr	r0, .L43+56
 624 0158 FFF7FEFF 		bl	printf
 625              	.LVL80:
 626 015c 1748     		ldr	r0, .L43+12
 627 015e FFF7FEFF 		bl	puts
 628              	.LVL81:
 160:BLETask.c     ****         break;
 629              		.loc 1 160 0
 630 0162 224B     		ldr	r3, .L43+60
 631 0164 1A78     		ldrb	r2, [r3]	@ zero_extendqisi2
 632 0166 5878     		ldrb	r0, [r3, #1]	@ zero_extendqisi2
 633 0168 42EA0020 		orr	r0, r2, r0, lsl #8
 634 016c FFF7FEFF 		bl	Cy_BLE_GATTC_StartDiscovery
 635              	.LVL82:
 161:BLETask.c     ****         
 636              		.loc 1 161 0
 637 0170 1CE0     		b	.L29
 638              	.LVL83:
 639              	.L38:
 164:BLETask.c     ****         break;
 640              		.loc 1 164 0
 641 0172 1048     		ldr	r0, .L43+4
 642              	.LVL84:
 643 0174 FFF7FEFF 		bl	printf
 644              	.LVL85:
 645 0178 1D48     		ldr	r0, .L43+64
ARM GAS  C:\Users\Austina\AppData\Local\Temp\cc8acxV8.s 			page 48


 646 017a FFF7FEFF 		bl	printf
 647              	.LVL86:
 648 017e 0F48     		ldr	r0, .L43+12
 649 0180 FFF7FEFF 		bl	puts
 650              	.LVL87:
 165:BLETask.c     ****             
 651              		.loc 1 165 0
 652 0184 12E0     		b	.L29
 653              	.LVL88:
 654              	.L31:
 168:BLETask.c     ****         break;
 655              		.loc 1 168 0
 656 0186 0B48     		ldr	r0, .L43+4
 657              	.LVL89:
 658 0188 FFF7FEFF 		bl	printf
 659              	.LVL90:
 660 018c 1948     		ldr	r0, .L43+68
 661 018e FFF7FEFF 		bl	printf
 662              	.LVL91:
 663 0192 0A48     		ldr	r0, .L43+12
 664 0194 FFF7FEFF 		bl	puts
 665              	.LVL92:
 169:BLETask.c     ****             
 666              		.loc 1 169 0
 667 0198 08E0     		b	.L29
 668              	.LVL93:
 669              	.L37:
 172:BLETask.c     ****         break;
 670              		.loc 1 172 0
 671 019a 0648     		ldr	r0, .L43+4
 672              	.LVL94:
 673 019c FFF7FEFF 		bl	printf
 674              	.LVL95:
 675 01a0 1548     		ldr	r0, .L43+72
 676 01a2 FFF7FEFF 		bl	printf
 677              	.LVL96:
 678 01a6 0548     		ldr	r0, .L43+12
 679 01a8 FFF7FEFF 		bl	puts
 680              	.LVL97:
 681              	.L29:
 682              	.LBE24:
 178:BLETask.c     **** 
 683              		.loc 1 178 0
 684 01ac 03B0     		add	sp, sp, #12
 685              		.cfi_def_cfa_offset 12
 686              		@ sp needed
 687 01ae 30BD     		pop	{r4, r5, pc}
 688              	.L44:
 689              		.align	2
 690              	.L43:
 691 01b0 13000100 		.word	65555
 692 01b4 00000000 		.word	.LC0
 693 01b8 74000000 		.word	.LC6
 694 01bc 24000000 		.word	.LC2
 695 01c0 80003240 		.word	1077018752
 696 01c4 84000000 		.word	.LC7
 697 01c8 8C000000 		.word	.LC8
ARM GAS  C:\Users\Austina\AppData\Local\Temp\cc8acxV8.s 			page 49


 698 01cc A4000000 		.word	.LC9
 699 01d0 AC000000 		.word	.LC10
 700 01d4 00000000 		.word	currentAdvInfo
 701 01d8 B8000000 		.word	.LC11
 702 01dc 00000000 		.word	cy_ble_customCServ
 703 01e0 C0000000 		.word	.LC12
 704 01e4 D8000000 		.word	.LC13
 705 01e8 E8000000 		.word	.LC14
 706 01ec 00000000 		.word	cy_ble_connHandle
 707 01f0 18010000 		.word	.LC15
 708 01f4 2C010000 		.word	.LC16
 709 01f8 44010000 		.word	.LC17
 710              		.cfi_endproc
 711              	.LFE504:
 712              		.size	genericEventHandler, .-genericEventHandler
 713              		.section	.text.bleTask,"ax",%progbits
 714              		.align	2
 715              		.global	bleTask
 716              		.thumb
 717              		.thumb_func
 718              		.type	bleTask, %function
 719              	bleTask:
 720              	.LFB506:
 191:BLETask.c     **** 
 192:BLETask.c     **** void bleTask(void * arg)
 193:BLETask.c     **** {
 721              		.loc 1 193 0
 722              		.cfi_startproc
 723              		@ Volatile: function does not return.
 724              		@ args = 0, pretend = 0, frame = 0
 725              		@ frame_needed = 0, uses_anonymous_args = 0
 726              	.LVL98:
 727 0000 08B5     		push	{r3, lr}
 728              		.cfi_def_cfa_offset 8
 729              		.cfi_offset 3, -8
 730              		.cfi_offset 14, -4
 194:BLETask.c     ****     (void)arg;
 195:BLETask.c     ****     
 196:BLETask.c     ****     ble_print("BLE Task started");
 731              		.loc 1 196 0
 732 0002 1348     		ldr	r0, .L50
 733              	.LVL99:
 734 0004 FFF7FEFF 		bl	printf
 735              	.LVL100:
 736 0008 1248     		ldr	r0, .L50+4
 737 000a FFF7FEFF 		bl	printf
 738              	.LVL101:
 739 000e 1248     		ldr	r0, .L50+8
 740 0010 FFF7FEFF 		bl	puts
 741              	.LVL102:
 197:BLETask.c     ****     bleSemaphore = xSemaphoreCreateBinary();
 742              		.loc 1 197 0
 743 0014 0322     		movs	r2, #3
 744 0016 0021     		movs	r1, #0
 745 0018 0120     		movs	r0, #1
 746 001a FFF7FEFF 		bl	xQueueGenericCreate
 747              	.LVL103:
ARM GAS  C:\Users\Austina\AppData\Local\Temp\cc8acxV8.s 			page 50


 748 001e 0F4B     		ldr	r3, .L50+12
 749 0020 1860     		str	r0, [r3]
 198:BLETask.c     ****     
 199:BLETask.c     ****     //register the generic handler
 200:BLETask.c     ****     Cy_BLE_Start(genericEventHandler);
 750              		.loc 1 200 0
 751 0022 0F48     		ldr	r0, .L50+16
 752 0024 FFF7FEFF 		bl	Cy_BLE_Start
 753              	.LVL104:
 201:BLETask.c     ****     
 202:BLETask.c     ****     //process all ble initialization processes until the ble state is set to on
 203:BLETask.c     ****     while(Cy_BLE_GetState() != CY_BLE_STATE_ON)
 754              		.loc 1 203 0
 755 0028 01E0     		b	.L46
 756              	.L47:
 204:BLETask.c     ****     {
 205:BLETask.c     ****         Cy_BLE_ProcessEvents();
 757              		.loc 1 205 0
 758 002a FFF7FEFF 		bl	Cy_BLE_ProcessEvents
 759              	.LVL105:
 760              	.L46:
 203:BLETask.c     ****     {
 761              		.loc 1 203 0
 762 002e 0D4B     		ldr	r3, .L50+20
 763 0030 1B78     		ldrb	r3, [r3]	@ zero_extendqisi2
 764 0032 022B     		cmp	r3, #2
 765 0034 F9D1     		bne	.L47
 206:BLETask.c     ****     }
 207:BLETask.c     ****     
 208:BLETask.c     ****     Cy_BLE_RegisterAppHostCallback(bleInterruptNotify);
 766              		.loc 1 208 0
 767 0036 0C48     		ldr	r0, .L50+24
 768 0038 FFF7FEFF 		bl	Cy_BLE_RegisterAppHostCallback
 769              	.LVL106:
 770              	.L48:
 209:BLETask.c     ****     
 210:BLETask.c     ****     for(;;)
 211:BLETask.c     ****     {
 212:BLETask.c     ****         xSemaphoreTake(bleSemaphore,portMAX_DELAY);
 771              		.loc 1 212 0 discriminator 1
 772 003c 4FF0FF31 		mov	r1, #-1
 773 0040 064B     		ldr	r3, .L50+12
 774 0042 1868     		ldr	r0, [r3]
 775 0044 FFF7FEFF 		bl	xQueueSemaphoreTake
 776              	.LVL107:
 213:BLETask.c     ****         Cy_BLE_ProcessEvents();
 777              		.loc 1 213 0 discriminator 1
 778 0048 FFF7FEFF 		bl	Cy_BLE_ProcessEvents
 779              	.LVL108:
 780 004c F6E7     		b	.L48
 781              	.L51:
 782 004e 00BF     		.align	2
 783              	.L50:
 784 0050 00000000 		.word	.LC0
 785 0054 5C010000 		.word	.LC18
 786 0058 24000000 		.word	.LC2
 787 005c 00000000 		.word	bleSemaphore
ARM GAS  C:\Users\Austina\AppData\Local\Temp\cc8acxV8.s 			page 51


 788 0060 00000000 		.word	genericEventHandler
 789 0064 00000000 		.word	cy_ble_state
 790 0068 00000000 		.word	bleInterruptNotify
 791              		.cfi_endproc
 792              	.LFE506:
 793              		.size	bleTask, .-bleTask
 794              		.comm	currentAdvInfo,16,4
 795              		.global	motorToControl
 796              		.comm	bleSemaphore,4,4
 797              		.data
 798              		.align	2
 799              		.set	.LANCHOR0,. + 0
 800              		.type	motorToControl, %object
 801              		.size	motorToControl, 24
 802              	motorToControl:
 803 0000 00       		.byte	0
 804 0001 00       		.byte	0
 805 0002 00       		.byte	0
 806 0003 00       		.byte	0
 807 0004 01       		.byte	1
 808 0005 02       		.byte	2
 809 0006 01       		.byte	1
 810 0007 00       		.byte	0
 811 0008 01       		.byte	1
 812 0009 01       		.byte	1
 813 000a 01       		.byte	1
 814 000b 03       		.byte	3
 815 000c 02       		.byte	2
 816 000d 00       		.byte	0
 817 000e 04       		.byte	4
 818 000f 02       		.byte	2
 819 0010 01       		.byte	1
 820 0011 06       		.byte	6
 821 0012 03       		.byte	3
 822 0013 00       		.byte	0
 823 0014 05       		.byte	5
 824 0015 03       		.byte	3
 825 0016 01       		.byte	1
 826 0017 07       		.byte	7
 827              		.section	.rodata.str1.4,"aMS",%progbits,1
 828              		.align	2
 829              	.LC0:
 830 0000 5B20424C 		.ascii	"[ BLE CENTRAL ] : \000"
 830      45204345 
 830      4E545241 
 830      4C205D20 
 830      3A2000
 831 0013 00       		.space	1
 832              	.LC1:
 833 0014 4E6F7420 		.ascii	"Not connected\000"
 833      636F6E6E 
 833      65637465 
 833      6400
 834 0022 0000     		.space	2
 835              	.LC2:
 836 0024 0D00     		.ascii	"\015\000"
 837 0026 0000     		.space	2
ARM GAS  C:\Users\Austina\AppData\Local\Temp\cc8acxV8.s 			page 52


 838              	.LC3:
 839 0028 4D6F746F 		.ascii	"Motor = %d\011Type = %d\011percent = %d\000"
 839      72203D20 
 839      25640954 
 839      79706520 
 839      3D202564 
 840 004a 0000     		.space	2
 841              	.LC4:
 842 004c 53656E74 		.ascii	"Sent data %d\000"
 842      20646174 
 842      61202564 
 842      00
 843 0059 000000   		.space	3
 844              	.LC5:
 845 005c 424C4520 		.ascii	"BLE GATTC write error\000"
 845      47415454 
 845      43207772 
 845      69746520 
 845      6572726F 
 846 0072 0000     		.space	2
 847              	.LC6:
 848 0074 53746172 		.ascii	"Starting Scan\000"
 848      74696E67 
 848      20536361 
 848      6E00
 849 0082 0000     		.space	2
 850              	.LC7:
 851 0084 44657669 		.ascii	"Device\000"
 851      636500
 852 008b 00       		.space	1
 853              	.LC8:
 854 008c 5B20424C 		.ascii	"[ BLE ] : BD Addr = \000"
 854      45205D20 
 854      3A204244 
 854      20416464 
 854      72203D20 
 855 00a1 000000   		.space	3
 856              	.LC9:
 857 00a4 25303258 		.ascii	"%02X \000"
 857      2000
 858 00aa 0000     		.space	2
 859              	.LC10:
 860 00ac 4C656E67 		.ascii	"Length = %d\000"
 860      7468203D 
 860      20256400 
 861              	.LC11:
 862 00b8 252E2A73 		.ascii	"%.*s\000"
 862      00
 863 00bd 000000   		.space	3
 864              	.LC12:
 865 00c0 466F756E 		.ascii	"Found MOTOR Service \000"
 865      64204D4F 
 865      544F5220 
 865      53657276 
 865      69636520 
 866 00d5 000000   		.space	3
 867              	.LC13:
ARM GAS  C:\Users\Austina\AppData\Local\Temp\cc8acxV8.s 			page 53


 868 00d8 44697363 		.ascii	"Disconnected\000"
 868      6F6E6E65 
 868      63746564 
 868      00
 869 00e5 000000   		.space	3
 870              	.LC14:
 871 00e8 4D616465 		.ascii	"Made a connection, starting service discovery\000"
 871      20612063 
 871      6F6E6E65 
 871      6374696F 
 871      6E2C2073 
 872 0116 0000     		.space	2
 873              	.LC15:
 874 0118 44697363 		.ascii	"Discovery Complete\000"
 874      6F766572 
 874      7920436F 
 874      6D706C65 
 874      746500
 875 012b 00       		.space	1
 876              	.LC16:
 877 012c 47415454 		.ascii	"GATTC Error Response\000"
 877      43204572 
 877      726F7220 
 877      52657370 
 877      6F6E7365 
 878 0141 000000   		.space	3
 879              	.LC17:
 880 0144 47415454 		.ascii	"GATTC Write Succeeded\000"
 880      43205772 
 880      69746520 
 880      53756363 
 880      65656465 
 881 015a 0000     		.space	2
 882              	.LC18:
 883 015c 424C4520 		.ascii	"BLE Task started\000"
 883      5461736B 
 883      20737461 
 883      72746564 
 883      00
 884              		.text
 885              	.Letext0:
 886              		.file 4 "c:\\program files (x86)\\cypress\\psoc creator\\4.4\\psoc creator\\import\\gnu\\arm\\5.4.
 887              		.file 5 "c:\\program files (x86)\\cypress\\psoc creator\\4.4\\psoc creator\\import\\gnu\\arm\\5.4.
 888              		.file 6 "Generated_Source\\PSoC6\\pdl\\devices/psoc6/include/ip/cyip_gpio.h"
 889              		.file 7 "Generated_Source\\PSoC6\\pdl\\devices/psoc6/include/psoc6_01_config.h"
 890              		.file 8 "Generated_Source\\PSoC6\\pdl\\drivers/peripheral/device/cy_device.h"
 891              		.file 9 "Generated_Source\\PSoC6\\pdl\\drivers/peripheral/syslib/cy_syslib.h"
 892              		.file 10 "Generated_Source\\PSoC6\\pdl\\drivers/peripheral/scb/cy_scb_uart.h"
 893              		.file 11 "Generated_Source\\PSoC6\\pdl\\middleware/ble/cy_ble_stack.h"
 894              		.file 12 "Generated_Source\\PSoC6\\pdl\\middleware/ble/cy_ble_stack_host_main.h"
 895              		.file 13 "Generated_Source\\PSoC6\\pdl\\middleware/ble/cy_ble_stack_gatt.h"
 896              		.file 14 "Generated_Source\\PSoC6\\pdl\\middleware/ble/cy_ble_stack_gap_central.h"
 897              		.file 15 "Generated_Source\\PSoC6\\pdl\\middleware/ble/cy_ble_stack_gatt_client.h"
 898              		.file 16 "Generated_Source\\PSoC6\\pdl\\middleware/ble/cy_ble_custom.h"
 899              		.file 17 "Generated_Source\\PSoC6\\pdl\\middleware/ble/cy_ble_event_handler.h"
 900              		.file 18 "Generated_Source\\PSoC6\\pdl\\rtos/FreeRTOS/10.0.1/Source/portable/GCC/CM4F/portmacro.h"
 901              		.file 19 "Generated_Source\\PSoC6\\pdl\\rtos/FreeRTOS/10.0.1/Source/include/queue.h"
ARM GAS  C:\Users\Austina\AppData\Local\Temp\cc8acxV8.s 			page 54


 902              		.file 20 "Generated_Source\\PSoC6\\pdl\\rtos/FreeRTOS/10.0.1/Source/include/semphr.h"
 903              		.file 21 "BLETask.h"
 904              		.file 22 "Generated_Source\\PSoC6\\pdl\\cmsis/include/core_cm4.h"
 905              		.file 23 "Generated_Source\\PSoC6/UART.h"
 906              		.file 24 "c:\\program files (x86)\\cypress\\psoc creator\\4.4\\psoc creator\\import\\gnu\\arm\\5.4
 907              		.file 25 "c:\\program files (x86)\\cypress\\psoc creator\\4.4\\psoc creator\\import\\gnu\\arm\\5.4
 908              		.file 26 "Generated_Source\\PSoC6\\pdl\\middleware/ble/cy_ble_gatt.h"
 909              		.file 27 "Generated_Source\\PSoC6/BLE.h"
 910              		.file 28 "Generated_Source\\PSoC6\\pdl\\middleware/ble/cy_ble.h"
 911              		.file 29 "<built-in>"