ARM GAS  C:\Users\Austina\AppData\Local\Temp\cc3bCXFh.s 			page 1


   1              		.syntax unified
   2              		.cpu cortex-m4
   3              		.eabi_attribute 27, 1
   4              		.fpu fpv4-sp-d16
   5              		.eabi_attribute 20, 1
   6              		.eabi_attribute 21, 1
   7              		.eabi_attribute 23, 3
   8              		.eabi_attribute 24, 1
   9              		.eabi_attribute 25, 1
  10              		.eabi_attribute 26, 1
  11              		.eabi_attribute 30, 1
  12              		.eabi_attribute 34, 1
  13              		.eabi_attribute 18, 4
  14              		.thumb
  15              		.syntax unified
  16              		.file	"motionTask.c"
  17              		.text
  18              	.Ltext0:
  19              		.cfi_sections	.debug_frame
  20              		.section	.text.bmi160Init,"ax",%progbits
  21              		.align	2
  22              		.thumb
  23              		.thumb_func
  24              		.type	bmi160Init, %function
  25              	bmi160Init:
  26              	.LFB533:
  27              		.file 1 "motionTask.c"
   1:motionTask.c  **** /* ========================================
   2:motionTask.c  ****  *
   3:motionTask.c  ****  * Copyright YOUR COMPANY, THE YEAR
   4:motionTask.c  ****  * All Rights Reserved
   5:motionTask.c  ****  * UNPUBLISHED, LICENSED SOFTWARE.
   6:motionTask.c  ****  *
   7:motionTask.c  ****  * CONFIDENTIAL AND PROPRIETARY INFORMATION
   8:motionTask.c  ****  * WHICH IS THE PROPERTY OF your company.
   9:motionTask.c  ****  *
  10:motionTask.c  ****  * ========================================
  11:motionTask.c  **** */
  12:motionTask.c  **** 
  13:motionTask.c  **** #include "motionTask.h"
  14:motionTask.c  **** #include "bmi160.h"
  15:motionTask.c  **** #include "BLETask.h"
  16:motionTask.c  **** 
  17:motionTask.c  **** static struct bmi160_dev bmi160Dev;
  18:motionTask.c  **** 
  19:motionTask.c  **** 
  20:motionTask.c  **** typedef struct{
  21:motionTask.c  ****     uint32_t i2cEvent;
  22:motionTask.c  ****     char* i2cMessage;
  23:motionTask.c  **** }i2cEvents_s;
  24:motionTask.c  **** 
  25:motionTask.c  **** volatile static uint32_t i2cStatus = 0;
  26:motionTask.c  **** 
  27:motionTask.c  **** i2cEvents_s i2cEvents[] = {
  28:motionTask.c  ****     {CY_SCB_I2C_MASTER_MANUAL_ABORT_START,"CY_SCB_I2C_MASTER_MANUAL_ABORT_START"},
  29:motionTask.c  ****     {CY_SCB_I2C_MASTER_MANUAL_BUS_ERR,"CY_SCB_I2C_MASTER_MANUAL_BUS_ERR"},
  30:motionTask.c  ****     {CY_SCB_I2C_MASTER_MANUAL_ARB_LOST,"CY_SCB_I2C_MASTER_MANUAL_ARB_LOST"},
ARM GAS  C:\Users\Austina\AppData\Local\Temp\cc3bCXFh.s 			page 2


  31:motionTask.c  ****     {CY_SCB_I2C_MASTER_MANUAL_NAK,"CY_SCB_I2C_MASTER_MANUAL_NAK"},
  32:motionTask.c  ****     {CY_SCB_I2C_MASTER_MANUAL_ADDR_NAK,"CY_SCB_I2C_MASTER_MANUAL_ADDR_NAK"},
  33:motionTask.c  ****     {CY_SCB_I2C_MASTER_MANUAL_TIMEOUT,"CY_SCB_I2C_MASTER_MANUAL_TIMEOUT"},
  34:motionTask.c  ****     {CY_SCB_I2C_MASTER_NOT_READY,"CY_SCB_I2C_MASTER_NOT_READY"},
  35:motionTask.c  ****     {CY_SCB_I2C_BAD_PARAM,"CY_SCB_I2C_BAD_PARAM"},
  36:motionTask.c  ****     {0x00,"NONE"},
  37:motionTask.c  **** };
  38:motionTask.c  **** 
  39:motionTask.c  **** void i2cStatusDecode( cy_en_scb_i2c_status_t i2cStatus)
  40:motionTask.c  **** {
  41:motionTask.c  ****     for(int i = 0; i2cEvents[i].i2cEvent != 0x00 ; i++)
  42:motionTask.c  ****     {
  43:motionTask.c  ****         if((i2cEvents[i].i2cEvent & i2cStatus)  == i2cEvents[i].i2cEvent)
  44:motionTask.c  ****         {
  45:motionTask.c  ****             serialPrint(i2cEvents[i].i2cMessage);
  46:motionTask.c  ****         }
  47:motionTask.c  ****     }
  48:motionTask.c  **** }
  49:motionTask.c  **** 
  50:motionTask.c  **** #define I2C_TIMEOUT     20
  51:motionTask.c  **** 
  52:motionTask.c  **** static int8_t BMI160BurstWrite(uint8_t devAddr,uint8_t regAddr,uint8_t *data,uint16_t len)
  53:motionTask.c  **** {
  54:motionTask.c  ****     cy_en_scb_i2c_status_t retStatus;
  55:motionTask.c  ****     retStatus = Cy_SCB_I2C_MasterSendStart(I2C_1_HW,devAddr,CY_SCB_I2C_WRITE_XFER,0,&I2C_1_context)
  56:motionTask.c  ****     if(retStatus)i2cStatusDecode(retStatus);
  57:motionTask.c  ****     
  58:motionTask.c  ****     retStatus = Cy_SCB_I2C_MasterWriteByte(I2C_1_HW,regAddr,I2C_TIMEOUT,&I2C_1_context);
  59:motionTask.c  ****     if(retStatus)i2cStatusDecode(retStatus);
  60:motionTask.c  ****     
  61:motionTask.c  ****     for(int i =0;i<len;i++)
  62:motionTask.c  ****     {
  63:motionTask.c  ****         retStatus = Cy_SCB_I2C_MasterWriteByte(I2C_1_HW,data[i],I2C_TIMEOUT,&I2C_1_context);
  64:motionTask.c  ****         if(retStatus)i2cStatusDecode(retStatus);
  65:motionTask.c  ****     }
  66:motionTask.c  ****     retStatus = Cy_SCB_I2C_MasterSendStop(I2C_1_HW,I2C_TIMEOUT,&I2C_1_context);
  67:motionTask.c  ****     if(retStatus)i2cStatusDecode(retStatus);
  68:motionTask.c  ****     return 0;
  69:motionTask.c  **** }
  70:motionTask.c  **** 
  71:motionTask.c  **** 
  72:motionTask.c  **** static int8_t BMI160BurstRead(uint8_t devAddr,uint8_t regAddr,uint8_t *data,uint16_t len)
  73:motionTask.c  **** {
  74:motionTask.c  ****     cy_en_scb_i2c_status_t retStatus;
  75:motionTask.c  ****     retStatus = Cy_SCB_I2C_MasterSendStart(I2C_1_HW,devAddr,CY_SCB_I2C_WRITE_XFER,I2C_TIMEOUT,&I2C_
  76:motionTask.c  ****     if(retStatus)i2cStatusDecode(retStatus);
  77:motionTask.c  ****     
  78:motionTask.c  ****     retStatus = Cy_SCB_I2C_MasterWriteByte(I2C_1_HW,regAddr,I2C_TIMEOUT,&I2C_1_context);
  79:motionTask.c  ****     if(retStatus)i2cStatusDecode(retStatus);
  80:motionTask.c  ****     
  81:motionTask.c  ****     retStatus = Cy_SCB_I2C_MasterSendReStart(I2C_1_HW,devAddr,CY_SCB_I2C_READ_XFER,I2C_TIMEOUT,&I2C
  82:motionTask.c  ****     if(retStatus)i2cStatusDecode(retStatus);
  83:motionTask.c  ****     
  84:motionTask.c  ****     for(int i = 0; i < len - 1; i++)
  85:motionTask.c  ****     {
  86:motionTask.c  ****         retStatus = Cy_SCB_I2C_MasterReadByte(I2C_1_HW,CY_SCB_I2C_ACK,&data[i],I2C_TIMEOUT,&I2C_1_c
  87:motionTask.c  ****         if(retStatus)i2cStatusDecode(retStatus);
ARM GAS  C:\Users\Austina\AppData\Local\Temp\cc3bCXFh.s 			page 3


  88:motionTask.c  ****     }
  89:motionTask.c  ****     retStatus = Cy_SCB_I2C_MasterReadByte(I2C_1_HW,CY_SCB_I2C_NAK,&data[len-1],I2C_TIMEOUT,&I2C_1_c
  90:motionTask.c  ****     if(retStatus)i2cStatusDecode(retStatus);
  91:motionTask.c  ****     
  92:motionTask.c  ****     retStatus = Cy_SCB_I2C_MasterSendStop(I2C_1_HW,I2C_TIMEOUT,&I2C_1_context);
  93:motionTask.c  ****     if(retStatus)i2cStatusDecode(retStatus);
  94:motionTask.c  ****     
  95:motionTask.c  ****     return 0;
  96:motionTask.c  **** }
  97:motionTask.c  **** 
  98:motionTask.c  **** static void bmi160Init(void)
  99:motionTask.c  **** {
  28              		.loc 1 99 0
  29              		.cfi_startproc
  30              		@ args = 0, pretend = 0, frame = 0
  31              		@ frame_needed = 0, uses_anonymous_args = 0
  32 0000 10B5     		push	{r4, lr}
  33              		.cfi_def_cfa_offset 8
  34              		.cfi_offset 4, -8
  35              		.cfi_offset 14, -4
 100:motionTask.c  ****     vTaskDelay(200);
  36              		.loc 1 100 0
  37 0002 C820     		movs	r0, #200
  38 0004 FFF7FEFF 		bl	vTaskDelay
  39              	.LVL0:
 101:motionTask.c  ****     
 102:motionTask.c  ****     bmi160Dev.read = (bmi160_read_fptr_t)BMI160BurstRead;
  40              		.loc 1 102 0
  41 0008 104C     		ldr	r4, .L3
  42 000a 114B     		ldr	r3, .L3+4
  43 000c E361     		str	r3, [r4, #28]
 103:motionTask.c  ****     bmi160Dev.write = (bmi160_write_fptr_t)BMI160BurstWrite;
  44              		.loc 1 103 0
  45 000e 114B     		ldr	r3, .L3+8
  46 0010 2362     		str	r3, [r4, #32]
 104:motionTask.c  ****     bmi160Dev.delay_ms = (bmi160_delay_fptr_t) vTaskDelay;
  47              		.loc 1 104 0
  48 0012 114B     		ldr	r3, .L3+12
  49 0014 6362     		str	r3, [r4, #36]
 105:motionTask.c  ****     bmi160Dev.id = BMI160_I2C_ADDR;
  50              		.loc 1 105 0
  51 0016 6823     		movs	r3, #104
  52 0018 6370     		strb	r3, [r4, #1]
 106:motionTask.c  ****     
 107:motionTask.c  ****     bmi160_init(&bmi160Dev); //initialize the device
  53              		.loc 1 107 0
  54 001a 2046     		mov	r0, r4
  55 001c FFF7FEFF 		bl	bmi160_init
  56              	.LVL1:
 108:motionTask.c  ****     
 109:motionTask.c  ****     bmi160Dev.gyro_cfg.odr = BMI160_GYRO_ODR_800HZ;
  57              		.loc 1 109 0
  58 0020 0B23     		movs	r3, #11
  59 0022 6373     		strb	r3, [r4, #13]
 110:motionTask.c  ****     bmi160Dev.gyro_cfg.range = BMI160_GYRO_RANGE_125_DPS;
  60              		.loc 1 110 0
  61 0024 0423     		movs	r3, #4
ARM GAS  C:\Users\Austina\AppData\Local\Temp\cc3bCXFh.s 			page 4


  62 0026 A373     		strb	r3, [r4, #14]
 111:motionTask.c  ****     bmi160Dev.gyro_cfg.bw = BMI160_GYRO_BW_OSR4_MODE;
  63              		.loc 1 111 0
  64 0028 0023     		movs	r3, #0
  65 002a E373     		strb	r3, [r4, #15]
 112:motionTask.c  ****     
 113:motionTask.c  ****     bmi160Dev.gyro_cfg.power = BMI160_GYRO_NORMAL_MODE;
  66              		.loc 1 113 0
  67 002c 1522     		movs	r2, #21
  68 002e 2273     		strb	r2, [r4, #12]
 114:motionTask.c  ****     
 115:motionTask.c  ****     bmi160Dev.accel_cfg.odr = BMI160_ACCEL_ODR_1600HZ;
  69              		.loc 1 115 0
  70 0030 0C22     		movs	r2, #12
  71 0032 6271     		strb	r2, [r4, #5]
 116:motionTask.c  ****     bmi160Dev.accel_cfg.range = BMI160_ACCEL_RANGE_2G;
  72              		.loc 1 116 0
  73 0034 0322     		movs	r2, #3
  74 0036 A271     		strb	r2, [r4, #6]
 117:motionTask.c  ****     bmi160Dev.accel_cfg.bw = BMI160_ACCEL_BW_OSR4_AVG1;
  75              		.loc 1 117 0
  76 0038 E371     		strb	r3, [r4, #7]
 118:motionTask.c  ****     bmi160Dev.accel_cfg.power = BMI160_ACCEL_NORMAL_MODE;
  77              		.loc 1 118 0
  78 003a 1123     		movs	r3, #17
  79 003c 2371     		strb	r3, [r4, #4]
 119:motionTask.c  ****     
 120:motionTask.c  ****     bmi160_set_sens_conf(&bmi160Dev);
  80              		.loc 1 120 0
  81 003e 2046     		mov	r0, r4
  82 0040 FFF7FEFF 		bl	bmi160_set_sens_conf
  83              	.LVL2:
 121:motionTask.c  ****     bmi160Dev.delay_ms(50);   
  84              		.loc 1 121 0
  85 0044 636A     		ldr	r3, [r4, #36]
  86 0046 3220     		movs	r0, #50
  87 0048 9847     		blx	r3
  88              	.LVL3:
  89 004a 10BD     		pop	{r4, pc}
  90              	.L4:
  91              		.align	2
  92              	.L3:
  93 004c 00000000 		.word	.LANCHOR0
  94 0050 00000000 		.word	BMI160BurstRead
  95 0054 00000000 		.word	BMI160BurstWrite
  96 0058 00000000 		.word	vTaskDelay
  97              		.cfi_endproc
  98              	.LFE533:
  99              		.size	bmi160Init, .-bmi160Init
 100              		.section	.text.i2cStatusDecode,"ax",%progbits
 101              		.align	2
 102              		.global	i2cStatusDecode
 103              		.thumb
 104              		.thumb_func
 105              		.type	i2cStatusDecode, %function
 106              	i2cStatusDecode:
 107              	.LFB530:
ARM GAS  C:\Users\Austina\AppData\Local\Temp\cc3bCXFh.s 			page 5


  40:motionTask.c  ****     for(int i = 0; i2cEvents[i].i2cEvent != 0x00 ; i++)
 108              		.loc 1 40 0
 109              		.cfi_startproc
 110              		@ args = 0, pretend = 0, frame = 0
 111              		@ frame_needed = 0, uses_anonymous_args = 0
 112              	.LVL4:
 113 0000 38B5     		push	{r3, r4, r5, lr}
 114              		.cfi_def_cfa_offset 16
 115              		.cfi_offset 3, -16
 116              		.cfi_offset 4, -12
 117              		.cfi_offset 5, -8
 118              		.cfi_offset 14, -4
 119 0002 0546     		mov	r5, r0
 120              	.LVL5:
 121              	.LBB6:
  41:motionTask.c  ****     {
 122              		.loc 1 41 0
 123 0004 0024     		movs	r4, #0
 124 0006 0EE0     		b	.L6
 125              	.LVL6:
 126              	.L8:
  43:motionTask.c  ****         {
 127              		.loc 1 43 0
 128 0008 AB43     		bics	r3, r3, r5
 129 000a 0BD1     		bne	.L7
  45:motionTask.c  ****         }
 130              		.loc 1 45 0
 131 000c 0948     		ldr	r0, .L10
 132 000e FFF7FEFF 		bl	printf
 133              	.LVL7:
 134 0012 094B     		ldr	r3, .L10+4
 135 0014 03EBC403 		add	r3, r3, r4, lsl #3
 136 0018 5868     		ldr	r0, [r3, #4]
 137 001a FFF7FEFF 		bl	printf
 138              	.LVL8:
 139 001e 0748     		ldr	r0, .L10+8
 140 0020 FFF7FEFF 		bl	puts
 141              	.LVL9:
 142              	.L7:
  41:motionTask.c  ****     {
 143              		.loc 1 41 0 discriminator 2
 144 0024 0134     		adds	r4, r4, #1
 145              	.LVL10:
 146              	.L6:
  41:motionTask.c  ****     {
 147              		.loc 1 41 0 is_stmt 0 discriminator 1
 148 0026 044B     		ldr	r3, .L10+4
 149 0028 53F83430 		ldr	r3, [r3, r4, lsl #3]
 150 002c 002B     		cmp	r3, #0
 151 002e EBD1     		bne	.L8
 152              	.LBE6:
  48:motionTask.c  **** 
 153              		.loc 1 48 0 is_stmt 1
 154 0030 38BD     		pop	{r3, r4, r5, pc}
 155              	.LVL11:
 156              	.L11:
 157 0032 00BF     		.align	2
ARM GAS  C:\Users\Austina\AppData\Local\Temp\cc3bCXFh.s 			page 6


 158              	.L10:
 159 0034 00000000 		.word	.LC0
 160 0038 00000000 		.word	.LANCHOR1
 161 003c 0C000000 		.word	.LC1
 162              		.cfi_endproc
 163              	.LFE530:
 164              		.size	i2cStatusDecode, .-i2cStatusDecode
 165              		.section	.text.BMI160BurstWrite,"ax",%progbits
 166              		.align	2
 167              		.thumb
 168              		.thumb_func
 169              		.type	BMI160BurstWrite, %function
 170              	BMI160BurstWrite:
 171              	.LFB531:
  53:motionTask.c  ****     cy_en_scb_i2c_status_t retStatus;
 172              		.loc 1 53 0
 173              		.cfi_startproc
 174              		@ args = 0, pretend = 0, frame = 0
 175              		@ frame_needed = 0, uses_anonymous_args = 0
 176              	.LVL12:
 177 0000 70B5     		push	{r4, r5, r6, lr}
 178              		.cfi_def_cfa_offset 16
 179              		.cfi_offset 4, -16
 180              		.cfi_offset 5, -12
 181              		.cfi_offset 6, -8
 182              		.cfi_offset 14, -4
 183 0002 82B0     		sub	sp, sp, #8
 184              		.cfi_def_cfa_offset 24
 185 0004 0C46     		mov	r4, r1
 186 0006 1646     		mov	r6, r2
 187 0008 1D46     		mov	r5, r3
  55:motionTask.c  ****     if(retStatus)i2cStatusDecode(retStatus);
 188              		.loc 1 55 0
 189 000a 164B     		ldr	r3, .L20
 190              	.LVL13:
 191 000c 0093     		str	r3, [sp]
 192 000e 0023     		movs	r3, #0
 193 0010 1A46     		mov	r2, r3
 194              	.LVL14:
 195 0012 0146     		mov	r1, r0
 196              	.LVL15:
 197 0014 1448     		ldr	r0, .L20+4
 198              	.LVL16:
 199 0016 FFF7FEFF 		bl	Cy_SCB_I2C_MasterSendStart
 200              	.LVL17:
  56:motionTask.c  ****     
 201              		.loc 1 56 0
 202 001a 08B1     		cbz	r0, .L13
  56:motionTask.c  ****     
 203              		.loc 1 56 0 is_stmt 0 discriminator 1
 204 001c FFF7FEFF 		bl	i2cStatusDecode
 205              	.LVL18:
 206              	.L13:
  58:motionTask.c  ****     if(retStatus)i2cStatusDecode(retStatus);
 207              		.loc 1 58 0 is_stmt 1
 208 0020 104B     		ldr	r3, .L20
 209 0022 1422     		movs	r2, #20
ARM GAS  C:\Users\Austina\AppData\Local\Temp\cc3bCXFh.s 			page 7


 210 0024 2146     		mov	r1, r4
 211 0026 1048     		ldr	r0, .L20+4
 212 0028 FFF7FEFF 		bl	Cy_SCB_I2C_MasterWriteByte
 213              	.LVL19:
  59:motionTask.c  ****     
 214              		.loc 1 59 0
 215 002c 08B1     		cbz	r0, .L14
  59:motionTask.c  ****     
 216              		.loc 1 59 0 is_stmt 0 discriminator 1
 217 002e FFF7FEFF 		bl	i2cStatusDecode
 218              	.LVL20:
 219              	.L14:
  53:motionTask.c  ****     cy_en_scb_i2c_status_t retStatus;
 220              		.loc 1 53 0 is_stmt 1 discriminator 1
 221 0032 0024     		movs	r4, #0
 222 0034 09E0     		b	.L15
 223              	.LVL21:
 224              	.L17:
 225              	.LBB7:
  63:motionTask.c  ****         if(retStatus)i2cStatusDecode(retStatus);
 226              		.loc 1 63 0
 227 0036 0B4B     		ldr	r3, .L20
 228 0038 1422     		movs	r2, #20
 229 003a 315D     		ldrb	r1, [r6, r4]	@ zero_extendqisi2
 230 003c 0A48     		ldr	r0, .L20+4
 231 003e FFF7FEFF 		bl	Cy_SCB_I2C_MasterWriteByte
 232              	.LVL22:
  64:motionTask.c  ****     }
 233              		.loc 1 64 0
 234 0042 08B1     		cbz	r0, .L16
  64:motionTask.c  ****     }
 235              		.loc 1 64 0 is_stmt 0 discriminator 1
 236 0044 FFF7FEFF 		bl	i2cStatusDecode
 237              	.LVL23:
 238              	.L16:
  61:motionTask.c  ****     {
 239              		.loc 1 61 0 is_stmt 1 discriminator 2
 240 0048 0134     		adds	r4, r4, #1
 241              	.LVL24:
 242              	.L15:
  61:motionTask.c  ****     {
 243              		.loc 1 61 0 is_stmt 0 discriminator 1
 244 004a AC42     		cmp	r4, r5
 245 004c F3DB     		blt	.L17
 246              	.LBE7:
  66:motionTask.c  ****     if(retStatus)i2cStatusDecode(retStatus);
 247              		.loc 1 66 0 is_stmt 1
 248 004e 054A     		ldr	r2, .L20
 249 0050 1421     		movs	r1, #20
 250 0052 0548     		ldr	r0, .L20+4
 251 0054 FFF7FEFF 		bl	Cy_SCB_I2C_MasterSendStop
 252              	.LVL25:
  67:motionTask.c  ****     return 0;
 253              		.loc 1 67 0
 254 0058 08B1     		cbz	r0, .L18
  67:motionTask.c  ****     return 0;
 255              		.loc 1 67 0 is_stmt 0 discriminator 1
ARM GAS  C:\Users\Austina\AppData\Local\Temp\cc3bCXFh.s 			page 8


 256 005a FFF7FEFF 		bl	i2cStatusDecode
 257              	.LVL26:
 258              	.L18:
  69:motionTask.c  **** 
 259              		.loc 1 69 0 is_stmt 1
 260 005e 0020     		movs	r0, #0
 261 0060 02B0     		add	sp, sp, #8
 262              		.cfi_def_cfa_offset 16
 263              		@ sp needed
 264 0062 70BD     		pop	{r4, r5, r6, pc}
 265              	.LVL27:
 266              	.L21:
 267              		.align	2
 268              	.L20:
 269 0064 00000000 		.word	I2C_1_context
 270 0068 00006440 		.word	1080295424
 271              		.cfi_endproc
 272              	.LFE531:
 273              		.size	BMI160BurstWrite, .-BMI160BurstWrite
 274              		.section	.text.BMI160BurstRead,"ax",%progbits
 275              		.align	2
 276              		.thumb
 277              		.thumb_func
 278              		.type	BMI160BurstRead, %function
 279              	BMI160BurstRead:
 280              	.LFB532:
  73:motionTask.c  ****     cy_en_scb_i2c_status_t retStatus;
 281              		.loc 1 73 0
 282              		.cfi_startproc
 283              		@ args = 0, pretend = 0, frame = 0
 284              		@ frame_needed = 0, uses_anonymous_args = 0
 285              	.LVL28:
 286 0000 F0B5     		push	{r4, r5, r6, r7, lr}
 287              		.cfi_def_cfa_offset 20
 288              		.cfi_offset 4, -20
 289              		.cfi_offset 5, -16
 290              		.cfi_offset 6, -12
 291              		.cfi_offset 7, -8
 292              		.cfi_offset 14, -4
 293 0002 83B0     		sub	sp, sp, #12
 294              		.cfi_def_cfa_offset 32
 295 0004 0446     		mov	r4, r0
 296 0006 0F46     		mov	r7, r1
 297 0008 1646     		mov	r6, r2
 298 000a 1D46     		mov	r5, r3
  75:motionTask.c  ****     if(retStatus)i2cStatusDecode(retStatus);
 299              		.loc 1 75 0
 300 000c 234B     		ldr	r3, .L32
 301              	.LVL29:
 302 000e 0093     		str	r3, [sp]
 303 0010 1423     		movs	r3, #20
 304 0012 0022     		movs	r2, #0
 305              	.LVL30:
 306 0014 0146     		mov	r1, r0
 307              	.LVL31:
 308 0016 2248     		ldr	r0, .L32+4
 309              	.LVL32:
ARM GAS  C:\Users\Austina\AppData\Local\Temp\cc3bCXFh.s 			page 9


 310 0018 FFF7FEFF 		bl	Cy_SCB_I2C_MasterSendStart
 311              	.LVL33:
  76:motionTask.c  ****     
 312              		.loc 1 76 0
 313 001c 08B1     		cbz	r0, .L23
  76:motionTask.c  ****     
 314              		.loc 1 76 0 is_stmt 0 discriminator 1
 315 001e FFF7FEFF 		bl	i2cStatusDecode
 316              	.LVL34:
 317              	.L23:
  78:motionTask.c  ****     if(retStatus)i2cStatusDecode(retStatus);
 318              		.loc 1 78 0 is_stmt 1
 319 0022 1E4B     		ldr	r3, .L32
 320 0024 1422     		movs	r2, #20
 321 0026 3946     		mov	r1, r7
 322 0028 1D48     		ldr	r0, .L32+4
 323 002a FFF7FEFF 		bl	Cy_SCB_I2C_MasterWriteByte
 324              	.LVL35:
  79:motionTask.c  ****     
 325              		.loc 1 79 0
 326 002e 08B1     		cbz	r0, .L24
  79:motionTask.c  ****     
 327              		.loc 1 79 0 is_stmt 0 discriminator 1
 328 0030 FFF7FEFF 		bl	i2cStatusDecode
 329              	.LVL36:
 330              	.L24:
  81:motionTask.c  ****     if(retStatus)i2cStatusDecode(retStatus);
 331              		.loc 1 81 0 is_stmt 1
 332 0034 194B     		ldr	r3, .L32
 333 0036 0093     		str	r3, [sp]
 334 0038 1423     		movs	r3, #20
 335 003a 0122     		movs	r2, #1
 336 003c 2146     		mov	r1, r4
 337 003e 1848     		ldr	r0, .L32+4
 338 0040 FFF7FEFF 		bl	Cy_SCB_I2C_MasterSendReStart
 339              	.LVL37:
  82:motionTask.c  ****     
 340              		.loc 1 82 0
 341 0044 08B1     		cbz	r0, .L25
  82:motionTask.c  ****     
 342              		.loc 1 82 0 is_stmt 0 discriminator 1
 343 0046 FFF7FEFF 		bl	i2cStatusDecode
 344              	.LVL38:
 345              	.L25:
  73:motionTask.c  ****     cy_en_scb_i2c_status_t retStatus;
 346              		.loc 1 73 0 is_stmt 1 discriminator 1
 347 004a 0024     		movs	r4, #0
 348 004c 0BE0     		b	.L26
 349              	.LVL39:
 350              	.L28:
 351              	.LBB8:
  86:motionTask.c  ****         if(retStatus)i2cStatusDecode(retStatus);
 352              		.loc 1 86 0
 353 004e 134B     		ldr	r3, .L32
 354 0050 0093     		str	r3, [sp]
 355 0052 1423     		movs	r3, #20
 356 0054 3219     		adds	r2, r6, r4
ARM GAS  C:\Users\Austina\AppData\Local\Temp\cc3bCXFh.s 			page 10


 357 0056 0021     		movs	r1, #0
 358 0058 1148     		ldr	r0, .L32+4
 359 005a FFF7FEFF 		bl	Cy_SCB_I2C_MasterReadByte
 360              	.LVL40:
  87:motionTask.c  ****     }
 361              		.loc 1 87 0
 362 005e 08B1     		cbz	r0, .L27
  87:motionTask.c  ****     }
 363              		.loc 1 87 0 is_stmt 0 discriminator 1
 364 0060 FFF7FEFF 		bl	i2cStatusDecode
 365              	.LVL41:
 366              	.L27:
  84:motionTask.c  ****     {
 367              		.loc 1 84 0 is_stmt 1 discriminator 2
 368 0064 0134     		adds	r4, r4, #1
 369              	.LVL42:
 370              	.L26:
  84:motionTask.c  ****     {
 371              		.loc 1 84 0 is_stmt 0 discriminator 1
 372 0066 6B1E     		subs	r3, r5, #1
 373 0068 9C42     		cmp	r4, r3
 374 006a F0DB     		blt	.L28
 375              	.LBE8:
  89:motionTask.c  ****     if(retStatus)i2cStatusDecode(retStatus);
 376              		.loc 1 89 0 is_stmt 1
 377 006c 1A46     		mov	r2, r3
 378 006e 0B4B     		ldr	r3, .L32
 379 0070 0093     		str	r3, [sp]
 380 0072 1423     		movs	r3, #20
 381 0074 3244     		add	r2, r2, r6
 382 0076 0121     		movs	r1, #1
 383 0078 0948     		ldr	r0, .L32+4
 384 007a FFF7FEFF 		bl	Cy_SCB_I2C_MasterReadByte
 385              	.LVL43:
  90:motionTask.c  ****     
 386              		.loc 1 90 0
 387 007e 08B1     		cbz	r0, .L29
  90:motionTask.c  ****     
 388              		.loc 1 90 0 is_stmt 0 discriminator 1
 389 0080 FFF7FEFF 		bl	i2cStatusDecode
 390              	.LVL44:
 391              	.L29:
  92:motionTask.c  ****     if(retStatus)i2cStatusDecode(retStatus);
 392              		.loc 1 92 0 is_stmt 1
 393 0084 054A     		ldr	r2, .L32
 394 0086 1421     		movs	r1, #20
 395 0088 0548     		ldr	r0, .L32+4
 396 008a FFF7FEFF 		bl	Cy_SCB_I2C_MasterSendStop
 397              	.LVL45:
  93:motionTask.c  ****     
 398              		.loc 1 93 0
 399 008e 08B1     		cbz	r0, .L30
  93:motionTask.c  ****     
 400              		.loc 1 93 0 is_stmt 0 discriminator 1
 401 0090 FFF7FEFF 		bl	i2cStatusDecode
 402              	.LVL46:
 403              	.L30:
ARM GAS  C:\Users\Austina\AppData\Local\Temp\cc3bCXFh.s 			page 11


  96:motionTask.c  **** 
 404              		.loc 1 96 0 is_stmt 1
 405 0094 0020     		movs	r0, #0
 406 0096 03B0     		add	sp, sp, #12
 407              		.cfi_def_cfa_offset 20
 408              		@ sp needed
 409 0098 F0BD     		pop	{r4, r5, r6, r7, pc}
 410              	.LVL47:
 411              	.L33:
 412 009a 00BF     		.align	2
 413              	.L32:
 414 009c 00000000 		.word	I2C_1_context
 415 00a0 00006440 		.word	1080295424
 416              		.cfi_endproc
 417              	.LFE532:
 418              		.size	BMI160BurstRead, .-BMI160BurstRead
 419              		.global	__aeabi_f2d
 420              		.global	__aeabi_dmul
 421              		.global	__aeabi_ddiv
 422              		.global	__aeabi_dsub
 423              		.global	__aeabi_dcmpgt
 424              		.global	__aeabi_dcmpeq
 425              		.global	__aeabi_dcmplt
 426              		.global	__aeabi_d2iz
 427              		.section	.text.motionTask,"ax",%progbits
 428              		.align	2
 429              		.global	motionTask
 430              		.thumb
 431              		.thumb_func
 432              		.type	motionTask, %function
 433              	motionTask:
 434              	.LFB534:
 122:motionTask.c  ****     
 123:motionTask.c  **** }
 124:motionTask.c  **** 
 125:motionTask.c  **** #define MAXACCEL        32768*2
 126:motionTask.c  **** 
 127:motionTask.c  **** void motionTask(void *arg)
 128:motionTask.c  **** {
 435              		.loc 1 128 0
 436              		.cfi_startproc
 437              		@ args = 0, pretend = 0, frame = 40
 438              		@ frame_needed = 0, uses_anonymous_args = 0
 439              	.LVL48:
 440 0000 2DE9F04F 		push	{r4, r5, r6, r7, r8, r9, r10, fp, lr}
 441              		.cfi_def_cfa_offset 36
 442              		.cfi_offset 4, -36
 443              		.cfi_offset 5, -32
 444              		.cfi_offset 6, -28
 445              		.cfi_offset 7, -24
 446              		.cfi_offset 8, -20
 447              		.cfi_offset 9, -16
 448              		.cfi_offset 10, -12
 449              		.cfi_offset 11, -8
 450              		.cfi_offset 14, -4
 451 0004 2DED028B 		vpush.64	{d8}
 452              		.cfi_def_cfa_offset 44
ARM GAS  C:\Users\Austina\AppData\Local\Temp\cc3bCXFh.s 			page 12


 453              		.cfi_offset 80, -44
 454              		.cfi_offset 81, -40
 455 0008 8BB0     		sub	sp, sp, #44
 456              		.cfi_def_cfa_offset 88
 129:motionTask.c  ****     (void) arg;
 130:motionTask.c  ****     serialPrint("\x1b[2J\x1b[;H");
 457              		.loc 1 130 0
 458 000a A34F     		ldr	r7, .L68+24
 459 000c 3846     		mov	r0, r7
 460              	.LVL49:
 461 000e FFF7FEFF 		bl	printf
 462              	.LVL50:
 463 0012 A248     		ldr	r0, .L68+28
 464 0014 FFF7FEFF 		bl	printf
 465              	.LVL51:
 466 0018 A14E     		ldr	r6, .L68+32
 467 001a 3046     		mov	r0, r6
 468 001c FFF7FEFF 		bl	puts
 469              	.LVL52:
 131:motionTask.c  ****     serialPrint("Starting Motion TASK");
 470              		.loc 1 131 0
 471 0020 3846     		mov	r0, r7
 472 0022 FFF7FEFF 		bl	printf
 473              	.LVL53:
 474 0026 9F48     		ldr	r0, .L68+36
 475 0028 FFF7FEFF 		bl	printf
 476              	.LVL54:
 477 002c 3046     		mov	r0, r6
 478 002e FFF7FEFF 		bl	puts
 479              	.LVL55:
 132:motionTask.c  ****     I2C_1_Start();
 480              		.loc 1 132 0
 481 0032 FFF7FEFF 		bl	I2C_1_Start
 482              	.LVL56:
 133:motionTask.c  ****     
 134:motionTask.c  ****     TickType_t lastMovement = 0;
 135:motionTask.c  ****     
 136:motionTask.c  ****     bmi160Init();
 483              		.loc 1 136 0
 484 0036 FFF7FEFF 		bl	bmi160Init
 485              	.LVL57:
 137:motionTask.c  ****     struct bmi160_sensor_data acc;
 138:motionTask.c  ****     
 139:motionTask.c  ****     float gx,gy,gz;
 140:motionTask.c  ****     double m1 ,m2,m1Prev,m2Prev;
 141:motionTask.c  ****     lastMovement = xTaskGetTickCount() + 2000;
 486              		.loc 1 141 0
 487 003a FFF7FEFF 		bl	xTaskGetTickCount
 488              	.LVL58:
 489 003e 00F5FA6A 		add	r10, r0, #2000
 490              	.LVL59:
 491 0042 5746     		mov	r7, r10
 492              	.LVL60:
 493              	.L35:
 142:motionTask.c  ****     
 143:motionTask.c  ****     while(1)
 144:motionTask.c  ****     {
ARM GAS  C:\Users\Austina\AppData\Local\Temp\cc3bCXFh.s 			page 13


 145:motionTask.c  ****         bmi160_get_sensor_data(BMI160_ACCEL_ONLY,&acc,NULL,&bmi160Dev);
 494              		.loc 1 145 0
 495 0044 984B     		ldr	r3, .L68+40
 496 0046 0022     		movs	r2, #0
 497 0048 07A9     		add	r1, sp, #28
 498 004a 0120     		movs	r0, #1
 499 004c FFF7FEFF 		bl	bmi160_get_sensor_data
 500              	.LVL61:
 146:motionTask.c  ****         
 147:motionTask.c  ****         gx = (float)acc.x/MAXACCEL;
 501              		.loc 1 147 0
 502 0050 BDF91C30 		ldrsh	r3, [sp, #28]
 503 0054 07EE103A 		vmov	s14, r3	@ int
 504 0058 B8EEC77A 		vcvt.f32.s32	s14, s14
 505 005c DFED937A 		vldr.32	s15, .L68+44
 506 0060 27EE277A 		vmul.f32	s14, s14, s15
 507 0064 37EE077A 		vadd.f32	s14, s14, s14
 508              	.LVL62:
 148:motionTask.c  ****         gy = (float)acc.y/MAXACCEL;
 509              		.loc 1 148 0
 510 0068 BDF91E30 		ldrsh	r3, [sp, #30]
 511 006c 08EE103A 		vmov	s16, r3	@ int
 512 0070 B8EEC88A 		vcvt.f32.s32	s16, s16
 513 0074 28EE278A 		vmul.f32	s16, s16, s15
 514 0078 38EE088A 		vadd.f32	s16, s16, s16
 515              	.LVL63:
 149:motionTask.c  ****         gz = (float)acc.z/MAXACCEL;
 150:motionTask.c  ****         
 151:motionTask.c  ****         if(gx > 1.0) gx = 1.0;
 516              		.loc 1 151 0
 517 007c F7EE007A 		vmov.f32	s15, #1.0e+0
 518 0080 B4EEE77A 		vcmpe.f32	s14, s15
 519 0084 F1EE10FA 		vmrs	APSR_nzcv, FPSCR
 520 0088 01DD     		ble	.L36
 521 008a B0EE677A 		vmov.f32	s14, s15
 522              	.LVL64:
 523              	.L36:
 152:motionTask.c  ****         if(gx < -1.0) gx = -1.0;
 524              		.loc 1 152 0
 525 008e FFEE007A 		vmov.f32	s15, #-1.0e+0
 526 0092 B4EEE77A 		vcmpe.f32	s14, s15
 527 0096 F1EE10FA 		vmrs	APSR_nzcv, FPSCR
 528 009a 01D5     		bpl	.L37
 529 009c B0EE677A 		vmov.f32	s14, s15
 530              	.LVL65:
 531              	.L37:
 153:motionTask.c  ****         if(gy > 1.0) gy = 1.0;
 532              		.loc 1 153 0
 533 00a0 F7EE007A 		vmov.f32	s15, #1.0e+0
 534 00a4 B4EEE78A 		vcmpe.f32	s16, s15
 535 00a8 F1EE10FA 		vmrs	APSR_nzcv, FPSCR
 536 00ac 01DD     		ble	.L38
 537 00ae B0EE678A 		vmov.f32	s16, s15
 538              	.LVL66:
 539              	.L38:
 154:motionTask.c  ****         if(gy < -1.0) gy = -1.0;
 540              		.loc 1 154 0
ARM GAS  C:\Users\Austina\AppData\Local\Temp\cc3bCXFh.s 			page 14


 541 00b2 FFEE007A 		vmov.f32	s15, #-1.0e+0
 542 00b6 B4EEE78A 		vcmpe.f32	s16, s15
 543 00ba F1EE10FA 		vmrs	APSR_nzcv, FPSCR
 544 00be 01D5     		bpl	.L39
 545 00c0 B0EE678A 		vmov.f32	s16, s15
 546              	.LVL67:
 547              	.L39:
 155:motionTask.c  ****         
 156:motionTask.c  ****         //convert the accel values to %
 157:motionTask.c  ****         
 158:motionTask.c  ****         m1 = acos(gx) * 360 / (2*3.14*1.8);
 548              		.loc 1 158 0
 549 00c4 17EE100A 		vmov	r0, s14
 550 00c8 FFF7FEFF 		bl	__aeabi_f2d
 551              	.LVL68:
 552 00cc FFF7FEFF 		bl	acos
 553              	.LVL69:
 554 00d0 0022     		movs	r2, #0
 555 00d2 774B     		ldr	r3, .L68+48
 556 00d4 FFF7FEFF 		bl	__aeabi_dmul
 557              	.LVL70:
 558 00d8 69A3     		adr	r3, .L68
 559 00da D3E90023 		ldrd	r2, [r3]
 560 00de FFF7FEFF 		bl	__aeabi_ddiv
 561              	.LVL71:
 562 00e2 8246     		mov	r10, r0
 563 00e4 8B46     		mov	fp, r1
 564              	.LVL72:
 159:motionTask.c  ****         m2 = acos(gy) * 360 / (2*3.14*1.8);
 565              		.loc 1 159 0
 566 00e6 18EE100A 		vmov	r0, s16
 567 00ea FFF7FEFF 		bl	__aeabi_f2d
 568              	.LVL73:
 569 00ee FFF7FEFF 		bl	acos
 570              	.LVL74:
 571 00f2 0022     		movs	r2, #0
 572 00f4 6E4B     		ldr	r3, .L68+48
 573 00f6 FFF7FEFF 		bl	__aeabi_dmul
 574              	.LVL75:
 575 00fa 61A3     		adr	r3, .L68
 576 00fc D3E90023 		ldrd	r2, [r3]
 577 0100 FFF7FEFF 		bl	__aeabi_ddiv
 578              	.LVL76:
 579 0104 CDE90001 		strd	r0, [sp]
 580              	.LVL77:
 160:motionTask.c  ****         
 161:motionTask.c  ****         //check if the change is greater than 3% 
 162:motionTask.c  ****         if(fabs(m1-50.0)>3.0 || fabs(m2-50.0)>3.0)
 581              		.loc 1 162 0
 582 0108 0022     		movs	r2, #0
 583 010a 6A4B     		ldr	r3, .L68+52
 584 010c 5046     		mov	r0, r10
 585              	.LVL78:
 586 010e 5946     		mov	r1, fp
 587 0110 FFF7FEFF 		bl	__aeabi_dsub
 588              	.LVL79:
 589 0114 21F00049 		bic	r9, r1, #-2147483648
ARM GAS  C:\Users\Austina\AppData\Local\Temp\cc3bCXFh.s 			page 15


 590 0118 0022     		movs	r2, #0
 591 011a 674B     		ldr	r3, .L68+56
 592 011c 4946     		mov	r1, r9
 593 011e FFF7FEFF 		bl	__aeabi_dcmpgt
 594              	.LVL80:
 595 0122 68B9     		cbnz	r0, .L40
 596              		.loc 1 162 0 is_stmt 0 discriminator 1
 597 0124 0022     		movs	r2, #0
 598 0126 634B     		ldr	r3, .L68+52
 599 0128 DDE90001 		ldrd	r0, [sp]
 600 012c FFF7FEFF 		bl	__aeabi_dsub
 601              	.LVL81:
 602 0130 21F00045 		bic	r5, r1, #-2147483648
 603 0134 0022     		movs	r2, #0
 604 0136 604B     		ldr	r3, .L68+56
 605 0138 2946     		mov	r1, r5
 606 013a FFF7FEFF 		bl	__aeabi_dcmpgt
 607              	.LVL82:
 608 013e 10B1     		cbz	r0, .L41
 609              	.L40:
 163:motionTask.c  ****             lastMovement = xTaskGetTickCount();
 610              		.loc 1 163 0 is_stmt 1
 611 0140 FFF7FEFF 		bl	xTaskGetTickCount
 612              	.LVL83:
 613 0144 0746     		mov	r7, r0
 614              	.LVL84:
 615              	.L41:
 164:motionTask.c  ****             
 165:motionTask.c  ****         //switch to capsense if the last motion movement is greater than 1 second
 166:motionTask.c  ****         if((xTaskGetTickCount() - lastMovement) > 1000)
 616              		.loc 1 166 0
 617 0146 FFF7FEFF 		bl	xTaskGetTickCount
 618              	.LVL85:
 619 014a C01B     		subs	r0, r0, r7
 620 014c B0F57A7F 		cmp	r0, #1000
 621 0150 0CD9     		bls	.L43
 167:motionTask.c  ****         {
 168:motionTask.c  ****             xEventGroupSetBits(systemInputMode,MODE_CAPSENSE);
 622              		.loc 1 168 0
 623 0152 5A4E     		ldr	r6, .L68+60
 624 0154 0221     		movs	r1, #2
 625 0156 3068     		ldr	r0, [r6]
 626 0158 FFF7FEFF 		bl	xEventGroupSetBits
 627              	.LVL86:
 169:motionTask.c  ****             xEventGroupClearBits(systemInputMode,MODE_MOTION);
 628              		.loc 1 169 0
 629 015c 0121     		movs	r1, #1
 630 015e 3068     		ldr	r0, [r6]
 631 0160 FFF7FEFF 		bl	xEventGroupClearBits
 632              	.LVL87:
 633              	.LBB9:
 634              	.LBB10:
 635              		.file 2 "Generated_Source\\PSoC6\\pdl\\drivers/peripheral/gpio/cy_gpio.h"
   1:Generated_Source\PSoC6\pdl\drivers/peripheral/gpio/cy_gpio.h **** /***************************************************************************//**
   2:Generated_Source\PSoC6\pdl\drivers/peripheral/gpio/cy_gpio.h **** * \file cy_gpio.h
   3:Generated_Source\PSoC6\pdl\drivers/peripheral/gpio/cy_gpio.h **** * \version 1.20
   4:Generated_Source\PSoC6\pdl\drivers/peripheral/gpio/cy_gpio.h **** *
ARM GAS  C:\Users\Austina\AppData\Local\Temp\cc3bCXFh.s 			page 16


   5:Generated_Source\PSoC6\pdl\drivers/peripheral/gpio/cy_gpio.h **** * Provides an API declaration of the GPIO driver
   6:Generated_Source\PSoC6\pdl\drivers/peripheral/gpio/cy_gpio.h **** *
   7:Generated_Source\PSoC6\pdl\drivers/peripheral/gpio/cy_gpio.h **** ********************************************************************************
   8:Generated_Source\PSoC6\pdl\drivers/peripheral/gpio/cy_gpio.h **** * \copyright
   9:Generated_Source\PSoC6\pdl\drivers/peripheral/gpio/cy_gpio.h **** * Copyright 2016-2018, Cypress Semiconductor Corporation. All rights reserved.
  10:Generated_Source\PSoC6\pdl\drivers/peripheral/gpio/cy_gpio.h **** * You may use this file only in accordance with the license, terms, conditions,
  11:Generated_Source\PSoC6\pdl\drivers/peripheral/gpio/cy_gpio.h **** * disclaimers, and limitations in the end user license agreement accompanying
  12:Generated_Source\PSoC6\pdl\drivers/peripheral/gpio/cy_gpio.h **** * the software package with which this file was provided.
  13:Generated_Source\PSoC6\pdl\drivers/peripheral/gpio/cy_gpio.h **** *******************************************************************************/
  14:Generated_Source\PSoC6\pdl\drivers/peripheral/gpio/cy_gpio.h **** 
  15:Generated_Source\PSoC6\pdl\drivers/peripheral/gpio/cy_gpio.h **** /**
  16:Generated_Source\PSoC6\pdl\drivers/peripheral/gpio/cy_gpio.h **** * \addtogroup group_gpio
  17:Generated_Source\PSoC6\pdl\drivers/peripheral/gpio/cy_gpio.h **** * \{
  18:Generated_Source\PSoC6\pdl\drivers/peripheral/gpio/cy_gpio.h **** * The GPIO driver provides an API to configure and access device Input/Output pins.
  19:Generated_Source\PSoC6\pdl\drivers/peripheral/gpio/cy_gpio.h **** *
  20:Generated_Source\PSoC6\pdl\drivers/peripheral/gpio/cy_gpio.h **** * The functions and other declarations used in this driver are in cy_gpio.h. 
  21:Generated_Source\PSoC6\pdl\drivers/peripheral/gpio/cy_gpio.h **** * You can include cy_pdl.h (ModusToolbox only) to get access to all functions 
  22:Generated_Source\PSoC6\pdl\drivers/peripheral/gpio/cy_gpio.h **** * and declarations in the PDL.
  23:Generated_Source\PSoC6\pdl\drivers/peripheral/gpio/cy_gpio.h **** *
  24:Generated_Source\PSoC6\pdl\drivers/peripheral/gpio/cy_gpio.h **** * IO pins include all general purpose types such as GPIO, SIO, HSIO, AUXIO, and
  25:Generated_Source\PSoC6\pdl\drivers/peripheral/gpio/cy_gpio.h **** * their variants.
  26:Generated_Source\PSoC6\pdl\drivers/peripheral/gpio/cy_gpio.h **** *
  27:Generated_Source\PSoC6\pdl\drivers/peripheral/gpio/cy_gpio.h **** * Initialization can be performed either at the port level or by configuring the
  28:Generated_Source\PSoC6\pdl\drivers/peripheral/gpio/cy_gpio.h **** * individual pins. For efficient use of code space, port
  29:Generated_Source\PSoC6\pdl\drivers/peripheral/gpio/cy_gpio.h **** * configuration should be used in the field. Refer to the product device header files 
  30:Generated_Source\PSoC6\pdl\drivers/peripheral/gpio/cy_gpio.h **** * for the list of supported ports and pins.
  31:Generated_Source\PSoC6\pdl\drivers/peripheral/gpio/cy_gpio.h **** * 
  32:Generated_Source\PSoC6\pdl\drivers/peripheral/gpio/cy_gpio.h **** * - Single pin configuration is performed by using \ref Cy_GPIO_Pin_FastInit 
  33:Generated_Source\PSoC6\pdl\drivers/peripheral/gpio/cy_gpio.h **** *   (provide specific values) or \ref Cy_GPIO_Pin_Init (provide a filled
  34:Generated_Source\PSoC6\pdl\drivers/peripheral/gpio/cy_gpio.h **** *   cy_stc_gpio_pin_config_t structure).
  35:Generated_Source\PSoC6\pdl\drivers/peripheral/gpio/cy_gpio.h **** * - An entire port can be configured using \ref Cy_GPIO_Port_Init. Provide a filled 
  36:Generated_Source\PSoC6\pdl\drivers/peripheral/gpio/cy_gpio.h **** *   cy_stc_gpio_prt_config_t structure. The values in the structure are 
  37:Generated_Source\PSoC6\pdl\drivers/peripheral/gpio/cy_gpio.h **** *   bitfields representing the desired value for each pin in the port.
  38:Generated_Source\PSoC6\pdl\drivers/peripheral/gpio/cy_gpio.h **** * - Pin configuration and management is based on the port address and pin number.
  39:Generated_Source\PSoC6\pdl\drivers/peripheral/gpio/cy_gpio.h **** *   \ref Cy_GPIO_PortToAddr function can optionally be used to calculate the port
  40:Generated_Source\PSoC6\pdl\drivers/peripheral/gpio/cy_gpio.h **** *   address from the port number at run-time.
  41:Generated_Source\PSoC6\pdl\drivers/peripheral/gpio/cy_gpio.h **** *
  42:Generated_Source\PSoC6\pdl\drivers/peripheral/gpio/cy_gpio.h **** * Once the pin/port initialization is complete, each pin can be accessed by 
  43:Generated_Source\PSoC6\pdl\drivers/peripheral/gpio/cy_gpio.h **** * specifying the port (GPIO_PRT_Type) and the pin (0-7) in the provided API 
  44:Generated_Source\PSoC6\pdl\drivers/peripheral/gpio/cy_gpio.h **** * functions.
  45:Generated_Source\PSoC6\pdl\drivers/peripheral/gpio/cy_gpio.h **** *
  46:Generated_Source\PSoC6\pdl\drivers/peripheral/gpio/cy_gpio.h **** * \section group_gpio_configuration Configuration Considerations
  47:Generated_Source\PSoC6\pdl\drivers/peripheral/gpio/cy_gpio.h **** *
  48:Generated_Source\PSoC6\pdl\drivers/peripheral/gpio/cy_gpio.h **** * 1. Pin multiplexing is controlled through the High-Speed IO Matrix (HSIOM) selection.
  49:Generated_Source\PSoC6\pdl\drivers/peripheral/gpio/cy_gpio.h **** *    This allows the pin to connect to signal sources/sinks throughout the device,
  50:Generated_Source\PSoC6\pdl\drivers/peripheral/gpio/cy_gpio.h **** *    as defined by the pin HSIOM selection options (en_hsiom_sel_t).
  51:Generated_Source\PSoC6\pdl\drivers/peripheral/gpio/cy_gpio.h **** * 2. All pins are initialized to High-Z drive mode with HSIOM connected to CPU (SW
  52:Generated_Source\PSoC6\pdl\drivers/peripheral/gpio/cy_gpio.h **** *    control digital pin only) at Power-On-Reset(POR).
  53:Generated_Source\PSoC6\pdl\drivers/peripheral/gpio/cy_gpio.h **** * 3. Some API functions perform read-modify-write operations on shared port
  54:Generated_Source\PSoC6\pdl\drivers/peripheral/gpio/cy_gpio.h **** *    registers. These functions are not thread safe and care must be taken when
  55:Generated_Source\PSoC6\pdl\drivers/peripheral/gpio/cy_gpio.h **** *    called by the application.
  56:Generated_Source\PSoC6\pdl\drivers/peripheral/gpio/cy_gpio.h **** * 4. Digital input buffer provides a high-impedance buffer for the external 
  57:Generated_Source\PSoC6\pdl\drivers/peripheral/gpio/cy_gpio.h **** *    digital input. The input buffer is connected to the HSIOM for routing to 
  58:Generated_Source\PSoC6\pdl\drivers/peripheral/gpio/cy_gpio.h **** *    the CPU port registers and selected peripheral. Enabling the input 
  59:Generated_Source\PSoC6\pdl\drivers/peripheral/gpio/cy_gpio.h **** *    buffer provides possibility to read the pin state via the CPU.
  60:Generated_Source\PSoC6\pdl\drivers/peripheral/gpio/cy_gpio.h **** *    If pin is connected to an analog signal, the input buffer should be 
  61:Generated_Source\PSoC6\pdl\drivers/peripheral/gpio/cy_gpio.h **** *    disabled to avoid crowbar currents. For more information refer to device 
ARM GAS  C:\Users\Austina\AppData\Local\Temp\cc3bCXFh.s 			page 17


  62:Generated_Source\PSoC6\pdl\drivers/peripheral/gpio/cy_gpio.h **** *    TRM and the device datasheet.
  63:Generated_Source\PSoC6\pdl\drivers/peripheral/gpio/cy_gpio.h **** *
  64:Generated_Source\PSoC6\pdl\drivers/peripheral/gpio/cy_gpio.h **** * Multiple pins on a port can be updated using direct port register writes with an
  65:Generated_Source\PSoC6\pdl\drivers/peripheral/gpio/cy_gpio.h **** * appropriate port mask. An example is shown below, highlighting the different ways of 
  66:Generated_Source\PSoC6\pdl\drivers/peripheral/gpio/cy_gpio.h **** * configuring Port 1 pins using:
  67:Generated_Source\PSoC6\pdl\drivers/peripheral/gpio/cy_gpio.h **** * 
  68:Generated_Source\PSoC6\pdl\drivers/peripheral/gpio/cy_gpio.h **** * - Port output data register
  69:Generated_Source\PSoC6\pdl\drivers/peripheral/gpio/cy_gpio.h **** * - Port output data set register
  70:Generated_Source\PSoC6\pdl\drivers/peripheral/gpio/cy_gpio.h **** * - Port output data clear register
  71:Generated_Source\PSoC6\pdl\drivers/peripheral/gpio/cy_gpio.h **** *
  72:Generated_Source\PSoC6\pdl\drivers/peripheral/gpio/cy_gpio.h **** * \snippet gpio/gpio_v1_10_sut_01.cydsn/main_cm4.c Cy_GPIO_Snippet
  73:Generated_Source\PSoC6\pdl\drivers/peripheral/gpio/cy_gpio.h **** *
  74:Generated_Source\PSoC6\pdl\drivers/peripheral/gpio/cy_gpio.h **** * \section group_gpio_more_information More Information
  75:Generated_Source\PSoC6\pdl\drivers/peripheral/gpio/cy_gpio.h **** *
  76:Generated_Source\PSoC6\pdl\drivers/peripheral/gpio/cy_gpio.h **** * Refer to the technical reference manual (TRM) and the device datasheet.
  77:Generated_Source\PSoC6\pdl\drivers/peripheral/gpio/cy_gpio.h **** *
  78:Generated_Source\PSoC6\pdl\drivers/peripheral/gpio/cy_gpio.h **** * \section group_gpio_MISRA MISRA-C Compliance
  79:Generated_Source\PSoC6\pdl\drivers/peripheral/gpio/cy_gpio.h **** * The GPIO driver has the following specific deviations:
  80:Generated_Source\PSoC6\pdl\drivers/peripheral/gpio/cy_gpio.h **** *
  81:Generated_Source\PSoC6\pdl\drivers/peripheral/gpio/cy_gpio.h **** * <table class="doxtable">
  82:Generated_Source\PSoC6\pdl\drivers/peripheral/gpio/cy_gpio.h **** *   <tr>
  83:Generated_Source\PSoC6\pdl\drivers/peripheral/gpio/cy_gpio.h **** *     <th>MISRA Rule</th>
  84:Generated_Source\PSoC6\pdl\drivers/peripheral/gpio/cy_gpio.h **** *     <th>Rule Class (Required/Advisory)</th>
  85:Generated_Source\PSoC6\pdl\drivers/peripheral/gpio/cy_gpio.h **** *     <th>Rule Description</th>
  86:Generated_Source\PSoC6\pdl\drivers/peripheral/gpio/cy_gpio.h **** *     <th>Description of Deviation(s)</th>
  87:Generated_Source\PSoC6\pdl\drivers/peripheral/gpio/cy_gpio.h **** *   </tr>
  88:Generated_Source\PSoC6\pdl\drivers/peripheral/gpio/cy_gpio.h **** *   <tr>
  89:Generated_Source\PSoC6\pdl\drivers/peripheral/gpio/cy_gpio.h **** *     <td>11.4</td>
  90:Generated_Source\PSoC6\pdl\drivers/peripheral/gpio/cy_gpio.h **** *     <td>A</td>
  91:Generated_Source\PSoC6\pdl\drivers/peripheral/gpio/cy_gpio.h **** *     <td>A cast should not be performed between a pointer to object type and
  92:Generated_Source\PSoC6\pdl\drivers/peripheral/gpio/cy_gpio.h **** *         a different pointer to object type.</td>
  93:Generated_Source\PSoC6\pdl\drivers/peripheral/gpio/cy_gpio.h **** *     <td> This code is safe because the elements of both GPIO_PRT_V1_Type and GPIO_PRT_V2_Type 
  94:Generated_Source\PSoC6\pdl\drivers/peripheral/gpio/cy_gpio.h **** *          types have identical alignment.</td>
  95:Generated_Source\PSoC6\pdl\drivers/peripheral/gpio/cy_gpio.h **** *   </tr>
  96:Generated_Source\PSoC6\pdl\drivers/peripheral/gpio/cy_gpio.h **** *   <tr>
  97:Generated_Source\PSoC6\pdl\drivers/peripheral/gpio/cy_gpio.h **** *     <td>16.7</td>
  98:Generated_Source\PSoC6\pdl\drivers/peripheral/gpio/cy_gpio.h **** *     <td>A</td>
  99:Generated_Source\PSoC6\pdl\drivers/peripheral/gpio/cy_gpio.h **** *     <td>A pointer parameter in a function prototype should be declared as pointer 
 100:Generated_Source\PSoC6\pdl\drivers/peripheral/gpio/cy_gpio.h **** *         to const if the pointer is not used to modify the addressed object.</td>
 101:Generated_Source\PSoC6\pdl\drivers/peripheral/gpio/cy_gpio.h **** *     <td>The objects pointed to by the base addresses of the GPIO port are not always modified.
 102:Generated_Source\PSoC6\pdl\drivers/peripheral/gpio/cy_gpio.h **** *         While a const qualifier can be used in select scenarios, it brings little benefit
 103:Generated_Source\PSoC6\pdl\drivers/peripheral/gpio/cy_gpio.h **** *         in adding this to the affected functions. </td>
 104:Generated_Source\PSoC6\pdl\drivers/peripheral/gpio/cy_gpio.h **** *   </tr>
 105:Generated_Source\PSoC6\pdl\drivers/peripheral/gpio/cy_gpio.h **** * </table>
 106:Generated_Source\PSoC6\pdl\drivers/peripheral/gpio/cy_gpio.h **** *
 107:Generated_Source\PSoC6\pdl\drivers/peripheral/gpio/cy_gpio.h **** * \section group_gpio_changelog Changelog
 108:Generated_Source\PSoC6\pdl\drivers/peripheral/gpio/cy_gpio.h **** * <table class="doxtable">
 109:Generated_Source\PSoC6\pdl\drivers/peripheral/gpio/cy_gpio.h **** *   <tr><th>Version</th><th>Changes</th><th>Reason for Change</th></tr>
 110:Generated_Source\PSoC6\pdl\drivers/peripheral/gpio/cy_gpio.h **** *   <tr>
 111:Generated_Source\PSoC6\pdl\drivers/peripheral/gpio/cy_gpio.h **** *     <td rowspan="3">1.20</td>
 112:Generated_Source\PSoC6\pdl\drivers/peripheral/gpio/cy_gpio.h **** *     <td>Flattened the organization of the driver source code into the single source directory and
 113:Generated_Source\PSoC6\pdl\drivers/peripheral/gpio/cy_gpio.h **** *     <td>Driver library directory-structure simplification.</td>
 114:Generated_Source\PSoC6\pdl\drivers/peripheral/gpio/cy_gpio.h **** *   </tr>
 115:Generated_Source\PSoC6\pdl\drivers/peripheral/gpio/cy_gpio.h **** *   <tr>
 116:Generated_Source\PSoC6\pdl\drivers/peripheral/gpio/cy_gpio.h **** *     <td>Added the functions for configuring the AMux bus splitter switch cells:
 117:Generated_Source\PSoC6\pdl\drivers/peripheral/gpio/cy_gpio.h **** *     - \ref Cy_GPIO_SetAmuxSplit
 118:Generated_Source\PSoC6\pdl\drivers/peripheral/gpio/cy_gpio.h **** *     - \ref Cy_GPIO_GetAmuxSplit
ARM GAS  C:\Users\Austina\AppData\Local\Temp\cc3bCXFh.s 			page 18


 119:Generated_Source\PSoC6\pdl\drivers/peripheral/gpio/cy_gpio.h **** *     </td>
 120:Generated_Source\PSoC6\pdl\drivers/peripheral/gpio/cy_gpio.h **** *     <td>Added a new functionality related to AMux bus.</td>
 121:Generated_Source\PSoC6\pdl\drivers/peripheral/gpio/cy_gpio.h **** *   </tr>
 122:Generated_Source\PSoC6\pdl\drivers/peripheral/gpio/cy_gpio.h **** *   <tr>
 123:Generated_Source\PSoC6\pdl\drivers/peripheral/gpio/cy_gpio.h **** *     <td>Added register access layer. Use register access macros instead
 124:Generated_Source\PSoC6\pdl\drivers/peripheral/gpio/cy_gpio.h **** *         of direct register access using dereferenced pointers.</td>
 125:Generated_Source\PSoC6\pdl\drivers/peripheral/gpio/cy_gpio.h **** *     <td>Makes register access device-independent, so that the PDL does 
 126:Generated_Source\PSoC6\pdl\drivers/peripheral/gpio/cy_gpio.h **** *         not need to be recompiled for each supported part number.</td>
 127:Generated_Source\PSoC6\pdl\drivers/peripheral/gpio/cy_gpio.h **** *   </tr>
 128:Generated_Source\PSoC6\pdl\drivers/peripheral/gpio/cy_gpio.h **** *   <tr>
 129:Generated_Source\PSoC6\pdl\drivers/peripheral/gpio/cy_gpio.h **** *     <td>1.10.1</td>
 130:Generated_Source\PSoC6\pdl\drivers/peripheral/gpio/cy_gpio.h **** *     <td>Updated description for the functions: \ref Cy_GPIO_GetInterruptStatus, 
 131:Generated_Source\PSoC6\pdl\drivers/peripheral/gpio/cy_gpio.h **** *         \ref Cy_GPIO_GetInterruptMask, \ref Cy_GPIO_GetInterruptStatusMasked.
 132:Generated_Source\PSoC6\pdl\drivers/peripheral/gpio/cy_gpio.h **** *
 133:Generated_Source\PSoC6\pdl\drivers/peripheral/gpio/cy_gpio.h **** *         Minor documentation edits.
 134:Generated_Source\PSoC6\pdl\drivers/peripheral/gpio/cy_gpio.h **** *     </td>
 135:Generated_Source\PSoC6\pdl\drivers/peripheral/gpio/cy_gpio.h **** *     <td>Documentation update and clarification</td>
 136:Generated_Source\PSoC6\pdl\drivers/peripheral/gpio/cy_gpio.h **** *   </tr>
 137:Generated_Source\PSoC6\pdl\drivers/peripheral/gpio/cy_gpio.h **** *   <tr>
 138:Generated_Source\PSoC6\pdl\drivers/peripheral/gpio/cy_gpio.h **** *     <td>1.10</td>
 139:Generated_Source\PSoC6\pdl\drivers/peripheral/gpio/cy_gpio.h **** *     <td>Added input parameter validation to the API functions</td>
 140:Generated_Source\PSoC6\pdl\drivers/peripheral/gpio/cy_gpio.h **** *     <td></td>
 141:Generated_Source\PSoC6\pdl\drivers/peripheral/gpio/cy_gpio.h **** *   </tr>
 142:Generated_Source\PSoC6\pdl\drivers/peripheral/gpio/cy_gpio.h **** *   <tr>
 143:Generated_Source\PSoC6\pdl\drivers/peripheral/gpio/cy_gpio.h **** *     <td>1.0</td>
 144:Generated_Source\PSoC6\pdl\drivers/peripheral/gpio/cy_gpio.h **** *     <td>Initial version</td>
 145:Generated_Source\PSoC6\pdl\drivers/peripheral/gpio/cy_gpio.h **** *     <td></td>
 146:Generated_Source\PSoC6\pdl\drivers/peripheral/gpio/cy_gpio.h **** *   </tr>
 147:Generated_Source\PSoC6\pdl\drivers/peripheral/gpio/cy_gpio.h **** * </table>
 148:Generated_Source\PSoC6\pdl\drivers/peripheral/gpio/cy_gpio.h **** *
 149:Generated_Source\PSoC6\pdl\drivers/peripheral/gpio/cy_gpio.h **** * \defgroup group_gpio_macros Macros
 150:Generated_Source\PSoC6\pdl\drivers/peripheral/gpio/cy_gpio.h **** * \defgroup group_gpio_functions Functions
 151:Generated_Source\PSoC6\pdl\drivers/peripheral/gpio/cy_gpio.h **** * \{
 152:Generated_Source\PSoC6\pdl\drivers/peripheral/gpio/cy_gpio.h **** *   \defgroup group_gpio_functions_init       Initialization Functions
 153:Generated_Source\PSoC6\pdl\drivers/peripheral/gpio/cy_gpio.h **** *   \defgroup group_gpio_functions_gpio       GPIO Functions
 154:Generated_Source\PSoC6\pdl\drivers/peripheral/gpio/cy_gpio.h **** *   \defgroup group_gpio_functions_sio        SIO Functions
 155:Generated_Source\PSoC6\pdl\drivers/peripheral/gpio/cy_gpio.h **** *   \defgroup group_gpio_functions_interrupt  Port Interrupt Functions
 156:Generated_Source\PSoC6\pdl\drivers/peripheral/gpio/cy_gpio.h **** * \}
 157:Generated_Source\PSoC6\pdl\drivers/peripheral/gpio/cy_gpio.h **** * \defgroup group_gpio_data_structures Data Structures
 158:Generated_Source\PSoC6\pdl\drivers/peripheral/gpio/cy_gpio.h **** * \defgroup group_gpio_enums Enumerated Types
 159:Generated_Source\PSoC6\pdl\drivers/peripheral/gpio/cy_gpio.h **** */
 160:Generated_Source\PSoC6\pdl\drivers/peripheral/gpio/cy_gpio.h **** 
 161:Generated_Source\PSoC6\pdl\drivers/peripheral/gpio/cy_gpio.h **** #if !defined(CY_GPIO_H)
 162:Generated_Source\PSoC6\pdl\drivers/peripheral/gpio/cy_gpio.h **** #define CY_GPIO_H
 163:Generated_Source\PSoC6\pdl\drivers/peripheral/gpio/cy_gpio.h **** 
 164:Generated_Source\PSoC6\pdl\drivers/peripheral/gpio/cy_gpio.h **** #include <stddef.h>
 165:Generated_Source\PSoC6\pdl\drivers/peripheral/gpio/cy_gpio.h **** #include "cy_device.h"
 166:Generated_Source\PSoC6\pdl\drivers/peripheral/gpio/cy_gpio.h **** #include "cy_device_headers.h"
 167:Generated_Source\PSoC6\pdl\drivers/peripheral/gpio/cy_gpio.h **** #include "cy_syslib.h"
 168:Generated_Source\PSoC6\pdl\drivers/peripheral/gpio/cy_gpio.h **** 
 169:Generated_Source\PSoC6\pdl\drivers/peripheral/gpio/cy_gpio.h **** #if defined(__cplusplus)
 170:Generated_Source\PSoC6\pdl\drivers/peripheral/gpio/cy_gpio.h **** extern "C" {
 171:Generated_Source\PSoC6\pdl\drivers/peripheral/gpio/cy_gpio.h **** #endif
 172:Generated_Source\PSoC6\pdl\drivers/peripheral/gpio/cy_gpio.h **** 
 173:Generated_Source\PSoC6\pdl\drivers/peripheral/gpio/cy_gpio.h **** /** \addtogroup group_gpio_macros
 174:Generated_Source\PSoC6\pdl\drivers/peripheral/gpio/cy_gpio.h **** * \{
 175:Generated_Source\PSoC6\pdl\drivers/peripheral/gpio/cy_gpio.h **** */
ARM GAS  C:\Users\Austina\AppData\Local\Temp\cc3bCXFh.s 			page 19


 176:Generated_Source\PSoC6\pdl\drivers/peripheral/gpio/cy_gpio.h **** 
 177:Generated_Source\PSoC6\pdl\drivers/peripheral/gpio/cy_gpio.h **** /** Driver major version */
 178:Generated_Source\PSoC6\pdl\drivers/peripheral/gpio/cy_gpio.h **** #define CY_GPIO_DRV_VERSION_MAJOR       1
 179:Generated_Source\PSoC6\pdl\drivers/peripheral/gpio/cy_gpio.h **** 
 180:Generated_Source\PSoC6\pdl\drivers/peripheral/gpio/cy_gpio.h **** /** Driver minor version */
 181:Generated_Source\PSoC6\pdl\drivers/peripheral/gpio/cy_gpio.h **** #define CY_GPIO_DRV_VERSION_MINOR       20
 182:Generated_Source\PSoC6\pdl\drivers/peripheral/gpio/cy_gpio.h **** 
 183:Generated_Source\PSoC6\pdl\drivers/peripheral/gpio/cy_gpio.h **** /** GPIO driver ID */
 184:Generated_Source\PSoC6\pdl\drivers/peripheral/gpio/cy_gpio.h **** #define CY_GPIO_ID CY_PDL_DRV_ID(0x16U)
 185:Generated_Source\PSoC6\pdl\drivers/peripheral/gpio/cy_gpio.h **** 
 186:Generated_Source\PSoC6\pdl\drivers/peripheral/gpio/cy_gpio.h **** /** \} group_gpio_macros */
 187:Generated_Source\PSoC6\pdl\drivers/peripheral/gpio/cy_gpio.h **** 
 188:Generated_Source\PSoC6\pdl\drivers/peripheral/gpio/cy_gpio.h **** 
 189:Generated_Source\PSoC6\pdl\drivers/peripheral/gpio/cy_gpio.h **** /***************************************
 190:Generated_Source\PSoC6\pdl\drivers/peripheral/gpio/cy_gpio.h **** *       Enumerations
 191:Generated_Source\PSoC6\pdl\drivers/peripheral/gpio/cy_gpio.h **** ***************************************/
 192:Generated_Source\PSoC6\pdl\drivers/peripheral/gpio/cy_gpio.h **** /**
 193:Generated_Source\PSoC6\pdl\drivers/peripheral/gpio/cy_gpio.h **** * \addtogroup group_gpio_enums
 194:Generated_Source\PSoC6\pdl\drivers/peripheral/gpio/cy_gpio.h **** * \{
 195:Generated_Source\PSoC6\pdl\drivers/peripheral/gpio/cy_gpio.h **** */
 196:Generated_Source\PSoC6\pdl\drivers/peripheral/gpio/cy_gpio.h **** 
 197:Generated_Source\PSoC6\pdl\drivers/peripheral/gpio/cy_gpio.h **** /** GPIO Driver error codes */
 198:Generated_Source\PSoC6\pdl\drivers/peripheral/gpio/cy_gpio.h **** typedef enum 
 199:Generated_Source\PSoC6\pdl\drivers/peripheral/gpio/cy_gpio.h **** {
 200:Generated_Source\PSoC6\pdl\drivers/peripheral/gpio/cy_gpio.h ****     CY_GPIO_SUCCESS   = 0x00U,                                    /**< Returned successful */
 201:Generated_Source\PSoC6\pdl\drivers/peripheral/gpio/cy_gpio.h ****     CY_GPIO_BAD_PARAM = CY_GPIO_ID | CY_PDL_STATUS_ERROR | 0x01U, /**< Bad parameter was passed */
 202:Generated_Source\PSoC6\pdl\drivers/peripheral/gpio/cy_gpio.h **** } cy_en_gpio_status_t;
 203:Generated_Source\PSoC6\pdl\drivers/peripheral/gpio/cy_gpio.h **** 
 204:Generated_Source\PSoC6\pdl\drivers/peripheral/gpio/cy_gpio.h **** /** AMux switch open/close config */
 205:Generated_Source\PSoC6\pdl\drivers/peripheral/gpio/cy_gpio.h **** typedef enum
 206:Generated_Source\PSoC6\pdl\drivers/peripheral/gpio/cy_gpio.h **** {
 207:Generated_Source\PSoC6\pdl\drivers/peripheral/gpio/cy_gpio.h ****     CY_GPIO_AMUX_OPENALL,   /**< Open ground switch. Open right switch. Open left switch */
 208:Generated_Source\PSoC6\pdl\drivers/peripheral/gpio/cy_gpio.h ****     CY_GPIO_AMUX_L,         /**< Open ground switch. Open right switch. Close left switch */
 209:Generated_Source\PSoC6\pdl\drivers/peripheral/gpio/cy_gpio.h ****     CY_GPIO_AMUX_R,         /**< Open ground switch. Close right switch. Open left switch */
 210:Generated_Source\PSoC6\pdl\drivers/peripheral/gpio/cy_gpio.h ****     CY_GPIO_AMUX_LR,        /**< Open ground switch. Close right switch. Close left switch */
 211:Generated_Source\PSoC6\pdl\drivers/peripheral/gpio/cy_gpio.h ****     CY_GPIO_AMUX_G,         /**< Close ground switch. Open right switch. Open left switch */
 212:Generated_Source\PSoC6\pdl\drivers/peripheral/gpio/cy_gpio.h ****     CY_GPIO_AMUX_GL,        /**< Close ground switch. Open right switch. Close left switch */
 213:Generated_Source\PSoC6\pdl\drivers/peripheral/gpio/cy_gpio.h ****     CY_GPIO_AMUX_GR,        /**< Close ground switch. Close right switch. Open left switch */
 214:Generated_Source\PSoC6\pdl\drivers/peripheral/gpio/cy_gpio.h ****     CY_GPIO_AMUX_GLR,       /**< Close ground switch. Close right switch. Close left switch */
 215:Generated_Source\PSoC6\pdl\drivers/peripheral/gpio/cy_gpio.h **** }cy_en_gpio_amuxconnect_t;
 216:Generated_Source\PSoC6\pdl\drivers/peripheral/gpio/cy_gpio.h **** 
 217:Generated_Source\PSoC6\pdl\drivers/peripheral/gpio/cy_gpio.h **** /**
 218:Generated_Source\PSoC6\pdl\drivers/peripheral/gpio/cy_gpio.h **** * AMux Bus selection
 219:Generated_Source\PSoC6\pdl\drivers/peripheral/gpio/cy_gpio.h **** */
 220:Generated_Source\PSoC6\pdl\drivers/peripheral/gpio/cy_gpio.h **** typedef enum
 221:Generated_Source\PSoC6\pdl\drivers/peripheral/gpio/cy_gpio.h **** {
 222:Generated_Source\PSoC6\pdl\drivers/peripheral/gpio/cy_gpio.h ****     CY_GPIO_AMUXBUSA,       /**< AMuxBus A */
 223:Generated_Source\PSoC6\pdl\drivers/peripheral/gpio/cy_gpio.h ****     CY_GPIO_AMUXBUSB        /**< AMuxBus B */
 224:Generated_Source\PSoC6\pdl\drivers/peripheral/gpio/cy_gpio.h **** }cy_en_gpio_amuxselect_t;
 225:Generated_Source\PSoC6\pdl\drivers/peripheral/gpio/cy_gpio.h **** 
 226:Generated_Source\PSoC6\pdl\drivers/peripheral/gpio/cy_gpio.h **** /** \} group_gpio_enums */
 227:Generated_Source\PSoC6\pdl\drivers/peripheral/gpio/cy_gpio.h **** 
 228:Generated_Source\PSoC6\pdl\drivers/peripheral/gpio/cy_gpio.h **** 
 229:Generated_Source\PSoC6\pdl\drivers/peripheral/gpio/cy_gpio.h **** /***************************************
 230:Generated_Source\PSoC6\pdl\drivers/peripheral/gpio/cy_gpio.h **** *       Configuration Structures
 231:Generated_Source\PSoC6\pdl\drivers/peripheral/gpio/cy_gpio.h **** ***************************************/
 232:Generated_Source\PSoC6\pdl\drivers/peripheral/gpio/cy_gpio.h **** 
ARM GAS  C:\Users\Austina\AppData\Local\Temp\cc3bCXFh.s 			page 20


 233:Generated_Source\PSoC6\pdl\drivers/peripheral/gpio/cy_gpio.h **** /**
 234:Generated_Source\PSoC6\pdl\drivers/peripheral/gpio/cy_gpio.h **** * \addtogroup group_gpio_data_structures
 235:Generated_Source\PSoC6\pdl\drivers/peripheral/gpio/cy_gpio.h **** * \{
 236:Generated_Source\PSoC6\pdl\drivers/peripheral/gpio/cy_gpio.h **** */
 237:Generated_Source\PSoC6\pdl\drivers/peripheral/gpio/cy_gpio.h **** 
 238:Generated_Source\PSoC6\pdl\drivers/peripheral/gpio/cy_gpio.h **** /** This structure is used to initialize a port of GPIO pins */
 239:Generated_Source\PSoC6\pdl\drivers/peripheral/gpio/cy_gpio.h **** typedef struct 
 240:Generated_Source\PSoC6\pdl\drivers/peripheral/gpio/cy_gpio.h **** {
 241:Generated_Source\PSoC6\pdl\drivers/peripheral/gpio/cy_gpio.h ****     uint32_t out;           /**< Initial output data for the IO pins in the port */
 242:Generated_Source\PSoC6\pdl\drivers/peripheral/gpio/cy_gpio.h ****     uint32_t intrMask;      /**< Interrupt enable mask for the port interrupt */
 243:Generated_Source\PSoC6\pdl\drivers/peripheral/gpio/cy_gpio.h ****     uint32_t intrCfg;       /**< Port pin interrupt edge detection configuration */
 244:Generated_Source\PSoC6\pdl\drivers/peripheral/gpio/cy_gpio.h ****     uint32_t cfg;           /**< Port pin drive modes and input buffer enable configuration */
 245:Generated_Source\PSoC6\pdl\drivers/peripheral/gpio/cy_gpio.h ****     uint32_t cfgIn;         /**< Port pin input buffer configuration */
 246:Generated_Source\PSoC6\pdl\drivers/peripheral/gpio/cy_gpio.h ****     uint32_t cfgOut;        /**< Port pin output buffer configuration */
 247:Generated_Source\PSoC6\pdl\drivers/peripheral/gpio/cy_gpio.h ****     uint32_t cfgSIO;        /**< Port SIO pins configuration */
 248:Generated_Source\PSoC6\pdl\drivers/peripheral/gpio/cy_gpio.h ****     uint32_t sel0Active;    /**< HSIOM selection for port pins 0,1,2,3 */
 249:Generated_Source\PSoC6\pdl\drivers/peripheral/gpio/cy_gpio.h ****     uint32_t sel1Active;    /**< HSIOM selection for port pins 4,5,6,7 */
 250:Generated_Source\PSoC6\pdl\drivers/peripheral/gpio/cy_gpio.h **** } cy_stc_gpio_prt_config_t;
 251:Generated_Source\PSoC6\pdl\drivers/peripheral/gpio/cy_gpio.h **** 
 252:Generated_Source\PSoC6\pdl\drivers/peripheral/gpio/cy_gpio.h **** /** This structure is used to initialize a single GPIO pin */
 253:Generated_Source\PSoC6\pdl\drivers/peripheral/gpio/cy_gpio.h **** typedef struct
 254:Generated_Source\PSoC6\pdl\drivers/peripheral/gpio/cy_gpio.h **** {
 255:Generated_Source\PSoC6\pdl\drivers/peripheral/gpio/cy_gpio.h ****     uint32_t outVal;         /**< Pin output state */
 256:Generated_Source\PSoC6\pdl\drivers/peripheral/gpio/cy_gpio.h ****     uint32_t driveMode;      /**< Drive mode */
 257:Generated_Source\PSoC6\pdl\drivers/peripheral/gpio/cy_gpio.h ****     en_hsiom_sel_t hsiom;    /**< HSIOM selection */
 258:Generated_Source\PSoC6\pdl\drivers/peripheral/gpio/cy_gpio.h ****     uint32_t intEdge;        /**< Interrupt Edge type */
 259:Generated_Source\PSoC6\pdl\drivers/peripheral/gpio/cy_gpio.h ****     uint32_t intMask;        /**< Interrupt enable mask */
 260:Generated_Source\PSoC6\pdl\drivers/peripheral/gpio/cy_gpio.h ****     uint32_t vtrip;          /**< Input buffer voltage trip type */
 261:Generated_Source\PSoC6\pdl\drivers/peripheral/gpio/cy_gpio.h ****     uint32_t slewRate;       /**< Output buffer slew rate */
 262:Generated_Source\PSoC6\pdl\drivers/peripheral/gpio/cy_gpio.h ****     uint32_t driveSel;       /**< Drive strength */
 263:Generated_Source\PSoC6\pdl\drivers/peripheral/gpio/cy_gpio.h ****     uint32_t vregEn;         /**< SIO pair output buffer mode */
 264:Generated_Source\PSoC6\pdl\drivers/peripheral/gpio/cy_gpio.h ****     uint32_t ibufMode;       /**< SIO pair input buffer mode */
 265:Generated_Source\PSoC6\pdl\drivers/peripheral/gpio/cy_gpio.h ****     uint32_t vtripSel;       /**< SIO pair input buffer trip point */
 266:Generated_Source\PSoC6\pdl\drivers/peripheral/gpio/cy_gpio.h ****     uint32_t vrefSel;        /**< SIO pair reference voltage for input buffer trip point */
 267:Generated_Source\PSoC6\pdl\drivers/peripheral/gpio/cy_gpio.h ****     uint32_t vohSel;         /**< SIO pair regulated voltage output level */
 268:Generated_Source\PSoC6\pdl\drivers/peripheral/gpio/cy_gpio.h **** } cy_stc_gpio_pin_config_t;
 269:Generated_Source\PSoC6\pdl\drivers/peripheral/gpio/cy_gpio.h **** 
 270:Generated_Source\PSoC6\pdl\drivers/peripheral/gpio/cy_gpio.h **** /** \} group_gpio_data_structures */
 271:Generated_Source\PSoC6\pdl\drivers/peripheral/gpio/cy_gpio.h **** 
 272:Generated_Source\PSoC6\pdl\drivers/peripheral/gpio/cy_gpio.h **** /***************************************
 273:Generated_Source\PSoC6\pdl\drivers/peripheral/gpio/cy_gpio.h **** *        Constants
 274:Generated_Source\PSoC6\pdl\drivers/peripheral/gpio/cy_gpio.h **** ***************************************/
 275:Generated_Source\PSoC6\pdl\drivers/peripheral/gpio/cy_gpio.h **** 
 276:Generated_Source\PSoC6\pdl\drivers/peripheral/gpio/cy_gpio.h **** /** \cond INTERNAL */
 277:Generated_Source\PSoC6\pdl\drivers/peripheral/gpio/cy_gpio.h **** 
 278:Generated_Source\PSoC6\pdl\drivers/peripheral/gpio/cy_gpio.h **** /* General Constants */
 279:Generated_Source\PSoC6\pdl\drivers/peripheral/gpio/cy_gpio.h **** #define CY_GPIO_PRT_HALF                       (4UL)      /**< Half-way point of a GPIO port */
 280:Generated_Source\PSoC6\pdl\drivers/peripheral/gpio/cy_gpio.h **** #define CY_GPIO_PRT_DEINIT                     (0UL)      /**< De-init value for port registers */
 281:Generated_Source\PSoC6\pdl\drivers/peripheral/gpio/cy_gpio.h **** 
 282:Generated_Source\PSoC6\pdl\drivers/peripheral/gpio/cy_gpio.h **** /* GPIO Masks */
 283:Generated_Source\PSoC6\pdl\drivers/peripheral/gpio/cy_gpio.h **** #define CY_GPIO_HSIOM_MASK                     (0x1FUL)   /**< HSIOM selection mask */
 284:Generated_Source\PSoC6\pdl\drivers/peripheral/gpio/cy_gpio.h **** #define CY_GPIO_OUT_MASK                       (0x01UL)   /**< Single pin mask for OUT register */
 285:Generated_Source\PSoC6\pdl\drivers/peripheral/gpio/cy_gpio.h **** #define CY_GPIO_IN_MASK                        (0x01UL)   /**< Single pin mask for IN register */
 286:Generated_Source\PSoC6\pdl\drivers/peripheral/gpio/cy_gpio.h **** #define CY_GPIO_CFG_DM_MASK                    (0x0FUL)   /**< Single pin mask for drive mode in CF
 287:Generated_Source\PSoC6\pdl\drivers/peripheral/gpio/cy_gpio.h **** #define CY_GPIO_CFG_IN_VTRIP_SEL_MASK          (0x01UL)   /**< Single pin mask for VTRIP selection 
 288:Generated_Source\PSoC6\pdl\drivers/peripheral/gpio/cy_gpio.h **** #define CY_GPIO_CFG_OUT_SLOW_MASK              (0x01UL)   /**< Single pin mask for slew rate in CFG
 289:Generated_Source\PSoC6\pdl\drivers/peripheral/gpio/cy_gpio.h **** #define CY_GPIO_CFG_OUT_DRIVE_SEL_MASK         (0x03UL)   /**< Single pin mask for drive strength i
ARM GAS  C:\Users\Austina\AppData\Local\Temp\cc3bCXFh.s 			page 21


 290:Generated_Source\PSoC6\pdl\drivers/peripheral/gpio/cy_gpio.h **** #define CY_GPIO_INTR_STATUS_MASK               (0x01UL)   /**< Single pin mask for interrupt status
 291:Generated_Source\PSoC6\pdl\drivers/peripheral/gpio/cy_gpio.h **** #define CY_GPIO_INTR_EN_MASK                   (0x01UL)   /**< Single pin mask for interrupt status
 292:Generated_Source\PSoC6\pdl\drivers/peripheral/gpio/cy_gpio.h **** #define CY_GPIO_INTR_MASKED_MASK               (0x01UL)   /**< Single pin mask for masked interrupt
 293:Generated_Source\PSoC6\pdl\drivers/peripheral/gpio/cy_gpio.h **** #define CY_GPIO_INTR_SET_MASK                  (0x01UL)   /**< Single pin mask for setting the inte
 294:Generated_Source\PSoC6\pdl\drivers/peripheral/gpio/cy_gpio.h **** #define CY_GPIO_INTR_EDGE_MASK                 (0x03UL)   /**< Single pin mask for interrupt edge t
 295:Generated_Source\PSoC6\pdl\drivers/peripheral/gpio/cy_gpio.h **** #define CY_GPIO_INTR_FLT_EDGE_MASK             (0x07UL)   /**< Single pin mask for setting filtered
 296:Generated_Source\PSoC6\pdl\drivers/peripheral/gpio/cy_gpio.h **** 
 297:Generated_Source\PSoC6\pdl\drivers/peripheral/gpio/cy_gpio.h **** /* SIO Masks */
 298:Generated_Source\PSoC6\pdl\drivers/peripheral/gpio/cy_gpio.h **** #define CY_GPIO_VREG_EN_MASK                   (0x01UL)   /**< Single SIO pin mask for voltage regu
 299:Generated_Source\PSoC6\pdl\drivers/peripheral/gpio/cy_gpio.h **** #define CY_GPIO_IBUF_MASK                      (0x01UL)   /**< Single SIO pin mask for input buffer
 300:Generated_Source\PSoC6\pdl\drivers/peripheral/gpio/cy_gpio.h **** #define CY_GPIO_IBUF_SHIFT                     (0x01UL)   /**< Single SIO pin shift for input buffe
 301:Generated_Source\PSoC6\pdl\drivers/peripheral/gpio/cy_gpio.h **** #define CY_GPIO_VTRIP_SEL_MASK                 (0x01UL)   /**< Single SIO pin mask for the input bu
 302:Generated_Source\PSoC6\pdl\drivers/peripheral/gpio/cy_gpio.h **** #define CY_GPIO_VTRIP_SEL_SHIFT                (0x02UL)   /**< Single SIO pin shift for the input b
 303:Generated_Source\PSoC6\pdl\drivers/peripheral/gpio/cy_gpio.h **** #define CY_GPIO_VREF_SEL_MASK                  (0x03UL)   /**< Single SIO pin mask for voltage refe
 304:Generated_Source\PSoC6\pdl\drivers/peripheral/gpio/cy_gpio.h **** #define CY_GPIO_VREF_SEL_SHIFT                 (0x03UL)   /**< Single SIO pin shift for voltage ref
 305:Generated_Source\PSoC6\pdl\drivers/peripheral/gpio/cy_gpio.h **** #define CY_GPIO_VOH_SEL_MASK                   (0x07UL)   /**< Single SIO pin mask for VOH */
 306:Generated_Source\PSoC6\pdl\drivers/peripheral/gpio/cy_gpio.h **** #define CY_GPIO_VOH_SEL_SHIFT                  (0x05UL)   /**< Single SIO pin shift for VOH */
 307:Generated_Source\PSoC6\pdl\drivers/peripheral/gpio/cy_gpio.h **** 
 308:Generated_Source\PSoC6\pdl\drivers/peripheral/gpio/cy_gpio.h **** /* Special mask for SIO pin pair setting */
 309:Generated_Source\PSoC6\pdl\drivers/peripheral/gpio/cy_gpio.h **** #define CY_GPIO_SIO_ODD_PIN_MASK               (0x00FEUL) /**< SIO pin pair selection mask */
 310:Generated_Source\PSoC6\pdl\drivers/peripheral/gpio/cy_gpio.h **** #define CY_GPIO_SIO_PIN_MASK                   (0x00FFUL) /**< SIO pin pair mask */
 311:Generated_Source\PSoC6\pdl\drivers/peripheral/gpio/cy_gpio.h **** 
 312:Generated_Source\PSoC6\pdl\drivers/peripheral/gpio/cy_gpio.h **** /* Offsets */
 313:Generated_Source\PSoC6\pdl\drivers/peripheral/gpio/cy_gpio.h **** #define CY_GPIO_HSIOM_OFFSET                   (3UL)      /**< Offset for HSIOM */
 314:Generated_Source\PSoC6\pdl\drivers/peripheral/gpio/cy_gpio.h **** #define CY_GPIO_DRIVE_MODE_OFFSET              (2UL)      /**< Offset for Drive mode */
 315:Generated_Source\PSoC6\pdl\drivers/peripheral/gpio/cy_gpio.h **** #define CY_GPIO_INBUF_OFFSET                   (3UL)      /**< Offset for input buffer */
 316:Generated_Source\PSoC6\pdl\drivers/peripheral/gpio/cy_gpio.h **** #define CY_GPIO_CFG_OUT_DRIVE_OFFSET           (16UL)     /**< Offset for drive strength */
 317:Generated_Source\PSoC6\pdl\drivers/peripheral/gpio/cy_gpio.h **** #define CY_GPIO_INTR_CFG_OFFSET                (1UL)      /**< Offset for interrupt config */
 318:Generated_Source\PSoC6\pdl\drivers/peripheral/gpio/cy_gpio.h **** #define CY_GPIO_INTR_FILT_OFFSET               (18UL)     /**< Offset for filtered interrupt config
 319:Generated_Source\PSoC6\pdl\drivers/peripheral/gpio/cy_gpio.h **** #define CY_GPIO_CFG_SIO_OFFSET                 (2UL)      /**< Offset for SIO config */
 320:Generated_Source\PSoC6\pdl\drivers/peripheral/gpio/cy_gpio.h **** 
 321:Generated_Source\PSoC6\pdl\drivers/peripheral/gpio/cy_gpio.h **** /* Parameter validation constants */
 322:Generated_Source\PSoC6\pdl\drivers/peripheral/gpio/cy_gpio.h **** #define CY_GPIO_PINS_MAX                       (8UL)      /**< Number of pins in the port */
 323:Generated_Source\PSoC6\pdl\drivers/peripheral/gpio/cy_gpio.h **** #define CY_GPIO_PRT_PINS_MASK                  (0x0000000FFUL)
 324:Generated_Source\PSoC6\pdl\drivers/peripheral/gpio/cy_gpio.h **** #define CY_GPIO_PRT_INTR_CFG_EDGE_SEL_MASK     (GPIO_PRT_INTR_CFG_EDGE0_SEL_Msk | \
 325:Generated_Source\PSoC6\pdl\drivers/peripheral/gpio/cy_gpio.h ****                                                 GPIO_PRT_INTR_CFG_EDGE1_SEL_Msk | \
 326:Generated_Source\PSoC6\pdl\drivers/peripheral/gpio/cy_gpio.h ****                                                 GPIO_PRT_INTR_CFG_EDGE2_SEL_Msk | \
 327:Generated_Source\PSoC6\pdl\drivers/peripheral/gpio/cy_gpio.h ****                                                 GPIO_PRT_INTR_CFG_EDGE3_SEL_Msk | \
 328:Generated_Source\PSoC6\pdl\drivers/peripheral/gpio/cy_gpio.h ****                                                 GPIO_PRT_INTR_CFG_EDGE4_SEL_Msk | \
 329:Generated_Source\PSoC6\pdl\drivers/peripheral/gpio/cy_gpio.h ****                                                 GPIO_PRT_INTR_CFG_EDGE5_SEL_Msk | \
 330:Generated_Source\PSoC6\pdl\drivers/peripheral/gpio/cy_gpio.h ****                                                 GPIO_PRT_INTR_CFG_EDGE6_SEL_Msk | \
 331:Generated_Source\PSoC6\pdl\drivers/peripheral/gpio/cy_gpio.h ****                                                 GPIO_PRT_INTR_CFG_EDGE7_SEL_Msk)
 332:Generated_Source\PSoC6\pdl\drivers/peripheral/gpio/cy_gpio.h **** #define CY_GPIO_PRT_INTR_CFG_RANGE_MASK        (CY_GPIO_PRT_INTR_CFG_EDGE_SEL_MASK | \
 333:Generated_Source\PSoC6\pdl\drivers/peripheral/gpio/cy_gpio.h ****                                                 GPIO_PRT_INTR_CFG_FLT_EDGE_SEL_Msk | \
 334:Generated_Source\PSoC6\pdl\drivers/peripheral/gpio/cy_gpio.h ****                                                 GPIO_PRT_INTR_CFG_FLT_SEL_Msk)
 335:Generated_Source\PSoC6\pdl\drivers/peripheral/gpio/cy_gpio.h **** #define CY_GPIO_PRT_INT_MASK_MASK              (0x0000001FFUL)
 336:Generated_Source\PSoC6\pdl\drivers/peripheral/gpio/cy_gpio.h **** #define CY_GPIO_PRT_SEL_ACTIVE_MASK            (0x1FFFFFFFUL)
 337:Generated_Source\PSoC6\pdl\drivers/peripheral/gpio/cy_gpio.h **** 
 338:Generated_Source\PSoC6\pdl\drivers/peripheral/gpio/cy_gpio.h **** #define GPIO_MAX_SPLIT_CELL_SEGMENTS           (9U)
 339:Generated_Source\PSoC6\pdl\drivers/peripheral/gpio/cy_gpio.h **** 
 340:Generated_Source\PSoC6\pdl\drivers/peripheral/gpio/cy_gpio.h **** /* Parameter validation macros */
 341:Generated_Source\PSoC6\pdl\drivers/peripheral/gpio/cy_gpio.h **** #define CY_GPIO_IS_PIN_VALID(pinNum)           (CY_GPIO_PINS_MAX > (pinNum))
 342:Generated_Source\PSoC6\pdl\drivers/peripheral/gpio/cy_gpio.h **** #define CY_GPIO_IS_FILTER_PIN_VALID(pinNum)    (CY_GPIO_PINS_MAX >= (pinNum))
 343:Generated_Source\PSoC6\pdl\drivers/peripheral/gpio/cy_gpio.h **** #define CY_GPIO_IS_VALUE_VALID(outVal)         (1UL >= (outVal))
 344:Generated_Source\PSoC6\pdl\drivers/peripheral/gpio/cy_gpio.h **** #define CY_GPIO_IS_DM_VALID(driveMode)         (0U == ((driveMode) & (uint32_t)~CY_GPIO_CFG_DM_MASK
 345:Generated_Source\PSoC6\pdl\drivers/peripheral/gpio/cy_gpio.h **** 
 346:Generated_Source\PSoC6\pdl\drivers/peripheral/gpio/cy_gpio.h **** #define CY_GPIO_IS_HSIOM_VALID(hsiom)          (0U == ((hsiom) & (uint32_t)~CY_GPIO_HSIOM_MASK))
ARM GAS  C:\Users\Austina\AppData\Local\Temp\cc3bCXFh.s 			page 22


 347:Generated_Source\PSoC6\pdl\drivers/peripheral/gpio/cy_gpio.h **** 
 348:Generated_Source\PSoC6\pdl\drivers/peripheral/gpio/cy_gpio.h **** #define CY_GPIO_IS_INT_EDGE_VALID(intEdge)     ((CY_GPIO_INTR_DISABLE  == (intEdge)) || \
 349:Generated_Source\PSoC6\pdl\drivers/peripheral/gpio/cy_gpio.h ****                                                 (CY_GPIO_INTR_RISING   == (intEdge)) || \
 350:Generated_Source\PSoC6\pdl\drivers/peripheral/gpio/cy_gpio.h ****                                                 (CY_GPIO_INTR_FALLING  == (intEdge)) || \
 351:Generated_Source\PSoC6\pdl\drivers/peripheral/gpio/cy_gpio.h ****                                                 (CY_GPIO_INTR_BOTH     == (intEdge)))
 352:Generated_Source\PSoC6\pdl\drivers/peripheral/gpio/cy_gpio.h **** 
 353:Generated_Source\PSoC6\pdl\drivers/peripheral/gpio/cy_gpio.h **** #define CY_GPIO_IS_DRIVE_SEL_VALID(driveSel)   ((CY_GPIO_DRIVE_FULL    == (driveSel)) || \
 354:Generated_Source\PSoC6\pdl\drivers/peripheral/gpio/cy_gpio.h ****                                                 (CY_GPIO_DRIVE_1_2     == (driveSel)) || \
 355:Generated_Source\PSoC6\pdl\drivers/peripheral/gpio/cy_gpio.h ****                                                 (CY_GPIO_DRIVE_1_4     == (driveSel)) || \
 356:Generated_Source\PSoC6\pdl\drivers/peripheral/gpio/cy_gpio.h ****                                                 (CY_GPIO_DRIVE_1_8     == (driveSel)))
 357:Generated_Source\PSoC6\pdl\drivers/peripheral/gpio/cy_gpio.h **** 
 358:Generated_Source\PSoC6\pdl\drivers/peripheral/gpio/cy_gpio.h **** #define CY_GPIO_IS_VREF_SEL_VALID(vrefSel)     ((CY_SIO_VREF_PINREF    == (vrefSel)) || \
 359:Generated_Source\PSoC6\pdl\drivers/peripheral/gpio/cy_gpio.h ****                                                 (CY_SIO_VREF_1_2V      == (vrefSel)) || \
 360:Generated_Source\PSoC6\pdl\drivers/peripheral/gpio/cy_gpio.h ****                                                 (CY_SIO_VREF_AMUX_A    == (vrefSel)) || \
 361:Generated_Source\PSoC6\pdl\drivers/peripheral/gpio/cy_gpio.h ****                                                 (CY_SIO_VREF_AMUX_B    == (vrefSel)))
 362:Generated_Source\PSoC6\pdl\drivers/peripheral/gpio/cy_gpio.h **** 
 363:Generated_Source\PSoC6\pdl\drivers/peripheral/gpio/cy_gpio.h **** #define CY_GPIO_IS_VOH_SEL_VALID(vrefSel)      ((CY_SIO_VOH_1_00       == (vrefSel)) || \
 364:Generated_Source\PSoC6\pdl\drivers/peripheral/gpio/cy_gpio.h ****                                                 (CY_SIO_VOH_1_25       == (vrefSel)) || \
 365:Generated_Source\PSoC6\pdl\drivers/peripheral/gpio/cy_gpio.h ****                                                 (CY_SIO_VOH_1_49       == (vrefSel)) || \
 366:Generated_Source\PSoC6\pdl\drivers/peripheral/gpio/cy_gpio.h ****                                                 (CY_SIO_VOH_1_67       == (vrefSel)) || \
 367:Generated_Source\PSoC6\pdl\drivers/peripheral/gpio/cy_gpio.h ****                                                 (CY_SIO_VOH_2_08       == (vrefSel)) || \
 368:Generated_Source\PSoC6\pdl\drivers/peripheral/gpio/cy_gpio.h ****                                                 (CY_SIO_VOH_2_50       == (vrefSel)) || \
 369:Generated_Source\PSoC6\pdl\drivers/peripheral/gpio/cy_gpio.h ****                                                 (CY_SIO_VOH_2_78       == (vrefSel)) || \
 370:Generated_Source\PSoC6\pdl\drivers/peripheral/gpio/cy_gpio.h ****                                                 (CY_SIO_VOH_4_16       == (vrefSel)))
 371:Generated_Source\PSoC6\pdl\drivers/peripheral/gpio/cy_gpio.h ****                    
 372:Generated_Source\PSoC6\pdl\drivers/peripheral/gpio/cy_gpio.h **** #define CY_GPIO_IS_PIN_BIT_VALID(pinBit)       (0U == ((pinBit) & (uint32_t)~CY_GPIO_PRT_PINS_MASK)
 373:Generated_Source\PSoC6\pdl\drivers/peripheral/gpio/cy_gpio.h **** #define CY_GPIO_IS_INTR_CFG_VALID(intrCfg)     (0U == ((intrCfg) & (uint32_t)~CY_GPIO_PRT_INTR_CFG_
 374:Generated_Source\PSoC6\pdl\drivers/peripheral/gpio/cy_gpio.h **** #define CY_GPIO_IS_INTR_MASK_VALID(intrMask)   (0U == ((intrMask) & (uint32_t)~CY_GPIO_PRT_INT_MASK
 375:Generated_Source\PSoC6\pdl\drivers/peripheral/gpio/cy_gpio.h **** #define CY_GPIO_IS_SEL_ACT_VALID(selActive)    (0U == ((selActive) & (uint32_t)~CY_GPIO_PRT_SEL_ACT
 376:Generated_Source\PSoC6\pdl\drivers/peripheral/gpio/cy_gpio.h **** 
 377:Generated_Source\PSoC6\pdl\drivers/peripheral/gpio/cy_gpio.h **** #define CY_GPIO_IS_AMUX_SPLIT_VALID(switchCtrl)       (((uint32_t) (switchCtrl)) < GPIO_MAX_SPLIT_C
 378:Generated_Source\PSoC6\pdl\drivers/peripheral/gpio/cy_gpio.h **** 
 379:Generated_Source\PSoC6\pdl\drivers/peripheral/gpio/cy_gpio.h **** #define CY_GPIO_IS_AMUX_CONNECT_VALID(amuxConnect)    ((CY_GPIO_AMUX_OPENALL == (amuxConnect)) || \
 380:Generated_Source\PSoC6\pdl\drivers/peripheral/gpio/cy_gpio.h ****                                                        (CY_GPIO_AMUX_L       == (amuxConnect)) || \
 381:Generated_Source\PSoC6\pdl\drivers/peripheral/gpio/cy_gpio.h ****                                                        (CY_GPIO_AMUX_R       == (amuxConnect)) || \
 382:Generated_Source\PSoC6\pdl\drivers/peripheral/gpio/cy_gpio.h ****                                                        (CY_GPIO_AMUX_LR      == (amuxConnect)) || \
 383:Generated_Source\PSoC6\pdl\drivers/peripheral/gpio/cy_gpio.h ****                                                        (CY_GPIO_AMUX_G       == (amuxConnect)) || \
 384:Generated_Source\PSoC6\pdl\drivers/peripheral/gpio/cy_gpio.h ****                                                        (CY_GPIO_AMUX_GL      == (amuxConnect)) || \
 385:Generated_Source\PSoC6\pdl\drivers/peripheral/gpio/cy_gpio.h ****                                                        (CY_GPIO_AMUX_GR      == (amuxConnect)) || \
 386:Generated_Source\PSoC6\pdl\drivers/peripheral/gpio/cy_gpio.h ****                                                        (CY_GPIO_AMUX_GLR     == (amuxConnect)))
 387:Generated_Source\PSoC6\pdl\drivers/peripheral/gpio/cy_gpio.h **** 
 388:Generated_Source\PSoC6\pdl\drivers/peripheral/gpio/cy_gpio.h **** #define CY_GPIO_IS_AMUX_SELECT_VALID(amuxBus)       ((CY_GPIO_AMUXBUSA       == (amuxBus)) || \
 389:Generated_Source\PSoC6\pdl\drivers/peripheral/gpio/cy_gpio.h ****                                                      (CY_GPIO_AMUXBUSB       == (amuxBus)))
 390:Generated_Source\PSoC6\pdl\drivers/peripheral/gpio/cy_gpio.h **** /** \endcond */
 391:Generated_Source\PSoC6\pdl\drivers/peripheral/gpio/cy_gpio.h **** 
 392:Generated_Source\PSoC6\pdl\drivers/peripheral/gpio/cy_gpio.h **** 
 393:Generated_Source\PSoC6\pdl\drivers/peripheral/gpio/cy_gpio.h **** /***************************************
 394:Generated_Source\PSoC6\pdl\drivers/peripheral/gpio/cy_gpio.h **** *        Function Constants
 395:Generated_Source\PSoC6\pdl\drivers/peripheral/gpio/cy_gpio.h **** ***************************************/
 396:Generated_Source\PSoC6\pdl\drivers/peripheral/gpio/cy_gpio.h **** 
 397:Generated_Source\PSoC6\pdl\drivers/peripheral/gpio/cy_gpio.h **** /**
 398:Generated_Source\PSoC6\pdl\drivers/peripheral/gpio/cy_gpio.h **** * \addtogroup group_gpio_macros
 399:Generated_Source\PSoC6\pdl\drivers/peripheral/gpio/cy_gpio.h **** * \{
 400:Generated_Source\PSoC6\pdl\drivers/peripheral/gpio/cy_gpio.h **** */
 401:Generated_Source\PSoC6\pdl\drivers/peripheral/gpio/cy_gpio.h **** 
 402:Generated_Source\PSoC6\pdl\drivers/peripheral/gpio/cy_gpio.h **** /**
 403:Generated_Source\PSoC6\pdl\drivers/peripheral/gpio/cy_gpio.h **** * \defgroup group_gpio_driveModes Pin drive mode
ARM GAS  C:\Users\Austina\AppData\Local\Temp\cc3bCXFh.s 			page 23


 404:Generated_Source\PSoC6\pdl\drivers/peripheral/gpio/cy_gpio.h **** * \{
 405:Generated_Source\PSoC6\pdl\drivers/peripheral/gpio/cy_gpio.h **** * Constants to be used for setting the drive mode of the pin.
 406:Generated_Source\PSoC6\pdl\drivers/peripheral/gpio/cy_gpio.h **** */
 407:Generated_Source\PSoC6\pdl\drivers/peripheral/gpio/cy_gpio.h **** #define CY_GPIO_DM_ANALOG                      (0x00UL) /**< Analog High-Z. Input buffer off */
 408:Generated_Source\PSoC6\pdl\drivers/peripheral/gpio/cy_gpio.h **** #define CY_GPIO_DM_PULLUP_IN_OFF               (0x02UL) /**< Resistive Pull-Up. Input buffer off */
 409:Generated_Source\PSoC6\pdl\drivers/peripheral/gpio/cy_gpio.h **** #define CY_GPIO_DM_PULLDOWN_IN_OFF             (0x03UL) /**< Resistive Pull-Down. Input buffer off 
 410:Generated_Source\PSoC6\pdl\drivers/peripheral/gpio/cy_gpio.h **** #define CY_GPIO_DM_OD_DRIVESLOW_IN_OFF         (0x04UL) /**< Open Drain, Drives Low. Input buffer o
 411:Generated_Source\PSoC6\pdl\drivers/peripheral/gpio/cy_gpio.h **** #define CY_GPIO_DM_OD_DRIVESHIGH_IN_OFF        (0x05UL) /**< Open Drain, Drives High. Input buffer 
 412:Generated_Source\PSoC6\pdl\drivers/peripheral/gpio/cy_gpio.h **** #define CY_GPIO_DM_STRONG_IN_OFF               (0x06UL) /**< Strong Drive. Input buffer off */
 413:Generated_Source\PSoC6\pdl\drivers/peripheral/gpio/cy_gpio.h **** #define CY_GPIO_DM_PULLUP_DOWN_IN_OFF          (0x07UL) /**< Resistive Pull-Up/Down. Input buffer o
 414:Generated_Source\PSoC6\pdl\drivers/peripheral/gpio/cy_gpio.h **** #define CY_GPIO_DM_HIGHZ                       (0x08UL) /**< Digital High-Z. Input buffer on */
 415:Generated_Source\PSoC6\pdl\drivers/peripheral/gpio/cy_gpio.h **** #define CY_GPIO_DM_PULLUP                      (0x0AUL) /**< Resistive Pull-Up. Input buffer on */
 416:Generated_Source\PSoC6\pdl\drivers/peripheral/gpio/cy_gpio.h **** #define CY_GPIO_DM_PULLDOWN                    (0x0BUL) /**< Resistive Pull-Down. Input buffer on *
 417:Generated_Source\PSoC6\pdl\drivers/peripheral/gpio/cy_gpio.h **** #define CY_GPIO_DM_OD_DRIVESLOW                (0x0CUL) /**< Open Drain, Drives Low. Input buffer o
 418:Generated_Source\PSoC6\pdl\drivers/peripheral/gpio/cy_gpio.h **** #define CY_GPIO_DM_OD_DRIVESHIGH               (0x0DUL) /**< Open Drain, Drives High. Input buffer 
 419:Generated_Source\PSoC6\pdl\drivers/peripheral/gpio/cy_gpio.h **** #define CY_GPIO_DM_STRONG                      (0x0EUL) /**< Strong Drive. Input buffer on */
 420:Generated_Source\PSoC6\pdl\drivers/peripheral/gpio/cy_gpio.h **** #define CY_GPIO_DM_PULLUP_DOWN                 (0x0FUL) /**< Resistive Pull-Up/Down. Input buffer o
 421:Generated_Source\PSoC6\pdl\drivers/peripheral/gpio/cy_gpio.h **** /** \} */
 422:Generated_Source\PSoC6\pdl\drivers/peripheral/gpio/cy_gpio.h **** 
 423:Generated_Source\PSoC6\pdl\drivers/peripheral/gpio/cy_gpio.h **** /**
 424:Generated_Source\PSoC6\pdl\drivers/peripheral/gpio/cy_gpio.h **** * \defgroup group_gpio_vtrip Voltage trip mode
 425:Generated_Source\PSoC6\pdl\drivers/peripheral/gpio/cy_gpio.h **** * \{
 426:Generated_Source\PSoC6\pdl\drivers/peripheral/gpio/cy_gpio.h **** * Constants to be used for setting the voltage trip type on the pin.
 427:Generated_Source\PSoC6\pdl\drivers/peripheral/gpio/cy_gpio.h **** */
 428:Generated_Source\PSoC6\pdl\drivers/peripheral/gpio/cy_gpio.h **** #define CY_GPIO_VTRIP_CMOS                     (0x00UL) /**< Input buffer compatible with CMOS and 
 429:Generated_Source\PSoC6\pdl\drivers/peripheral/gpio/cy_gpio.h **** #define CY_GPIO_VTRIP_TTL                      (0x01UL) /**< Input buffer compatible with TTL and M
 430:Generated_Source\PSoC6\pdl\drivers/peripheral/gpio/cy_gpio.h **** /** \} */
 431:Generated_Source\PSoC6\pdl\drivers/peripheral/gpio/cy_gpio.h **** 
 432:Generated_Source\PSoC6\pdl\drivers/peripheral/gpio/cy_gpio.h **** /**
 433:Generated_Source\PSoC6\pdl\drivers/peripheral/gpio/cy_gpio.h **** * \defgroup group_gpio_slewRate Slew Rate Mode
 434:Generated_Source\PSoC6\pdl\drivers/peripheral/gpio/cy_gpio.h **** * \{
 435:Generated_Source\PSoC6\pdl\drivers/peripheral/gpio/cy_gpio.h **** * Constants to be used for setting the slew rate of the pin.
 436:Generated_Source\PSoC6\pdl\drivers/peripheral/gpio/cy_gpio.h **** */
 437:Generated_Source\PSoC6\pdl\drivers/peripheral/gpio/cy_gpio.h **** #define CY_GPIO_SLEW_FAST                      (0x00UL) /**< Fast slew rate */
 438:Generated_Source\PSoC6\pdl\drivers/peripheral/gpio/cy_gpio.h **** #define CY_GPIO_SLEW_SLOW                      (0x01UL) /**< Slow slew rate */
 439:Generated_Source\PSoC6\pdl\drivers/peripheral/gpio/cy_gpio.h **** /** \} */
 440:Generated_Source\PSoC6\pdl\drivers/peripheral/gpio/cy_gpio.h **** 
 441:Generated_Source\PSoC6\pdl\drivers/peripheral/gpio/cy_gpio.h **** /**
 442:Generated_Source\PSoC6\pdl\drivers/peripheral/gpio/cy_gpio.h **** * \defgroup group_gpio_driveStrength Pin drive strength
 443:Generated_Source\PSoC6\pdl\drivers/peripheral/gpio/cy_gpio.h **** * \{
 444:Generated_Source\PSoC6\pdl\drivers/peripheral/gpio/cy_gpio.h **** * Constants to be used for setting the drive strength of the pin.
 445:Generated_Source\PSoC6\pdl\drivers/peripheral/gpio/cy_gpio.h **** */
 446:Generated_Source\PSoC6\pdl\drivers/peripheral/gpio/cy_gpio.h **** #define CY_GPIO_DRIVE_FULL                     (0x00UL) /**< Full drive strength: Max drive current
 447:Generated_Source\PSoC6\pdl\drivers/peripheral/gpio/cy_gpio.h **** #define CY_GPIO_DRIVE_1_2                      (0x01UL) /**< 1/2 drive strength: 1/2 drive current 
 448:Generated_Source\PSoC6\pdl\drivers/peripheral/gpio/cy_gpio.h **** #define CY_GPIO_DRIVE_1_4                      (0x02UL) /**< 1/4 drive strength: 1/4 drive current 
 449:Generated_Source\PSoC6\pdl\drivers/peripheral/gpio/cy_gpio.h **** #define CY_GPIO_DRIVE_1_8                      (0x03UL) /**< 1/8 drive strength: 1/8 drive current 
 450:Generated_Source\PSoC6\pdl\drivers/peripheral/gpio/cy_gpio.h **** /** \} */
 451:Generated_Source\PSoC6\pdl\drivers/peripheral/gpio/cy_gpio.h **** 
 452:Generated_Source\PSoC6\pdl\drivers/peripheral/gpio/cy_gpio.h **** /**
 453:Generated_Source\PSoC6\pdl\drivers/peripheral/gpio/cy_gpio.h **** * \defgroup group_gpio_interruptTrigger Interrupt trigger type
 454:Generated_Source\PSoC6\pdl\drivers/peripheral/gpio/cy_gpio.h **** * \{
 455:Generated_Source\PSoC6\pdl\drivers/peripheral/gpio/cy_gpio.h **** * Constants to be used for setting the interrupt trigger type on the pin.
 456:Generated_Source\PSoC6\pdl\drivers/peripheral/gpio/cy_gpio.h **** */
 457:Generated_Source\PSoC6\pdl\drivers/peripheral/gpio/cy_gpio.h **** #define CY_GPIO_INTR_DISABLE                   (0x00UL) /**< Disable the pin interrupt generation *
 458:Generated_Source\PSoC6\pdl\drivers/peripheral/gpio/cy_gpio.h **** #define CY_GPIO_INTR_RISING                    (0x01UL) /**< Rising-Edge interrupt */
 459:Generated_Source\PSoC6\pdl\drivers/peripheral/gpio/cy_gpio.h **** #define CY_GPIO_INTR_FALLING                   (0x02UL) /**< Falling-Edge interrupt */
 460:Generated_Source\PSoC6\pdl\drivers/peripheral/gpio/cy_gpio.h **** #define CY_GPIO_INTR_BOTH                      (0x03UL) /**< Both-Edge interrupt */
ARM GAS  C:\Users\Austina\AppData\Local\Temp\cc3bCXFh.s 			page 24


 461:Generated_Source\PSoC6\pdl\drivers/peripheral/gpio/cy_gpio.h **** /** \} */
 462:Generated_Source\PSoC6\pdl\drivers/peripheral/gpio/cy_gpio.h **** 
 463:Generated_Source\PSoC6\pdl\drivers/peripheral/gpio/cy_gpio.h **** /**
 464:Generated_Source\PSoC6\pdl\drivers/peripheral/gpio/cy_gpio.h **** * \defgroup group_gpio_sioVreg SIO output buffer mode
 465:Generated_Source\PSoC6\pdl\drivers/peripheral/gpio/cy_gpio.h **** * \{
 466:Generated_Source\PSoC6\pdl\drivers/peripheral/gpio/cy_gpio.h **** * Constants to be used for setting the SIO output buffer mode on the pin.
 467:Generated_Source\PSoC6\pdl\drivers/peripheral/gpio/cy_gpio.h **** */
 468:Generated_Source\PSoC6\pdl\drivers/peripheral/gpio/cy_gpio.h **** #define CY_SIO_VREG_UNREGULATED                (0x00UL) /**< Unregulated output buffer */
 469:Generated_Source\PSoC6\pdl\drivers/peripheral/gpio/cy_gpio.h **** #define CY_SIO_VREG_REGULATED                  (0x01UL) /**< Regulated output buffer */
 470:Generated_Source\PSoC6\pdl\drivers/peripheral/gpio/cy_gpio.h **** /** \} */
 471:Generated_Source\PSoC6\pdl\drivers/peripheral/gpio/cy_gpio.h **** 
 472:Generated_Source\PSoC6\pdl\drivers/peripheral/gpio/cy_gpio.h **** /**
 473:Generated_Source\PSoC6\pdl\drivers/peripheral/gpio/cy_gpio.h **** * \defgroup group_gpio_sioIbuf SIO input buffer mode
 474:Generated_Source\PSoC6\pdl\drivers/peripheral/gpio/cy_gpio.h **** * \{
 475:Generated_Source\PSoC6\pdl\drivers/peripheral/gpio/cy_gpio.h **** * Constants to be used for setting the SIO input buffer mode on the pin.
 476:Generated_Source\PSoC6\pdl\drivers/peripheral/gpio/cy_gpio.h **** */
 477:Generated_Source\PSoC6\pdl\drivers/peripheral/gpio/cy_gpio.h **** #define CY_SIO_IBUF_SINGLEENDED                (0x00UL) /**< Single ended input buffer */
 478:Generated_Source\PSoC6\pdl\drivers/peripheral/gpio/cy_gpio.h **** #define CY_SIO_IBUF_DIFFERENTIAL               (0x01UL) /**< Differential input buffer */
 479:Generated_Source\PSoC6\pdl\drivers/peripheral/gpio/cy_gpio.h **** /** \} */
 480:Generated_Source\PSoC6\pdl\drivers/peripheral/gpio/cy_gpio.h **** 
 481:Generated_Source\PSoC6\pdl\drivers/peripheral/gpio/cy_gpio.h **** /**
 482:Generated_Source\PSoC6\pdl\drivers/peripheral/gpio/cy_gpio.h **** * \defgroup group_gpio_sioVtrip SIO input buffer trip-point
 483:Generated_Source\PSoC6\pdl\drivers/peripheral/gpio/cy_gpio.h **** * \{
 484:Generated_Source\PSoC6\pdl\drivers/peripheral/gpio/cy_gpio.h **** * Constants to be used for setting the SIO input buffer trip-point of the pin.
 485:Generated_Source\PSoC6\pdl\drivers/peripheral/gpio/cy_gpio.h **** */
 486:Generated_Source\PSoC6\pdl\drivers/peripheral/gpio/cy_gpio.h **** #define CY_SIO_VTRIP_CMOS                      (0x00UL) /**< CMOS input buffer (single-ended) */
 487:Generated_Source\PSoC6\pdl\drivers/peripheral/gpio/cy_gpio.h **** #define CY_SIO_VTRIP_TTL                       (0x01UL) /**< TTL input buffer (single-ended) */
 488:Generated_Source\PSoC6\pdl\drivers/peripheral/gpio/cy_gpio.h **** #define CY_SIO_VTRIP_0_5VDDIO_0_5VOH           (0x00UL) /**< 0.5xVddio or 0.5xVoh (differential) */
 489:Generated_Source\PSoC6\pdl\drivers/peripheral/gpio/cy_gpio.h **** #define CY_SIO_VTRIP_0_4VDDIO_1_0VREF          (0x01UL) /**< 0.4xVddio or 0.4xVoh (differential) */
 490:Generated_Source\PSoC6\pdl\drivers/peripheral/gpio/cy_gpio.h **** /** \} */
 491:Generated_Source\PSoC6\pdl\drivers/peripheral/gpio/cy_gpio.h **** 
 492:Generated_Source\PSoC6\pdl\drivers/peripheral/gpio/cy_gpio.h **** /**
 493:Generated_Source\PSoC6\pdl\drivers/peripheral/gpio/cy_gpio.h **** * \defgroup group_gpio_sioVref SIO reference voltage for input buffer trip-point
 494:Generated_Source\PSoC6\pdl\drivers/peripheral/gpio/cy_gpio.h **** * \{
 495:Generated_Source\PSoC6\pdl\drivers/peripheral/gpio/cy_gpio.h **** * Constants to be used for setting the reference voltage of SIO input buffer trip-point.
 496:Generated_Source\PSoC6\pdl\drivers/peripheral/gpio/cy_gpio.h **** */
 497:Generated_Source\PSoC6\pdl\drivers/peripheral/gpio/cy_gpio.h **** #define CY_SIO_VREF_PINREF                     (0x00UL) /**< Vref from analog pin */
 498:Generated_Source\PSoC6\pdl\drivers/peripheral/gpio/cy_gpio.h **** #define CY_SIO_VREF_1_2V                       (0x01UL) /**< Vref from internal 1.2V reference */
 499:Generated_Source\PSoC6\pdl\drivers/peripheral/gpio/cy_gpio.h **** #define CY_SIO_VREF_AMUX_A                     (0x02UL) /**< Vref from AMUXBUS_A */
 500:Generated_Source\PSoC6\pdl\drivers/peripheral/gpio/cy_gpio.h **** #define CY_SIO_VREF_AMUX_B                     (0x03UL) /**< Vref from AMUXBUS_B */
 501:Generated_Source\PSoC6\pdl\drivers/peripheral/gpio/cy_gpio.h **** /** \} */
 502:Generated_Source\PSoC6\pdl\drivers/peripheral/gpio/cy_gpio.h **** 
 503:Generated_Source\PSoC6\pdl\drivers/peripheral/gpio/cy_gpio.h **** /**
 504:Generated_Source\PSoC6\pdl\drivers/peripheral/gpio/cy_gpio.h **** * \defgroup group_gpio_sioVoh Regulated output voltage level (Voh) and input buffer trip-point of a
 505:Generated_Source\PSoC6\pdl\drivers/peripheral/gpio/cy_gpio.h **** * \{
 506:Generated_Source\PSoC6\pdl\drivers/peripheral/gpio/cy_gpio.h **** * Constants to be used for setting the Voh and input buffer trip-point of an SIO pair
 507:Generated_Source\PSoC6\pdl\drivers/peripheral/gpio/cy_gpio.h **** */
 508:Generated_Source\PSoC6\pdl\drivers/peripheral/gpio/cy_gpio.h **** #define CY_SIO_VOH_1_00                        (0x00UL) /**< Voh = 1 x Reference */
 509:Generated_Source\PSoC6\pdl\drivers/peripheral/gpio/cy_gpio.h **** #define CY_SIO_VOH_1_25                        (0x01UL) /**< Voh = 1.25 x Reference */
 510:Generated_Source\PSoC6\pdl\drivers/peripheral/gpio/cy_gpio.h **** #define CY_SIO_VOH_1_49                        (0x02UL) /**< Voh = 1.49 x Reference */
 511:Generated_Source\PSoC6\pdl\drivers/peripheral/gpio/cy_gpio.h **** #define CY_SIO_VOH_1_67                        (0x03UL) /**< Voh = 1.67 x Reference */
 512:Generated_Source\PSoC6\pdl\drivers/peripheral/gpio/cy_gpio.h **** #define CY_SIO_VOH_2_08                        (0x04UL) /**< Voh = 2.08 x Reference */
 513:Generated_Source\PSoC6\pdl\drivers/peripheral/gpio/cy_gpio.h **** #define CY_SIO_VOH_2_50                        (0x05UL) /**< Voh = 2.50 x Reference */
 514:Generated_Source\PSoC6\pdl\drivers/peripheral/gpio/cy_gpio.h **** #define CY_SIO_VOH_2_78                        (0x06UL) /**< Voh = 2.78 x Reference */
 515:Generated_Source\PSoC6\pdl\drivers/peripheral/gpio/cy_gpio.h **** #define CY_SIO_VOH_4_16                        (0x07UL) /**< Voh = 4.16 x Reference */
 516:Generated_Source\PSoC6\pdl\drivers/peripheral/gpio/cy_gpio.h **** /** \} */
 517:Generated_Source\PSoC6\pdl\drivers/peripheral/gpio/cy_gpio.h **** 
ARM GAS  C:\Users\Austina\AppData\Local\Temp\cc3bCXFh.s 			page 25


 518:Generated_Source\PSoC6\pdl\drivers/peripheral/gpio/cy_gpio.h **** /** \} group_gpio_macros */
 519:Generated_Source\PSoC6\pdl\drivers/peripheral/gpio/cy_gpio.h **** 
 520:Generated_Source\PSoC6\pdl\drivers/peripheral/gpio/cy_gpio.h **** /***************************************
 521:Generated_Source\PSoC6\pdl\drivers/peripheral/gpio/cy_gpio.h **** *        Function Prototypes
 522:Generated_Source\PSoC6\pdl\drivers/peripheral/gpio/cy_gpio.h **** ***************************************/
 523:Generated_Source\PSoC6\pdl\drivers/peripheral/gpio/cy_gpio.h **** 
 524:Generated_Source\PSoC6\pdl\drivers/peripheral/gpio/cy_gpio.h **** /**
 525:Generated_Source\PSoC6\pdl\drivers/peripheral/gpio/cy_gpio.h **** * \addtogroup group_gpio_functions
 526:Generated_Source\PSoC6\pdl\drivers/peripheral/gpio/cy_gpio.h **** * \{
 527:Generated_Source\PSoC6\pdl\drivers/peripheral/gpio/cy_gpio.h **** */
 528:Generated_Source\PSoC6\pdl\drivers/peripheral/gpio/cy_gpio.h **** 
 529:Generated_Source\PSoC6\pdl\drivers/peripheral/gpio/cy_gpio.h **** /**
 530:Generated_Source\PSoC6\pdl\drivers/peripheral/gpio/cy_gpio.h **** * \addtogroup group_gpio_functions_init
 531:Generated_Source\PSoC6\pdl\drivers/peripheral/gpio/cy_gpio.h **** * \{
 532:Generated_Source\PSoC6\pdl\drivers/peripheral/gpio/cy_gpio.h **** */
 533:Generated_Source\PSoC6\pdl\drivers/peripheral/gpio/cy_gpio.h **** 
 534:Generated_Source\PSoC6\pdl\drivers/peripheral/gpio/cy_gpio.h **** cy_en_gpio_status_t Cy_GPIO_Pin_Init(GPIO_PRT_Type* base, uint32_t pinNum, const cy_stc_gpio_pin_co
 535:Generated_Source\PSoC6\pdl\drivers/peripheral/gpio/cy_gpio.h **** cy_en_gpio_status_t Cy_GPIO_Port_Init(GPIO_PRT_Type* base, const cy_stc_gpio_prt_config_t *config);
 536:Generated_Source\PSoC6\pdl\drivers/peripheral/gpio/cy_gpio.h **** void Cy_GPIO_Pin_FastInit(GPIO_PRT_Type* base, uint32_t pinNum, uint32_t driveMode, uint32_t outVal
 537:Generated_Source\PSoC6\pdl\drivers/peripheral/gpio/cy_gpio.h **** void Cy_GPIO_Port_Deinit(GPIO_PRT_Type* base);
 538:Generated_Source\PSoC6\pdl\drivers/peripheral/gpio/cy_gpio.h **** __STATIC_INLINE void Cy_GPIO_SetHSIOM(GPIO_PRT_Type* base, uint32_t pinNum, en_hsiom_sel_t value);
 539:Generated_Source\PSoC6\pdl\drivers/peripheral/gpio/cy_gpio.h **** __STATIC_INLINE en_hsiom_sel_t Cy_GPIO_GetHSIOM(GPIO_PRT_Type* base, uint32_t pinNum);
 540:Generated_Source\PSoC6\pdl\drivers/peripheral/gpio/cy_gpio.h **** __STATIC_INLINE GPIO_PRT_Type* Cy_GPIO_PortToAddr(uint32_t portNum);
 541:Generated_Source\PSoC6\pdl\drivers/peripheral/gpio/cy_gpio.h **** 
 542:Generated_Source\PSoC6\pdl\drivers/peripheral/gpio/cy_gpio.h **** /** \} group_gpio_functions_init */
 543:Generated_Source\PSoC6\pdl\drivers/peripheral/gpio/cy_gpio.h **** 
 544:Generated_Source\PSoC6\pdl\drivers/peripheral/gpio/cy_gpio.h **** /**
 545:Generated_Source\PSoC6\pdl\drivers/peripheral/gpio/cy_gpio.h **** * \addtogroup group_gpio_functions_gpio
 546:Generated_Source\PSoC6\pdl\drivers/peripheral/gpio/cy_gpio.h **** * \{
 547:Generated_Source\PSoC6\pdl\drivers/peripheral/gpio/cy_gpio.h **** */
 548:Generated_Source\PSoC6\pdl\drivers/peripheral/gpio/cy_gpio.h **** 
 549:Generated_Source\PSoC6\pdl\drivers/peripheral/gpio/cy_gpio.h **** void Cy_GPIO_SetAmuxSplit(cy_en_amux_split_t switchCtrl, cy_en_gpio_amuxconnect_t amuxConnect, cy_e
 550:Generated_Source\PSoC6\pdl\drivers/peripheral/gpio/cy_gpio.h **** cy_en_gpio_amuxconnect_t Cy_GPIO_GetAmuxSplit(cy_en_amux_split_t switchCtrl, cy_en_gpio_amuxselect_
 551:Generated_Source\PSoC6\pdl\drivers/peripheral/gpio/cy_gpio.h **** 
 552:Generated_Source\PSoC6\pdl\drivers/peripheral/gpio/cy_gpio.h **** __STATIC_INLINE uint32_t Cy_GPIO_Read(GPIO_PRT_Type* base, uint32_t pinNum);
 553:Generated_Source\PSoC6\pdl\drivers/peripheral/gpio/cy_gpio.h **** __STATIC_INLINE void Cy_GPIO_Write(GPIO_PRT_Type* base, uint32_t pinNum, uint32_t value);
 554:Generated_Source\PSoC6\pdl\drivers/peripheral/gpio/cy_gpio.h **** __STATIC_INLINE uint32_t Cy_GPIO_ReadOut(GPIO_PRT_Type* base, uint32_t pinNum);
 555:Generated_Source\PSoC6\pdl\drivers/peripheral/gpio/cy_gpio.h **** __STATIC_INLINE void Cy_GPIO_Set(GPIO_PRT_Type* base, uint32_t pinNum);
 556:Generated_Source\PSoC6\pdl\drivers/peripheral/gpio/cy_gpio.h **** __STATIC_INLINE void Cy_GPIO_Clr(GPIO_PRT_Type* base, uint32_t pinNum);
 557:Generated_Source\PSoC6\pdl\drivers/peripheral/gpio/cy_gpio.h **** __STATIC_INLINE void Cy_GPIO_Inv(GPIO_PRT_Type* base, uint32_t pinNum);
 558:Generated_Source\PSoC6\pdl\drivers/peripheral/gpio/cy_gpio.h **** __STATIC_INLINE void Cy_GPIO_SetDrivemode(GPIO_PRT_Type* base, uint32_t pinNum, uint32_t value);
 559:Generated_Source\PSoC6\pdl\drivers/peripheral/gpio/cy_gpio.h **** __STATIC_INLINE uint32_t Cy_GPIO_GetDrivemode(GPIO_PRT_Type* base, uint32_t pinNum);
 560:Generated_Source\PSoC6\pdl\drivers/peripheral/gpio/cy_gpio.h **** __STATIC_INLINE void Cy_GPIO_SetVtrip(GPIO_PRT_Type* base, uint32_t pinNum, uint32_t value);
 561:Generated_Source\PSoC6\pdl\drivers/peripheral/gpio/cy_gpio.h **** __STATIC_INLINE uint32_t Cy_GPIO_GetVtrip(GPIO_PRT_Type* base, uint32_t pinNum);
 562:Generated_Source\PSoC6\pdl\drivers/peripheral/gpio/cy_gpio.h **** __STATIC_INLINE void Cy_GPIO_SetSlewRate(GPIO_PRT_Type* base, uint32_t pinNum, uint32_t value);
 563:Generated_Source\PSoC6\pdl\drivers/peripheral/gpio/cy_gpio.h **** __STATIC_INLINE uint32_t Cy_GPIO_GetSlewRate(GPIO_PRT_Type* base, uint32_t pinNum);
 564:Generated_Source\PSoC6\pdl\drivers/peripheral/gpio/cy_gpio.h **** __STATIC_INLINE void Cy_GPIO_SetDriveSel(GPIO_PRT_Type* base, uint32_t pinNum, uint32_t value);
 565:Generated_Source\PSoC6\pdl\drivers/peripheral/gpio/cy_gpio.h **** __STATIC_INLINE uint32_t Cy_GPIO_GetDriveSel(GPIO_PRT_Type* base, uint32_t pinNum);
 566:Generated_Source\PSoC6\pdl\drivers/peripheral/gpio/cy_gpio.h **** 
 567:Generated_Source\PSoC6\pdl\drivers/peripheral/gpio/cy_gpio.h **** /** \} group_gpio_functions_gpio */
 568:Generated_Source\PSoC6\pdl\drivers/peripheral/gpio/cy_gpio.h **** 
 569:Generated_Source\PSoC6\pdl\drivers/peripheral/gpio/cy_gpio.h **** /**
 570:Generated_Source\PSoC6\pdl\drivers/peripheral/gpio/cy_gpio.h **** * \addtogroup group_gpio_functions_sio
 571:Generated_Source\PSoC6\pdl\drivers/peripheral/gpio/cy_gpio.h **** * \{
 572:Generated_Source\PSoC6\pdl\drivers/peripheral/gpio/cy_gpio.h **** */
 573:Generated_Source\PSoC6\pdl\drivers/peripheral/gpio/cy_gpio.h **** 
 574:Generated_Source\PSoC6\pdl\drivers/peripheral/gpio/cy_gpio.h **** __STATIC_INLINE void Cy_GPIO_SetVregEn(GPIO_PRT_Type* base, uint32_t pinNum, uint32_t value);
ARM GAS  C:\Users\Austina\AppData\Local\Temp\cc3bCXFh.s 			page 26


 575:Generated_Source\PSoC6\pdl\drivers/peripheral/gpio/cy_gpio.h **** __STATIC_INLINE uint32_t Cy_GPIO_GetVregEn(GPIO_PRT_Type* base, uint32_t pinNum);
 576:Generated_Source\PSoC6\pdl\drivers/peripheral/gpio/cy_gpio.h **** __STATIC_INLINE void Cy_GPIO_SetIbufMode(GPIO_PRT_Type* base, uint32_t pinNum, uint32_t value);
 577:Generated_Source\PSoC6\pdl\drivers/peripheral/gpio/cy_gpio.h **** __STATIC_INLINE uint32_t Cy_GPIO_GetIbufMode(GPIO_PRT_Type* base, uint32_t pinNum);
 578:Generated_Source\PSoC6\pdl\drivers/peripheral/gpio/cy_gpio.h **** __STATIC_INLINE void Cy_GPIO_SetVtripSel(GPIO_PRT_Type* base, uint32_t pinNum, uint32_t value);
 579:Generated_Source\PSoC6\pdl\drivers/peripheral/gpio/cy_gpio.h **** __STATIC_INLINE uint32_t Cy_GPIO_GetVtripSel(GPIO_PRT_Type* base, uint32_t pinNum);
 580:Generated_Source\PSoC6\pdl\drivers/peripheral/gpio/cy_gpio.h **** __STATIC_INLINE void Cy_GPIO_SetVrefSel(GPIO_PRT_Type* base, uint32_t pinNum, uint32_t value);
 581:Generated_Source\PSoC6\pdl\drivers/peripheral/gpio/cy_gpio.h **** __STATIC_INLINE uint32_t Cy_GPIO_GetVrefSel(GPIO_PRT_Type* base, uint32_t pinNum);
 582:Generated_Source\PSoC6\pdl\drivers/peripheral/gpio/cy_gpio.h **** __STATIC_INLINE void Cy_GPIO_SetVohSel(GPIO_PRT_Type* base, uint32_t pinNum, uint32_t value);
 583:Generated_Source\PSoC6\pdl\drivers/peripheral/gpio/cy_gpio.h **** __STATIC_INLINE uint32_t Cy_GPIO_GetVohSel(GPIO_PRT_Type* base, uint32_t pinNum);
 584:Generated_Source\PSoC6\pdl\drivers/peripheral/gpio/cy_gpio.h **** 
 585:Generated_Source\PSoC6\pdl\drivers/peripheral/gpio/cy_gpio.h **** /** \} group_gpio_functions_sio */
 586:Generated_Source\PSoC6\pdl\drivers/peripheral/gpio/cy_gpio.h **** 
 587:Generated_Source\PSoC6\pdl\drivers/peripheral/gpio/cy_gpio.h **** /**
 588:Generated_Source\PSoC6\pdl\drivers/peripheral/gpio/cy_gpio.h **** * \addtogroup group_gpio_functions_interrupt
 589:Generated_Source\PSoC6\pdl\drivers/peripheral/gpio/cy_gpio.h **** * \{
 590:Generated_Source\PSoC6\pdl\drivers/peripheral/gpio/cy_gpio.h **** */
 591:Generated_Source\PSoC6\pdl\drivers/peripheral/gpio/cy_gpio.h **** 
 592:Generated_Source\PSoC6\pdl\drivers/peripheral/gpio/cy_gpio.h **** __STATIC_INLINE uint32_t Cy_GPIO_GetInterruptStatus(GPIO_PRT_Type* base, uint32_t pinNum);
 593:Generated_Source\PSoC6\pdl\drivers/peripheral/gpio/cy_gpio.h **** __STATIC_INLINE void Cy_GPIO_ClearInterrupt(GPIO_PRT_Type* base, uint32_t pinNum);
 594:Generated_Source\PSoC6\pdl\drivers/peripheral/gpio/cy_gpio.h **** __STATIC_INLINE void Cy_GPIO_SetInterruptMask(GPIO_PRT_Type* base, uint32_t pinNum, uint32_t value)
 595:Generated_Source\PSoC6\pdl\drivers/peripheral/gpio/cy_gpio.h **** __STATIC_INLINE uint32_t Cy_GPIO_GetInterruptMask(GPIO_PRT_Type* base, uint32_t pinNum);
 596:Generated_Source\PSoC6\pdl\drivers/peripheral/gpio/cy_gpio.h **** __STATIC_INLINE uint32_t Cy_GPIO_GetInterruptStatusMasked(GPIO_PRT_Type* base, uint32_t pinNum);
 597:Generated_Source\PSoC6\pdl\drivers/peripheral/gpio/cy_gpio.h **** __STATIC_INLINE void Cy_GPIO_SetSwInterrupt(GPIO_PRT_Type* base, uint32_t pinNum);
 598:Generated_Source\PSoC6\pdl\drivers/peripheral/gpio/cy_gpio.h **** __STATIC_INLINE void Cy_GPIO_SetInterruptEdge(GPIO_PRT_Type* base, uint32_t pinNum, uint32_t value)
 599:Generated_Source\PSoC6\pdl\drivers/peripheral/gpio/cy_gpio.h **** __STATIC_INLINE uint32_t Cy_GPIO_GetInterruptEdge(GPIO_PRT_Type* base, uint32_t pinNum);
 600:Generated_Source\PSoC6\pdl\drivers/peripheral/gpio/cy_gpio.h **** __STATIC_INLINE void Cy_GPIO_SetFilter(GPIO_PRT_Type* base, uint32_t value);
 601:Generated_Source\PSoC6\pdl\drivers/peripheral/gpio/cy_gpio.h **** __STATIC_INLINE uint32_t Cy_GPIO_GetFilter(GPIO_PRT_Type* base);
 602:Generated_Source\PSoC6\pdl\drivers/peripheral/gpio/cy_gpio.h **** 
 603:Generated_Source\PSoC6\pdl\drivers/peripheral/gpio/cy_gpio.h **** __STATIC_INLINE uint32_t Cy_GPIO_GetInterruptCause0(void);
 604:Generated_Source\PSoC6\pdl\drivers/peripheral/gpio/cy_gpio.h **** __STATIC_INLINE uint32_t Cy_GPIO_GetInterruptCause1(void);
 605:Generated_Source\PSoC6\pdl\drivers/peripheral/gpio/cy_gpio.h **** __STATIC_INLINE uint32_t Cy_GPIO_GetInterruptCause2(void);
 606:Generated_Source\PSoC6\pdl\drivers/peripheral/gpio/cy_gpio.h **** __STATIC_INLINE uint32_t Cy_GPIO_GetInterruptCause3(void);
 607:Generated_Source\PSoC6\pdl\drivers/peripheral/gpio/cy_gpio.h **** 
 608:Generated_Source\PSoC6\pdl\drivers/peripheral/gpio/cy_gpio.h **** /** \} group_gpio_functions_interrupt */
 609:Generated_Source\PSoC6\pdl\drivers/peripheral/gpio/cy_gpio.h **** 
 610:Generated_Source\PSoC6\pdl\drivers/peripheral/gpio/cy_gpio.h **** 
 611:Generated_Source\PSoC6\pdl\drivers/peripheral/gpio/cy_gpio.h **** /**
 612:Generated_Source\PSoC6\pdl\drivers/peripheral/gpio/cy_gpio.h **** * \addtogroup group_gpio_functions_init
 613:Generated_Source\PSoC6\pdl\drivers/peripheral/gpio/cy_gpio.h **** * \{
 614:Generated_Source\PSoC6\pdl\drivers/peripheral/gpio/cy_gpio.h **** */
 615:Generated_Source\PSoC6\pdl\drivers/peripheral/gpio/cy_gpio.h **** 
 616:Generated_Source\PSoC6\pdl\drivers/peripheral/gpio/cy_gpio.h **** /*******************************************************************************
 617:Generated_Source\PSoC6\pdl\drivers/peripheral/gpio/cy_gpio.h **** * Function Name: Cy_GPIO_SetHSIOM
 618:Generated_Source\PSoC6\pdl\drivers/peripheral/gpio/cy_gpio.h **** ****************************************************************************//**
 619:Generated_Source\PSoC6\pdl\drivers/peripheral/gpio/cy_gpio.h **** *
 620:Generated_Source\PSoC6\pdl\drivers/peripheral/gpio/cy_gpio.h **** * Configures the HSIOM connection to the pin.
 621:Generated_Source\PSoC6\pdl\drivers/peripheral/gpio/cy_gpio.h **** *
 622:Generated_Source\PSoC6\pdl\drivers/peripheral/gpio/cy_gpio.h **** * Connects the specified High-Speed Input Output Multiplexer (HSIOM) selection
 623:Generated_Source\PSoC6\pdl\drivers/peripheral/gpio/cy_gpio.h **** * to the pin.
 624:Generated_Source\PSoC6\pdl\drivers/peripheral/gpio/cy_gpio.h **** *
 625:Generated_Source\PSoC6\pdl\drivers/peripheral/gpio/cy_gpio.h **** * \param base
 626:Generated_Source\PSoC6\pdl\drivers/peripheral/gpio/cy_gpio.h **** * Pointer to the pin's port register base address
 627:Generated_Source\PSoC6\pdl\drivers/peripheral/gpio/cy_gpio.h **** *
 628:Generated_Source\PSoC6\pdl\drivers/peripheral/gpio/cy_gpio.h **** * \param pinNum
 629:Generated_Source\PSoC6\pdl\drivers/peripheral/gpio/cy_gpio.h **** * Position of the pin bit-field within the port register
 630:Generated_Source\PSoC6\pdl\drivers/peripheral/gpio/cy_gpio.h **** *
 631:Generated_Source\PSoC6\pdl\drivers/peripheral/gpio/cy_gpio.h **** * \param value
ARM GAS  C:\Users\Austina\AppData\Local\Temp\cc3bCXFh.s 			page 27


 632:Generated_Source\PSoC6\pdl\drivers/peripheral/gpio/cy_gpio.h **** * HSIOM input selection
 633:Generated_Source\PSoC6\pdl\drivers/peripheral/gpio/cy_gpio.h **** *
 634:Generated_Source\PSoC6\pdl\drivers/peripheral/gpio/cy_gpio.h **** * \note 
 635:Generated_Source\PSoC6\pdl\drivers/peripheral/gpio/cy_gpio.h **** * This function modifies a port register in a read-modify-write operation. It is
 636:Generated_Source\PSoC6\pdl\drivers/peripheral/gpio/cy_gpio.h **** * not thread safe as the resource is shared among multiple pins on a port.
 637:Generated_Source\PSoC6\pdl\drivers/peripheral/gpio/cy_gpio.h **** *
 638:Generated_Source\PSoC6\pdl\drivers/peripheral/gpio/cy_gpio.h **** * \funcusage
 639:Generated_Source\PSoC6\pdl\drivers/peripheral/gpio/cy_gpio.h **** * \snippet gpio/gpio_v1_10_sut_01.cydsn/main_cm4.c snippet_Cy_GPIO_SetHSIOM
 640:Generated_Source\PSoC6\pdl\drivers/peripheral/gpio/cy_gpio.h **** *
 641:Generated_Source\PSoC6\pdl\drivers/peripheral/gpio/cy_gpio.h **** *******************************************************************************/
 642:Generated_Source\PSoC6\pdl\drivers/peripheral/gpio/cy_gpio.h **** __STATIC_INLINE void Cy_GPIO_SetHSIOM(GPIO_PRT_Type* base, uint32_t pinNum, en_hsiom_sel_t value)
 643:Generated_Source\PSoC6\pdl\drivers/peripheral/gpio/cy_gpio.h **** {
 644:Generated_Source\PSoC6\pdl\drivers/peripheral/gpio/cy_gpio.h ****     uint32_t portNum;
 645:Generated_Source\PSoC6\pdl\drivers/peripheral/gpio/cy_gpio.h ****     uint32_t tempReg;
 646:Generated_Source\PSoC6\pdl\drivers/peripheral/gpio/cy_gpio.h ****     HSIOM_PRT_V1_Type* portAddrHSIOM;
 647:Generated_Source\PSoC6\pdl\drivers/peripheral/gpio/cy_gpio.h **** 
 648:Generated_Source\PSoC6\pdl\drivers/peripheral/gpio/cy_gpio.h ****     CY_ASSERT_L2(CY_GPIO_IS_PIN_VALID(pinNum));
 649:Generated_Source\PSoC6\pdl\drivers/peripheral/gpio/cy_gpio.h ****     CY_ASSERT_L2(CY_GPIO_IS_HSIOM_VALID(value));
 650:Generated_Source\PSoC6\pdl\drivers/peripheral/gpio/cy_gpio.h **** 
 651:Generated_Source\PSoC6\pdl\drivers/peripheral/gpio/cy_gpio.h ****     portNum = ((uint32_t)(base) - CY_GPIO_BASE) / GPIO_PRT_SECTION_SIZE;
 652:Generated_Source\PSoC6\pdl\drivers/peripheral/gpio/cy_gpio.h ****     portAddrHSIOM = (HSIOM_PRT_V1_Type*)(CY_HSIOM_BASE + (HSIOM_PRT_SECTION_SIZE * portNum));
 653:Generated_Source\PSoC6\pdl\drivers/peripheral/gpio/cy_gpio.h **** 
 654:Generated_Source\PSoC6\pdl\drivers/peripheral/gpio/cy_gpio.h ****     if(pinNum < CY_GPIO_PRT_HALF)
 655:Generated_Source\PSoC6\pdl\drivers/peripheral/gpio/cy_gpio.h ****     {
 656:Generated_Source\PSoC6\pdl\drivers/peripheral/gpio/cy_gpio.h ****         tempReg = HSIOM_PRT_PORT_SEL0(portAddrHSIOM) & ~(CY_GPIO_HSIOM_MASK << (pinNum << CY_GPIO_H
 657:Generated_Source\PSoC6\pdl\drivers/peripheral/gpio/cy_gpio.h ****         HSIOM_PRT_PORT_SEL0(portAddrHSIOM) = tempReg | ((value & CY_GPIO_HSIOM_MASK) << (pinNum << 
 658:Generated_Source\PSoC6\pdl\drivers/peripheral/gpio/cy_gpio.h ****     }
 659:Generated_Source\PSoC6\pdl\drivers/peripheral/gpio/cy_gpio.h ****     else
 660:Generated_Source\PSoC6\pdl\drivers/peripheral/gpio/cy_gpio.h ****     {
 661:Generated_Source\PSoC6\pdl\drivers/peripheral/gpio/cy_gpio.h ****         pinNum -= CY_GPIO_PRT_HALF;
 662:Generated_Source\PSoC6\pdl\drivers/peripheral/gpio/cy_gpio.h ****         tempReg = HSIOM_PRT_PORT_SEL1(portAddrHSIOM) & ~(CY_GPIO_HSIOM_MASK << (pinNum << CY_GPIO_H
 663:Generated_Source\PSoC6\pdl\drivers/peripheral/gpio/cy_gpio.h ****         HSIOM_PRT_PORT_SEL1(portAddrHSIOM) = tempReg | ((value & CY_GPIO_HSIOM_MASK) << (pinNum << 
 664:Generated_Source\PSoC6\pdl\drivers/peripheral/gpio/cy_gpio.h ****     }
 665:Generated_Source\PSoC6\pdl\drivers/peripheral/gpio/cy_gpio.h **** }
 666:Generated_Source\PSoC6\pdl\drivers/peripheral/gpio/cy_gpio.h **** 
 667:Generated_Source\PSoC6\pdl\drivers/peripheral/gpio/cy_gpio.h **** 
 668:Generated_Source\PSoC6\pdl\drivers/peripheral/gpio/cy_gpio.h **** /*******************************************************************************
 669:Generated_Source\PSoC6\pdl\drivers/peripheral/gpio/cy_gpio.h **** * Function Name: Cy_GPIO_GetHSIOM
 670:Generated_Source\PSoC6\pdl\drivers/peripheral/gpio/cy_gpio.h **** ****************************************************************************//**
 671:Generated_Source\PSoC6\pdl\drivers/peripheral/gpio/cy_gpio.h **** *
 672:Generated_Source\PSoC6\pdl\drivers/peripheral/gpio/cy_gpio.h **** * Returns the current HSIOM multiplexer connection to the pin.
 673:Generated_Source\PSoC6\pdl\drivers/peripheral/gpio/cy_gpio.h **** *
 674:Generated_Source\PSoC6\pdl\drivers/peripheral/gpio/cy_gpio.h **** * \param base
 675:Generated_Source\PSoC6\pdl\drivers/peripheral/gpio/cy_gpio.h **** * Pointer to the pin's port register base address
 676:Generated_Source\PSoC6\pdl\drivers/peripheral/gpio/cy_gpio.h **** *
 677:Generated_Source\PSoC6\pdl\drivers/peripheral/gpio/cy_gpio.h **** * \param pinNum
 678:Generated_Source\PSoC6\pdl\drivers/peripheral/gpio/cy_gpio.h **** * Position of the pin bit-field within the port register
 679:Generated_Source\PSoC6\pdl\drivers/peripheral/gpio/cy_gpio.h **** *
 680:Generated_Source\PSoC6\pdl\drivers/peripheral/gpio/cy_gpio.h **** * \return
 681:Generated_Source\PSoC6\pdl\drivers/peripheral/gpio/cy_gpio.h **** * HSIOM input selection
 682:Generated_Source\PSoC6\pdl\drivers/peripheral/gpio/cy_gpio.h **** *
 683:Generated_Source\PSoC6\pdl\drivers/peripheral/gpio/cy_gpio.h **** * \funcusage
 684:Generated_Source\PSoC6\pdl\drivers/peripheral/gpio/cy_gpio.h **** * \snippet gpio/gpio_v1_10_sut_01.cydsn/main_cm4.c snippet_Cy_GPIO_SetHSIOM
 685:Generated_Source\PSoC6\pdl\drivers/peripheral/gpio/cy_gpio.h **** *
 686:Generated_Source\PSoC6\pdl\drivers/peripheral/gpio/cy_gpio.h **** *******************************************************************************/
 687:Generated_Source\PSoC6\pdl\drivers/peripheral/gpio/cy_gpio.h **** __STATIC_INLINE en_hsiom_sel_t Cy_GPIO_GetHSIOM(GPIO_PRT_Type* base, uint32_t pinNum)
 688:Generated_Source\PSoC6\pdl\drivers/peripheral/gpio/cy_gpio.h **** {
ARM GAS  C:\Users\Austina\AppData\Local\Temp\cc3bCXFh.s 			page 28


 689:Generated_Source\PSoC6\pdl\drivers/peripheral/gpio/cy_gpio.h ****     uint32_t returnValue;
 690:Generated_Source\PSoC6\pdl\drivers/peripheral/gpio/cy_gpio.h ****     uint32_t portNum;
 691:Generated_Source\PSoC6\pdl\drivers/peripheral/gpio/cy_gpio.h ****     HSIOM_PRT_V1_Type* portAddrHSIOM;
 692:Generated_Source\PSoC6\pdl\drivers/peripheral/gpio/cy_gpio.h ****     
 693:Generated_Source\PSoC6\pdl\drivers/peripheral/gpio/cy_gpio.h ****     CY_ASSERT_L2(CY_GPIO_IS_PIN_VALID(pinNum));
 694:Generated_Source\PSoC6\pdl\drivers/peripheral/gpio/cy_gpio.h **** 
 695:Generated_Source\PSoC6\pdl\drivers/peripheral/gpio/cy_gpio.h ****     portNum = ((uint32_t)(base) - CY_GPIO_BASE) / GPIO_PRT_SECTION_SIZE;
 696:Generated_Source\PSoC6\pdl\drivers/peripheral/gpio/cy_gpio.h ****     portAddrHSIOM = (HSIOM_PRT_V1_Type*)(CY_HSIOM_BASE + (HSIOM_PRT_SECTION_SIZE * portNum));
 697:Generated_Source\PSoC6\pdl\drivers/peripheral/gpio/cy_gpio.h **** 
 698:Generated_Source\PSoC6\pdl\drivers/peripheral/gpio/cy_gpio.h ****     if(pinNum < CY_GPIO_PRT_HALF)
 699:Generated_Source\PSoC6\pdl\drivers/peripheral/gpio/cy_gpio.h ****     {
 700:Generated_Source\PSoC6\pdl\drivers/peripheral/gpio/cy_gpio.h ****         returnValue = (HSIOM_PRT_PORT_SEL0(portAddrHSIOM) >> (pinNum << CY_GPIO_HSIOM_OFFSET)) & CY
 701:Generated_Source\PSoC6\pdl\drivers/peripheral/gpio/cy_gpio.h ****     }
 702:Generated_Source\PSoC6\pdl\drivers/peripheral/gpio/cy_gpio.h ****     else
 703:Generated_Source\PSoC6\pdl\drivers/peripheral/gpio/cy_gpio.h ****     {
 704:Generated_Source\PSoC6\pdl\drivers/peripheral/gpio/cy_gpio.h ****         pinNum -= CY_GPIO_PRT_HALF;
 705:Generated_Source\PSoC6\pdl\drivers/peripheral/gpio/cy_gpio.h ****         returnValue = (HSIOM_PRT_PORT_SEL1(portAddrHSIOM) >> (pinNum << CY_GPIO_HSIOM_OFFSET)) & CY
 706:Generated_Source\PSoC6\pdl\drivers/peripheral/gpio/cy_gpio.h ****     }
 707:Generated_Source\PSoC6\pdl\drivers/peripheral/gpio/cy_gpio.h **** 
 708:Generated_Source\PSoC6\pdl\drivers/peripheral/gpio/cy_gpio.h ****     return (en_hsiom_sel_t)returnValue;
 709:Generated_Source\PSoC6\pdl\drivers/peripheral/gpio/cy_gpio.h **** }
 710:Generated_Source\PSoC6\pdl\drivers/peripheral/gpio/cy_gpio.h **** 
 711:Generated_Source\PSoC6\pdl\drivers/peripheral/gpio/cy_gpio.h **** 
 712:Generated_Source\PSoC6\pdl\drivers/peripheral/gpio/cy_gpio.h **** /*******************************************************************************
 713:Generated_Source\PSoC6\pdl\drivers/peripheral/gpio/cy_gpio.h **** * Function Name: Cy_GPIO_PortToAddr
 714:Generated_Source\PSoC6\pdl\drivers/peripheral/gpio/cy_gpio.h **** ****************************************************************************//**
 715:Generated_Source\PSoC6\pdl\drivers/peripheral/gpio/cy_gpio.h **** *
 716:Generated_Source\PSoC6\pdl\drivers/peripheral/gpio/cy_gpio.h **** * Retrieves the port address based on the given port number.
 717:Generated_Source\PSoC6\pdl\drivers/peripheral/gpio/cy_gpio.h **** *
 718:Generated_Source\PSoC6\pdl\drivers/peripheral/gpio/cy_gpio.h **** * This is a helper function to calculate the port base address when given a port
 719:Generated_Source\PSoC6\pdl\drivers/peripheral/gpio/cy_gpio.h **** * number. It is to be used when pin access needs to be calculated at runtime.
 720:Generated_Source\PSoC6\pdl\drivers/peripheral/gpio/cy_gpio.h **** *
 721:Generated_Source\PSoC6\pdl\drivers/peripheral/gpio/cy_gpio.h **** * \param portNum
 722:Generated_Source\PSoC6\pdl\drivers/peripheral/gpio/cy_gpio.h **** * Port number
 723:Generated_Source\PSoC6\pdl\drivers/peripheral/gpio/cy_gpio.h **** *
 724:Generated_Source\PSoC6\pdl\drivers/peripheral/gpio/cy_gpio.h **** * \return
 725:Generated_Source\PSoC6\pdl\drivers/peripheral/gpio/cy_gpio.h **** * Base address of the port register structure
 726:Generated_Source\PSoC6\pdl\drivers/peripheral/gpio/cy_gpio.h **** *
 727:Generated_Source\PSoC6\pdl\drivers/peripheral/gpio/cy_gpio.h **** * \funcusage
 728:Generated_Source\PSoC6\pdl\drivers/peripheral/gpio/cy_gpio.h **** * \snippet gpio/gpio_v1_10_sut_01.cydsn/main_cm4.c snippet_Cy_GPIO_PortToAddr
 729:Generated_Source\PSoC6\pdl\drivers/peripheral/gpio/cy_gpio.h **** *
 730:Generated_Source\PSoC6\pdl\drivers/peripheral/gpio/cy_gpio.h **** *******************************************************************************/
 731:Generated_Source\PSoC6\pdl\drivers/peripheral/gpio/cy_gpio.h **** __STATIC_INLINE GPIO_PRT_Type* Cy_GPIO_PortToAddr(uint32_t portNum)
 732:Generated_Source\PSoC6\pdl\drivers/peripheral/gpio/cy_gpio.h **** {
 733:Generated_Source\PSoC6\pdl\drivers/peripheral/gpio/cy_gpio.h ****     GPIO_PRT_Type* portBase;
 734:Generated_Source\PSoC6\pdl\drivers/peripheral/gpio/cy_gpio.h ****     
 735:Generated_Source\PSoC6\pdl\drivers/peripheral/gpio/cy_gpio.h ****     if(portNum < (uint32_t)IOSS_GPIO_GPIO_PORT_NR)
 736:Generated_Source\PSoC6\pdl\drivers/peripheral/gpio/cy_gpio.h ****     {
 737:Generated_Source\PSoC6\pdl\drivers/peripheral/gpio/cy_gpio.h ****         portBase = (GPIO_PRT_Type *)(CY_GPIO_BASE + (GPIO_PRT_SECTION_SIZE * portNum));
 738:Generated_Source\PSoC6\pdl\drivers/peripheral/gpio/cy_gpio.h ****     }
 739:Generated_Source\PSoC6\pdl\drivers/peripheral/gpio/cy_gpio.h ****     else
 740:Generated_Source\PSoC6\pdl\drivers/peripheral/gpio/cy_gpio.h ****     {
 741:Generated_Source\PSoC6\pdl\drivers/peripheral/gpio/cy_gpio.h ****         /* Error: Return default base address */
 742:Generated_Source\PSoC6\pdl\drivers/peripheral/gpio/cy_gpio.h ****         portBase = (GPIO_PRT_Type *)(CY_GPIO_BASE);
 743:Generated_Source\PSoC6\pdl\drivers/peripheral/gpio/cy_gpio.h ****     }
 744:Generated_Source\PSoC6\pdl\drivers/peripheral/gpio/cy_gpio.h **** 
 745:Generated_Source\PSoC6\pdl\drivers/peripheral/gpio/cy_gpio.h ****     return (portBase);
ARM GAS  C:\Users\Austina\AppData\Local\Temp\cc3bCXFh.s 			page 29


 746:Generated_Source\PSoC6\pdl\drivers/peripheral/gpio/cy_gpio.h **** }
 747:Generated_Source\PSoC6\pdl\drivers/peripheral/gpio/cy_gpio.h **** 
 748:Generated_Source\PSoC6\pdl\drivers/peripheral/gpio/cy_gpio.h **** /** \} group_gpio_functions_init */
 749:Generated_Source\PSoC6\pdl\drivers/peripheral/gpio/cy_gpio.h **** 
 750:Generated_Source\PSoC6\pdl\drivers/peripheral/gpio/cy_gpio.h **** /**
 751:Generated_Source\PSoC6\pdl\drivers/peripheral/gpio/cy_gpio.h **** * \addtogroup group_gpio_functions_gpio
 752:Generated_Source\PSoC6\pdl\drivers/peripheral/gpio/cy_gpio.h **** * \{
 753:Generated_Source\PSoC6\pdl\drivers/peripheral/gpio/cy_gpio.h **** */
 754:Generated_Source\PSoC6\pdl\drivers/peripheral/gpio/cy_gpio.h **** 
 755:Generated_Source\PSoC6\pdl\drivers/peripheral/gpio/cy_gpio.h **** /*******************************************************************************
 756:Generated_Source\PSoC6\pdl\drivers/peripheral/gpio/cy_gpio.h **** * Function Name: Cy_GPIO_Read
 757:Generated_Source\PSoC6\pdl\drivers/peripheral/gpio/cy_gpio.h **** ****************************************************************************//**
 758:Generated_Source\PSoC6\pdl\drivers/peripheral/gpio/cy_gpio.h **** *
 759:Generated_Source\PSoC6\pdl\drivers/peripheral/gpio/cy_gpio.h **** * Reads the current logic level on the input buffer of the pin.
 760:Generated_Source\PSoC6\pdl\drivers/peripheral/gpio/cy_gpio.h **** *
 761:Generated_Source\PSoC6\pdl\drivers/peripheral/gpio/cy_gpio.h **** * \param base
 762:Generated_Source\PSoC6\pdl\drivers/peripheral/gpio/cy_gpio.h **** * Pointer to the pin's port register base address
 763:Generated_Source\PSoC6\pdl\drivers/peripheral/gpio/cy_gpio.h **** *
 764:Generated_Source\PSoC6\pdl\drivers/peripheral/gpio/cy_gpio.h **** * \param pinNum
 765:Generated_Source\PSoC6\pdl\drivers/peripheral/gpio/cy_gpio.h **** * Position of the pin bit-field within the port register.
 766:Generated_Source\PSoC6\pdl\drivers/peripheral/gpio/cy_gpio.h **** * Bit position 8 is the routed pin through the port glitch filter.
 767:Generated_Source\PSoC6\pdl\drivers/peripheral/gpio/cy_gpio.h **** *
 768:Generated_Source\PSoC6\pdl\drivers/peripheral/gpio/cy_gpio.h **** * \return
 769:Generated_Source\PSoC6\pdl\drivers/peripheral/gpio/cy_gpio.h **** * Logic level present on the pin
 770:Generated_Source\PSoC6\pdl\drivers/peripheral/gpio/cy_gpio.h **** *
 771:Generated_Source\PSoC6\pdl\drivers/peripheral/gpio/cy_gpio.h **** * \funcusage
 772:Generated_Source\PSoC6\pdl\drivers/peripheral/gpio/cy_gpio.h **** * \snippet gpio/gpio_v1_10_sut_01.cydsn/main_cm4.c snippet_Cy_GPIO_Read
 773:Generated_Source\PSoC6\pdl\drivers/peripheral/gpio/cy_gpio.h **** *
 774:Generated_Source\PSoC6\pdl\drivers/peripheral/gpio/cy_gpio.h **** *******************************************************************************/
 775:Generated_Source\PSoC6\pdl\drivers/peripheral/gpio/cy_gpio.h **** __STATIC_INLINE uint32_t Cy_GPIO_Read(GPIO_PRT_Type* base, uint32_t pinNum)
 776:Generated_Source\PSoC6\pdl\drivers/peripheral/gpio/cy_gpio.h **** {
 777:Generated_Source\PSoC6\pdl\drivers/peripheral/gpio/cy_gpio.h ****     CY_ASSERT_L2(CY_GPIO_IS_FILTER_PIN_VALID(pinNum));
 778:Generated_Source\PSoC6\pdl\drivers/peripheral/gpio/cy_gpio.h ****     
 779:Generated_Source\PSoC6\pdl\drivers/peripheral/gpio/cy_gpio.h ****     return (GPIO_PRT_IN(base) >> (pinNum)) & CY_GPIO_IN_MASK;
 780:Generated_Source\PSoC6\pdl\drivers/peripheral/gpio/cy_gpio.h **** }
 781:Generated_Source\PSoC6\pdl\drivers/peripheral/gpio/cy_gpio.h **** 
 782:Generated_Source\PSoC6\pdl\drivers/peripheral/gpio/cy_gpio.h **** 
 783:Generated_Source\PSoC6\pdl\drivers/peripheral/gpio/cy_gpio.h **** /*******************************************************************************
 784:Generated_Source\PSoC6\pdl\drivers/peripheral/gpio/cy_gpio.h **** * Function Name: Cy_GPIO_Write
 785:Generated_Source\PSoC6\pdl\drivers/peripheral/gpio/cy_gpio.h **** ****************************************************************************//**
 786:Generated_Source\PSoC6\pdl\drivers/peripheral/gpio/cy_gpio.h **** *
 787:Generated_Source\PSoC6\pdl\drivers/peripheral/gpio/cy_gpio.h **** * Write a logic 0 or logic 1 state to the output driver.
 788:Generated_Source\PSoC6\pdl\drivers/peripheral/gpio/cy_gpio.h **** *
 789:Generated_Source\PSoC6\pdl\drivers/peripheral/gpio/cy_gpio.h **** * This function should be used only for software driven pins. It does not have
 790:Generated_Source\PSoC6\pdl\drivers/peripheral/gpio/cy_gpio.h **** * any effect on peripheral driven pins.
 791:Generated_Source\PSoC6\pdl\drivers/peripheral/gpio/cy_gpio.h **** *
 792:Generated_Source\PSoC6\pdl\drivers/peripheral/gpio/cy_gpio.h **** * \param base
 793:Generated_Source\PSoC6\pdl\drivers/peripheral/gpio/cy_gpio.h **** * Pointer to the pin's port register base address
 794:Generated_Source\PSoC6\pdl\drivers/peripheral/gpio/cy_gpio.h **** *
 795:Generated_Source\PSoC6\pdl\drivers/peripheral/gpio/cy_gpio.h **** * \param pinNum
 796:Generated_Source\PSoC6\pdl\drivers/peripheral/gpio/cy_gpio.h **** * Position of the pin bit-field within the port register
 797:Generated_Source\PSoC6\pdl\drivers/peripheral/gpio/cy_gpio.h **** *
 798:Generated_Source\PSoC6\pdl\drivers/peripheral/gpio/cy_gpio.h **** * \param value
 799:Generated_Source\PSoC6\pdl\drivers/peripheral/gpio/cy_gpio.h **** * Logic level to drive out on the pin
 800:Generated_Source\PSoC6\pdl\drivers/peripheral/gpio/cy_gpio.h **** *
 801:Generated_Source\PSoC6\pdl\drivers/peripheral/gpio/cy_gpio.h **** * \funcusage
 802:Generated_Source\PSoC6\pdl\drivers/peripheral/gpio/cy_gpio.h **** * \snippet gpio/gpio_v1_10_sut_01.cydsn/main_cm4.c snippet_Cy_GPIO_Write
ARM GAS  C:\Users\Austina\AppData\Local\Temp\cc3bCXFh.s 			page 30


 803:Generated_Source\PSoC6\pdl\drivers/peripheral/gpio/cy_gpio.h **** *
 804:Generated_Source\PSoC6\pdl\drivers/peripheral/gpio/cy_gpio.h **** *******************************************************************************/
 805:Generated_Source\PSoC6\pdl\drivers/peripheral/gpio/cy_gpio.h **** __STATIC_INLINE void Cy_GPIO_Write(GPIO_PRT_Type* base, uint32_t pinNum, uint32_t value)
 806:Generated_Source\PSoC6\pdl\drivers/peripheral/gpio/cy_gpio.h **** {
 807:Generated_Source\PSoC6\pdl\drivers/peripheral/gpio/cy_gpio.h ****     CY_ASSERT_L2(CY_GPIO_IS_PIN_VALID(pinNum));
 808:Generated_Source\PSoC6\pdl\drivers/peripheral/gpio/cy_gpio.h ****     CY_ASSERT_L2(CY_GPIO_IS_VALUE_VALID(value));
 809:Generated_Source\PSoC6\pdl\drivers/peripheral/gpio/cy_gpio.h **** 
 810:Generated_Source\PSoC6\pdl\drivers/peripheral/gpio/cy_gpio.h ****     /* Thread-safe: Directly access the pin registers instead of base->OUT */
 811:Generated_Source\PSoC6\pdl\drivers/peripheral/gpio/cy_gpio.h ****     if(0UL == value)
 812:Generated_Source\PSoC6\pdl\drivers/peripheral/gpio/cy_gpio.h ****     {
 813:Generated_Source\PSoC6\pdl\drivers/peripheral/gpio/cy_gpio.h ****         GPIO_PRT_OUT_CLR(base) = CY_GPIO_OUT_MASK << pinNum;
 636              		.loc 2 813 0
 637 0164 2022     		movs	r2, #32
 638 0166 564B     		ldr	r3, .L68+64
 639 0168 5A60     		str	r2, [r3, #4]
 640              	.LVL88:
 641 016a 0BE0     		b	.L44
 642              	.LVL89:
 643              	.L43:
 644              	.LBE10:
 645              	.LBE9:
 170:motionTask.c  ****             Cy_GPIO_Write(LED8_PORT,LED8_NUM,0);
 171:motionTask.c  ****             
 172:motionTask.c  ****         }
 173:motionTask.c  ****         else
 174:motionTask.c  ****         {
 175:motionTask.c  ****             xEventGroupSetBits(systemInputMode,MODE_MOTION);
 646              		.loc 1 175 0
 647 016c 534E     		ldr	r6, .L68+60
 648 016e 0121     		movs	r1, #1
 649 0170 3068     		ldr	r0, [r6]
 650 0172 FFF7FEFF 		bl	xEventGroupSetBits
 651              	.LVL90:
 176:motionTask.c  ****             xEventGroupClearBits(systemInputMode,MODE_CAPSENSE);
 652              		.loc 1 176 0
 653 0176 0221     		movs	r1, #2
 654 0178 3068     		ldr	r0, [r6]
 655 017a FFF7FEFF 		bl	xEventGroupClearBits
 656              	.LVL91:
 657              	.LBB11:
 658              	.LBB12:
 814:Generated_Source\PSoC6\pdl\drivers/peripheral/gpio/cy_gpio.h ****     }
 815:Generated_Source\PSoC6\pdl\drivers/peripheral/gpio/cy_gpio.h ****     else
 816:Generated_Source\PSoC6\pdl\drivers/peripheral/gpio/cy_gpio.h ****     {
 817:Generated_Source\PSoC6\pdl\drivers/peripheral/gpio/cy_gpio.h ****         GPIO_PRT_OUT_SET(base) = CY_GPIO_OUT_MASK << pinNum;
 659              		.loc 2 817 0
 660 017e 2022     		movs	r2, #32
 661 0180 4F4B     		ldr	r3, .L68+64
 662 0182 9A60     		str	r2, [r3, #8]
 663              	.LVL92:
 664              	.L44:
 665              	.LBE12:
 666              	.LBE11:
 177:motionTask.c  ****             Cy_GPIO_Write(LED8_PORT,LED8_NUM,1);
 178:motionTask.c  ****         }
 179:motionTask.c  ****         
 180:motionTask.c  ****         if(xEventGroupGetBits(systemInputMode) == MODE_MOTION)
ARM GAS  C:\Users\Austina\AppData\Local\Temp\cc3bCXFh.s 			page 31


 667              		.loc 1 180 0
 668 0184 0021     		movs	r1, #0
 669 0186 4D4B     		ldr	r3, .L68+60
 670 0188 1868     		ldr	r0, [r3]
 671 018a FFF7FEFF 		bl	xEventGroupClearBits
 672              	.LVL93:
 673 018e 0128     		cmp	r0, #1
 674 0190 72D1     		bne	.L45
 181:motionTask.c  ****         {
 182:motionTask.c  ****             if(m1Prev != m1)
 675              		.loc 1 182 0
 676 0192 5246     		mov	r2, r10
 677 0194 5B46     		mov	r3, fp
 678 0196 DDE90201 		ldrd	r0, [sp, #8]
 679 019a FFF7FEFF 		bl	__aeabi_dcmpeq
 680              	.LVL94:
 681 019e 30BB     		cbnz	r0, .L46
 183:motionTask.c  ****             {
 184:motionTask.c  ****                 if(m1 > 100 ) m1 = 100;if(m1<0)m1 = 0;
 682              		.loc 1 184 0
 683 01a0 0022     		movs	r2, #0
 684 01a2 484B     		ldr	r3, .L68+68
 685 01a4 5046     		mov	r0, r10
 686 01a6 5946     		mov	r1, fp
 687 01a8 FFF7FEFF 		bl	__aeabi_dcmpgt
 688              	.LVL95:
 689 01ac 18B1     		cbz	r0, .L48
 690 01ae 4FF0000A 		mov	r10, #0
 691              	.LVL96:
 692 01b2 DFF810B1 		ldr	fp, .L68+68
 693              	.L48:
 694              	.LVL97:
 695              		.loc 1 184 0 is_stmt 0 discriminator 3
 696 01b6 0022     		movs	r2, #0
 697 01b8 0023     		movs	r3, #0
 698 01ba 5046     		mov	r0, r10
 699 01bc 5946     		mov	r1, fp
 700 01be FFF7FEFF 		bl	__aeabi_dcmplt
 701              	.LVL98:
 702 01c2 18B1     		cbz	r0, .L49
 703              		.loc 1 184 0
 704 01c4 4FF0000A 		mov	r10, #0
 705              	.LVL99:
 706 01c8 4FF0000B 		mov	fp, #0
 707              	.L49:
 708              	.LVL100:
 185:motionTask.c  ****                 
 186:motionTask.c  ****                 if(bleConnectionState())
 709              		.loc 1 186 0 is_stmt 1
 710 01cc FFF7FEFF 		bl	bleConnectionState
 711              	.LVL101:
 712 01d0 40B1     		cbz	r0, .L50
 187:motionTask.c  ****                 writeMotorPosition(M1,POS_ABSOLUTE,(int)m1);
 713              		.loc 1 187 0
 714 01d2 5046     		mov	r0, r10
 715 01d4 5946     		mov	r1, fp
 716 01d6 FFF7FEFF 		bl	__aeabi_d2iz
ARM GAS  C:\Users\Austina\AppData\Local\Temp\cc3bCXFh.s 			page 32


 717              	.LVL102:
 718 01da C2B2     		uxtb	r2, r0
 719 01dc 0021     		movs	r1, #0
 720 01de 0846     		mov	r0, r1
 721 01e0 FFF7FEFF 		bl	writeMotorPosition
 722              	.LVL103:
 723              	.L50:
 188:motionTask.c  ****             vTaskDelay(50);
 724              		.loc 1 188 0
 725 01e4 3220     		movs	r0, #50
 726 01e6 FFF7FEFF 		bl	vTaskDelay
 727              	.LVL104:
 189:motionTask.c  ****                 m1Prev = m1;
 728              		.loc 1 189 0
 729 01ea CDE902AB 		strd	r10, [sp, #8]
 730              	.LVL105:
 731              	.L46:
 190:motionTask.c  ****                 //serialPrintf("M1 %%%d\tM2 %%%d",m1,m2);
 191:motionTask.c  ****             }
 192:motionTask.c  ****             if(m2Prev != m2)
 732              		.loc 1 192 0
 733 01ee DDE90023 		ldrd	r2, [sp]
 734 01f2 DDE90401 		ldrd	r0, [sp, #16]
 735 01f6 FFF7FEFF 		bl	__aeabi_dcmpeq
 736              	.LVL106:
 737 01fa 40BB     		cbnz	r0, .L51
 193:motionTask.c  ****             {
 194:motionTask.c  ****                 if(m2 > 100 ) m2 = 100;if(m2<0)m2 = 0;
 738              		.loc 1 194 0
 739 01fc 0022     		movs	r2, #0
 740 01fe 314B     		ldr	r3, .L68+68
 741 0200 DDE90001 		ldrd	r0, [sp]
 742 0204 FFF7FEFF 		bl	__aeabi_dcmpgt
 743              	.LVL107:
 744 0208 18B1     		cbz	r0, .L53
 745 020a 9FED1F7B 		vldr.64	d7, .L68+8
 746 020e 8DED007B 		vstr.64	d7, [sp]
 747              	.L53:
 748              	.LVL108:
 749              		.loc 1 194 0 is_stmt 0 discriminator 3
 750 0212 0022     		movs	r2, #0
 751 0214 0023     		movs	r3, #0
 752 0216 DDE90001 		ldrd	r0, [sp]
 753 021a FFF7FEFF 		bl	__aeabi_dcmplt
 754              	.LVL109:
 755 021e 18B1     		cbz	r0, .L54
 756              		.loc 1 194 0
 757 0220 9FED1B7B 		vldr.64	d7, .L68+16
 758 0224 8DED007B 		vstr.64	d7, [sp]
 759              	.LVL110:
 760              	.L54:
 195:motionTask.c  ****                 
 196:motionTask.c  ****                 if(bleConnectionState())
 761              		.loc 1 196 0 is_stmt 1
 762 0228 FFF7FEFF 		bl	bleConnectionState
 763              	.LVL111:
 764 022c 40B1     		cbz	r0, .L55
ARM GAS  C:\Users\Austina\AppData\Local\Temp\cc3bCXFh.s 			page 33


 197:motionTask.c  ****                 writeMotorPosition(M2,POS_ABSOLUTE,(int)m2);
 765              		.loc 1 197 0
 766 022e DDE90001 		ldrd	r0, [sp]
 767 0232 FFF7FEFF 		bl	__aeabi_d2iz
 768              	.LVL112:
 769 0236 C2B2     		uxtb	r2, r0
 770 0238 0021     		movs	r1, #0
 771 023a 0120     		movs	r0, #1
 772 023c FFF7FEFF 		bl	writeMotorPosition
 773              	.LVL113:
 774              	.L55:
 198:motionTask.c  ****             vTaskDelay(50);
 775              		.loc 1 198 0
 776 0240 3220     		movs	r0, #50
 777 0242 FFF7FEFF 		bl	vTaskDelay
 778              	.LVL114:
 199:motionTask.c  ****                 m2Prev = m2;
 779              		.loc 1 199 0
 780 0246 9DED007B 		vldr.64	d7, [sp]
 781 024a 8DED047B 		vstr.64	d7, [sp, #16]
 782              	.LVL115:
 783              	.L51:
 200:motionTask.c  ****             }
 201:motionTask.c  ****             
 202:motionTask.c  ****                 serialPrintf("M1 %%%d\tM2 %%%d",(int)m1,(int)m2);
 784              		.loc 1 202 0
 785 024e 1248     		ldr	r0, .L68+24
 786 0250 FFF7FEFF 		bl	printf
 787              	.LVL116:
 788 0254 DDE90001 		ldrd	r0, [sp]
 789 0258 FFF7FEFF 		bl	__aeabi_d2iz
 790              	.LVL117:
 791 025c 0646     		mov	r6, r0
 792 025e 5046     		mov	r0, r10
 793 0260 5946     		mov	r1, fp
 794 0262 FFF7FEFF 		bl	__aeabi_d2iz
 795              	.LVL118:
 796 0266 3246     		mov	r2, r6
 797 0268 0146     		mov	r1, r0
 798 026a 1748     		ldr	r0, .L68+72
 799 026c FFF7FEFF 		bl	printf
 800              	.LVL119:
 801 0270 0B48     		ldr	r0, .L68+32
 802 0272 FFF7FEFF 		bl	puts
 803              	.LVL120:
 804 0276 E5E6     		b	.L35
 805              	.LVL121:
 806              	.L45:
 203:motionTask.c  ****         }
 204:motionTask.c  ****         else
 205:motionTask.c  ****         {
 206:motionTask.c  ****             vTaskDelay(50);
 807              		.loc 1 206 0
 808 0278 3220     		movs	r0, #50
 809 027a FFF7FEFF 		bl	vTaskDelay
 810              	.LVL122:
 811 027e E1E6     		b	.L35
ARM GAS  C:\Users\Austina\AppData\Local\Temp\cc3bCXFh.s 			page 34


 812              	.L69:
 813              		.align	3
 814              	.L68:
 815 0280 CFF753E3 		.word	-481036337
 816 0284 A59B2640 		.word	1076272037
 817 0288 00000000 		.word	0
 818 028c 00005940 		.word	1079574528
 819 0290 00000000 		.word	0
 820 0294 00000000 		.word	0
 821 0298 00000000 		.word	.LC0
 822 029c 10000000 		.word	.LC2
 823 02a0 0C000000 		.word	.LC1
 824 02a4 1C000000 		.word	.LC3
 825 02a8 00000000 		.word	.LANCHOR0
 826 02ac 00000038 		.word	939524096
 827 02b0 00807640 		.word	1081507840
 828 02b4 00004940 		.word	1078525952
 829 02b8 00000840 		.word	1074266112
 830 02bc 00000000 		.word	systemInputMode
 831 02c0 80003240 		.word	1077018752
 832 02c4 00005940 		.word	1079574528
 833 02c8 34000000 		.word	.LC4
 834              		.cfi_endproc
 835              	.LFE534:
 836              		.size	motionTask, .-motionTask
 837              		.global	i2cEvents
 838              		.data
 839              		.align	2
 840              		.set	.LANCHOR1,. + 0
 841              		.type	i2cEvents, %object
 842              		.size	i2cEvents, 72
 843              	i2cEvents:
 844 0000 0820AA00 		.word	11149320
 845 0004 44000000 		.word	.LC5
 846 0008 0720AA00 		.word	11149319
 847 000c 6C000000 		.word	.LC6
 848 0010 0620AA00 		.word	11149318
 849 0014 90000000 		.word	.LC7
 850 0018 0520AA00 		.word	11149317
 851 001c B4000000 		.word	.LC8
 852 0020 0420AA00 		.word	11149316
 853 0024 D4000000 		.word	.LC9
 854 0028 0320AA00 		.word	11149315
 855 002c F8000000 		.word	.LC10
 856 0030 0220AA00 		.word	11149314
 857 0034 1C010000 		.word	.LC11
 858 0038 0120AA00 		.word	11149313
 859 003c 38010000 		.word	.LC12
 860 0040 00000000 		.word	0
 861 0044 50010000 		.word	.LC13
 862              		.section	.rodata.str1.4,"aMS",%progbits,1
 863              		.align	2
 864              	.LC0:
 865 0000 5B205541 		.ascii	"[ UART ] : \000"
 865      5254205D 
 865      203A2000 
 866              	.LC1:
ARM GAS  C:\Users\Austina\AppData\Local\Temp\cc3bCXFh.s 			page 35


 867 000c 0D00     		.ascii	"\015\000"
 868 000e 0000     		.space	2
 869              	.LC2:
 870 0010 1B5B324A 		.ascii	"\033[2J\033[;H\000"
 870      1B5B3B48 
 870      00
 871 0019 000000   		.space	3
 872              	.LC3:
 873 001c 53746172 		.ascii	"Starting Motion TASK\000"
 873      74696E67 
 873      204D6F74 
 873      696F6E20 
 873      5441534B 
 874 0031 000000   		.space	3
 875              	.LC4:
 876 0034 4D312025 		.ascii	"M1 %%%d\011M2 %%%d\000"
 876      25256409 
 876      4D322025 
 876      25256400 
 877              	.LC5:
 878 0044 43595F53 		.ascii	"CY_SCB_I2C_MASTER_MANUAL_ABORT_START\000"
 878      43425F49 
 878      32435F4D 
 878      41535445 
 878      525F4D41 
 879 0069 000000   		.space	3
 880              	.LC6:
 881 006c 43595F53 		.ascii	"CY_SCB_I2C_MASTER_MANUAL_BUS_ERR\000"
 881      43425F49 
 881      32435F4D 
 881      41535445 
 881      525F4D41 
 882 008d 000000   		.space	3
 883              	.LC7:
 884 0090 43595F53 		.ascii	"CY_SCB_I2C_MASTER_MANUAL_ARB_LOST\000"
 884      43425F49 
 884      32435F4D 
 884      41535445 
 884      525F4D41 
 885 00b2 0000     		.space	2
 886              	.LC8:
 887 00b4 43595F53 		.ascii	"CY_SCB_I2C_MASTER_MANUAL_NAK\000"
 887      43425F49 
 887      32435F4D 
 887      41535445 
 887      525F4D41 
 888 00d1 000000   		.space	3
 889              	.LC9:
 890 00d4 43595F53 		.ascii	"CY_SCB_I2C_MASTER_MANUAL_ADDR_NAK\000"
 890      43425F49 
 890      32435F4D 
 890      41535445 
 890      525F4D41 
 891 00f6 0000     		.space	2
 892              	.LC10:
 893 00f8 43595F53 		.ascii	"CY_SCB_I2C_MASTER_MANUAL_TIMEOUT\000"
 893      43425F49 
ARM GAS  C:\Users\Austina\AppData\Local\Temp\cc3bCXFh.s 			page 36


 893      32435F4D 
 893      41535445 
 893      525F4D41 
 894 0119 000000   		.space	3
 895              	.LC11:
 896 011c 43595F53 		.ascii	"CY_SCB_I2C_MASTER_NOT_READY\000"
 896      43425F49 
 896      32435F4D 
 896      41535445 
 896      525F4E4F 
 897              	.LC12:
 898 0138 43595F53 		.ascii	"CY_SCB_I2C_BAD_PARAM\000"
 898      43425F49 
 898      32435F42 
 898      41445F50 
 898      4152414D 
 899 014d 000000   		.space	3
 900              	.LC13:
 901 0150 4E4F4E45 		.ascii	"NONE\000"
 901      00
 902              		.bss
 903              		.align	2
 904              		.set	.LANCHOR0,. + 0
 905              		.type	bmi160Dev, %object
 906              		.size	bmi160Dev, 44
 907              	bmi160Dev:
 908 0000 00000000 		.space	44
 908      00000000 
 908      00000000 
 908      00000000 
 908      00000000 
 909              		.type	i2cStatus, %object
 910              		.size	i2cStatus, 4
 911              	i2cStatus:
 912 002c 00000000 		.space	4
 913              		.text
 914              	.Letext0:
 915              		.file 3 "c:\\program files (x86)\\cypress\\psoc creator\\4.4\\psoc creator\\import\\gnu\\arm\\5.4.
 916              		.file 4 "c:\\program files (x86)\\cypress\\psoc creator\\4.4\\psoc creator\\import\\gnu\\arm\\5.4.
 917              		.file 5 "Generated_Source\\PSoC6\\pdl\\devices/psoc6/include/ip/cyip_gpio.h"
 918              		.file 6 "Generated_Source\\PSoC6\\pdl\\devices/psoc6/include/ip/cyip_scb.h"
 919              		.file 7 "Generated_Source\\PSoC6\\pdl\\devices/psoc6/include/psoc6_01_config.h"
 920              		.file 8 "Generated_Source\\PSoC6\\pdl\\drivers/peripheral/device/cy_device.h"
 921              		.file 9 "Generated_Source\\PSoC6\\pdl\\drivers/peripheral/syslib/cy_syslib.h"
 922              		.file 10 "Generated_Source\\PSoC6\\pdl\\drivers/peripheral/scb/cy_scb_i2c.h"
 923              		.file 11 "Generated_Source\\PSoC6\\pdl\\drivers/peripheral/scb/cy_scb_uart.h"
 924              		.file 12 "Generated_Source\\PSoC6\\pdl\\middleware/ble/cy_ble_stack.h"
 925              		.file 13 "Generated_Source\\PSoC6\\pdl\\middleware/ble/cy_ble_stack_host_main.h"
 926              		.file 14 "Generated_Source\\PSoC6\\pdl\\middleware/ble/cy_ble_gap.h"
 927              		.file 15 "Generated_Source\\PSoC6\\pdl\\middleware/ble/cy_ble_event_handler.h"
 928              		.file 16 "Generated_Source\\PSoC6\\pdl\\rtos/FreeRTOS/10.0.1/Source/portable/GCC/CM4F/portmacro.h"
 929              		.file 17 "Generated_Source\\PSoC6\\pdl\\rtos/FreeRTOS/10.0.1/Source/include/event_groups.h"
 930              		.file 18 ".\\BMI160_driver-master/bmi160_defs.h"
 931              		.file 19 "BLETask.h"
 932              		.file 20 "Generated_Source\\PSoC6\\pdl\\cmsis/include/core_cm4.h"
 933              		.file 21 "Generated_Source\\PSoC6/UART.h"
 934              		.file 22 "Generated_Source\\PSoC6/I2C_1.h"
ARM GAS  C:\Users\Austina\AppData\Local\Temp\cc3bCXFh.s 			page 37


 935              		.file 23 "common.h"
 936              		.file 24 "Generated_Source\\PSoC6\\pdl\\rtos/FreeRTOS/10.0.1/Source/include/task.h"
 937              		.file 25 ".\\BMI160_driver-master/bmi160.h"
 938              		.file 26 "c:\\program files (x86)\\cypress\\psoc creator\\4.4\\psoc creator\\import\\gnu\\arm\\5.4
 939              		.file 27 "c:\\program files (x86)\\cypress\\psoc creator\\4.4\\psoc creator\\import\\gnu\\arm\\5.4
 940              		.file 28 "<built-in>"