ARM GAS  C:\Users\Austina\AppData\Local\Temp\ccLgwUrp.s 			page 1


   1              		.syntax unified
   2              		.cpu cortex-m4
   3              		.eabi_attribute 27, 1
   4              		.fpu fpv4-sp-d16
   5              		.eabi_attribute 20, 1
   6              		.eabi_attribute 21, 1
   7              		.eabi_attribute 23, 3
   8              		.eabi_attribute 24, 1
   9              		.eabi_attribute 25, 1
  10              		.eabi_attribute 26, 1
  11              		.eabi_attribute 30, 1
  12              		.eabi_attribute 34, 1
  13              		.eabi_attribute 18, 4
  14              		.thumb
  15              		.syntax unified
  16              		.file	"CapSense_Processing.c"
  17              		.text
  18              	.Ltext0:
  19              		.cfi_sections	.debug_frame
  20              		.section	.text.CapSense_DpInitialize,"ax",%progbits
  21              		.align	2
  22              		.global	CapSense_DpInitialize
  23              		.thumb
  24              		.thumb_func
  25              		.type	CapSense_DpInitialize, %function
  26              	CapSense_DpInitialize:
  27              	.LFB126:
  28              		.file 1 "Generated_Source\\PSoC6\\CapSense_Processing.c"
   1:Generated_Source\PSoC6/CapSense_Processing.c **** /***************************************************************************//**
   2:Generated_Source\PSoC6/CapSense_Processing.c **** * \file CapSense_Processing.c
   3:Generated_Source\PSoC6/CapSense_Processing.c **** * \version 2.0
   4:Generated_Source\PSoC6/CapSense_Processing.c **** *
   5:Generated_Source\PSoC6/CapSense_Processing.c **** * \brief
   6:Generated_Source\PSoC6/CapSense_Processing.c **** *   This file provides the source code for the Data Processing module APIs
   7:Generated_Source\PSoC6/CapSense_Processing.c **** *   of the Component. The Data Processing module is responsible for the
   8:Generated_Source\PSoC6/CapSense_Processing.c **** *   low level raw counts processing provided by the sensing module, maintaining
   9:Generated_Source\PSoC6/CapSense_Processing.c **** *   baseline and difference values and performing high-level widget processing
  10:Generated_Source\PSoC6/CapSense_Processing.c **** *   like updating button status or calculating slider position.
  11:Generated_Source\PSoC6/CapSense_Processing.c **** *
  12:Generated_Source\PSoC6/CapSense_Processing.c **** * \see CapSense v2.0 Datasheet
  13:Generated_Source\PSoC6/CapSense_Processing.c **** *
  14:Generated_Source\PSoC6/CapSense_Processing.c **** *//*****************************************************************************
  15:Generated_Source\PSoC6/CapSense_Processing.c **** * Copyright (2016-2017), Cypress Semiconductor Corporation.
  16:Generated_Source\PSoC6/CapSense_Processing.c **** ********************************************************************************
  17:Generated_Source\PSoC6/CapSense_Processing.c **** * This software is owned by Cypress Semiconductor Corporation (Cypress) and is
  18:Generated_Source\PSoC6/CapSense_Processing.c **** * protected by and subject to worldwide patent protection (United States and
  19:Generated_Source\PSoC6/CapSense_Processing.c **** * foreign), United States copyright laws and international treaty provisions.
  20:Generated_Source\PSoC6/CapSense_Processing.c **** * Cypress hereby grants to licensee a personal, non-exclusive, non-transferable
  21:Generated_Source\PSoC6/CapSense_Processing.c **** * license to copy, use, modify, create derivative works of, and compile the
  22:Generated_Source\PSoC6/CapSense_Processing.c **** * Cypress Source Code and derivative works for the sole purpose of creating
  23:Generated_Source\PSoC6/CapSense_Processing.c **** * custom software in support of licensee product to be used only in conjunction
  24:Generated_Source\PSoC6/CapSense_Processing.c **** * with a Cypress integrated circuit as specified in the applicable agreement.
  25:Generated_Source\PSoC6/CapSense_Processing.c **** * Any reproduction, modification, translation, compilation, or representation of
  26:Generated_Source\PSoC6/CapSense_Processing.c **** * this software except as specified above is prohibited without the express
  27:Generated_Source\PSoC6/CapSense_Processing.c **** * written permission of Cypress.
  28:Generated_Source\PSoC6/CapSense_Processing.c **** *
  29:Generated_Source\PSoC6/CapSense_Processing.c **** * Disclaimer: CYPRESS MAKES NO WARRANTY OF ANY KIND, EXPRESS OR IMPLIED, WITH
ARM GAS  C:\Users\Austina\AppData\Local\Temp\ccLgwUrp.s 			page 2


  30:Generated_Source\PSoC6/CapSense_Processing.c **** * REGARD TO THIS MATERIAL, INCLUDING, BUT NOT LIMITED TO, THE IMPLIED
  31:Generated_Source\PSoC6/CapSense_Processing.c **** * WARRANTIES OF MERCHANTABILITY AND FITNESS FOR A PARTICULAR PURPOSE.
  32:Generated_Source\PSoC6/CapSense_Processing.c **** * Cypress reserves the right to make changes without further notice to the
  33:Generated_Source\PSoC6/CapSense_Processing.c **** * materials described herein. Cypress does not assume any liability arising out
  34:Generated_Source\PSoC6/CapSense_Processing.c **** * of the application or use of any product or circuit described herein. Cypress
  35:Generated_Source\PSoC6/CapSense_Processing.c **** * does not authorize its products for use as critical components in life-support
  36:Generated_Source\PSoC6/CapSense_Processing.c **** * systems where a malfunction or failure may reasonably be expected to result in
  37:Generated_Source\PSoC6/CapSense_Processing.c **** * significant injury to the user. The inclusion of Cypress' product in a life-
  38:Generated_Source\PSoC6/CapSense_Processing.c **** * support systems application implies that the manufacturer assumes all risk of
  39:Generated_Source\PSoC6/CapSense_Processing.c **** * such use and in doing so indemnifies Cypress against all charges. Use may be
  40:Generated_Source\PSoC6/CapSense_Processing.c **** * limited by and subject to the applicable Cypress software license agreement.
  41:Generated_Source\PSoC6/CapSense_Processing.c **** *******************************************************************************/
  42:Generated_Source\PSoC6/CapSense_Processing.c **** 
  43:Generated_Source\PSoC6/CapSense_Processing.c **** #include "syslib/cy_syslib.h"
  44:Generated_Source\PSoC6/CapSense_Processing.c **** #include <stddef.h>
  45:Generated_Source\PSoC6/CapSense_Processing.c **** #include <string.h>
  46:Generated_Source\PSoC6/CapSense_Processing.c **** #include "CapSense_Configuration.h"
  47:Generated_Source\PSoC6/CapSense_Processing.c **** #include "CapSense_Processing.h"
  48:Generated_Source\PSoC6/CapSense_Processing.c **** #include "CapSense_Filter.h"
  49:Generated_Source\PSoC6/CapSense_Processing.c **** 
  50:Generated_Source\PSoC6/CapSense_Processing.c **** #if (0u != CapSense_CENTROID_EN)
  51:Generated_Source\PSoC6/CapSense_Processing.c ****     #include "CapSense_Centroid_LL.h"
  52:Generated_Source\PSoC6/CapSense_Processing.c **** #endif /* (0 != CapSense_CENTROID_EN) */
  53:Generated_Source\PSoC6/CapSense_Processing.c **** 
  54:Generated_Source\PSoC6/CapSense_Processing.c **** #if (0 != (CapSense_CSD_AUTOTUNE & CapSense_CSD_SS_TH_EN))
  55:Generated_Source\PSoC6/CapSense_Processing.c ****     #include "CapSense_SmartSense_LL.h"
  56:Generated_Source\PSoC6/CapSense_Processing.c **** #endif /* (0 != (CapSense_CSD_AUTOTUNE & CapSense_CSD_SS_TH_EN)) */
  57:Generated_Source\PSoC6/CapSense_Processing.c **** 
  58:Generated_Source\PSoC6/CapSense_Processing.c **** #if (CapSense_ENABLE == CapSense_SELF_TEST_EN)
  59:Generated_Source\PSoC6/CapSense_Processing.c ****     #include "CapSense_SelfTest.h"
  60:Generated_Source\PSoC6/CapSense_Processing.c **** #endif
  61:Generated_Source\PSoC6/CapSense_Processing.c **** 
  62:Generated_Source\PSoC6/CapSense_Processing.c **** #if (CapSense_ENABLE == CapSense_CENTROID_5X5_CSD_EN)
  63:Generated_Source\PSoC6/CapSense_Processing.c ****     #include "CapSense_AdvancedCentroid_LL.h"
  64:Generated_Source\PSoC6/CapSense_Processing.c **** #endif
  65:Generated_Source\PSoC6/CapSense_Processing.c **** 
  66:Generated_Source\PSoC6/CapSense_Processing.c **** #if (CapSense_ENABLE == CapSense_POS_ADAPTIVE_IIR_FILTER_EN)
  67:Generated_Source\PSoC6/CapSense_Processing.c ****     #include "CapSense_AdaptiveFilter_LL.h"
  68:Generated_Source\PSoC6/CapSense_Processing.c **** #endif
  69:Generated_Source\PSoC6/CapSense_Processing.c **** 
  70:Generated_Source\PSoC6/CapSense_Processing.c **** #if(CapSense_ENABLE == CapSense_BALLISTIC_MULTIPLIER_EN)
  71:Generated_Source\PSoC6/CapSense_Processing.c ****     #include "CapSense_Gesture.h"
  72:Generated_Source\PSoC6/CapSense_Processing.c **** #endif
  73:Generated_Source\PSoC6/CapSense_Processing.c **** 
  74:Generated_Source\PSoC6/CapSense_Processing.c **** /**************************************************************************************************
  75:Generated_Source\PSoC6/CapSense_Processing.c **** * Local definition
  76:Generated_Source\PSoC6/CapSense_Processing.c **** ***************************************************************************************************
  77:Generated_Source\PSoC6/CapSense_Processing.c **** 
  78:Generated_Source\PSoC6/CapSense_Processing.c **** /* UINT32 constant with all odd bits set. It is used by the processing function of the Proximity wi
  79:Generated_Source\PSoC6/CapSense_Processing.c **** *  determine type of the status bit: odd bits report proximity status; even bits report touch statu
  80:Generated_Source\PSoC6/CapSense_Processing.c **** */
  81:Generated_Source\PSoC6/CapSense_Processing.c **** #define UINT32_ODD_BITS_CONST       (0x55555555u)
  82:Generated_Source\PSoC6/CapSense_Processing.c **** 
  83:Generated_Source\PSoC6/CapSense_Processing.c **** /* Default value for the Off Debounce counter when the Off Debounce is disabled */
  84:Generated_Source\PSoC6/CapSense_Processing.c **** #define DEFAULT_OFF_DEBOUNCE_VALUE  (1u)
  85:Generated_Source\PSoC6/CapSense_Processing.c **** #define PERCENTAGE_100              (100u)
  86:Generated_Source\PSoC6/CapSense_Processing.c **** #define TEMP_BUFFER_MSB_SHIFT       (16)
ARM GAS  C:\Users\Austina\AppData\Local\Temp\ccLgwUrp.s 			page 3


  87:Generated_Source\PSoC6/CapSense_Processing.c **** 
  88:Generated_Source\PSoC6/CapSense_Processing.c **** /**************************************************************************************************
  89:Generated_Source\PSoC6/CapSense_Processing.c **** * Local variables
  90:Generated_Source\PSoC6/CapSense_Processing.c **** ***************************************************************************************************
  91:Generated_Source\PSoC6/CapSense_Processing.c **** #if (0u != CapSense_CSX_MULTIPHASE_TX_EN)
  92:Generated_Source\PSoC6/CapSense_Processing.c ****     static uint16 deconvRowData[CapSense_CSX_MAX_TX_PHASE_LENGTH];
  93:Generated_Source\PSoC6/CapSense_Processing.c **** #endif
  94:Generated_Source\PSoC6/CapSense_Processing.c **** 
  95:Generated_Source\PSoC6/CapSense_Processing.c **** 
  96:Generated_Source\PSoC6/CapSense_Processing.c **** /**************************************************************************************************
  97:Generated_Source\PSoC6/CapSense_Processing.c **** * Static Function Prototypes
  98:Generated_Source\PSoC6/CapSense_Processing.c **** ***************************************************************************************************
  99:Generated_Source\PSoC6/CapSense_Processing.c **** /**
 100:Generated_Source\PSoC6/CapSense_Processing.c **** * \cond SECTION_CYSENSE_INTERNAL
 101:Generated_Source\PSoC6/CapSense_Processing.c **** * \addtogroup group_cysense_internal
 102:Generated_Source\PSoC6/CapSense_Processing.c **** * \{
 103:Generated_Source\PSoC6/CapSense_Processing.c **** */
 104:Generated_Source\PSoC6/CapSense_Processing.c **** #if (0u != CapSense_TOTAL_LINEAR_SLIDERS)
 105:Generated_Source\PSoC6/CapSense_Processing.c ****     __STATIC_INLINE void DpUpdateLinSlider(
 106:Generated_Source\PSoC6/CapSense_Processing.c ****                         const uint16 newPos[], uint32 numTouches,
 107:Generated_Source\PSoC6/CapSense_Processing.c ****                         CapSense_FLASH_WD_STRUCT const *ptrFlashWdgt,
 108:Generated_Source\PSoC6/CapSense_Processing.c ****                         CapSense_RAM_WD_SLIDER_STRUCT *ptrRamWdgt);
 109:Generated_Source\PSoC6/CapSense_Processing.c **** #endif /* #if (0u != CapSense_TOTAL_LINEAR_SLIDERS) */
 110:Generated_Source\PSoC6/CapSense_Processing.c **** 
 111:Generated_Source\PSoC6/CapSense_Processing.c **** #if (0u != CapSense_TOTAL_RADIAL_SLIDERS)
 112:Generated_Source\PSoC6/CapSense_Processing.c ****     __STATIC_INLINE void DpUpdateRadSlider(
 113:Generated_Source\PSoC6/CapSense_Processing.c ****                         const uint16 newPos[], uint32 numTouches,
 114:Generated_Source\PSoC6/CapSense_Processing.c ****                         CapSense_FLASH_WD_STRUCT const * ptrFlashWdgt,
 115:Generated_Source\PSoC6/CapSense_Processing.c ****                         CapSense_RAM_WD_SLIDER_STRUCT *ptrRamWdgt);
 116:Generated_Source\PSoC6/CapSense_Processing.c **** #endif /* #if (0u != CapSense_TOTAL_RADIAL_SLIDERS) */
 117:Generated_Source\PSoC6/CapSense_Processing.c **** 
 118:Generated_Source\PSoC6/CapSense_Processing.c **** #if (0u != CapSense_CSD_TOUCHPAD_WIDGET_EN)
 119:Generated_Source\PSoC6/CapSense_Processing.c ****     __STATIC_INLINE void CapSense_DpInitCsdTouchpad(CapSense_FLASH_WD_STRUCT const * ptrFlashWdgt);
 120:Generated_Source\PSoC6/CapSense_Processing.c **** #endif /* #if (0u != CapSense_CSD_TOUCHPAD_WIDGET_EN) */
 121:Generated_Source\PSoC6/CapSense_Processing.c **** 
 122:Generated_Source\PSoC6/CapSense_Processing.c **** #if (0u != CapSense_CSX_TOUCHPAD_WIDGET_EN)
 123:Generated_Source\PSoC6/CapSense_Processing.c ****     __STATIC_INLINE void CapSense_DpInitCsxTouchpad(CapSense_FLASH_WD_STRUCT const * ptrFlashWdgt);
 124:Generated_Source\PSoC6/CapSense_Processing.c **** #endif /* #if (0u != CapSense_CSX_TOUCHPAD_WIDGET_EN) */
 125:Generated_Source\PSoC6/CapSense_Processing.c **** 
 126:Generated_Source\PSoC6/CapSense_Processing.c **** #if (0u != CapSense_SLIDER_WIDGET_EN)
 127:Generated_Source\PSoC6/CapSense_Processing.c ****     __STATIC_INLINE void CapSense_DpInitSlider(CapSense_FLASH_WD_STRUCT const * ptrFlashWdgt);
 128:Generated_Source\PSoC6/CapSense_Processing.c **** #endif /* #if (0u != CapSense_SLIDER_WIDGET_EN) */
 129:Generated_Source\PSoC6/CapSense_Processing.c **** 
 130:Generated_Source\PSoC6/CapSense_Processing.c **** #if (0u != CapSense_CSD_MATRIX_WIDGET_EN)
 131:Generated_Source\PSoC6/CapSense_Processing.c ****     __STATIC_INLINE void CapSense_DpInitCsdMatrix(CapSense_FLASH_WD_STRUCT const * ptrFlashWdgt);
 132:Generated_Source\PSoC6/CapSense_Processing.c **** #endif /* #if (0u != CapSense_CSD_MATRIX_WIDGET_EN) */
 133:Generated_Source\PSoC6/CapSense_Processing.c **** 
 134:Generated_Source\PSoC6/CapSense_Processing.c **** /** \}
 135:Generated_Source\PSoC6/CapSense_Processing.c **** * \endcond */
 136:Generated_Source\PSoC6/CapSense_Processing.c **** 
 137:Generated_Source\PSoC6/CapSense_Processing.c **** #if (0u != CapSense_CSD_TOUCHPAD_WIDGET_EN)
 138:Generated_Source\PSoC6/CapSense_Processing.c **** /*******************************************************************************
 139:Generated_Source\PSoC6/CapSense_Processing.c **** * Function Name: CapSense_DpInitCsdTouchpad
 140:Generated_Source\PSoC6/CapSense_Processing.c **** ****************************************************************************//**
 141:Generated_Source\PSoC6/CapSense_Processing.c **** *
 142:Generated_Source\PSoC6/CapSense_Processing.c **** * \brief
 143:Generated_Source\PSoC6/CapSense_Processing.c **** *  Performs initialization of the CSD touchpad widget.
ARM GAS  C:\Users\Austina\AppData\Local\Temp\ccLgwUrp.s 			page 4


 144:Generated_Source\PSoC6/CapSense_Processing.c **** *   - Resets the position data to NONE
 145:Generated_Source\PSoC6/CapSense_Processing.c **** *   - Initializes the position filter history if enabled.
 146:Generated_Source\PSoC6/CapSense_Processing.c **** *
 147:Generated_Source\PSoC6/CapSense_Processing.c **** * \details
 148:Generated_Source\PSoC6/CapSense_Processing.c **** *  The position data is always reset to the CapSense_TOUCHPAD_POS_NONE value.
 149:Generated_Source\PSoC6/CapSense_Processing.c **** *  The same happens to the position filter history data if enabled.
 150:Generated_Source\PSoC6/CapSense_Processing.c **** *
 151:Generated_Source\PSoC6/CapSense_Processing.c **** *******************************************************************************/
 152:Generated_Source\PSoC6/CapSense_Processing.c **** __STATIC_INLINE void CapSense_DpInitCsdTouchpad(CapSense_FLASH_WD_STRUCT const * ptrFlashWdgt)
 153:Generated_Source\PSoC6/CapSense_Processing.c **** {
 154:Generated_Source\PSoC6/CapSense_Processing.c ****     #if (CapSense_ENABLE == CapSense_CENTROID_5X5_CSD_EN)
 155:Generated_Source\PSoC6/CapSense_Processing.c ****         uint32 touchIndex;
 156:Generated_Source\PSoC6/CapSense_Processing.c ****     #endif
 157:Generated_Source\PSoC6/CapSense_Processing.c **** 
 158:Generated_Source\PSoC6/CapSense_Processing.c ****     CapSense_RAM_WD_CSD_TOUCHPAD_STRUCT *ptrWdTouchpad;
 159:Generated_Source\PSoC6/CapSense_Processing.c **** 
 160:Generated_Source\PSoC6/CapSense_Processing.c ****     #if (0u != CapSense_POSITION_FILTER_EN)
 161:Generated_Source\PSoC6/CapSense_Processing.c ****         CapSense_TOUCHPAD_POS_HISTORY_STRUCT *ptrHistory;
 162:Generated_Source\PSoC6/CapSense_Processing.c ****     #endif  /* #if (0u != CapSense_POSITION_FILTER_EN) */
 163:Generated_Source\PSoC6/CapSense_Processing.c **** 
 164:Generated_Source\PSoC6/CapSense_Processing.c ****     #if (0u != CapSense_POS_ADAPTIVE_IIR_FILTER_EN)
 165:Generated_Source\PSoC6/CapSense_Processing.c ****         ADAPTIVE_FILTER_CONTEXT_STRUCT adpContext;
 166:Generated_Source\PSoC6/CapSense_Processing.c ****     #endif /* (0u != CapSense_POS_ADAPTIVE_IIR_FILTER_EN) */
 167:Generated_Source\PSoC6/CapSense_Processing.c **** 
 168:Generated_Source\PSoC6/CapSense_Processing.c ****     ptrWdTouchpad = ptrFlashWdgt->ptr2WdgtRam;
 169:Generated_Source\PSoC6/CapSense_Processing.c **** 
 170:Generated_Source\PSoC6/CapSense_Processing.c ****     /* Reset position data */
 171:Generated_Source\PSoC6/CapSense_Processing.c ****     #if (CapSense_ENABLE == CapSense_CENTROID_5X5_CSD_EN)
 172:Generated_Source\PSoC6/CapSense_Processing.c ****         #if (CapSense_ENABLE == CapSense_CENTROID_3X3_CSD_EN)
 173:Generated_Source\PSoC6/CapSense_Processing.c ****             if (0u != (ptrFlashWdgt->staticConfig & CapSense_CENTROID_5X5_MASK))
 174:Generated_Source\PSoC6/CapSense_Processing.c ****             {
 175:Generated_Source\PSoC6/CapSense_Processing.c ****         #endif
 176:Generated_Source\PSoC6/CapSense_Processing.c **** 
 177:Generated_Source\PSoC6/CapSense_Processing.c ****         ptrWdTouchpad->position.touchNum = 0u;
 178:Generated_Source\PSoC6/CapSense_Processing.c **** 
 179:Generated_Source\PSoC6/CapSense_Processing.c ****         #if (0u != CapSense_POSITION_FILTER_EN)
 180:Generated_Source\PSoC6/CapSense_Processing.c ****             ptrHistory = ptrFlashWdgt->ptr2PosHistory;
 181:Generated_Source\PSoC6/CapSense_Processing.c ****         #endif /* (0u != CapSense_POSITION_FILTER_EN) */
 182:Generated_Source\PSoC6/CapSense_Processing.c **** 
 183:Generated_Source\PSoC6/CapSense_Processing.c ****         for (touchIndex = 0u; touchIndex < ADVANCED_CENTROID_MAX_TOUCHES; touchIndex++)
 184:Generated_Source\PSoC6/CapSense_Processing.c ****         {
 185:Generated_Source\PSoC6/CapSense_Processing.c ****             ptrWdTouchpad->position.pos[touchIndex].x = ADVANCED_CENTROID_POSITION_NONE;
 186:Generated_Source\PSoC6/CapSense_Processing.c ****             ptrWdTouchpad->position.pos[touchIndex].y = ADVANCED_CENTROID_POSITION_NONE;
 187:Generated_Source\PSoC6/CapSense_Processing.c ****             ptrWdTouchpad->position.pos[touchIndex].zX = ADVANCED_CENTROID_POSITION_NONE;
 188:Generated_Source\PSoC6/CapSense_Processing.c ****             ptrWdTouchpad->position.pos[touchIndex].zY = ADVANCED_CENTROID_POSITION_NONE;
 189:Generated_Source\PSoC6/CapSense_Processing.c **** 
 190:Generated_Source\PSoC6/CapSense_Processing.c ****             /* Clear position filter history data if available */
 191:Generated_Source\PSoC6/CapSense_Processing.c ****             #if (0u != CapSense_POSITION_FILTER_EN)
 192:Generated_Source\PSoC6/CapSense_Processing.c ****                 if (NULL != ptrHistory)
 193:Generated_Source\PSoC6/CapSense_Processing.c ****                 {
 194:Generated_Source\PSoC6/CapSense_Processing.c ****                     CapSense_InitPosFiltersDd(&ptrHistory[touchIndex], CapSense_TOUCHPAD_POS_NONE, 
 195:Generated_Source\PSoC6/CapSense_Processing.c ****                     #if (0u != CapSense_POS_ADAPTIVE_IIR_FILTER_EN)
 196:Generated_Source\PSoC6/CapSense_Processing.c ****                         AdaptiveFilter_Initialize(&ptrWdTouchpad->aiirConfig, &adpContext);
 197:Generated_Source\PSoC6/CapSense_Processing.c ****                         ptrHistory[touchIndex].xPos.posAIIRCoeff = adpContext.coefficient;
 198:Generated_Source\PSoC6/CapSense_Processing.c ****                         ptrHistory[touchIndex].yPos.posAIIRCoeff = adpContext.coefficient;
 199:Generated_Source\PSoC6/CapSense_Processing.c ****                     #endif /* (0u != CapSense_POS_ADAPTIVE_IIR_FILTER_EN) */
 200:Generated_Source\PSoC6/CapSense_Processing.c ****                 }
ARM GAS  C:\Users\Austina\AppData\Local\Temp\ccLgwUrp.s 			page 5


 201:Generated_Source\PSoC6/CapSense_Processing.c ****             #endif /* (0u != CapSense_POSITION_FILTER_EN) */
 202:Generated_Source\PSoC6/CapSense_Processing.c ****         }
 203:Generated_Source\PSoC6/CapSense_Processing.c **** 
 204:Generated_Source\PSoC6/CapSense_Processing.c ****         #if (CapSense_ENABLE == CapSense_CENTROID_3X3_CSD_EN)
 205:Generated_Source\PSoC6/CapSense_Processing.c ****             }
 206:Generated_Source\PSoC6/CapSense_Processing.c ****         #endif
 207:Generated_Source\PSoC6/CapSense_Processing.c ****     #endif
 208:Generated_Source\PSoC6/CapSense_Processing.c **** 
 209:Generated_Source\PSoC6/CapSense_Processing.c ****     #if (CapSense_ENABLE == CapSense_CENTROID_3X3_CSD_EN)
 210:Generated_Source\PSoC6/CapSense_Processing.c ****         if (0u != (ptrFlashWdgt->staticConfig & CapSense_CENTROID_3X3_MASK))
 211:Generated_Source\PSoC6/CapSense_Processing.c ****         {
 212:Generated_Source\PSoC6/CapSense_Processing.c ****             ptrWdTouchpad->posX = CapSense_TOUCHPAD_POS_NONE;
 213:Generated_Source\PSoC6/CapSense_Processing.c ****             ptrWdTouchpad->posY = CapSense_TOUCHPAD_POS_NONE;
 214:Generated_Source\PSoC6/CapSense_Processing.c **** 
 215:Generated_Source\PSoC6/CapSense_Processing.c ****             /* Clear position filter history data if available */
 216:Generated_Source\PSoC6/CapSense_Processing.c ****             #if (0u != CapSense_POSITION_FILTER_EN)
 217:Generated_Source\PSoC6/CapSense_Processing.c ****                 ptrHistory = ptrFlashWdgt->ptr2PosHistory;
 218:Generated_Source\PSoC6/CapSense_Processing.c ****                 CapSense_InitPosFiltersDd(ptrHistory, CapSense_TOUCHPAD_POS_NONE, CapSense_TOUCHPAD
 219:Generated_Source\PSoC6/CapSense_Processing.c **** 
 220:Generated_Source\PSoC6/CapSense_Processing.c ****                 #if (0u != CapSense_POS_ADAPTIVE_IIR_FILTER_EN)
 221:Generated_Source\PSoC6/CapSense_Processing.c ****                     if (NULL != ptrHistory)
 222:Generated_Source\PSoC6/CapSense_Processing.c ****                     {
 223:Generated_Source\PSoC6/CapSense_Processing.c ****                         AdaptiveFilter_Initialize(&ptrWdTouchpad->aiirConfig, &adpContext);
 224:Generated_Source\PSoC6/CapSense_Processing.c ****                         ptrHistory->xPos.posAIIRCoeff = adpContext.coefficient;
 225:Generated_Source\PSoC6/CapSense_Processing.c ****                         ptrHistory->yPos.posAIIRCoeff = adpContext.coefficient;
 226:Generated_Source\PSoC6/CapSense_Processing.c ****                     }
 227:Generated_Source\PSoC6/CapSense_Processing.c ****                 #endif /* (0u != CapSense_POS_ADAPTIVE_IIR_FILTER_EN) */
 228:Generated_Source\PSoC6/CapSense_Processing.c ****             #endif /* (0u != CapSense_POSITION_FILTER_EN) */
 229:Generated_Source\PSoC6/CapSense_Processing.c ****         }
 230:Generated_Source\PSoC6/CapSense_Processing.c ****     #endif
 231:Generated_Source\PSoC6/CapSense_Processing.c **** }
 232:Generated_Source\PSoC6/CapSense_Processing.c **** #endif /* #if (0u != CapSense_CSD_TOUCHPAD_WIDGET_EN) */
 233:Generated_Source\PSoC6/CapSense_Processing.c **** 
 234:Generated_Source\PSoC6/CapSense_Processing.c **** #if (0u != CapSense_CSX_TOUCHPAD_WIDGET_EN)
 235:Generated_Source\PSoC6/CapSense_Processing.c **** /*******************************************************************************
 236:Generated_Source\PSoC6/CapSense_Processing.c **** * Function Name: CapSense_DpInitCsxTouchpad
 237:Generated_Source\PSoC6/CapSense_Processing.c **** ****************************************************************************//**
 238:Generated_Source\PSoC6/CapSense_Processing.c **** *
 239:Generated_Source\PSoC6/CapSense_Processing.c **** * \brief
 240:Generated_Source\PSoC6/CapSense_Processing.c **** *  Performs initialization of the CSX touchpad widget i.e. Resets the position data to NONE.
 241:Generated_Source\PSoC6/CapSense_Processing.c **** *
 242:Generated_Source\PSoC6/CapSense_Processing.c **** * \details
 243:Generated_Source\PSoC6/CapSense_Processing.c **** *  The position data is always reset to the CapSense_TOUCHPAD_POS_NONE value.
 244:Generated_Source\PSoC6/CapSense_Processing.c **** *
 245:Generated_Source\PSoC6/CapSense_Processing.c **** *******************************************************************************/
 246:Generated_Source\PSoC6/CapSense_Processing.c **** __STATIC_INLINE void CapSense_DpInitCsxTouchpad(CapSense_FLASH_WD_STRUCT const * ptrFlashWdgt)
 247:Generated_Source\PSoC6/CapSense_Processing.c **** {
 248:Generated_Source\PSoC6/CapSense_Processing.c ****     CapSense_RAM_WD_CSX_TOUCHPAD_STRUCT *ptrWdTouchpad;
 249:Generated_Source\PSoC6/CapSense_Processing.c **** 
 250:Generated_Source\PSoC6/CapSense_Processing.c ****     #if (0u != CapSense_POSITION_FILTER_EN)
 251:Generated_Source\PSoC6/CapSense_Processing.c ****         uint32 touchIndex;
 252:Generated_Source\PSoC6/CapSense_Processing.c ****         CapSense_TOUCHPAD_POS_HISTORY_STRUCT *ptrHistory;
 253:Generated_Source\PSoC6/CapSense_Processing.c ****     #endif  /* #if (0u != CapSense_POSITION_FILTER_EN) */
 254:Generated_Source\PSoC6/CapSense_Processing.c **** 
 255:Generated_Source\PSoC6/CapSense_Processing.c ****     #if (0u != CapSense_POS_ADAPTIVE_IIR_FILTER_EN)
 256:Generated_Source\PSoC6/CapSense_Processing.c ****         ADAPTIVE_FILTER_CONTEXT_STRUCT adpContext;
 257:Generated_Source\PSoC6/CapSense_Processing.c ****     #endif /* (0u != CapSense_POS_ADAPTIVE_IIR_FILTER_EN) */
ARM GAS  C:\Users\Austina\AppData\Local\Temp\ccLgwUrp.s 			page 6


 258:Generated_Source\PSoC6/CapSense_Processing.c **** 
 259:Generated_Source\PSoC6/CapSense_Processing.c ****     ptrWdTouchpad = ptrFlashWdgt->ptr2WdgtRam;
 260:Generated_Source\PSoC6/CapSense_Processing.c **** 
 261:Generated_Source\PSoC6/CapSense_Processing.c ****     #if (0u != CapSense_POSITION_FILTER_EN)
 262:Generated_Source\PSoC6/CapSense_Processing.c ****         ptrHistory = ptrFlashWdgt->ptr2PosHistory;
 263:Generated_Source\PSoC6/CapSense_Processing.c ****     #endif /* (0u != CapSense_POSITION_FILTER_EN) */
 264:Generated_Source\PSoC6/CapSense_Processing.c **** 
 265:Generated_Source\PSoC6/CapSense_Processing.c ****     /* Reset position data for finger */
 266:Generated_Source\PSoC6/CapSense_Processing.c ****     ptrWdTouchpad->touch[0u].x = CapSense_TOUCHPAD_POS_NONE;
 267:Generated_Source\PSoC6/CapSense_Processing.c ****     ptrWdTouchpad->touch[0u].y = CapSense_TOUCHPAD_POS_NONE;
 268:Generated_Source\PSoC6/CapSense_Processing.c ****     ptrWdTouchpad->touch[0u].z = CY_LO8(CapSense_TOUCHPAD_POS_NONE);
 269:Generated_Source\PSoC6/CapSense_Processing.c **** 
 270:Generated_Source\PSoC6/CapSense_Processing.c ****     #if (CapSense_CSX_MAX_FINGERS > 1u)
 271:Generated_Source\PSoC6/CapSense_Processing.c ****         ptrWdTouchpad->touch[1u].x = CapSense_TOUCHPAD_POS_NONE;
 272:Generated_Source\PSoC6/CapSense_Processing.c ****         ptrWdTouchpad->touch[1u].y = CapSense_TOUCHPAD_POS_NONE;
 273:Generated_Source\PSoC6/CapSense_Processing.c ****         ptrWdTouchpad->touch[1u].z = CY_LO8(CapSense_TOUCHPAD_POS_NONE);
 274:Generated_Source\PSoC6/CapSense_Processing.c ****     #endif /* #if (CapSense_CSX_MAX_FINGERS > 1u) */
 275:Generated_Source\PSoC6/CapSense_Processing.c **** 
 276:Generated_Source\PSoC6/CapSense_Processing.c ****     #if (CapSense_CSX_MAX_FINGERS > 2u)
 277:Generated_Source\PSoC6/CapSense_Processing.c ****         ptrWdTouchpad->touch[2u].x = CapSense_TOUCHPAD_POS_NONE;
 278:Generated_Source\PSoC6/CapSense_Processing.c ****         ptrWdTouchpad->touch[2u].y = CapSense_TOUCHPAD_POS_NONE;
 279:Generated_Source\PSoC6/CapSense_Processing.c ****         ptrWdTouchpad->touch[2u].z = CY_LO8(CapSense_TOUCHPAD_POS_NONE);
 280:Generated_Source\PSoC6/CapSense_Processing.c ****     #endif /* #if (CapSense_CSX_MAX_FINGERS > 2u) */
 281:Generated_Source\PSoC6/CapSense_Processing.c **** 
 282:Generated_Source\PSoC6/CapSense_Processing.c ****     #if (0u != CapSense_POSITION_FILTER_EN)
 283:Generated_Source\PSoC6/CapSense_Processing.c ****         for (touchIndex = 0u; touchIndex < CapSense_CSX_MAX_FINGERS; touchIndex++)
 284:Generated_Source\PSoC6/CapSense_Processing.c ****         {
 285:Generated_Source\PSoC6/CapSense_Processing.c ****             if (NULL != ptrHistory)
 286:Generated_Source\PSoC6/CapSense_Processing.c ****             {
 287:Generated_Source\PSoC6/CapSense_Processing.c ****                 /* Clear position filter history data if available */
 288:Generated_Source\PSoC6/CapSense_Processing.c ****                 CapSense_InitPosFiltersDd(&ptrHistory[touchIndex], CapSense_TOUCHPAD_POS_NONE, CapS
 289:Generated_Source\PSoC6/CapSense_Processing.c ****                 #if (0u != CapSense_POS_ADAPTIVE_IIR_FILTER_EN)
 290:Generated_Source\PSoC6/CapSense_Processing.c ****                     AdaptiveFilter_Initialize(&ptrWdTouchpad->aiirConfig, &adpContext);
 291:Generated_Source\PSoC6/CapSense_Processing.c ****                     ptrHistory[touchIndex].xPos.posAIIRCoeff = adpContext.coefficient;
 292:Generated_Source\PSoC6/CapSense_Processing.c ****                     ptrHistory[touchIndex].yPos.posAIIRCoeff = adpContext.coefficient;
 293:Generated_Source\PSoC6/CapSense_Processing.c ****                 #endif /* (0u != CapSense_POS_ADAPTIVE_IIR_FILTER_EN) */
 294:Generated_Source\PSoC6/CapSense_Processing.c ****             }
 295:Generated_Source\PSoC6/CapSense_Processing.c ****         }
 296:Generated_Source\PSoC6/CapSense_Processing.c ****     #endif /* (0u != CapSense_POSITION_FILTER_EN) */
 297:Generated_Source\PSoC6/CapSense_Processing.c **** }
 298:Generated_Source\PSoC6/CapSense_Processing.c **** #endif /* #if (0u != CapSense_CSX_TOUCHPAD_WIDGET_EN) */
 299:Generated_Source\PSoC6/CapSense_Processing.c **** 
 300:Generated_Source\PSoC6/CapSense_Processing.c **** #if (0u != CapSense_SLIDER_WIDGET_EN)
 301:Generated_Source\PSoC6/CapSense_Processing.c **** /*******************************************************************************
 302:Generated_Source\PSoC6/CapSense_Processing.c **** * Function Name: CapSense_DpInitSlider
 303:Generated_Source\PSoC6/CapSense_Processing.c **** ****************************************************************************//**
 304:Generated_Source\PSoC6/CapSense_Processing.c **** *
 305:Generated_Source\PSoC6/CapSense_Processing.c **** * \brief
 306:Generated_Source\PSoC6/CapSense_Processing.c **** *  Performs initialization of the Radial and Linear Slider widget.
 307:Generated_Source\PSoC6/CapSense_Processing.c **** *   - Resets the position data to NONE
 308:Generated_Source\PSoC6/CapSense_Processing.c **** *   - Initializes the position filter history to NONE if enabled.
 309:Generated_Source\PSoC6/CapSense_Processing.c **** *
 310:Generated_Source\PSoC6/CapSense_Processing.c **** * \details
 311:Generated_Source\PSoC6/CapSense_Processing.c **** *  Position data is always reset to the CapSense_SLIDER_POS_NONE value.
 312:Generated_Source\PSoC6/CapSense_Processing.c **** *  The same happens to the position filter history data if enabled.
 313:Generated_Source\PSoC6/CapSense_Processing.c **** *
 314:Generated_Source\PSoC6/CapSense_Processing.c **** *******************************************************************************/
ARM GAS  C:\Users\Austina\AppData\Local\Temp\ccLgwUrp.s 			page 7


 315:Generated_Source\PSoC6/CapSense_Processing.c **** __STATIC_INLINE void CapSense_DpInitSlider(CapSense_FLASH_WD_STRUCT const * ptrFlashWdgt)
 316:Generated_Source\PSoC6/CapSense_Processing.c **** {
 317:Generated_Source\PSoC6/CapSense_Processing.c ****     uint32 idx;
 318:Generated_Source\PSoC6/CapSense_Processing.c ****     CapSense_RAM_WD_SLIDER_STRUCT *ptrWdSlider;
 319:Generated_Source\PSoC6/CapSense_Processing.c **** 
 320:Generated_Source\PSoC6/CapSense_Processing.c ****     #if (0u != CapSense_POSITION_FILTER_EN)
 321:Generated_Source\PSoC6/CapSense_Processing.c ****         CapSense_SLIDER_POS_HISTORY_STRUCT *ptrHistory;
 322:Generated_Source\PSoC6/CapSense_Processing.c ****     #endif /* #if (0u != CapSense_POSITION_FILTER_EN) */
 323:Generated_Source\PSoC6/CapSense_Processing.c **** 
 324:Generated_Source\PSoC6/CapSense_Processing.c ****     #if (0u != CapSense_POS_ADAPTIVE_IIR_FILTER_EN)
 325:Generated_Source\PSoC6/CapSense_Processing.c ****         ADAPTIVE_FILTER_CONTEXT_STRUCT context;
 326:Generated_Source\PSoC6/CapSense_Processing.c ****     #endif /* (0u != CapSense_POS_ADAPTIVE_IIR_FILTER_EN) */
 327:Generated_Source\PSoC6/CapSense_Processing.c **** 
 328:Generated_Source\PSoC6/CapSense_Processing.c ****     ptrWdSlider = ptrFlashWdgt->ptr2WdgtRam;
 329:Generated_Source\PSoC6/CapSense_Processing.c **** 
 330:Generated_Source\PSoC6/CapSense_Processing.c ****     /* Reset slider position data to NONE */
 331:Generated_Source\PSoC6/CapSense_Processing.c ****     for (idx = 0u; idx < CapSense_NUM_CENTROIDS; idx++)
 332:Generated_Source\PSoC6/CapSense_Processing.c ****     {
 333:Generated_Source\PSoC6/CapSense_Processing.c ****         ptrWdSlider->position[idx] = CapSense_SLIDER_POS_NONE;
 334:Generated_Source\PSoC6/CapSense_Processing.c **** 
 335:Generated_Source\PSoC6/CapSense_Processing.c ****         #if (0u != CapSense_POSITION_FILTER_EN)
 336:Generated_Source\PSoC6/CapSense_Processing.c ****             ptrHistory = ptrFlashWdgt->ptr2PosHistory;
 337:Generated_Source\PSoC6/CapSense_Processing.c ****             if (NULL != ptrHistory)
 338:Generated_Source\PSoC6/CapSense_Processing.c ****             {
 339:Generated_Source\PSoC6/CapSense_Processing.c ****                 CapSense_InitPosFiltersSd(&ptrHistory[idx], CapSense_SLIDER_POS_NONE);
 340:Generated_Source\PSoC6/CapSense_Processing.c ****                 #if (0u != CapSense_POS_ADAPTIVE_IIR_FILTER_EN)
 341:Generated_Source\PSoC6/CapSense_Processing.c ****                     AdaptiveFilter_Initialize(&ptrWdSlider->aiirConfig, &context);
 342:Generated_Source\PSoC6/CapSense_Processing.c ****                     ptrHistory->posAIIRCoeff = context.coefficient;
 343:Generated_Source\PSoC6/CapSense_Processing.c ****                 #endif /* (0u != CapSense_POS_ADAPTIVE_IIR_FILTER_EN) */
 344:Generated_Source\PSoC6/CapSense_Processing.c ****             }
 345:Generated_Source\PSoC6/CapSense_Processing.c **** 
 346:Generated_Source\PSoC6/CapSense_Processing.c ****         #endif /* #if (0u != CapSense_POSITION_FILTER_EN) */
 347:Generated_Source\PSoC6/CapSense_Processing.c ****     }
 348:Generated_Source\PSoC6/CapSense_Processing.c **** }
 349:Generated_Source\PSoC6/CapSense_Processing.c **** #endif /* #if (0u != CapSense_SLIDER_WIDGET_EN) */
 350:Generated_Source\PSoC6/CapSense_Processing.c **** 
 351:Generated_Source\PSoC6/CapSense_Processing.c **** #if (0u != CapSense_CSD_MATRIX_WIDGET_EN)
 352:Generated_Source\PSoC6/CapSense_Processing.c **** /*******************************************************************************
 353:Generated_Source\PSoC6/CapSense_Processing.c **** * Function Name: CapSense_DpInitCsdMatrix
 354:Generated_Source\PSoC6/CapSense_Processing.c **** ****************************************************************************//**
 355:Generated_Source\PSoC6/CapSense_Processing.c **** *
 356:Generated_Source\PSoC6/CapSense_Processing.c **** * \brief
 357:Generated_Source\PSoC6/CapSense_Processing.c **** *  Performs initialization of the CSD Matrix Buttons widget.
 358:Generated_Source\PSoC6/CapSense_Processing.c **** *   - Resets the active button position data to NONE.
 359:Generated_Source\PSoC6/CapSense_Processing.c **** *
 360:Generated_Source\PSoC6/CapSense_Processing.c **** * \details
 361:Generated_Source\PSoC6/CapSense_Processing.c **** *  Position data is always reset to the CapSense_MATRIX_POS_NONE value.
 362:Generated_Source\PSoC6/CapSense_Processing.c **** *
 363:Generated_Source\PSoC6/CapSense_Processing.c **** *******************************************************************************/
 364:Generated_Source\PSoC6/CapSense_Processing.c **** __STATIC_INLINE void CapSense_DpInitCsdMatrix(CapSense_FLASH_WD_STRUCT const * ptrFlashWdgt)
 365:Generated_Source\PSoC6/CapSense_Processing.c **** {
 366:Generated_Source\PSoC6/CapSense_Processing.c ****     CapSense_RAM_WD_CSD_MATRIX_STRUCT *ptrRamWdgt;
 367:Generated_Source\PSoC6/CapSense_Processing.c **** 
 368:Generated_Source\PSoC6/CapSense_Processing.c ****     ptrRamWdgt = (CapSense_RAM_WD_CSD_MATRIX_STRUCT *)ptrFlashWdgt->ptr2WdgtRam;
 369:Generated_Source\PSoC6/CapSense_Processing.c **** 
 370:Generated_Source\PSoC6/CapSense_Processing.c ****     /* Reset sensor id, row and col registers in data structure */
 371:Generated_Source\PSoC6/CapSense_Processing.c ****     ptrRamWdgt->posRow   = CapSense_MATRIX_POS_NONE;
ARM GAS  C:\Users\Austina\AppData\Local\Temp\ccLgwUrp.s 			page 8


 372:Generated_Source\PSoC6/CapSense_Processing.c ****     ptrRamWdgt->posCol   = CapSense_MATRIX_POS_NONE;
 373:Generated_Source\PSoC6/CapSense_Processing.c ****     ptrRamWdgt->posSnsId = CapSense_MATRIX_POS_NONE;
 374:Generated_Source\PSoC6/CapSense_Processing.c **** }
 375:Generated_Source\PSoC6/CapSense_Processing.c **** #endif /* #if (0u != CapSense_CSD_MATRIX_WIDGET_EN) */
 376:Generated_Source\PSoC6/CapSense_Processing.c **** 
 377:Generated_Source\PSoC6/CapSense_Processing.c **** /*******************************************************************************
 378:Generated_Source\PSoC6/CapSense_Processing.c **** * Function Name: CapSense_DpInitialize
 379:Generated_Source\PSoC6/CapSense_Processing.c **** ****************************************************************************//**
 380:Generated_Source\PSoC6/CapSense_Processing.c **** *
 381:Generated_Source\PSoC6/CapSense_Processing.c **** * \brief
 382:Generated_Source\PSoC6/CapSense_Processing.c **** *  Performs initialization of the data processing FW module:
 383:Generated_Source\PSoC6/CapSense_Processing.c **** *   - Resets the de-bounce counters of all the widgets
 384:Generated_Source\PSoC6/CapSense_Processing.c **** *   - Resets the position filter history for slider and touchpad widgets
 385:Generated_Source\PSoC6/CapSense_Processing.c **** *   - Clears widget and sensor statuses
 386:Generated_Source\PSoC6/CapSense_Processing.c **** *   - Enables all the widgets.
 387:Generated_Source\PSoC6/CapSense_Processing.c **** *
 388:Generated_Source\PSoC6/CapSense_Processing.c **** * \details
 389:Generated_Source\PSoC6/CapSense_Processing.c **** *  The Button and Matrix Button widgets have individual de-bounce counter per
 390:Generated_Source\PSoC6/CapSense_Processing.c **** *  sensor for the CSD widgets and per node for the CSX widgets.
 391:Generated_Source\PSoC6/CapSense_Processing.c **** *
 392:Generated_Source\PSoC6/CapSense_Processing.c **** *  The Slider and Touchpad widgets have a single de-bounce counter per widget.
 393:Generated_Source\PSoC6/CapSense_Processing.c **** *
 394:Generated_Source\PSoC6/CapSense_Processing.c **** *  The Proximity widget has two de-bounce counters per sensor. One for the
 395:Generated_Source\PSoC6/CapSense_Processing.c **** *  proximity event and second for the touch event.
 396:Generated_Source\PSoC6/CapSense_Processing.c **** *
 397:Generated_Source\PSoC6/CapSense_Processing.c **** *  All debounce counters during initialization are set to the value of the
 398:Generated_Source\PSoC6/CapSense_Processing.c **** *  onDebounce widget parameter.
 399:Generated_Source\PSoC6/CapSense_Processing.c **** *
 400:Generated_Source\PSoC6/CapSense_Processing.c **** *******************************************************************************/
 401:Generated_Source\PSoC6/CapSense_Processing.c **** void CapSense_DpInitialize(void)
 402:Generated_Source\PSoC6/CapSense_Processing.c **** {
  29              		.loc 1 402 0
  30              		.cfi_startproc
  31              		@ args = 0, pretend = 0, frame = 0
  32              		@ frame_needed = 0, uses_anonymous_args = 0
  33 0000 70B5     		push	{r4, r5, r6, lr}
  34              		.cfi_def_cfa_offset 16
  35              		.cfi_offset 4, -16
  36              		.cfi_offset 5, -12
  37              		.cfi_offset 6, -8
  38              		.cfi_offset 14, -4
  39              	.LVL0:
 403:Generated_Source\PSoC6/CapSense_Processing.c ****     uint32 wdgtId;
 404:Generated_Source\PSoC6/CapSense_Processing.c ****     CapSense_WD_TYPE_ENUM widgetType;
 405:Generated_Source\PSoC6/CapSense_Processing.c ****     CapSense_RAM_WD_BASE_STRUCT * ptrRamWdgt;
 406:Generated_Source\PSoC6/CapSense_Processing.c ****     CapSense_FLASH_WD_STRUCT const * ptrFlashWdgt;
 407:Generated_Source\PSoC6/CapSense_Processing.c **** 
 408:Generated_Source\PSoC6/CapSense_Processing.c ****     for (wdgtId = 0u; wdgtId < CapSense_WDGT_STATUS_WORDS; wdgtId++)
  40              		.loc 1 408 0
  41 0002 0023     		movs	r3, #0
  42 0004 0AE0     		b	.L2
  43              	.LVL1:
  44              	.L3:
 409:Generated_Source\PSoC6/CapSense_Processing.c ****     {
 410:Generated_Source\PSoC6/CapSense_Processing.c ****         /* Clear widget status */
 411:Generated_Source\PSoC6/CapSense_Processing.c ****         CapSense_dsRam.wdgtStatus[wdgtId] = 0u;
  45              		.loc 1 411 0 discriminator 3
ARM GAS  C:\Users\Austina\AppData\Local\Temp\ccLgwUrp.s 			page 9


  46 0006 204A     		ldr	r2, .L15
  47 0008 191D     		adds	r1, r3, #4
  48 000a 02EB8100 		add	r0, r2, r1, lsl #2
  49 000e 0024     		movs	r4, #0
  50 0010 4460     		str	r4, [r0, #4]
 412:Generated_Source\PSoC6/CapSense_Processing.c **** 
 413:Generated_Source\PSoC6/CapSense_Processing.c ****         /* Enable all the widgets */
 414:Generated_Source\PSoC6/CapSense_Processing.c ****         CapSense_dsRam.wdgtEnable[wdgtId] = 0xFFFFFFFFLu;
  51              		.loc 1 414 0 discriminator 3
  52 0012 4FF0FF30 		mov	r0, #-1
  53 0016 42F82100 		str	r0, [r2, r1, lsl #2]
 408:Generated_Source\PSoC6/CapSense_Processing.c ****     {
  54              		.loc 1 408 0 discriminator 3
  55 001a 0133     		adds	r3, r3, #1
  56              	.LVL2:
  57              	.L2:
 408:Generated_Source\PSoC6/CapSense_Processing.c ****     {
  58              		.loc 1 408 0 is_stmt 0 discriminator 1
  59 001c 002B     		cmp	r3, #0
  60 001e F2D0     		beq	.L3
  61 0020 1A4C     		ldr	r4, .L15+4
  62 0022 0323     		movs	r3, #3
  63              	.LVL3:
  64 0024 2CE0     		b	.L4
  65              	.LVL4:
  66              	.L13:
 415:Generated_Source\PSoC6/CapSense_Processing.c **** 
 416:Generated_Source\PSoC6/CapSense_Processing.c ****         /* Set all the widgets to working state if the Self-Test is not enabled */
 417:Generated_Source\PSoC6/CapSense_Processing.c ****         #if (0u != CapSense_SELF_TEST_EN)
 418:Generated_Source\PSoC6/CapSense_Processing.c ****             CapSense_dsRam.wdgtWorking[wdgtId] = 0xFFFFFFFFLu;
 419:Generated_Source\PSoC6/CapSense_Processing.c ****         #endif /* #if (0u == CapSense_SELF_TEST_EN) */
 420:Generated_Source\PSoC6/CapSense_Processing.c ****     }
 421:Generated_Source\PSoC6/CapSense_Processing.c **** 
 422:Generated_Source\PSoC6/CapSense_Processing.c ****     ptrFlashWdgt = CapSense_dsFlash.wdgtArray;
 423:Generated_Source\PSoC6/CapSense_Processing.c **** 
 424:Generated_Source\PSoC6/CapSense_Processing.c ****     for (wdgtId = CapSense_TOTAL_WIDGETS; wdgtId-- > 0u; )
 425:Generated_Source\PSoC6/CapSense_Processing.c ****     {
 426:Generated_Source\PSoC6/CapSense_Processing.c ****         ptrRamWdgt = (CapSense_RAM_WD_BASE_STRUCT *)ptrFlashWdgt->ptr2WdgtRam;
  67              		.loc 1 426 0 is_stmt 1
  68 0026 6668     		ldr	r6, [r4, #4]
  69              	.LVL5:
 427:Generated_Source\PSoC6/CapSense_Processing.c ****         widgetType = (CapSense_WD_TYPE_ENUM)ptrFlashWdgt->wdgtType;
  70              		.loc 1 427 0
  71 0028 A37E     		ldrb	r3, [r4, #26]	@ zero_extendqisi2
  72              	.LVL6:
 428:Generated_Source\PSoC6/CapSense_Processing.c **** 
 429:Generated_Source\PSoC6/CapSense_Processing.c ****         /* Clear all sensor statuses */
 430:Generated_Source\PSoC6/CapSense_Processing.c ****         CapSense_dsRam.snsStatus[wdgtId] = 0u;
  73              		.loc 1 430 0
  74 002a 174A     		ldr	r2, .L15
  75 002c 2A44     		add	r2, r2, r5
  76 002e 0021     		movs	r1, #0
  77 0030 1176     		strb	r1, [r2, #24]
 431:Generated_Source\PSoC6/CapSense_Processing.c **** 
 432:Generated_Source\PSoC6/CapSense_Processing.c ****         /* Reset de-bounce counters */
 433:Generated_Source\PSoC6/CapSense_Processing.c ****         switch (widgetType)
  78              		.loc 1 433 0
ARM GAS  C:\Users\Austina\AppData\Local\Temp\ccLgwUrp.s 			page 10


  79 0032 013B     		subs	r3, r3, #1
  80              	.LVL7:
  81 0034 042B     		cmp	r3, #4
  82 0036 21D8     		bhi	.L5
  83 0038 DFE803F0 		tbb	[pc, r3]
  84              	.L7:
  85 003c 03       		.byte	(.L6-.L7)/2
  86 003d 0A       		.byte	(.L8-.L7)/2
  87 003e 0A       		.byte	(.L8-.L7)/2
  88 003f 20       		.byte	(.L5-.L7)/2
  89 0040 1C       		.byte	(.L9-.L7)/2
  90 0041 00       		.p2align 1
  91              	.L6:
 434:Generated_Source\PSoC6/CapSense_Processing.c ****         {
 435:Generated_Source\PSoC6/CapSense_Processing.c ****         #if (0u != CapSense_MATRIX_WIDGET_EN)
 436:Generated_Source\PSoC6/CapSense_Processing.c ****             case CapSense_WD_MATRIX_BUTTON_E:
 437:Generated_Source\PSoC6/CapSense_Processing.c ****                 #if (0u != CapSense_CSD_MATRIX_WIDGET_EN)
 438:Generated_Source\PSoC6/CapSense_Processing.c ****                     if (CapSense_SENSE_METHOD_CSD_E == CapSense_GET_SENSE_METHOD(ptrFlashWdgt))
 439:Generated_Source\PSoC6/CapSense_Processing.c ****                     {
 440:Generated_Source\PSoC6/CapSense_Processing.c ****                         CapSense_DpInitCsdMatrix(ptrFlashWdgt);
 441:Generated_Source\PSoC6/CapSense_Processing.c ****                     }
 442:Generated_Source\PSoC6/CapSense_Processing.c ****                 #endif /* #if (0u != CapSense_CSD_MATRIX_WIDGET_EN) */
 443:Generated_Source\PSoC6/CapSense_Processing.c **** 
 444:Generated_Source\PSoC6/CapSense_Processing.c ****                 if (NULL != ptrFlashWdgt->ptr2DebounceArr)
 445:Generated_Source\PSoC6/CapSense_Processing.c ****                 {
 446:Generated_Source\PSoC6/CapSense_Processing.c ****                     /* Initialize array of debounce counters */
 447:Generated_Source\PSoC6/CapSense_Processing.c ****                     (void)memset(ptrFlashWdgt->ptr2DebounceArr,
 448:Generated_Source\PSoC6/CapSense_Processing.c ****                                  (int32)ptrRamWdgt->onDebounce,
 449:Generated_Source\PSoC6/CapSense_Processing.c ****                                  (size_t)ptrFlashWdgt->totalNumSns);
 450:Generated_Source\PSoC6/CapSense_Processing.c ****                 }
 451:Generated_Source\PSoC6/CapSense_Processing.c ****                 break;
 452:Generated_Source\PSoC6/CapSense_Processing.c ****         #endif /* #if (0u != CapSense_MATRIX_WIDGET_EN) */
 453:Generated_Source\PSoC6/CapSense_Processing.c **** 
 454:Generated_Source\PSoC6/CapSense_Processing.c ****         #if (0u != CapSense_BUTTON_WIDGET_EN)
 455:Generated_Source\PSoC6/CapSense_Processing.c ****             case CapSense_WD_BUTTON_E:
 456:Generated_Source\PSoC6/CapSense_Processing.c ****                 if (NULL != ptrFlashWdgt->ptr2DebounceArr)
  92              		.loc 1 456 0
  93 0042 2069     		ldr	r0, [r4, #16]
  94 0044 D0B1     		cbz	r0, .L5
 457:Generated_Source\PSoC6/CapSense_Processing.c ****                 {
 458:Generated_Source\PSoC6/CapSense_Processing.c ****                     /* Initialize array of debounce counters */
 459:Generated_Source\PSoC6/CapSense_Processing.c ****                     (void)memset(ptrFlashWdgt->ptr2DebounceArr,
  95              		.loc 1 459 0
  96 0046 228B     		ldrh	r2, [r4, #24]
  97 0048 F179     		ldrb	r1, [r6, #7]	@ zero_extendqisi2
  98 004a FFF7FEFF 		bl	memset
  99              	.LVL8:
 100 004e 15E0     		b	.L5
 101              	.LVL9:
 102              	.L8:
 460:Generated_Source\PSoC6/CapSense_Processing.c ****                                  (int32)ptrRamWdgt->onDebounce,
 461:Generated_Source\PSoC6/CapSense_Processing.c ****                                  (size_t)ptrFlashWdgt->totalNumSns);
 462:Generated_Source\PSoC6/CapSense_Processing.c ****                 }
 463:Generated_Source\PSoC6/CapSense_Processing.c ****                 break;
 464:Generated_Source\PSoC6/CapSense_Processing.c ****         #endif /* #if (0u != CapSense_BUTTON_WIDGET_EN) */
 465:Generated_Source\PSoC6/CapSense_Processing.c **** 
 466:Generated_Source\PSoC6/CapSense_Processing.c ****         #if (0u != CapSense_SLIDER_WIDGET_EN)
ARM GAS  C:\Users\Austina\AppData\Local\Temp\ccLgwUrp.s 			page 11


 467:Generated_Source\PSoC6/CapSense_Processing.c ****             case CapSense_WD_LINEAR_SLIDER_E:
 468:Generated_Source\PSoC6/CapSense_Processing.c ****             case CapSense_WD_RADIAL_SLIDER_E:
 469:Generated_Source\PSoC6/CapSense_Processing.c ****                 if (NULL != ptrFlashWdgt->ptr2DebounceArr)
 103              		.loc 1 469 0
 104 0050 2369     		ldr	r3, [r4, #16]
 105              	.LVL10:
 106 0052 0BB1     		cbz	r3, .L10
 470:Generated_Source\PSoC6/CapSense_Processing.c ****                 {
 471:Generated_Source\PSoC6/CapSense_Processing.c ****                     /* Initialize single debounce counter of slider */
 472:Generated_Source\PSoC6/CapSense_Processing.c ****                     *(uint8 *)(ptrFlashWdgt->ptr2DebounceArr) = ptrRamWdgt->onDebounce;
 107              		.loc 1 472 0
 108 0054 F279     		ldrb	r2, [r6, #7]	@ zero_extendqisi2
 109 0056 1A70     		strb	r2, [r3]
 110              	.L10:
 111              	.LVL11:
 112              	.LBB6:
 113              	.LBB7:
 328:Generated_Source\PSoC6/CapSense_Processing.c **** 
 114              		.loc 1 328 0
 115 0058 6168     		ldr	r1, [r4, #4]
 116              	.LVL12:
 331:Generated_Source\PSoC6/CapSense_Processing.c ****     {
 117              		.loc 1 331 0
 118 005a 0023     		movs	r3, #0
 119 005c 07E0     		b	.L11
 120              	.LVL13:
 121              	.L12:
 333:Generated_Source\PSoC6/CapSense_Processing.c **** 
 122              		.loc 1 333 0
 123 005e 03F10802 		add	r2, r3, #8
 124 0062 01EB4202 		add	r2, r1, r2, lsl #1
 125 0066 4FF6FF70 		movw	r0, #65535
 126 006a 9080     		strh	r0, [r2, #4]	@ movhi
 331:Generated_Source\PSoC6/CapSense_Processing.c ****     {
 127              		.loc 1 331 0
 128 006c 0133     		adds	r3, r3, #1
 129              	.LVL14:
 130              	.L11:
 131 006e 002B     		cmp	r3, #0
 132 0070 F5D0     		beq	.L12
 133 0072 03E0     		b	.L5
 134              	.LVL15:
 135              	.L9:
 136              	.LBE7:
 137              	.LBE6:
 473:Generated_Source\PSoC6/CapSense_Processing.c ****                 }
 474:Generated_Source\PSoC6/CapSense_Processing.c **** 
 475:Generated_Source\PSoC6/CapSense_Processing.c ****                 CapSense_DpInitSlider(ptrFlashWdgt);
 476:Generated_Source\PSoC6/CapSense_Processing.c **** 
 477:Generated_Source\PSoC6/CapSense_Processing.c ****                 break;
 478:Generated_Source\PSoC6/CapSense_Processing.c ****         #endif /* #if (0u != CapSense_SLIDER_WIDGET_EN) */
 479:Generated_Source\PSoC6/CapSense_Processing.c **** 
 480:Generated_Source\PSoC6/CapSense_Processing.c ****         #if (0u != CapSense_TOUCHPAD_WIDGET_EN)
 481:Generated_Source\PSoC6/CapSense_Processing.c ****             case CapSense_WD_TOUCHPAD_E:
 482:Generated_Source\PSoC6/CapSense_Processing.c ****                 if (NULL != ptrFlashWdgt->ptr2DebounceArr)
 138              		.loc 1 482 0
 139 0074 2369     		ldr	r3, [r4, #16]
ARM GAS  C:\Users\Austina\AppData\Local\Temp\ccLgwUrp.s 			page 12


 140              	.LVL16:
 141 0076 0BB1     		cbz	r3, .L5
 483:Generated_Source\PSoC6/CapSense_Processing.c ****                 {
 484:Generated_Source\PSoC6/CapSense_Processing.c ****                     /* Initialize single debounce counter of touchpad */
 485:Generated_Source\PSoC6/CapSense_Processing.c ****                     *(uint8 *)(ptrFlashWdgt->ptr2DebounceArr) = ptrRamWdgt->onDebounce;
 142              		.loc 1 485 0
 143 0078 F279     		ldrb	r2, [r6, #7]	@ zero_extendqisi2
 144 007a 1A70     		strb	r2, [r3]
 145              	.L5:
 486:Generated_Source\PSoC6/CapSense_Processing.c ****                 }
 487:Generated_Source\PSoC6/CapSense_Processing.c **** 
 488:Generated_Source\PSoC6/CapSense_Processing.c ****                 #if (0u != CapSense_CSD_TOUCHPAD_WIDGET_EN)
 489:Generated_Source\PSoC6/CapSense_Processing.c ****                     if (CapSense_SENSE_METHOD_CSD_E == CapSense_GET_SENSE_METHOD(ptrFlashWdgt))
 490:Generated_Source\PSoC6/CapSense_Processing.c ****                     {
 491:Generated_Source\PSoC6/CapSense_Processing.c ****                         CapSense_DpInitCsdTouchpad(ptrFlashWdgt);
 492:Generated_Source\PSoC6/CapSense_Processing.c ****                     }
 493:Generated_Source\PSoC6/CapSense_Processing.c ****                 #endif /* #if (0u != CapSense_CSD_TOUCHPAD_WIDGET_EN) */
 494:Generated_Source\PSoC6/CapSense_Processing.c **** 
 495:Generated_Source\PSoC6/CapSense_Processing.c ****                 #if (0u != CapSense_CSX_TOUCHPAD_WIDGET_EN)
 496:Generated_Source\PSoC6/CapSense_Processing.c ****                     if (CapSense_SENSE_METHOD_CSX_E == CapSense_GET_SENSE_METHOD(ptrFlashWdgt))
 497:Generated_Source\PSoC6/CapSense_Processing.c ****                     {
 498:Generated_Source\PSoC6/CapSense_Processing.c ****                         CapSense_DpInitCsxTouchpad(ptrFlashWdgt);
 499:Generated_Source\PSoC6/CapSense_Processing.c ****                     }
 500:Generated_Source\PSoC6/CapSense_Processing.c ****                 #endif /* #if (0u != CapSense_CSX_TOUCHPAD_WIDGET_EN) */
 501:Generated_Source\PSoC6/CapSense_Processing.c **** 
 502:Generated_Source\PSoC6/CapSense_Processing.c ****                 break;
 503:Generated_Source\PSoC6/CapSense_Processing.c ****         #endif /* #if (0u != CapSense_TOUCHPAD_WIDGET_EN) */
 504:Generated_Source\PSoC6/CapSense_Processing.c **** 
 505:Generated_Source\PSoC6/CapSense_Processing.c ****         #if (0u != CapSense_PROXIMITY_WIDGET_EN)
 506:Generated_Source\PSoC6/CapSense_Processing.c ****             case CapSense_WD_PROXIMITY_E:
 507:Generated_Source\PSoC6/CapSense_Processing.c ****                 if (NULL != ptrFlashWdgt->ptr2DebounceArr)
 508:Generated_Source\PSoC6/CapSense_Processing.c ****                 {
 509:Generated_Source\PSoC6/CapSense_Processing.c ****                     /* Proximity widgets have 2 de-bounce counters per sensor.
 510:Generated_Source\PSoC6/CapSense_Processing.c ****                      * Therefore the number of sensors is multiplied by 2.
 511:Generated_Source\PSoC6/CapSense_Processing.c ****                      */
 512:Generated_Source\PSoC6/CapSense_Processing.c ****                    (void)memset(ptrFlashWdgt->ptr2DebounceArr,
 513:Generated_Source\PSoC6/CapSense_Processing.c ****                                 (int32)ptrRamWdgt->onDebounce,
 514:Generated_Source\PSoC6/CapSense_Processing.c ****                                 (size_t)ptrFlashWdgt->totalNumSns * 2u);
 515:Generated_Source\PSoC6/CapSense_Processing.c ****                 }
 516:Generated_Source\PSoC6/CapSense_Processing.c ****                 break;
 517:Generated_Source\PSoC6/CapSense_Processing.c ****         #endif /* #if (0u != CapSense_PROXIMITY_WIDGET_EN) */
 518:Generated_Source\PSoC6/CapSense_Processing.c **** 
 519:Generated_Source\PSoC6/CapSense_Processing.c ****             default:
 520:Generated_Source\PSoC6/CapSense_Processing.c ****                 break;
 521:Generated_Source\PSoC6/CapSense_Processing.c ****         }
 522:Generated_Source\PSoC6/CapSense_Processing.c **** 
 523:Generated_Source\PSoC6/CapSense_Processing.c ****         /* Move to next widget */
 524:Generated_Source\PSoC6/CapSense_Processing.c ****         ptrFlashWdgt++;
 146              		.loc 1 524 0
 147 007c 2C34     		adds	r4, r4, #44
 148              	.LVL17:
 424:Generated_Source\PSoC6/CapSense_Processing.c ****     {
 149              		.loc 1 424 0
 150 007e 2B46     		mov	r3, r5
 151              	.LVL18:
 152              	.L4:
 424:Generated_Source\PSoC6/CapSense_Processing.c ****     {
ARM GAS  C:\Users\Austina\AppData\Local\Temp\ccLgwUrp.s 			page 13


 153              		.loc 1 424 0 is_stmt 0 discriminator 1
 154 0080 5D1E     		subs	r5, r3, #1
 155              	.LVL19:
 156 0082 002B     		cmp	r3, #0
 157 0084 CFD1     		bne	.L13
 525:Generated_Source\PSoC6/CapSense_Processing.c ****     }
 526:Generated_Source\PSoC6/CapSense_Processing.c **** }
 158              		.loc 1 526 0 is_stmt 1
 159 0086 70BD     		pop	{r4, r5, r6, pc}
 160              	.LVL20:
 161              	.L16:
 162              		.align	2
 163              	.L15:
 164 0088 00000000 		.word	CapSense_dsRam
 165 008c 00000000 		.word	CapSense_dsFlash
 166              		.cfi_endproc
 167              	.LFE126:
 168              		.size	CapSense_DpInitialize, .-CapSense_DpInitialize
 169              		.section	.text.CapSense_DpUpdateThresholds,"ax",%progbits
 170              		.align	2
 171              		.global	CapSense_DpUpdateThresholds
 172              		.thumb
 173              		.thumb_func
 174              		.type	CapSense_DpUpdateThresholds, %function
 175              	CapSense_DpUpdateThresholds:
 176              	.LFB133:
 527:Generated_Source\PSoC6/CapSense_Processing.c **** 
 528:Generated_Source\PSoC6/CapSense_Processing.c **** #if (0u != CapSense_TOTAL_CSX_WIDGETS)
 529:Generated_Source\PSoC6/CapSense_Processing.c **** /*******************************************************************************
 530:Generated_Source\PSoC6/CapSense_Processing.c **** * Function Name: CapSense_DpProcessCsxWidgetRawCounts
 531:Generated_Source\PSoC6/CapSense_Processing.c **** ****************************************************************************//**
 532:Generated_Source\PSoC6/CapSense_Processing.c **** *
 533:Generated_Source\PSoC6/CapSense_Processing.c **** * \brief
 534:Generated_Source\PSoC6/CapSense_Processing.c **** *  Performs default processing of the CSX raw counts.
 535:Generated_Source\PSoC6/CapSense_Processing.c **** *
 536:Generated_Source\PSoC6/CapSense_Processing.c **** * \details
 537:Generated_Source\PSoC6/CapSense_Processing.c **** *  Performs default processing of the CSX raw counts:
 538:Generated_Source\PSoC6/CapSense_Processing.c **** *   - Run Filters
 539:Generated_Source\PSoC6/CapSense_Processing.c **** *   - Update Baselines
 540:Generated_Source\PSoC6/CapSense_Processing.c **** *   - Update Differences
 541:Generated_Source\PSoC6/CapSense_Processing.c **** *   - Update Status.
 542:Generated_Source\PSoC6/CapSense_Processing.c **** *  The same process is applied to all the sensors of the specified widget.
 543:Generated_Source\PSoC6/CapSense_Processing.c **** *
 544:Generated_Source\PSoC6/CapSense_Processing.c **** * \param ptrFlashWdgt The pointer to the Flash widget structure.
 545:Generated_Source\PSoC6/CapSense_Processing.c **** *
 546:Generated_Source\PSoC6/CapSense_Processing.c **** * \return
 547:Generated_Source\PSoC6/CapSense_Processing.c **** *  Returns the status of the specified widget processing operation:
 548:Generated_Source\PSoC6/CapSense_Processing.c **** *  - CY_RET_SUCCESS if operation was successfully completed;
 549:Generated_Source\PSoC6/CapSense_Processing.c **** *  - CapSense_PROCESS_BASELINE_FAILED if baseline processing of any
 550:Generated_Source\PSoC6/CapSense_Processing.c **** *    sensor of the specified widget failed. The result is concatenated with the index
 551:Generated_Source\PSoC6/CapSense_Processing.c **** *    of failed sensor.
 552:Generated_Source\PSoC6/CapSense_Processing.c **** *
 553:Generated_Source\PSoC6/CapSense_Processing.c **** *******************************************************************************/
 554:Generated_Source\PSoC6/CapSense_Processing.c **** uint32 CapSense_DpProcessCsxWidgetRawCounts(CapSense_FLASH_WD_STRUCT const *ptrFlashWdgt)
 555:Generated_Source\PSoC6/CapSense_Processing.c **** {
 556:Generated_Source\PSoC6/CapSense_Processing.c ****     uint32 result = CY_RET_SUCCESS;
 557:Generated_Source\PSoC6/CapSense_Processing.c ****     uint32 widgetType;
ARM GAS  C:\Users\Austina\AppData\Local\Temp\ccLgwUrp.s 			page 14


 558:Generated_Source\PSoC6/CapSense_Processing.c ****     uint32 snsCount;
 559:Generated_Source\PSoC6/CapSense_Processing.c ****     CapSense_RAM_SNS_STRUCT *ptrSnsTmp;
 560:Generated_Source\PSoC6/CapSense_Processing.c ****     CapSense_RAM_WD_BASE_STRUCT *ptrRamWdgt;
 561:Generated_Source\PSoC6/CapSense_Processing.c **** 
 562:Generated_Source\PSoC6/CapSense_Processing.c ****     #if (CapSense_ENABLE == CapSense_RC_FILTER_EN)
 563:Generated_Source\PSoC6/CapSense_Processing.c ****         CapSense_PTR_FILTER_VARIANT fltrHistV;
 564:Generated_Source\PSoC6/CapSense_Processing.c **** 
 565:Generated_Source\PSoC6/CapSense_Processing.c ****         fltrHistV.ptr = ptrFlashWdgt->ptr2FltrHistory;
 566:Generated_Source\PSoC6/CapSense_Processing.c ****     #endif /* #if (CapSense_ENABLE == CapSense_RC_FILTER_EN) */
 567:Generated_Source\PSoC6/CapSense_Processing.c **** 
 568:Generated_Source\PSoC6/CapSense_Processing.c ****     ptrSnsTmp = ptrFlashWdgt->ptr2SnsRam;
 569:Generated_Source\PSoC6/CapSense_Processing.c ****     snsCount = ptrFlashWdgt->totalNumSns;
 570:Generated_Source\PSoC6/CapSense_Processing.c ****     ptrRamWdgt = (CapSense_RAM_WD_BASE_STRUCT *)ptrFlashWdgt->ptr2WdgtRam;
 571:Generated_Source\PSoC6/CapSense_Processing.c ****     widgetType = ptrFlashWdgt->wdgtType;
 572:Generated_Source\PSoC6/CapSense_Processing.c **** 
 573:Generated_Source\PSoC6/CapSense_Processing.c ****     /* Run deconvolution algorithm for the widgets with multiphase TX support */
 574:Generated_Source\PSoC6/CapSense_Processing.c ****     #if (0u != CapSense_CSX_MULTIPHASE_TX_EN)
 575:Generated_Source\PSoC6/CapSense_Processing.c ****         if (0u != (ptrFlashWdgt->staticConfig & CapSense_MULTIPHASE_TX_MASK))
 576:Generated_Source\PSoC6/CapSense_Processing.c ****         {
 577:Generated_Source\PSoC6/CapSense_Processing.c ****             CapSense_DpDeconvolution(ptrFlashWdgt);
 578:Generated_Source\PSoC6/CapSense_Processing.c ****         }
 579:Generated_Source\PSoC6/CapSense_Processing.c ****     #endif  /* #if (0u != CapSense_CSX_MULTIPHASE_TX_EN) */
 580:Generated_Source\PSoC6/CapSense_Processing.c **** 
 581:Generated_Source\PSoC6/CapSense_Processing.c ****     for (;snsCount-- > 0u;)
 582:Generated_Source\PSoC6/CapSense_Processing.c ****     {
 583:Generated_Source\PSoC6/CapSense_Processing.c ****         #if (CapSense_ENABLE == CapSense_RC_FILTER_EN)
 584:Generated_Source\PSoC6/CapSense_Processing.c ****             CapSense_FtRunEnabledFiltersInternal(fltrHistV, ptrSnsTmp, widgetType);
 585:Generated_Source\PSoC6/CapSense_Processing.c ****             #if (CapSense_ALP_FILTER_EN)
 586:Generated_Source\PSoC6/CapSense_Processing.c ****                 CapSense_ConfigRunALPInternal(fltrHistV, ptrRamWdgt, ptrSnsTmp, widgetType);
 587:Generated_Source\PSoC6/CapSense_Processing.c ****             #endif
 588:Generated_Source\PSoC6/CapSense_Processing.c ****         #endif /* #if (CapSense_ENABLE == CapSense_RC_FILTER_EN) */
 589:Generated_Source\PSoC6/CapSense_Processing.c **** 
 590:Generated_Source\PSoC6/CapSense_Processing.c ****         result = CapSense_FtUpdateBaseline(ptrRamWdgt, ptrSnsTmp, widgetType);
 591:Generated_Source\PSoC6/CapSense_Processing.c **** 
 592:Generated_Source\PSoC6/CapSense_Processing.c ****         #if (CapSense_ENABLE == CapSense_TST_BSLN_DUPLICATION_EN)
 593:Generated_Source\PSoC6/CapSense_Processing.c ****             if (CY_RET_SUCCESS != result)
 594:Generated_Source\PSoC6/CapSense_Processing.c ****             {
 595:Generated_Source\PSoC6/CapSense_Processing.c ****                 result = snsCount | CapSense_PROCESS_BASELINE_FAILED;
 596:Generated_Source\PSoC6/CapSense_Processing.c ****             }
 597:Generated_Source\PSoC6/CapSense_Processing.c ****         #endif /* (CapSense_ENABLE == CapSense_TST_BSLN_DUPLICATION_EN) */
 598:Generated_Source\PSoC6/CapSense_Processing.c **** 
 599:Generated_Source\PSoC6/CapSense_Processing.c ****         CapSense_DpUpdateDifferences(ptrRamWdgt, ptrSnsTmp);
 600:Generated_Source\PSoC6/CapSense_Processing.c **** 
 601:Generated_Source\PSoC6/CapSense_Processing.c ****         /* Move pointers to the next sensor and filter history objects */
 602:Generated_Source\PSoC6/CapSense_Processing.c ****         ptrSnsTmp++;
 603:Generated_Source\PSoC6/CapSense_Processing.c ****         
 604:Generated_Source\PSoC6/CapSense_Processing.c ****         #if (CapSense_ENABLE == CapSense_RC_FILTER_EN)
 605:Generated_Source\PSoC6/CapSense_Processing.c ****             CapSense_INC_REG_FLTR_OBJ(fltrHistV);
 606:Generated_Source\PSoC6/CapSense_Processing.c ****         #endif /* #if (CapSense_ENABLE == CapSense_RC_FILTER_EN) */
 607:Generated_Source\PSoC6/CapSense_Processing.c ****     }
 608:Generated_Source\PSoC6/CapSense_Processing.c ****     return result;
 609:Generated_Source\PSoC6/CapSense_Processing.c **** }
 610:Generated_Source\PSoC6/CapSense_Processing.c **** 
 611:Generated_Source\PSoC6/CapSense_Processing.c **** /*******************************************************************************
 612:Generated_Source\PSoC6/CapSense_Processing.c **** * Function Name: CapSense_DpProcessCsxSensorRawCountsExt
 613:Generated_Source\PSoC6/CapSense_Processing.c **** ****************************************************************************//**
 614:Generated_Source\PSoC6/CapSense_Processing.c **** *
ARM GAS  C:\Users\Austina\AppData\Local\Temp\ccLgwUrp.s 			page 15


 615:Generated_Source\PSoC6/CapSense_Processing.c **** * \brief
 616:Generated_Source\PSoC6/CapSense_Processing.c **** *   Performs customized processing of the CSX sensor raw counts.
 617:Generated_Source\PSoC6/CapSense_Processing.c **** *
 618:Generated_Source\PSoC6/CapSense_Processing.c **** * \details
 619:Generated_Source\PSoC6/CapSense_Processing.c **** *   Performs customized processing of the CSX sensor raw counts.
 620:Generated_Source\PSoC6/CapSense_Processing.c **** *
 621:Generated_Source\PSoC6/CapSense_Processing.c **** *   If all bits are set at once the default processing order will take place.
 622:Generated_Source\PSoC6/CapSense_Processing.c **** *   For the custom order this API can be called multiple times and execute one task at a time.
 623:Generated_Source\PSoC6/CapSense_Processing.c **** *
 624:Generated_Source\PSoC6/CapSense_Processing.c **** * \param ptrFlashWdgt The pointer to the Flash Widget Object.
 625:Generated_Source\PSoC6/CapSense_Processing.c **** * \param curSnsPtr    The pointer to the specific RAM Sensor Object.
 626:Generated_Source\PSoC6/CapSense_Processing.c **** * \param fltrHistV    The pointer to the Filter History Object in RAM associated with specific sens
 627:Generated_Source\PSoC6/CapSense_Processing.c **** * \param mode         The bit-mask with the data processing tasks to be executed.
 628:Generated_Source\PSoC6/CapSense_Processing.c **** *   The mode parameters can take the following values:
 629:Generated_Source\PSoC6/CapSense_Processing.c **** *    - CapSense_PROCESS_FILTER     (0x01) Run Firmware Filter
 630:Generated_Source\PSoC6/CapSense_Processing.c **** *    - CapSense_PROCESS_BASELINE   (0x02) Update Baselines
 631:Generated_Source\PSoC6/CapSense_Processing.c **** *    - CapSense_PROCESS_DIFFCOUNTS (0x04) Update Difference Counts
 632:Generated_Source\PSoC6/CapSense_Processing.c **** *    - CapSense_PROCESS_ALL               Execute all tasks
 633:Generated_Source\PSoC6/CapSense_Processing.c **** *
 634:Generated_Source\PSoC6/CapSense_Processing.c **** * \return
 635:Generated_Source\PSoC6/CapSense_Processing.c **** *  Returns the status of the specified sensor processing operation:
 636:Generated_Source\PSoC6/CapSense_Processing.c **** *  - CY_RET_SUCCESS if operation was successfully completed;
 637:Generated_Source\PSoC6/CapSense_Processing.c **** *  - CapSense_PROCESS_BASELINE_FAILED if baseline processing of any
 638:Generated_Source\PSoC6/CapSense_Processing.c **** *    sensor of the specified widget failed. The result is concatenated with the index
 639:Generated_Source\PSoC6/CapSense_Processing.c **** *    of failed sensor.
 640:Generated_Source\PSoC6/CapSense_Processing.c **** *
 641:Generated_Source\PSoC6/CapSense_Processing.c **** *******************************************************************************/
 642:Generated_Source\PSoC6/CapSense_Processing.c **** uint32 CapSense_DpProcessCsxSensorRawCountsExt(
 643:Generated_Source\PSoC6/CapSense_Processing.c ****                 CapSense_FLASH_WD_STRUCT const *ptrFlashWdgt,
 644:Generated_Source\PSoC6/CapSense_Processing.c ****                 CapSense_RAM_SNS_STRUCT *curSnsPtr,
 645:Generated_Source\PSoC6/CapSense_Processing.c ****                 CapSense_PTR_FILTER_VARIANT fltrHistV,
 646:Generated_Source\PSoC6/CapSense_Processing.c ****                 uint32 mode)
 647:Generated_Source\PSoC6/CapSense_Processing.c **** {
 648:Generated_Source\PSoC6/CapSense_Processing.c ****     uint32  result = CY_RET_SUCCESS;
 649:Generated_Source\PSoC6/CapSense_Processing.c ****     uint32  widgetType;
 650:Generated_Source\PSoC6/CapSense_Processing.c ****     CapSense_RAM_WD_BASE_STRUCT *ptrRamWdgt;
 651:Generated_Source\PSoC6/CapSense_Processing.c **** 
 652:Generated_Source\PSoC6/CapSense_Processing.c ****     widgetType = ptrFlashWdgt->wdgtType;
 653:Generated_Source\PSoC6/CapSense_Processing.c ****     ptrRamWdgt = (CapSense_RAM_WD_BASE_STRUCT *)ptrFlashWdgt->ptr2WdgtRam;
 654:Generated_Source\PSoC6/CapSense_Processing.c **** 
 655:Generated_Source\PSoC6/CapSense_Processing.c ****     #if (CapSense_ENABLE == CapSense_RC_FILTER_EN)
 656:Generated_Source\PSoC6/CapSense_Processing.c ****         if (0u != (mode & CapSense_PROCESS_FILTER))
 657:Generated_Source\PSoC6/CapSense_Processing.c ****         {
 658:Generated_Source\PSoC6/CapSense_Processing.c ****             CapSense_FtRunEnabledFiltersInternal(fltrHistV, curSnsPtr, widgetType);
 659:Generated_Source\PSoC6/CapSense_Processing.c ****             #if (CapSense_ALP_FILTER_EN)
 660:Generated_Source\PSoC6/CapSense_Processing.c ****                 CapSense_ConfigRunALPInternal(fltrHistV, ptrRamWdgt, curSnsPtr, widgetType);
 661:Generated_Source\PSoC6/CapSense_Processing.c ****             #endif
 662:Generated_Source\PSoC6/CapSense_Processing.c ****         }
 663:Generated_Source\PSoC6/CapSense_Processing.c ****     #else
 664:Generated_Source\PSoC6/CapSense_Processing.c ****         (void)fltrHistV; /* This parameter is unused in such configurations */
 665:Generated_Source\PSoC6/CapSense_Processing.c ****     #endif /* #if (CapSense_ENABLE == CapSense_RC_FILTER_EN) */
 666:Generated_Source\PSoC6/CapSense_Processing.c **** 
 667:Generated_Source\PSoC6/CapSense_Processing.c ****     if (0u != (mode & CapSense_PROCESS_BASELINE))
 668:Generated_Source\PSoC6/CapSense_Processing.c ****     {
 669:Generated_Source\PSoC6/CapSense_Processing.c ****         result = CapSense_FtUpdateBaseline(ptrRamWdgt, curSnsPtr, widgetType);
 670:Generated_Source\PSoC6/CapSense_Processing.c ****     }
 671:Generated_Source\PSoC6/CapSense_Processing.c **** 
ARM GAS  C:\Users\Austina\AppData\Local\Temp\ccLgwUrp.s 			page 16


 672:Generated_Source\PSoC6/CapSense_Processing.c ****     if (0u != (mode & CapSense_PROCESS_DIFFCOUNTS))
 673:Generated_Source\PSoC6/CapSense_Processing.c ****     {
 674:Generated_Source\PSoC6/CapSense_Processing.c ****         CapSense_DpUpdateDifferences(ptrRamWdgt, curSnsPtr);
 675:Generated_Source\PSoC6/CapSense_Processing.c ****     }
 676:Generated_Source\PSoC6/CapSense_Processing.c ****     return result;
 677:Generated_Source\PSoC6/CapSense_Processing.c **** }
 678:Generated_Source\PSoC6/CapSense_Processing.c **** 
 679:Generated_Source\PSoC6/CapSense_Processing.c **** 
 680:Generated_Source\PSoC6/CapSense_Processing.c **** /*******************************************************************************
 681:Generated_Source\PSoC6/CapSense_Processing.c **** * Function Name: CapSense_DpProcessCsxWidgetStatus
 682:Generated_Source\PSoC6/CapSense_Processing.c **** ****************************************************************************//**
 683:Generated_Source\PSoC6/CapSense_Processing.c **** *
 684:Generated_Source\PSoC6/CapSense_Processing.c **** * \brief
 685:Generated_Source\PSoC6/CapSense_Processing.c **** *   Updates the status of the CSX widget in the Data Structure.
 686:Generated_Source\PSoC6/CapSense_Processing.c **** *
 687:Generated_Source\PSoC6/CapSense_Processing.c **** * \details
 688:Generated_Source\PSoC6/CapSense_Processing.c **** *  This API determines the type of widget and runs the appropriate function
 689:Generated_Source\PSoC6/CapSense_Processing.c **** *  that implements the status update algorithm for this type of widget.
 690:Generated_Source\PSoC6/CapSense_Processing.c **** *
 691:Generated_Source\PSoC6/CapSense_Processing.c **** *  When the widget-specific processing completes this API updates the snsStatus
 692:Generated_Source\PSoC6/CapSense_Processing.c **** *  and wdgtStatus registers in the data structure. The wdgtStatus register
 693:Generated_Source\PSoC6/CapSense_Processing.c **** *  is a bitmask were each bit corresponds to the specific widget identified by
 694:Generated_Source\PSoC6/CapSense_Processing.c **** *  the widget index. When the bit is set the widget is active (touched);
 695:Generated_Source\PSoC6/CapSense_Processing.c **** *
 696:Generated_Source\PSoC6/CapSense_Processing.c **** *  Depending on the type of widget the snsStatus register may contain either
 697:Generated_Source\PSoC6/CapSense_Processing.c **** *  status of each widget node (active/non-active) or in case of the CSX Touchpad
 698:Generated_Source\PSoC6/CapSense_Processing.c **** *  is contains the number of touches. In both cases 0 means that widget is not
 699:Generated_Source\PSoC6/CapSense_Processing.c **** *  active.
 700:Generated_Source\PSoC6/CapSense_Processing.c **** *
 701:Generated_Source\PSoC6/CapSense_Processing.c **** * \param widgetId     The widget ID number.
 702:Generated_Source\PSoC6/CapSense_Processing.c **** * \param ptrFlashWdgt The pointer to the Flash Widget Object.
 703:Generated_Source\PSoC6/CapSense_Processing.c **** *
 704:Generated_Source\PSoC6/CapSense_Processing.c **** *******************************************************************************/
 705:Generated_Source\PSoC6/CapSense_Processing.c **** void CapSense_DpProcessCsxWidgetStatus(uint32 widgetId, CapSense_FLASH_WD_STRUCT const *ptrFlashWdg
 706:Generated_Source\PSoC6/CapSense_Processing.c **** {
 707:Generated_Source\PSoC6/CapSense_Processing.c ****     uint32 sensorStatus;
 708:Generated_Source\PSoC6/CapSense_Processing.c ****     uint32 wdStatusIndex;
 709:Generated_Source\PSoC6/CapSense_Processing.c ****     uint32 wdStatusMask;
 710:Generated_Source\PSoC6/CapSense_Processing.c ****     CapSense_WD_TYPE_ENUM widgetType;
 711:Generated_Source\PSoC6/CapSense_Processing.c **** 
 712:Generated_Source\PSoC6/CapSense_Processing.c ****     widgetType = (CapSense_WD_TYPE_ENUM)ptrFlashWdgt->wdgtType;
 713:Generated_Source\PSoC6/CapSense_Processing.c ****     sensorStatus = CapSense_dsRam.snsStatus[widgetId];
 714:Generated_Source\PSoC6/CapSense_Processing.c **** 
 715:Generated_Source\PSoC6/CapSense_Processing.c ****     switch (widgetType)
 716:Generated_Source\PSoC6/CapSense_Processing.c ****     {
 717:Generated_Source\PSoC6/CapSense_Processing.c ****     #if (0u != CapSense_BUTTON_WIDGET_EN)
 718:Generated_Source\PSoC6/CapSense_Processing.c ****         case CapSense_WD_BUTTON_E:
 719:Generated_Source\PSoC6/CapSense_Processing.c ****             sensorStatus = CapSense_DpProcessButton(sensorStatus, ptrFlashWdgt);
 720:Generated_Source\PSoC6/CapSense_Processing.c ****             break;
 721:Generated_Source\PSoC6/CapSense_Processing.c ****     #endif /* #if (0u != CapSense_BUTTON_WIDGET_EN) */
 722:Generated_Source\PSoC6/CapSense_Processing.c **** 
 723:Generated_Source\PSoC6/CapSense_Processing.c ****     #if (0u != CapSense_CSX_MATRIX_WIDGET_EN)
 724:Generated_Source\PSoC6/CapSense_Processing.c ****         case CapSense_WD_MATRIX_BUTTON_E:
 725:Generated_Source\PSoC6/CapSense_Processing.c ****             sensorStatus = CapSense_DpProcessButton(sensorStatus, ptrFlashWdgt);
 726:Generated_Source\PSoC6/CapSense_Processing.c ****             break;
 727:Generated_Source\PSoC6/CapSense_Processing.c ****     #endif /* #if (0u != CapSense_CSX_MATRIX_WIDGET_EN) */
 728:Generated_Source\PSoC6/CapSense_Processing.c **** 
ARM GAS  C:\Users\Austina\AppData\Local\Temp\ccLgwUrp.s 			page 17


 729:Generated_Source\PSoC6/CapSense_Processing.c ****     #if (0u != CapSense_CSX_TOUCHPAD_WIDGET_EN)
 730:Generated_Source\PSoC6/CapSense_Processing.c ****         case CapSense_WD_TOUCHPAD_E:
 731:Generated_Source\PSoC6/CapSense_Processing.c ****             sensorStatus = CapSense_DpProcessCsxTouchpad(sensorStatus, ptrFlashWdgt);
 732:Generated_Source\PSoC6/CapSense_Processing.c ****             break;
 733:Generated_Source\PSoC6/CapSense_Processing.c ****     #endif /* #if (0u != CapSense_CSX_TOUCHPAD_WIDGET_EN) */
 734:Generated_Source\PSoC6/CapSense_Processing.c **** 
 735:Generated_Source\PSoC6/CapSense_Processing.c ****     default:
 736:Generated_Source\PSoC6/CapSense_Processing.c ****         CY_ASSERT(0 != 0);
 737:Generated_Source\PSoC6/CapSense_Processing.c ****         break;
 738:Generated_Source\PSoC6/CapSense_Processing.c ****     }
 739:Generated_Source\PSoC6/CapSense_Processing.c **** 
 740:Generated_Source\PSoC6/CapSense_Processing.c ****     /* Update sensor status in the data structure */
 741:Generated_Source\PSoC6/CapSense_Processing.c ****     CapSense_dsRam.snsStatus[widgetId] = (CapSense_SNS_STS_TYPE)sensorStatus;
 742:Generated_Source\PSoC6/CapSense_Processing.c **** 
 743:Generated_Source\PSoC6/CapSense_Processing.c ****     /* The next two lines calculate index and bitmask of the widget status bit in the wdgtStatus ar
 744:Generated_Source\PSoC6/CapSense_Processing.c ****     wdStatusIndex = CapSense_GET_WDGT_STATUS_INDEX(widgetId);
 745:Generated_Source\PSoC6/CapSense_Processing.c ****     wdStatusMask = CapSense_GET_WDGT_STATUS_MASK(widgetId);
 746:Generated_Source\PSoC6/CapSense_Processing.c **** 
 747:Generated_Source\PSoC6/CapSense_Processing.c ****     /* Check if there are active sensors and update widget status accordingly */
 748:Generated_Source\PSoC6/CapSense_Processing.c ****     if (0u == sensorStatus)
 749:Generated_Source\PSoC6/CapSense_Processing.c ****     {
 750:Generated_Source\PSoC6/CapSense_Processing.c ****         CapSense_dsRam.wdgtStatus[wdStatusIndex] &= ~wdStatusMask;
 751:Generated_Source\PSoC6/CapSense_Processing.c ****     }
 752:Generated_Source\PSoC6/CapSense_Processing.c ****     else
 753:Generated_Source\PSoC6/CapSense_Processing.c ****     {
 754:Generated_Source\PSoC6/CapSense_Processing.c ****         CapSense_dsRam.wdgtStatus[wdStatusIndex] |= wdStatusMask;
 755:Generated_Source\PSoC6/CapSense_Processing.c ****     }
 756:Generated_Source\PSoC6/CapSense_Processing.c **** }
 757:Generated_Source\PSoC6/CapSense_Processing.c **** #endif /* #if CapSense_TOTAL_CSX_WIDGETS */
 758:Generated_Source\PSoC6/CapSense_Processing.c **** 
 759:Generated_Source\PSoC6/CapSense_Processing.c **** #if (0u != CapSense_TOTAL_CSD_WIDGETS)
 760:Generated_Source\PSoC6/CapSense_Processing.c **** /*******************************************************************************
 761:Generated_Source\PSoC6/CapSense_Processing.c **** * Function Name: CapSense_DpProcessCsdWidgetRawCounts
 762:Generated_Source\PSoC6/CapSense_Processing.c **** ****************************************************************************//**
 763:Generated_Source\PSoC6/CapSense_Processing.c **** *
 764:Generated_Source\PSoC6/CapSense_Processing.c **** * \brief
 765:Generated_Source\PSoC6/CapSense_Processing.c **** *   Performs default processing for the CSD widget raw counts.
 766:Generated_Source\PSoC6/CapSense_Processing.c **** *
 767:Generated_Source\PSoC6/CapSense_Processing.c **** * \details
 768:Generated_Source\PSoC6/CapSense_Processing.c **** *   Performs default processing for the CSD widget raw counts:
 769:Generated_Source\PSoC6/CapSense_Processing.c **** *    - Run Filters
 770:Generated_Source\PSoC6/CapSense_Processing.c **** *    - Update Thresholds (FW Auto-tuning)
 771:Generated_Source\PSoC6/CapSense_Processing.c **** *    - Update Baselines
 772:Generated_Source\PSoC6/CapSense_Processing.c **** *    - Update Differences.
 773:Generated_Source\PSoC6/CapSense_Processing.c **** *   The process is applied to all widget's sensors.
 774:Generated_Source\PSoC6/CapSense_Processing.c **** *
 775:Generated_Source\PSoC6/CapSense_Processing.c **** * \param ptrFlashWdgt The pointer to the Flash Widget Object.
 776:Generated_Source\PSoC6/CapSense_Processing.c **** *
 777:Generated_Source\PSoC6/CapSense_Processing.c **** * \return
 778:Generated_Source\PSoC6/CapSense_Processing.c **** *  Returns the status of the specified widget processing operation:
 779:Generated_Source\PSoC6/CapSense_Processing.c **** *  - CY_RET_SUCCESS if operation was successfully completed;
 780:Generated_Source\PSoC6/CapSense_Processing.c **** *  - CapSense_PROCESS_BASELINE_FAILED if baseline processing of any
 781:Generated_Source\PSoC6/CapSense_Processing.c **** *    sensor of the specified widget failed. The result is concatenated with the index
 782:Generated_Source\PSoC6/CapSense_Processing.c **** *    of failed sensor.
 783:Generated_Source\PSoC6/CapSense_Processing.c **** *
 784:Generated_Source\PSoC6/CapSense_Processing.c **** *******************************************************************************/
 785:Generated_Source\PSoC6/CapSense_Processing.c **** uint32 CapSense_DpProcessCsdWidgetRawCounts(CapSense_FLASH_WD_STRUCT const *ptrFlashWdgt)
ARM GAS  C:\Users\Austina\AppData\Local\Temp\ccLgwUrp.s 			page 18


 786:Generated_Source\PSoC6/CapSense_Processing.c **** {
 787:Generated_Source\PSoC6/CapSense_Processing.c ****     uint32  result = CY_RET_SUCCESS;
 788:Generated_Source\PSoC6/CapSense_Processing.c **** 
 789:Generated_Source\PSoC6/CapSense_Processing.c ****     #if (CapSense_ENABLE == CapSense_TST_BSLN_DUPLICATION_EN)
 790:Generated_Source\PSoC6/CapSense_Processing.c ****         uint32 bslnTstResult = CY_RET_SUCCESS;
 791:Generated_Source\PSoC6/CapSense_Processing.c ****     #endif /* (CapSense_ENABLE == CapSense_TST_BSLN_DUPLICATION_EN) */
 792:Generated_Source\PSoC6/CapSense_Processing.c **** 
 793:Generated_Source\PSoC6/CapSense_Processing.c ****     uint32  widgetType;
 794:Generated_Source\PSoC6/CapSense_Processing.c ****     uint32  snsId;
 795:Generated_Source\PSoC6/CapSense_Processing.c ****     CapSense_RAM_SNS_STRUCT *ptrSnsTmp;
 796:Generated_Source\PSoC6/CapSense_Processing.c ****     CapSense_RAM_WD_BASE_STRUCT *ptrRamWdgt;
 797:Generated_Source\PSoC6/CapSense_Processing.c **** 
 798:Generated_Source\PSoC6/CapSense_Processing.c ****     #if (0u != (CapSense_CSD_AUTOTUNE & CapSense_CSD_SS_TH_EN))
 799:Generated_Source\PSoC6/CapSense_Processing.c ****         /* The noise envelope data is available only when Full CSD Auto-Tuning is enabled */
 800:Generated_Source\PSoC6/CapSense_Processing.c ****         SMARTSENSE_CSD_NOISE_ENVELOPE_STRUCT *ptrNoiseEnvelope;
 801:Generated_Source\PSoC6/CapSense_Processing.c ****         #if (CapSense_ENABLE == CapSense_PROXIMITY_WIDGET_EN)
 802:Generated_Source\PSoC6/CapSense_Processing.c ****             uint32  proximityThreshold;
 803:Generated_Source\PSoC6/CapSense_Processing.c ****         #endif /* (0 != CapSense_PROXIMITY_WIDGET_EN) */
 804:Generated_Source\PSoC6/CapSense_Processing.c ****     #endif /* #if (0u != (CapSense_CSD_AUTOTUNE & CapSense_CSD_SS_TH_EN)) */
 805:Generated_Source\PSoC6/CapSense_Processing.c **** 
 806:Generated_Source\PSoC6/CapSense_Processing.c ****     #if (CapSense_ENABLE == CapSense_RC_FILTER_EN)
 807:Generated_Source\PSoC6/CapSense_Processing.c ****         CapSense_PTR_FILTER_VARIANT fltrHistV;
 808:Generated_Source\PSoC6/CapSense_Processing.c **** 
 809:Generated_Source\PSoC6/CapSense_Processing.c ****         /* Determine if widget type is proximity */
 810:Generated_Source\PSoC6/CapSense_Processing.c ****         uint32 isProxWdgt = (CapSense_GET_WIDGET_TYPE(ptrFlashWdgt) == CapSense_WD_PROXIMITY_E) ? 1
 811:Generated_Source\PSoC6/CapSense_Processing.c **** 
 812:Generated_Source\PSoC6/CapSense_Processing.c ****         /* Get pointer to the filter history object */
 813:Generated_Source\PSoC6/CapSense_Processing.c ****         fltrHistV.ptr = ptrFlashWdgt->ptr2FltrHistory;
 814:Generated_Source\PSoC6/CapSense_Processing.c ****     #endif /* #if (CapSense_ENABLE == CapSense_RC_FILTER_EN) */
 815:Generated_Source\PSoC6/CapSense_Processing.c **** 
 816:Generated_Source\PSoC6/CapSense_Processing.c ****     ptrSnsTmp = ptrFlashWdgt->ptr2SnsRam;
 817:Generated_Source\PSoC6/CapSense_Processing.c ****     ptrRamWdgt = (CapSense_RAM_WD_BASE_STRUCT *)ptrFlashWdgt->ptr2WdgtRam;
 818:Generated_Source\PSoC6/CapSense_Processing.c ****     widgetType = ptrFlashWdgt->wdgtType;
 819:Generated_Source\PSoC6/CapSense_Processing.c **** 
 820:Generated_Source\PSoC6/CapSense_Processing.c ****     #if (0u != (CapSense_CSD_AUTOTUNE & CapSense_CSD_SS_TH_EN))
 821:Generated_Source\PSoC6/CapSense_Processing.c ****         ptrNoiseEnvelope = ptrFlashWdgt->ptr2NoiseEnvlp;
 822:Generated_Source\PSoC6/CapSense_Processing.c ****     #endif /* #if (0u != (CapSense_CSD_AUTOTUNE & CapSense_CSD_SS_TH_EN)) */
 823:Generated_Source\PSoC6/CapSense_Processing.c **** 
 824:Generated_Source\PSoC6/CapSense_Processing.c ****     /* Iterate through all widget's sensors */
 825:Generated_Source\PSoC6/CapSense_Processing.c ****     for(snsId = 0u; snsId < ptrFlashWdgt->totalNumSns; snsId++)
 826:Generated_Source\PSoC6/CapSense_Processing.c ****     {
 827:Generated_Source\PSoC6/CapSense_Processing.c ****         /* Run all enabled filter on specified widget's sensor */
 828:Generated_Source\PSoC6/CapSense_Processing.c ****         #if (CapSense_ENABLE == CapSense_RC_FILTER_EN)
 829:Generated_Source\PSoC6/CapSense_Processing.c ****             CapSense_FtRunEnabledFiltersInternal(fltrHistV, ptrSnsTmp, widgetType);
 830:Generated_Source\PSoC6/CapSense_Processing.c ****             #if (CapSense_ALP_FILTER_EN)
 831:Generated_Source\PSoC6/CapSense_Processing.c ****                 CapSense_ConfigRunALPInternal(fltrHistV, ptrRamWdgt, ptrSnsTmp, widgetType);
 832:Generated_Source\PSoC6/CapSense_Processing.c ****             #endif
 833:Generated_Source\PSoC6/CapSense_Processing.c ****         #endif /* #if (CapSense_ENABLE == CapSense_RC_FILTER_EN) */
 834:Generated_Source\PSoC6/CapSense_Processing.c **** 
 835:Generated_Source\PSoC6/CapSense_Processing.c ****         /* Run auto-tuning activities */
 836:Generated_Source\PSoC6/CapSense_Processing.c ****         #if (0u != (CapSense_CSD_AUTOTUNE & CapSense_CSD_SS_TH_EN))
 837:Generated_Source\PSoC6/CapSense_Processing.c ****             SmartSense_RunNoiseEnvelope(ptrSnsTmp->raw[0u], ptrRamWdgt->sigPFC, ptrNoiseEnvelope);
 838:Generated_Source\PSoC6/CapSense_Processing.c ****             CapSense_DpUpdateThresholds(ptrRamWdgt, ptrNoiseEnvelope, snsId);
 839:Generated_Source\PSoC6/CapSense_Processing.c **** 
 840:Generated_Source\PSoC6/CapSense_Processing.c ****             /* Calculate Proximity Touch Threshold in SmartSense mode based on Finger Threshold and
 841:Generated_Source\PSoC6/CapSense_Processing.c ****             #if (CapSense_ENABLE == CapSense_PROXIMITY_WIDGET_EN)
 842:Generated_Source\PSoC6/CapSense_Processing.c ****                 if (CapSense_WD_PROXIMITY_E == CapSense_GET_WIDGET_TYPE(ptrFlashWdgt))
ARM GAS  C:\Users\Austina\AppData\Local\Temp\ccLgwUrp.s 			page 19


 843:Generated_Source\PSoC6/CapSense_Processing.c ****                 {
 844:Generated_Source\PSoC6/CapSense_Processing.c ****                     proximityThreshold = ((uint32)ptrRamWdgt->fingerTh * CapSense_PROX_TOUCH_COEFF)
 845:Generated_Source\PSoC6/CapSense_Processing.c ****                     if ((((1Lu) << CapSense_THRESHOLD_SIZE) - 1u) < proximityThreshold)
 846:Generated_Source\PSoC6/CapSense_Processing.c ****                     {
 847:Generated_Source\PSoC6/CapSense_Processing.c ****                         proximityThreshold = ((1Lu) << CapSense_THRESHOLD_SIZE) - 1u;
 848:Generated_Source\PSoC6/CapSense_Processing.c ****                     }
 849:Generated_Source\PSoC6/CapSense_Processing.c ****                     ((CapSense_RAM_WD_PROXIMITY_STRUCT *)ptrFlashWdgt->ptr2WdgtRam)->proxTouchTh =
 850:Generated_Source\PSoC6/CapSense_Processing.c ****                         (CapSense_THRESHOLD_TYPE)proximityThreshold;
 851:Generated_Source\PSoC6/CapSense_Processing.c ****                 }
 852:Generated_Source\PSoC6/CapSense_Processing.c ****             #endif /* (0 != CapSense_PROXIMITY_WIDGET_EN) */
 853:Generated_Source\PSoC6/CapSense_Processing.c **** 
 854:Generated_Source\PSoC6/CapSense_Processing.c ****             /* Move to next noise-envelope object */
 855:Generated_Source\PSoC6/CapSense_Processing.c ****             ptrNoiseEnvelope++;
 856:Generated_Source\PSoC6/CapSense_Processing.c ****         #endif /* (0u != (CapSense_CSD_AUTOTUNE & CapSense_CSD_SS_TH_EN)) */
 857:Generated_Source\PSoC6/CapSense_Processing.c **** 
 858:Generated_Source\PSoC6/CapSense_Processing.c ****         #if (CapSense_ENABLE == CapSense_TST_BSLN_DUPLICATION_EN)
 859:Generated_Source\PSoC6/CapSense_Processing.c ****             bslnTstResult = CapSense_FtUpdateBaseline(ptrRamWdgt, ptrSnsTmp, widgetType);
 860:Generated_Source\PSoC6/CapSense_Processing.c ****             if ((CY_RET_SUCCESS != bslnTstResult) && (CY_RET_SUCCESS == result))
 861:Generated_Source\PSoC6/CapSense_Processing.c ****             {
 862:Generated_Source\PSoC6/CapSense_Processing.c ****                 result = snsId | CapSense_PROCESS_BASELINE_FAILED;
 863:Generated_Source\PSoC6/CapSense_Processing.c ****             }
 864:Generated_Source\PSoC6/CapSense_Processing.c ****         #else /* (CapSense_ENABLE == CapSense_TST_BSLN_DUPLICATION_EN) */
 865:Generated_Source\PSoC6/CapSense_Processing.c ****             result = CapSense_FtUpdateBaseline(ptrRamWdgt, ptrSnsTmp, widgetType);
 866:Generated_Source\PSoC6/CapSense_Processing.c ****         #endif /* (CapSense_ENABLE == CapSense_TST_BSLN_DUPLICATION_EN) */
 867:Generated_Source\PSoC6/CapSense_Processing.c **** 
 868:Generated_Source\PSoC6/CapSense_Processing.c ****         CapSense_DpUpdateDifferences(ptrRamWdgt, ptrSnsTmp);
 869:Generated_Source\PSoC6/CapSense_Processing.c **** 
 870:Generated_Source\PSoC6/CapSense_Processing.c ****         /* Move to next sensor object */
 871:Generated_Source\PSoC6/CapSense_Processing.c ****         ptrSnsTmp++;
 872:Generated_Source\PSoC6/CapSense_Processing.c **** 
 873:Generated_Source\PSoC6/CapSense_Processing.c ****         #if (CapSense_ENABLE == CapSense_RC_FILTER_EN)
 874:Generated_Source\PSoC6/CapSense_Processing.c ****             /* Move to the next filter history object */
 875:Generated_Source\PSoC6/CapSense_Processing.c ****             CapSense_INC_FLTR_OBJ_VARIANT(isProxWdgt, fltrHistV);
 876:Generated_Source\PSoC6/CapSense_Processing.c ****         #endif /* #if (CapSense_ENABLE == CapSense_RC_FILTER_EN) */
 877:Generated_Source\PSoC6/CapSense_Processing.c ****     }
 878:Generated_Source\PSoC6/CapSense_Processing.c ****     return result;
 879:Generated_Source\PSoC6/CapSense_Processing.c **** }
 880:Generated_Source\PSoC6/CapSense_Processing.c **** 
 881:Generated_Source\PSoC6/CapSense_Processing.c **** 
 882:Generated_Source\PSoC6/CapSense_Processing.c **** /*******************************************************************************
 883:Generated_Source\PSoC6/CapSense_Processing.c **** * Function Name: CapSense_DpProcessCsdSensorRawCountsExt
 884:Generated_Source\PSoC6/CapSense_Processing.c **** ****************************************************************************//**
 885:Generated_Source\PSoC6/CapSense_Processing.c **** *
 886:Generated_Source\PSoC6/CapSense_Processing.c **** * \brief
 887:Generated_Source\PSoC6/CapSense_Processing.c **** *   Performs customized processing of the CSD sensor raw counts.
 888:Generated_Source\PSoC6/CapSense_Processing.c **** *
 889:Generated_Source\PSoC6/CapSense_Processing.c **** * \details
 890:Generated_Source\PSoC6/CapSense_Processing.c **** *   Performs customized processing of the CSD sensor raw counts.
 891:Generated_Source\PSoC6/CapSense_Processing.c **** *
 892:Generated_Source\PSoC6/CapSense_Processing.c **** *   Note that this API updates data associated only with the sensor. It cannot be used to update
 893:Generated_Source\PSoC6/CapSense_Processing.c **** *   widget status.
 894:Generated_Source\PSoC6/CapSense_Processing.c **** *
 895:Generated_Source\PSoC6/CapSense_Processing.c **** * \param ptrFlashWdgt The pointer to the Flash widget structure.
 896:Generated_Source\PSoC6/CapSense_Processing.c **** * \param curSnsPtr    The pointer to the sensor object in RAM.
 897:Generated_Source\PSoC6/CapSense_Processing.c **** * \param fltrHistV    The pointer to the Filter History Object in RAM.
 898:Generated_Source\PSoC6/CapSense_Processing.c **** * \param mode         The bit-mask with the data processing tasks to be executed.
 899:Generated_Source\PSoC6/CapSense_Processing.c **** *   The mode parameters can take the following values:
ARM GAS  C:\Users\Austina\AppData\Local\Temp\ccLgwUrp.s 			page 20


 900:Generated_Source\PSoC6/CapSense_Processing.c **** *    - CapSense_PROCESS_FILTER     (0x01) Run Firmware Filter
 901:Generated_Source\PSoC6/CapSense_Processing.c **** *    - CapSense_PROCESS_BASELINE   (0x02) Update Baselines
 902:Generated_Source\PSoC6/CapSense_Processing.c **** *    - CapSense_PROCESS_DIFFCOUNTS (0x04) Update Difference Counts
 903:Generated_Source\PSoC6/CapSense_Processing.c **** *    - CapSense_PROCESS_CALC_NOISE (0x08) Calculate Noise (only if FW Tuning is enabled)
 904:Generated_Source\PSoC6/CapSense_Processing.c **** *    - CapSense_PROCESS_THRESHOLDS (0x10) Update Thresholds (only if FW Tuning is enabled)
 905:Generated_Source\PSoC6/CapSense_Processing.c **** *    - CapSense_PROCESS_ALL               Execute all tasks
 906:Generated_Source\PSoC6/CapSense_Processing.c **** *
 907:Generated_Source\PSoC6/CapSense_Processing.c **** * \return
 908:Generated_Source\PSoC6/CapSense_Processing.c **** *  Returns the status of the specified sensor processing operation:
 909:Generated_Source\PSoC6/CapSense_Processing.c **** *  - CY_RET_SUCCESS if operation was successfully completed;
 910:Generated_Source\PSoC6/CapSense_Processing.c **** *  - CapSense_PROCESS_BASELINE_FAILED if baseline processing of any
 911:Generated_Source\PSoC6/CapSense_Processing.c **** *    sensor of the specified widget failed. The result is concatenated with the index
 912:Generated_Source\PSoC6/CapSense_Processing.c **** *    of failed sensor.
 913:Generated_Source\PSoC6/CapSense_Processing.c **** *
 914:Generated_Source\PSoC6/CapSense_Processing.c **** *******************************************************************************/
 915:Generated_Source\PSoC6/CapSense_Processing.c **** uint32 CapSense_DpProcessCsdSensorRawCountsExt(
 916:Generated_Source\PSoC6/CapSense_Processing.c ****                 CapSense_FLASH_WD_STRUCT const *ptrFlashWdgt,
 917:Generated_Source\PSoC6/CapSense_Processing.c ****                 CapSense_RAM_SNS_STRUCT *curSnsPtr,
 918:Generated_Source\PSoC6/CapSense_Processing.c ****                 CapSense_PTR_FILTER_VARIANT fltrHistV,
 919:Generated_Source\PSoC6/CapSense_Processing.c ****                  uint32 mode)
 920:Generated_Source\PSoC6/CapSense_Processing.c **** {
 921:Generated_Source\PSoC6/CapSense_Processing.c ****     uint32 result = CY_RET_SUCCESS;
 922:Generated_Source\PSoC6/CapSense_Processing.c ****     uint32  widgetType;
 923:Generated_Source\PSoC6/CapSense_Processing.c ****     CapSense_RAM_WD_BASE_STRUCT *ptrRamWdgt;
 924:Generated_Source\PSoC6/CapSense_Processing.c **** 
 925:Generated_Source\PSoC6/CapSense_Processing.c ****     #if (0u != (CapSense_CSD_AUTOTUNE & CapSense_CSD_SS_TH_EN))
 926:Generated_Source\PSoC6/CapSense_Processing.c ****         SMARTSENSE_CSD_NOISE_ENVELOPE_STRUCT *ptrNoiseEnvelope;
 927:Generated_Source\PSoC6/CapSense_Processing.c ****         #if (CapSense_ENABLE == CapSense_PROXIMITY_WIDGET_EN)
 928:Generated_Source\PSoC6/CapSense_Processing.c ****             uint32  proximityThreshold;
 929:Generated_Source\PSoC6/CapSense_Processing.c ****         #endif /* (0 != CapSense_PROXIMITY_WIDGET_EN) */
 930:Generated_Source\PSoC6/CapSense_Processing.c **** 
 931:Generated_Source\PSoC6/CapSense_Processing.c ****         /* Need to specify pointer to corresponding sensor's noise-envelope object.*/
 932:Generated_Source\PSoC6/CapSense_Processing.c ****         ptrNoiseEnvelope = ptrFlashWdgt->ptr2NoiseEnvlp;
 933:Generated_Source\PSoC6/CapSense_Processing.c ****     #endif /* (0u != (CapSense_CSD_AUTOTUNE & CapSense_CSD_SS_TH_EN)) */
 934:Generated_Source\PSoC6/CapSense_Processing.c **** 
 935:Generated_Source\PSoC6/CapSense_Processing.c ****     widgetType = ptrFlashWdgt->wdgtType;
 936:Generated_Source\PSoC6/CapSense_Processing.c ****     ptrRamWdgt = (CapSense_RAM_WD_BASE_STRUCT *)ptrFlashWdgt->ptr2WdgtRam;
 937:Generated_Source\PSoC6/CapSense_Processing.c **** 
 938:Generated_Source\PSoC6/CapSense_Processing.c ****     #if (CapSense_ENABLE == CapSense_RC_FILTER_EN)
 939:Generated_Source\PSoC6/CapSense_Processing.c ****         if (0u != (mode & CapSense_PROCESS_FILTER))
 940:Generated_Source\PSoC6/CapSense_Processing.c ****         {
 941:Generated_Source\PSoC6/CapSense_Processing.c ****             CapSense_FtRunEnabledFiltersInternal(fltrHistV, curSnsPtr, widgetType);
 942:Generated_Source\PSoC6/CapSense_Processing.c ****             #if (CapSense_ALP_FILTER_EN)
 943:Generated_Source\PSoC6/CapSense_Processing.c ****                 CapSense_ConfigRunALPInternal(fltrHistV, ptrRamWdgt, curSnsPtr, widgetType);
 944:Generated_Source\PSoC6/CapSense_Processing.c ****             #endif
 945:Generated_Source\PSoC6/CapSense_Processing.c ****         }
 946:Generated_Source\PSoC6/CapSense_Processing.c ****     #else
 947:Generated_Source\PSoC6/CapSense_Processing.c ****         (void)fltrHistV; /* This parameter is unused in such configurations */
 948:Generated_Source\PSoC6/CapSense_Processing.c ****     #endif /* #if (CapSense_ENABLE == CapSense_RC_FILTER_EN) */
 949:Generated_Source\PSoC6/CapSense_Processing.c **** 
 950:Generated_Source\PSoC6/CapSense_Processing.c ****     #if (0u != (CapSense_CSD_AUTOTUNE & CapSense_CSD_SS_TH_EN))
 951:Generated_Source\PSoC6/CapSense_Processing.c ****         if (0u != (mode & CapSense_PROCESS_CALC_NOISE))
 952:Generated_Source\PSoC6/CapSense_Processing.c ****         {
 953:Generated_Source\PSoC6/CapSense_Processing.c ****             SmartSense_RunNoiseEnvelope(curSnsPtr->raw[0u], ptrRamWdgt->sigPFC, ptrNoiseEnvelope);
 954:Generated_Source\PSoC6/CapSense_Processing.c ****         }
 955:Generated_Source\PSoC6/CapSense_Processing.c **** 
 956:Generated_Source\PSoC6/CapSense_Processing.c ****         if (0u != (mode & CapSense_PROCESS_THRESHOLDS))
ARM GAS  C:\Users\Austina\AppData\Local\Temp\ccLgwUrp.s 			page 21


 957:Generated_Source\PSoC6/CapSense_Processing.c ****         {
 958:Generated_Source\PSoC6/CapSense_Processing.c ****             CapSense_DpUpdateThresholds(ptrRamWdgt, ptrNoiseEnvelope, 0u);
 959:Generated_Source\PSoC6/CapSense_Processing.c **** 
 960:Generated_Source\PSoC6/CapSense_Processing.c ****             /* Calculate Proximity Touch Threshold in SmartSense mode based on Finger Threshold and
 961:Generated_Source\PSoC6/CapSense_Processing.c ****             #if (CapSense_ENABLE == CapSense_PROXIMITY_WIDGET_EN)
 962:Generated_Source\PSoC6/CapSense_Processing.c ****                 if (CapSense_WD_PROXIMITY_E == CapSense_GET_WIDGET_TYPE(ptrFlashWdgt))
 963:Generated_Source\PSoC6/CapSense_Processing.c ****                 {
 964:Generated_Source\PSoC6/CapSense_Processing.c ****                     proximityThreshold = ((uint32)ptrRamWdgt->fingerTh * CapSense_PROX_TOUCH_COEFF)
 965:Generated_Source\PSoC6/CapSense_Processing.c ****                     if ((((1Lu) << CapSense_THRESHOLD_SIZE) - 1u) < proximityThreshold)
 966:Generated_Source\PSoC6/CapSense_Processing.c ****                     {
 967:Generated_Source\PSoC6/CapSense_Processing.c ****                         proximityThreshold = ((1Lu) << CapSense_THRESHOLD_SIZE) - 1u;
 968:Generated_Source\PSoC6/CapSense_Processing.c ****                     }
 969:Generated_Source\PSoC6/CapSense_Processing.c ****                     ((CapSense_RAM_WD_PROXIMITY_STRUCT *)ptrFlashWdgt->ptr2WdgtRam)->proxTouchTh =
 970:Generated_Source\PSoC6/CapSense_Processing.c ****                         (CapSense_THRESHOLD_TYPE)proximityThreshold;
 971:Generated_Source\PSoC6/CapSense_Processing.c ****                 }
 972:Generated_Source\PSoC6/CapSense_Processing.c ****             #endif /* (0 != CapSense_PROXIMITY_WIDGET_EN) */
 973:Generated_Source\PSoC6/CapSense_Processing.c ****         }
 974:Generated_Source\PSoC6/CapSense_Processing.c ****     #endif /* #if (0u != (CapSense_CSD_AUTOTUNE & CapSense_CSD_SS_TH_EN)) */
 975:Generated_Source\PSoC6/CapSense_Processing.c **** 
 976:Generated_Source\PSoC6/CapSense_Processing.c ****     if (0u != (mode & CapSense_PROCESS_BASELINE))
 977:Generated_Source\PSoC6/CapSense_Processing.c ****     {
 978:Generated_Source\PSoC6/CapSense_Processing.c ****         result = CapSense_FtUpdateBaseline(ptrRamWdgt, curSnsPtr, widgetType);
 979:Generated_Source\PSoC6/CapSense_Processing.c ****     }
 980:Generated_Source\PSoC6/CapSense_Processing.c **** 
 981:Generated_Source\PSoC6/CapSense_Processing.c ****     if (0u != (mode & CapSense_PROCESS_DIFFCOUNTS))
 982:Generated_Source\PSoC6/CapSense_Processing.c ****     {
 983:Generated_Source\PSoC6/CapSense_Processing.c ****         CapSense_DpUpdateDifferences(ptrRamWdgt, curSnsPtr);
 984:Generated_Source\PSoC6/CapSense_Processing.c ****     }
 985:Generated_Source\PSoC6/CapSense_Processing.c ****     return result;
 986:Generated_Source\PSoC6/CapSense_Processing.c **** }
 987:Generated_Source\PSoC6/CapSense_Processing.c **** 
 988:Generated_Source\PSoC6/CapSense_Processing.c **** /*******************************************************************************
 989:Generated_Source\PSoC6/CapSense_Processing.c **** * Function Name: CapSense_DpProcessCsdWidgetStatus
 990:Generated_Source\PSoC6/CapSense_Processing.c **** ****************************************************************************//**
 991:Generated_Source\PSoC6/CapSense_Processing.c **** *
 992:Generated_Source\PSoC6/CapSense_Processing.c **** * \brief
 993:Generated_Source\PSoC6/CapSense_Processing.c **** *  Runs the status processing of the CSD widget and updates it in the Data Structure.
 994:Generated_Source\PSoC6/CapSense_Processing.c **** *
 995:Generated_Source\PSoC6/CapSense_Processing.c **** * \details
 996:Generated_Source\PSoC6/CapSense_Processing.c **** *  This API determines the widget type and calls the appropriate low-level processing
 997:Generated_Source\PSoC6/CapSense_Processing.c **** *  function. Based on the returned results it updates the widget and sensor
 998:Generated_Source\PSoC6/CapSense_Processing.c **** *  status in the data structure. Any widget specific registers like the centroid
 999:Generated_Source\PSoC6/CapSense_Processing.c **** *  position are updated directly in the low-level processing function.
1000:Generated_Source\PSoC6/CapSense_Processing.c **** *
1001:Generated_Source\PSoC6/CapSense_Processing.c **** *  When the widget-specific processing completes this API updates the snsStatus
1002:Generated_Source\PSoC6/CapSense_Processing.c **** *  and wdgtStatus registers in the data structure. The wdgtStatus register
1003:Generated_Source\PSoC6/CapSense_Processing.c **** *  is a bitmask were each bit corresponds to the specific widget identified by
1004:Generated_Source\PSoC6/CapSense_Processing.c **** *  the widget index. When the bit is set the widget is active (touched);
1005:Generated_Source\PSoC6/CapSense_Processing.c **** *
1006:Generated_Source\PSoC6/CapSense_Processing.c **** *  The snsStatus register for CSD widgets contains status of each widget sensor
1007:Generated_Source\PSoC6/CapSense_Processing.c **** *  (active/non-active). Each bit corresponds to one sensor. In case of the
1008:Generated_Source\PSoC6/CapSense_Processing.c **** *  Proximity widget two bits are used per sensor: one for proximity status and
1009:Generated_Source\PSoC6/CapSense_Processing.c **** *  second for the touch status.
1010:Generated_Source\PSoC6/CapSense_Processing.c **** *
1011:Generated_Source\PSoC6/CapSense_Processing.c **** * \param widgetId      The widget index number.
1012:Generated_Source\PSoC6/CapSense_Processing.c **** * \param ptrFlashWdgt  The pointer to the Flash widget structure.
1013:Generated_Source\PSoC6/CapSense_Processing.c **** *
ARM GAS  C:\Users\Austina\AppData\Local\Temp\ccLgwUrp.s 			page 22


1014:Generated_Source\PSoC6/CapSense_Processing.c **** *******************************************************************************/
1015:Generated_Source\PSoC6/CapSense_Processing.c **** void CapSense_DpProcessCsdWidgetStatus(uint32 widgetId, CapSense_FLASH_WD_STRUCT const *ptrFlashWdg
1016:Generated_Source\PSoC6/CapSense_Processing.c **** {
1017:Generated_Source\PSoC6/CapSense_Processing.c ****     uint32 sensorStatus;
1018:Generated_Source\PSoC6/CapSense_Processing.c ****     uint32 wdStatusIndex;
1019:Generated_Source\PSoC6/CapSense_Processing.c ****     uint32 wdStatusMask;
1020:Generated_Source\PSoC6/CapSense_Processing.c ****     CapSense_WD_TYPE_ENUM widgetType;
1021:Generated_Source\PSoC6/CapSense_Processing.c **** 
1022:Generated_Source\PSoC6/CapSense_Processing.c ****     widgetType = (CapSense_WD_TYPE_ENUM)ptrFlashWdgt->wdgtType;
1023:Generated_Source\PSoC6/CapSense_Processing.c ****     sensorStatus = CapSense_dsRam.snsStatus[widgetId];
1024:Generated_Source\PSoC6/CapSense_Processing.c **** 
1025:Generated_Source\PSoC6/CapSense_Processing.c ****     switch (widgetType)
1026:Generated_Source\PSoC6/CapSense_Processing.c ****     {
1027:Generated_Source\PSoC6/CapSense_Processing.c ****     #if (0u != CapSense_BUTTON_WIDGET_EN)
1028:Generated_Source\PSoC6/CapSense_Processing.c ****         case CapSense_WD_BUTTON_E:
1029:Generated_Source\PSoC6/CapSense_Processing.c ****             sensorStatus = CapSense_DpProcessButton(sensorStatus, ptrFlashWdgt);
1030:Generated_Source\PSoC6/CapSense_Processing.c ****             break;
1031:Generated_Source\PSoC6/CapSense_Processing.c ****     #endif /* #if (0u != CapSense_BUTTON_WIDGET_EN) */
1032:Generated_Source\PSoC6/CapSense_Processing.c **** 
1033:Generated_Source\PSoC6/CapSense_Processing.c ****     #if (0u != CapSense_SLIDER_WIDGET_EN)
1034:Generated_Source\PSoC6/CapSense_Processing.c ****         case CapSense_WD_LINEAR_SLIDER_E:
1035:Generated_Source\PSoC6/CapSense_Processing.c ****         case CapSense_WD_RADIAL_SLIDER_E:
1036:Generated_Source\PSoC6/CapSense_Processing.c ****             sensorStatus = CapSense_DpProcessSlider(sensorStatus, ptrFlashWdgt);
1037:Generated_Source\PSoC6/CapSense_Processing.c ****             break;
1038:Generated_Source\PSoC6/CapSense_Processing.c ****     #endif /* #if (0u != CapSense_SLIDER_WIDGET_EN) */
1039:Generated_Source\PSoC6/CapSense_Processing.c **** 
1040:Generated_Source\PSoC6/CapSense_Processing.c ****     #if (0u != CapSense_CSD_MATRIX_WIDGET_EN)
1041:Generated_Source\PSoC6/CapSense_Processing.c ****         case CapSense_WD_MATRIX_BUTTON_E:
1042:Generated_Source\PSoC6/CapSense_Processing.c ****             sensorStatus = CapSense_DpProcessCsdMatrix(sensorStatus, ptrFlashWdgt);
1043:Generated_Source\PSoC6/CapSense_Processing.c ****             break;
1044:Generated_Source\PSoC6/CapSense_Processing.c ****     #endif /* #if (0u != CapSense_CSD_MATRIX_WIDGET_EN) */
1045:Generated_Source\PSoC6/CapSense_Processing.c **** 
1046:Generated_Source\PSoC6/CapSense_Processing.c ****     #if (0u != CapSense_CSD_TOUCHPAD_WIDGET_EN)
1047:Generated_Source\PSoC6/CapSense_Processing.c ****         case CapSense_WD_TOUCHPAD_E:
1048:Generated_Source\PSoC6/CapSense_Processing.c ****             sensorStatus = CapSense_DpProcessCsdTouchpad(sensorStatus, ptrFlashWdgt);
1049:Generated_Source\PSoC6/CapSense_Processing.c ****             #if (0u != CapSense_BALLISTIC_MULTIPLIER_EN)
1050:Generated_Source\PSoC6/CapSense_Processing.c ****                 CapSense_RunBallisticMultiplier(widgetId);
1051:Generated_Source\PSoC6/CapSense_Processing.c ****             #endif /* (0u != CapSense_BALLISTIC_MULTIPLIER_EN) */
1052:Generated_Source\PSoC6/CapSense_Processing.c ****             break;
1053:Generated_Source\PSoC6/CapSense_Processing.c ****     #endif /* #if (0u != CapSense_CSD_TOUCHPAD_WIDGET_EN) */
1054:Generated_Source\PSoC6/CapSense_Processing.c **** 
1055:Generated_Source\PSoC6/CapSense_Processing.c ****     #if (0u != CapSense_PROXIMITY_WIDGET_EN)
1056:Generated_Source\PSoC6/CapSense_Processing.c ****         case CapSense_WD_PROXIMITY_E:
1057:Generated_Source\PSoC6/CapSense_Processing.c ****             sensorStatus = CapSense_DpProcessProximity(sensorStatus, ptrFlashWdgt);
1058:Generated_Source\PSoC6/CapSense_Processing.c ****             break;
1059:Generated_Source\PSoC6/CapSense_Processing.c ****     #endif /* #if (0u != CapSense_PROXIMITY_WIDGET_EN) */
1060:Generated_Source\PSoC6/CapSense_Processing.c **** 
1061:Generated_Source\PSoC6/CapSense_Processing.c ****     default:
1062:Generated_Source\PSoC6/CapSense_Processing.c ****         CY_ASSERT(0 != 0);
1063:Generated_Source\PSoC6/CapSense_Processing.c ****         break;
1064:Generated_Source\PSoC6/CapSense_Processing.c ****     }
1065:Generated_Source\PSoC6/CapSense_Processing.c **** 
1066:Generated_Source\PSoC6/CapSense_Processing.c ****     CapSense_dsRam.snsStatus[widgetId] = (CapSense_SNS_STS_TYPE)sensorStatus;
1067:Generated_Source\PSoC6/CapSense_Processing.c **** 
1068:Generated_Source\PSoC6/CapSense_Processing.c ****     /* The next two lines calculate index and bitmask of the widget status bit in the wdgtStatus ar
1069:Generated_Source\PSoC6/CapSense_Processing.c ****     wdStatusIndex = CapSense_GET_WDGT_STATUS_INDEX(widgetId);
1070:Generated_Source\PSoC6/CapSense_Processing.c ****     wdStatusMask = CapSense_GET_WDGT_STATUS_MASK(widgetId);
ARM GAS  C:\Users\Austina\AppData\Local\Temp\ccLgwUrp.s 			page 23


1071:Generated_Source\PSoC6/CapSense_Processing.c **** 
1072:Generated_Source\PSoC6/CapSense_Processing.c ****     /* Check if there are active sensors and update widget status accordingly */
1073:Generated_Source\PSoC6/CapSense_Processing.c ****     if (0u == sensorStatus)
1074:Generated_Source\PSoC6/CapSense_Processing.c ****     {
1075:Generated_Source\PSoC6/CapSense_Processing.c ****         CapSense_dsRam.wdgtStatus[wdStatusIndex] &= ~wdStatusMask;
1076:Generated_Source\PSoC6/CapSense_Processing.c ****     }
1077:Generated_Source\PSoC6/CapSense_Processing.c ****     else
1078:Generated_Source\PSoC6/CapSense_Processing.c ****     {
1079:Generated_Source\PSoC6/CapSense_Processing.c ****         CapSense_dsRam.wdgtStatus[wdStatusIndex] |= wdStatusMask;
1080:Generated_Source\PSoC6/CapSense_Processing.c ****     }
1081:Generated_Source\PSoC6/CapSense_Processing.c **** }
1082:Generated_Source\PSoC6/CapSense_Processing.c **** #endif /* #if (0u != CapSense_TOTAL_CSD_WIDGETS) */
1083:Generated_Source\PSoC6/CapSense_Processing.c **** 
1084:Generated_Source\PSoC6/CapSense_Processing.c **** 
1085:Generated_Source\PSoC6/CapSense_Processing.c **** #if (0 != (CapSense_CSD_AUTOTUNE & CapSense_CSD_SS_TH_EN))
1086:Generated_Source\PSoC6/CapSense_Processing.c **** /*******************************************************************************
1087:Generated_Source\PSoC6/CapSense_Processing.c **** * Function Name: CapSense_DpUpdateThresholds
1088:Generated_Source\PSoC6/CapSense_Processing.c **** ****************************************************************************//**
1089:Generated_Source\PSoC6/CapSense_Processing.c **** *
1090:Generated_Source\PSoC6/CapSense_Processing.c **** * \brief
1091:Generated_Source\PSoC6/CapSense_Processing.c **** *   Updates noise and finger thresholds for a specified widget.
1092:Generated_Source\PSoC6/CapSense_Processing.c **** *
1093:Generated_Source\PSoC6/CapSense_Processing.c **** * \details
1094:Generated_Source\PSoC6/CapSense_Processing.c **** *   Updates noise and finger thresholds for a specified widget.
1095:Generated_Source\PSoC6/CapSense_Processing.c **** *   This algorithm is a part of Auto-tuning feature.
1096:Generated_Source\PSoC6/CapSense_Processing.c **** *
1097:Generated_Source\PSoC6/CapSense_Processing.c **** * \param ptrRamWdgt       The pointer to the RAM widget object.
1098:Generated_Source\PSoC6/CapSense_Processing.c **** * \param ptrNoiseEnvelope The pointer to the noise-envelope object in RAM.
1099:Generated_Source\PSoC6/CapSense_Processing.c **** * \param startFlag        The flag indicates when new widget is processed.
1100:Generated_Source\PSoC6/CapSense_Processing.c **** *
1101:Generated_Source\PSoC6/CapSense_Processing.c **** *******************************************************************************/
1102:Generated_Source\PSoC6/CapSense_Processing.c **** void CapSense_DpUpdateThresholds(CapSense_RAM_WD_BASE_STRUCT *ptrRamWdgt,
1103:Generated_Source\PSoC6/CapSense_Processing.c ****                                          SMARTSENSE_CSD_NOISE_ENVELOPE_STRUCT *ptrNoiseEnvelope,
1104:Generated_Source\PSoC6/CapSense_Processing.c ****                                          uint32 startFlag)
1105:Generated_Source\PSoC6/CapSense_Processing.c **** {
 177              		.loc 1 1105 0
 178              		.cfi_startproc
 179              		@ args = 0, pretend = 0, frame = 8
 180              		@ frame_needed = 0, uses_anonymous_args = 0
 181              	.LVL21:
 182 0000 10B5     		push	{r4, lr}
 183              		.cfi_def_cfa_offset 8
 184              		.cfi_offset 4, -8
 185              		.cfi_offset 14, -4
 186 0002 82B0     		sub	sp, sp, #8
 187              		.cfi_def_cfa_offset 16
 188 0004 0446     		mov	r4, r0
 189 0006 0846     		mov	r0, r1
 190              	.LVL22:
1106:Generated_Source\PSoC6/CapSense_Processing.c ****     SMARTSENSE_UPDATE_THRESHOLDS_STRUCT thresholds;
1107:Generated_Source\PSoC6/CapSense_Processing.c ****     SMARTSENSE_UPDATE_THRESHOLDS_STRUCT *ptrThresholds = &thresholds;
1108:Generated_Source\PSoC6/CapSense_Processing.c ****     ptrThresholds->fingerTh = ptrRamWdgt->fingerTh;
 191              		.loc 1 1108 0
 192 0008 6388     		ldrh	r3, [r4, #2]
 193 000a 02A9     		add	r1, sp, #8
 194              	.LVL23:
 195 000c 21F8083D 		strh	r3, [r1, #-8]!	@ movhi
ARM GAS  C:\Users\Austina\AppData\Local\Temp\ccLgwUrp.s 			page 24


1109:Generated_Source\PSoC6/CapSense_Processing.c **** 
1110:Generated_Source\PSoC6/CapSense_Processing.c ****     SmartSense_UpdateThresholds(ptrNoiseEnvelope, ptrThresholds, ptrRamWdgt->sigPFC, startFlag);
 196              		.loc 1 1110 0
 197 0010 1346     		mov	r3, r2
 198 0012 228A     		ldrh	r2, [r4, #16]
 199              	.LVL24:
 200 0014 FFF7FEFF 		bl	SmartSense_UpdateThresholds
 201              	.LVL25:
1111:Generated_Source\PSoC6/CapSense_Processing.c **** 
1112:Generated_Source\PSoC6/CapSense_Processing.c ****     ptrRamWdgt->fingerTh = ptrThresholds->fingerTh;
 202              		.loc 1 1112 0
 203 0018 BDF80030 		ldrh	r3, [sp]
 204 001c 6380     		strh	r3, [r4, #2]	@ movhi
1113:Generated_Source\PSoC6/CapSense_Processing.c ****     ptrRamWdgt->noiseTh = ptrThresholds->noiseTh;
 205              		.loc 1 1113 0
 206 001e 9DF80230 		ldrb	r3, [sp, #2]	@ zero_extendqisi2
 207 0022 2371     		strb	r3, [r4, #4]
1114:Generated_Source\PSoC6/CapSense_Processing.c ****     ptrRamWdgt->nNoiseTh = ptrThresholds->nNoiseTh;
 208              		.loc 1 1114 0
 209 0024 9DF80330 		ldrb	r3, [sp, #3]	@ zero_extendqisi2
 210 0028 6371     		strb	r3, [r4, #5]
1115:Generated_Source\PSoC6/CapSense_Processing.c ****     ptrRamWdgt->hysteresis = ptrThresholds->hysteresis;
 211              		.loc 1 1115 0
 212 002a 9DF80430 		ldrb	r3, [sp, #4]	@ zero_extendqisi2
 213 002e A371     		strb	r3, [r4, #6]
1116:Generated_Source\PSoC6/CapSense_Processing.c **** }
 214              		.loc 1 1116 0
 215 0030 02B0     		add	sp, sp, #8
 216              		.cfi_def_cfa_offset 8
 217              	.LVL26:
 218              		@ sp needed
 219 0032 10BD     		pop	{r4, pc}
 220              		.cfi_endproc
 221              	.LFE133:
 222              		.size	CapSense_DpUpdateThresholds, .-CapSense_DpUpdateThresholds
 223              		.section	.text.CapSense_DpUpdateDifferences,"ax",%progbits
 224              		.align	2
 225              		.global	CapSense_DpUpdateDifferences
 226              		.thumb
 227              		.thumb_func
 228              		.type	CapSense_DpUpdateDifferences, %function
 229              	CapSense_DpUpdateDifferences:
 230              	.LFB134:
1117:Generated_Source\PSoC6/CapSense_Processing.c **** #endif /* #if (0u != (CapSense_CSD_AUTOTUNE & CapSense_CSD_SS_TH_EN)) */
1118:Generated_Source\PSoC6/CapSense_Processing.c **** 
1119:Generated_Source\PSoC6/CapSense_Processing.c **** 
1120:Generated_Source\PSoC6/CapSense_Processing.c **** /*******************************************************************************
1121:Generated_Source\PSoC6/CapSense_Processing.c **** * Function Name: CapSense_DpUpdateDifferences
1122:Generated_Source\PSoC6/CapSense_Processing.c **** ****************************************************************************//**
1123:Generated_Source\PSoC6/CapSense_Processing.c **** *
1124:Generated_Source\PSoC6/CapSense_Processing.c **** * \brief
1125:Generated_Source\PSoC6/CapSense_Processing.c **** *   Calculates new difference values.
1126:Generated_Source\PSoC6/CapSense_Processing.c **** *   Also, executes the multi-frequency scan algorithm if it is enabled.
1127:Generated_Source\PSoC6/CapSense_Processing.c **** *
1128:Generated_Source\PSoC6/CapSense_Processing.c **** * \details
1129:Generated_Source\PSoC6/CapSense_Processing.c **** *   This API calculates the difference between the baseline and raw counts.
1130:Generated_Source\PSoC6/CapSense_Processing.c **** *   If the difference is positive (raw > baseline), and higher than the widget
ARM GAS  C:\Users\Austina\AppData\Local\Temp\ccLgwUrp.s 			page 25


1131:Generated_Source\PSoC6/CapSense_Processing.c **** *   noise threshold, it is saved into the data structure for further processing.
1132:Generated_Source\PSoC6/CapSense_Processing.c **** *   Otherwise the difference is set to zero. The final difference value is saved
1133:Generated_Source\PSoC6/CapSense_Processing.c **** *   with the subtracted noise threshold value.
1134:Generated_Source\PSoC6/CapSense_Processing.c **** *
1135:Generated_Source\PSoC6/CapSense_Processing.c **** *   If the multi-frequency scan algorithm is enabled, the difference is calculated
1136:Generated_Source\PSoC6/CapSense_Processing.c **** *   for the three sets of data available for each sensor. Then
1137:Generated_Source\PSoC6/CapSense_Processing.c **** *   the median filter selects the final difference value.
1138:Generated_Source\PSoC6/CapSense_Processing.c **** *
1139:Generated_Source\PSoC6/CapSense_Processing.c **** * \param ptrRamWdgt The pointer to the RAR Widget Object.
1140:Generated_Source\PSoC6/CapSense_Processing.c **** * \param curSnsPtr  The pointer to the sensor object in RAM.
1141:Generated_Source\PSoC6/CapSense_Processing.c **** *
1142:Generated_Source\PSoC6/CapSense_Processing.c **** *******************************************************************************/
1143:Generated_Source\PSoC6/CapSense_Processing.c **** void CapSense_DpUpdateDifferences(
1144:Generated_Source\PSoC6/CapSense_Processing.c ****                         CapSense_RAM_WD_BASE_STRUCT *ptrRamWdgt,
1145:Generated_Source\PSoC6/CapSense_Processing.c ****                         CapSense_RAM_SNS_STRUCT *curSnsPtr)
1146:Generated_Source\PSoC6/CapSense_Processing.c **** {
 231              		.loc 1 1146 0
 232              		.cfi_startproc
 233              		@ args = 0, pretend = 0, frame = 0
 234              		@ frame_needed = 0, uses_anonymous_args = 0
 235              		@ link register save eliminated.
 236              	.LVL27:
 237 0000 30B4     		push	{r4, r5}
 238              		.cfi_def_cfa_offset 8
 239              		.cfi_offset 4, -8
 240              		.cfi_offset 5, -4
 241              	.LVL28:
1147:Generated_Source\PSoC6/CapSense_Processing.c ****     register int32 diffValue = 0;
1148:Generated_Source\PSoC6/CapSense_Processing.c **** 
1149:Generated_Source\PSoC6/CapSense_Processing.c ****     #if (0u != CapSense_MULTI_FREQ_SCAN_EN)
1150:Generated_Source\PSoC6/CapSense_Processing.c ****         register int32 diffValue_0 = 0;
1151:Generated_Source\PSoC6/CapSense_Processing.c ****         register int32 diffValue_2 = 0;
1152:Generated_Source\PSoC6/CapSense_Processing.c ****     #endif /* #if (0u != CapSense_MULTI_FREQ_SCAN_EN) */
1153:Generated_Source\PSoC6/CapSense_Processing.c **** 
1154:Generated_Source\PSoC6/CapSense_Processing.c ****     /* Calculate difference */
1155:Generated_Source\PSoC6/CapSense_Processing.c ****     diffValue = (int32)curSnsPtr->raw[0u] - (int32)curSnsPtr->bsln[0u];
 242              		.loc 1 1155 0
 243 0002 0B88     		ldrh	r3, [r1]
 244 0004 4A88     		ldrh	r2, [r1, #2]
 245 0006 9C1A     		subs	r4, r3, r2
 246              	.LVL29:
1156:Generated_Source\PSoC6/CapSense_Processing.c **** 
1157:Generated_Source\PSoC6/CapSense_Processing.c ****     #if (0u != CapSense_MULTI_FREQ_SCAN_EN)
1158:Generated_Source\PSoC6/CapSense_Processing.c ****         diffValue_0 = (int32)curSnsPtr->raw[1u] - (int32)curSnsPtr->bsln[1u];
1159:Generated_Source\PSoC6/CapSense_Processing.c ****         diffValue_2 = (int32)curSnsPtr->raw[2u] - (int32)curSnsPtr->bsln[2u];
1160:Generated_Source\PSoC6/CapSense_Processing.c **** 
1161:Generated_Source\PSoC6/CapSense_Processing.c ****         /* Find median and put it into [0u] element */
1162:Generated_Source\PSoC6/CapSense_Processing.c ****         if (diffValue_0 > diffValue)
1163:Generated_Source\PSoC6/CapSense_Processing.c ****         {
1164:Generated_Source\PSoC6/CapSense_Processing.c ****             register int32 swapv = diffValue_0;
1165:Generated_Source\PSoC6/CapSense_Processing.c ****             diffValue_0 = diffValue;
1166:Generated_Source\PSoC6/CapSense_Processing.c ****             diffValue = swapv;
1167:Generated_Source\PSoC6/CapSense_Processing.c ****         }
1168:Generated_Source\PSoC6/CapSense_Processing.c **** 
1169:Generated_Source\PSoC6/CapSense_Processing.c ****         if (diffValue > diffValue_2)
1170:Generated_Source\PSoC6/CapSense_Processing.c ****         {
1171:Generated_Source\PSoC6/CapSense_Processing.c ****             register int32 swapv = diffValue;
ARM GAS  C:\Users\Austina\AppData\Local\Temp\ccLgwUrp.s 			page 26


1172:Generated_Source\PSoC6/CapSense_Processing.c ****             diffValue = diffValue_2;
1173:Generated_Source\PSoC6/CapSense_Processing.c ****             diffValue_2 = swapv;
1174:Generated_Source\PSoC6/CapSense_Processing.c ****         }
1175:Generated_Source\PSoC6/CapSense_Processing.c **** 
1176:Generated_Source\PSoC6/CapSense_Processing.c ****         if (diffValue_0 > diffValue)
1177:Generated_Source\PSoC6/CapSense_Processing.c ****         {
1178:Generated_Source\PSoC6/CapSense_Processing.c ****             register int32 swapv = diffValue_0;
1179:Generated_Source\PSoC6/CapSense_Processing.c ****             diffValue_0 = diffValue;
1180:Generated_Source\PSoC6/CapSense_Processing.c ****             diffValue = swapv;
1181:Generated_Source\PSoC6/CapSense_Processing.c ****         }
1182:Generated_Source\PSoC6/CapSense_Processing.c ****     #endif /* #if (0u != CapSense_MULTI_FREQ_SCAN_EN) */
1183:Generated_Source\PSoC6/CapSense_Processing.c **** 
1184:Generated_Source\PSoC6/CapSense_Processing.c ****     curSnsPtr->diff = 0u;
 247              		.loc 1 1184 0
 248 0008 0025     		movs	r5, #0
 249 000a CD80     		strh	r5, [r1, #6]	@ movhi
1185:Generated_Source\PSoC6/CapSense_Processing.c **** 
1186:Generated_Source\PSoC6/CapSense_Processing.c ****     if (diffValue > (int32)ptrRamWdgt->noiseTh)
 250              		.loc 1 1186 0
 251 000c 0079     		ldrb	r0, [r0, #4]	@ zero_extendqisi2
 252              	.LVL30:
 253 000e 8442     		cmp	r4, r0
 254 0010 00DD     		ble	.L19
1187:Generated_Source\PSoC6/CapSense_Processing.c ****     {
1188:Generated_Source\PSoC6/CapSense_Processing.c ****         curSnsPtr->diff = (CapSense_THRESHOLD_TYPE) diffValue;
 255              		.loc 1 1188 0
 256 0012 CC80     		strh	r4, [r1, #6]	@ movhi
 257              	.L19:
1189:Generated_Source\PSoC6/CapSense_Processing.c ****     }
1190:Generated_Source\PSoC6/CapSense_Processing.c **** }
 258              		.loc 1 1190 0
 259 0014 30BC     		pop	{r4, r5}
 260              		.cfi_restore 5
 261              		.cfi_restore 4
 262              		.cfi_def_cfa_offset 0
 263              	.LVL31:
 264 0016 7047     		bx	lr
 265              		.cfi_endproc
 266              	.LFE134:
 267              		.size	CapSense_DpUpdateDifferences, .-CapSense_DpUpdateDifferences
 268              		.section	.text.CapSense_DpProcessCsxWidgetRawCounts,"ax",%progbits
 269              		.align	2
 270              		.global	CapSense_DpProcessCsxWidgetRawCounts
 271              		.thumb
 272              		.thumb_func
 273              		.type	CapSense_DpProcessCsxWidgetRawCounts, %function
 274              	CapSense_DpProcessCsxWidgetRawCounts:
 275              	.LFB127:
 555:Generated_Source\PSoC6/CapSense_Processing.c ****     uint32 result = CY_RET_SUCCESS;
 276              		.loc 1 555 0
 277              		.cfi_startproc
 278              		@ args = 0, pretend = 0, frame = 0
 279              		@ frame_needed = 0, uses_anonymous_args = 0
 280              	.LVL32:
 281 0000 2DE9F041 		push	{r4, r5, r6, r7, r8, lr}
 282              		.cfi_def_cfa_offset 24
 283              		.cfi_offset 4, -24
ARM GAS  C:\Users\Austina\AppData\Local\Temp\ccLgwUrp.s 			page 27


 284              		.cfi_offset 5, -20
 285              		.cfi_offset 6, -16
 286              		.cfi_offset 7, -12
 287              		.cfi_offset 8, -8
 288              		.cfi_offset 14, -4
 289              	.LVL33:
 568:Generated_Source\PSoC6/CapSense_Processing.c ****     snsCount = ptrFlashWdgt->totalNumSns;
 290              		.loc 1 568 0
 291 0004 8468     		ldr	r4, [r0, #8]
 292              	.LVL34:
 569:Generated_Source\PSoC6/CapSense_Processing.c ****     ptrRamWdgt = (CapSense_RAM_WD_BASE_STRUCT *)ptrFlashWdgt->ptr2WdgtRam;
 293              		.loc 1 569 0
 294 0006 038B     		ldrh	r3, [r0, #24]
 295              	.LVL35:
 570:Generated_Source\PSoC6/CapSense_Processing.c ****     widgetType = ptrFlashWdgt->wdgtType;
 296              		.loc 1 570 0
 297 0008 4568     		ldr	r5, [r0, #4]
 298              	.LVL36:
 571:Generated_Source\PSoC6/CapSense_Processing.c **** 
 299              		.loc 1 571 0
 300 000a 90F81A80 		ldrb	r8, [r0, #26]	@ zero_extendqisi2
 301              	.LVL37:
 556:Generated_Source\PSoC6/CapSense_Processing.c ****     uint32 widgetType;
 302              		.loc 1 556 0
 303 000e 0027     		movs	r7, #0
 581:Generated_Source\PSoC6/CapSense_Processing.c ****     {
 304              		.loc 1 581 0
 305 0010 0BE0     		b	.L23
 306              	.LVL38:
 307              	.L24:
 590:Generated_Source\PSoC6/CapSense_Processing.c **** 
 308              		.loc 1 590 0
 309 0012 4246     		mov	r2, r8
 310 0014 2146     		mov	r1, r4
 311 0016 2846     		mov	r0, r5
 312 0018 FFF7FEFF 		bl	CapSense_FtUpdateBaseline
 313              	.LVL39:
 314 001c 0746     		mov	r7, r0
 315              	.LVL40:
 599:Generated_Source\PSoC6/CapSense_Processing.c **** 
 316              		.loc 1 599 0
 317 001e 2146     		mov	r1, r4
 318 0020 2846     		mov	r0, r5
 319              	.LVL41:
 320 0022 FFF7FEFF 		bl	CapSense_DpUpdateDifferences
 321              	.LVL42:
 602:Generated_Source\PSoC6/CapSense_Processing.c ****         
 322              		.loc 1 602 0
 323 0026 0A34     		adds	r4, r4, #10
 324              	.LVL43:
 581:Generated_Source\PSoC6/CapSense_Processing.c ****     {
 325              		.loc 1 581 0
 326 0028 3346     		mov	r3, r6
 327              	.LVL44:
 328              	.L23:
 329 002a 5E1E     		subs	r6, r3, #1
 330              	.LVL45:
ARM GAS  C:\Users\Austina\AppData\Local\Temp\ccLgwUrp.s 			page 28


 331 002c 002B     		cmp	r3, #0
 332 002e F0D1     		bne	.L24
 609:Generated_Source\PSoC6/CapSense_Processing.c **** 
 333              		.loc 1 609 0
 334 0030 3846     		mov	r0, r7
 335 0032 BDE8F081 		pop	{r4, r5, r6, r7, r8, pc}
 336              		.cfi_endproc
 337              	.LFE127:
 338              		.size	CapSense_DpProcessCsxWidgetRawCounts, .-CapSense_DpProcessCsxWidgetRawCounts
 339 0036 00BF     		.section	.text.CapSense_DpProcessCsxSensorRawCountsExt,"ax",%progbits
 340              		.align	2
 341              		.global	CapSense_DpProcessCsxSensorRawCountsExt
 342              		.thumb
 343              		.thumb_func
 344              		.type	CapSense_DpProcessCsxSensorRawCountsExt, %function
 345              	CapSense_DpProcessCsxSensorRawCountsExt:
 346              	.LFB128:
 647:Generated_Source\PSoC6/CapSense_Processing.c ****     uint32  result = CY_RET_SUCCESS;
 347              		.loc 1 647 0
 348              		.cfi_startproc
 349              		@ args = 0, pretend = 0, frame = 0
 350              		@ frame_needed = 0, uses_anonymous_args = 0
 351              	.LVL46:
 352 0000 F8B5     		push	{r3, r4, r5, r6, r7, lr}
 353              		.cfi_def_cfa_offset 24
 354              		.cfi_offset 3, -24
 355              		.cfi_offset 4, -20
 356              		.cfi_offset 5, -16
 357              		.cfi_offset 6, -12
 358              		.cfi_offset 7, -8
 359              		.cfi_offset 14, -4
 360 0002 0F46     		mov	r7, r1
 361 0004 1C46     		mov	r4, r3
 362              	.LVL47:
 652:Generated_Source\PSoC6/CapSense_Processing.c ****     ptrRamWdgt = (CapSense_RAM_WD_BASE_STRUCT *)ptrFlashWdgt->ptr2WdgtRam;
 363              		.loc 1 652 0
 364 0006 827E     		ldrb	r2, [r0, #26]	@ zero_extendqisi2
 365              	.LVL48:
 653:Generated_Source\PSoC6/CapSense_Processing.c **** 
 366              		.loc 1 653 0
 367 0008 4668     		ldr	r6, [r0, #4]
 368              	.LVL49:
 667:Generated_Source\PSoC6/CapSense_Processing.c ****     {
 369              		.loc 1 667 0
 370 000a 13F0020F 		tst	r3, #2
 371 000e 04D0     		beq	.L29
 669:Generated_Source\PSoC6/CapSense_Processing.c ****     }
 372              		.loc 1 669 0
 373 0010 3046     		mov	r0, r6
 374              	.LVL50:
 375 0012 FFF7FEFF 		bl	CapSense_FtUpdateBaseline
 376              	.LVL51:
 377 0016 0546     		mov	r5, r0
 378              	.LVL52:
 379 0018 00E0     		b	.L27
 380              	.LVL53:
 381              	.L29:
ARM GAS  C:\Users\Austina\AppData\Local\Temp\ccLgwUrp.s 			page 29


 648:Generated_Source\PSoC6/CapSense_Processing.c ****     uint32  widgetType;
 382              		.loc 1 648 0
 383 001a 0025     		movs	r5, #0
 384              	.LVL54:
 385              	.L27:
 672:Generated_Source\PSoC6/CapSense_Processing.c ****     {
 386              		.loc 1 672 0
 387 001c 14F0040F 		tst	r4, #4
 388 0020 03D0     		beq	.L28
 674:Generated_Source\PSoC6/CapSense_Processing.c ****     }
 389              		.loc 1 674 0
 390 0022 3946     		mov	r1, r7
 391 0024 3046     		mov	r0, r6
 392 0026 FFF7FEFF 		bl	CapSense_DpUpdateDifferences
 393              	.LVL55:
 394              	.L28:
 677:Generated_Source\PSoC6/CapSense_Processing.c **** 
 395              		.loc 1 677 0
 396 002a 2846     		mov	r0, r5
 397 002c F8BD     		pop	{r3, r4, r5, r6, r7, pc}
 398              		.cfi_endproc
 399              	.LFE128:
 400              		.size	CapSense_DpProcessCsxSensorRawCountsExt, .-CapSense_DpProcessCsxSensorRawCountsExt
 401 002e 00BF     		.section	.text.CapSense_DpProcessCsdWidgetRawCounts,"ax",%progbits
 402              		.align	2
 403              		.global	CapSense_DpProcessCsdWidgetRawCounts
 404              		.thumb
 405              		.thumb_func
 406              		.type	CapSense_DpProcessCsdWidgetRawCounts, %function
 407              	CapSense_DpProcessCsdWidgetRawCounts:
 408              	.LFB130:
 786:Generated_Source\PSoC6/CapSense_Processing.c ****     uint32  result = CY_RET_SUCCESS;
 409              		.loc 1 786 0
 410              		.cfi_startproc
 411              		@ args = 0, pretend = 0, frame = 0
 412              		@ frame_needed = 0, uses_anonymous_args = 0
 413              	.LVL56:
 414 0000 2DE9F047 		push	{r4, r5, r6, r7, r8, r9, r10, lr}
 415              		.cfi_def_cfa_offset 32
 416              		.cfi_offset 4, -32
 417              		.cfi_offset 5, -28
 418              		.cfi_offset 6, -24
 419              		.cfi_offset 7, -20
 420              		.cfi_offset 8, -16
 421              		.cfi_offset 9, -12
 422              		.cfi_offset 10, -8
 423              		.cfi_offset 14, -4
 424 0004 8046     		mov	r8, r0
 425              	.LVL57:
 816:Generated_Source\PSoC6/CapSense_Processing.c ****     ptrRamWdgt = (CapSense_RAM_WD_BASE_STRUCT *)ptrFlashWdgt->ptr2WdgtRam;
 426              		.loc 1 816 0
 427 0006 8468     		ldr	r4, [r0, #8]
 428              	.LVL58:
 817:Generated_Source\PSoC6/CapSense_Processing.c ****     widgetType = ptrFlashWdgt->wdgtType;
 429              		.loc 1 817 0
 430 0008 4768     		ldr	r7, [r0, #4]
 431              	.LVL59:
ARM GAS  C:\Users\Austina\AppData\Local\Temp\ccLgwUrp.s 			page 30


 818:Generated_Source\PSoC6/CapSense_Processing.c **** 
 432              		.loc 1 818 0
 433 000a 90F81AA0 		ldrb	r10, [r0, #26]	@ zero_extendqisi2
 434              	.LVL60:
 821:Generated_Source\PSoC6/CapSense_Processing.c ****     #endif /* #if (0u != (CapSense_CSD_AUTOTUNE & CapSense_CSD_SS_TH_EN)) */
 435              		.loc 1 821 0
 436 000e 466A     		ldr	r6, [r0, #36]
 437              	.LVL61:
 825:Generated_Source\PSoC6/CapSense_Processing.c ****     {
 438              		.loc 1 825 0
 439 0010 0025     		movs	r5, #0
 787:Generated_Source\PSoC6/CapSense_Processing.c **** 
 440              		.loc 1 787 0
 441 0012 A946     		mov	r9, r5
 825:Generated_Source\PSoC6/CapSense_Processing.c ****     {
 442              		.loc 1 825 0
 443 0014 16E0     		b	.L32
 444              	.LVL62:
 445              	.L33:
 837:Generated_Source\PSoC6/CapSense_Processing.c ****             CapSense_DpUpdateThresholds(ptrRamWdgt, ptrNoiseEnvelope, snsId);
 446              		.loc 1 837 0 discriminator 3
 447 0016 3246     		mov	r2, r6
 448 0018 398A     		ldrh	r1, [r7, #16]
 449 001a 2088     		ldrh	r0, [r4]
 450 001c FFF7FEFF 		bl	SmartSense_RunNoiseEnvelope
 451              	.LVL63:
 838:Generated_Source\PSoC6/CapSense_Processing.c **** 
 452              		.loc 1 838 0 discriminator 3
 453 0020 2A46     		mov	r2, r5
 454 0022 3146     		mov	r1, r6
 455 0024 3846     		mov	r0, r7
 456 0026 FFF7FEFF 		bl	CapSense_DpUpdateThresholds
 457              	.LVL64:
 855:Generated_Source\PSoC6/CapSense_Processing.c ****         #endif /* (0u != (CapSense_CSD_AUTOTUNE & CapSense_CSD_SS_TH_EN)) */
 458              		.loc 1 855 0 discriminator 3
 459 002a 0C36     		adds	r6, r6, #12
 460              	.LVL65:
 865:Generated_Source\PSoC6/CapSense_Processing.c ****         #endif /* (CapSense_ENABLE == CapSense_TST_BSLN_DUPLICATION_EN) */
 461              		.loc 1 865 0 discriminator 3
 462 002c 5246     		mov	r2, r10
 463 002e 2146     		mov	r1, r4
 464 0030 3846     		mov	r0, r7
 465 0032 FFF7FEFF 		bl	CapSense_FtUpdateBaseline
 466              	.LVL66:
 467 0036 8146     		mov	r9, r0
 468              	.LVL67:
 868:Generated_Source\PSoC6/CapSense_Processing.c **** 
 469              		.loc 1 868 0 discriminator 3
 470 0038 2146     		mov	r1, r4
 471 003a 3846     		mov	r0, r7
 472              	.LVL68:
 473 003c FFF7FEFF 		bl	CapSense_DpUpdateDifferences
 474              	.LVL69:
 871:Generated_Source\PSoC6/CapSense_Processing.c **** 
 475              		.loc 1 871 0 discriminator 3
 476 0040 0A34     		adds	r4, r4, #10
 477              	.LVL70:
ARM GAS  C:\Users\Austina\AppData\Local\Temp\ccLgwUrp.s 			page 31


 825:Generated_Source\PSoC6/CapSense_Processing.c ****     {
 478              		.loc 1 825 0 discriminator 3
 479 0042 0135     		adds	r5, r5, #1
 480              	.LVL71:
 481              	.L32:
 825:Generated_Source\PSoC6/CapSense_Processing.c ****     {
 482              		.loc 1 825 0 is_stmt 0 discriminator 1
 483 0044 B8F81830 		ldrh	r3, [r8, #24]
 484 0048 9D42     		cmp	r5, r3
 485 004a E4D3     		bcc	.L33
 879:Generated_Source\PSoC6/CapSense_Processing.c **** 
 486              		.loc 1 879 0 is_stmt 1
 487 004c 4846     		mov	r0, r9
 488 004e BDE8F087 		pop	{r4, r5, r6, r7, r8, r9, r10, pc}
 489              		.cfi_endproc
 490              	.LFE130:
 491              		.size	CapSense_DpProcessCsdWidgetRawCounts, .-CapSense_DpProcessCsdWidgetRawCounts
 492 0052 00BF     		.section	.text.CapSense_DpProcessCsdSensorRawCountsExt,"ax",%progbits
 493              		.align	2
 494              		.global	CapSense_DpProcessCsdSensorRawCountsExt
 495              		.thumb
 496              		.thumb_func
 497              		.type	CapSense_DpProcessCsdSensorRawCountsExt, %function
 498              	CapSense_DpProcessCsdSensorRawCountsExt:
 499              	.LFB131:
 920:Generated_Source\PSoC6/CapSense_Processing.c ****     uint32 result = CY_RET_SUCCESS;
 500              		.loc 1 920 0
 501              		.cfi_startproc
 502              		@ args = 0, pretend = 0, frame = 0
 503              		@ frame_needed = 0, uses_anonymous_args = 0
 504              	.LVL72:
 505 0000 2DE9F041 		push	{r4, r5, r6, r7, r8, lr}
 506              		.cfi_def_cfa_offset 24
 507              		.cfi_offset 4, -24
 508              		.cfi_offset 5, -20
 509              		.cfi_offset 6, -16
 510              		.cfi_offset 7, -12
 511              		.cfi_offset 8, -8
 512              		.cfi_offset 14, -4
 513 0004 0F46     		mov	r7, r1
 514 0006 1C46     		mov	r4, r3
 515              	.LVL73:
 932:Generated_Source\PSoC6/CapSense_Processing.c ****     #endif /* (0u != (CapSense_CSD_AUTOTUNE & CapSense_CSD_SS_TH_EN)) */
 516              		.loc 1 932 0
 517 0008 466A     		ldr	r6, [r0, #36]
 518              	.LVL74:
 935:Generated_Source\PSoC6/CapSense_Processing.c ****     ptrRamWdgt = (CapSense_RAM_WD_BASE_STRUCT *)ptrFlashWdgt->ptr2WdgtRam;
 519              		.loc 1 935 0
 520 000a 90F81A80 		ldrb	r8, [r0, #26]	@ zero_extendqisi2
 521              	.LVL75:
 936:Generated_Source\PSoC6/CapSense_Processing.c **** 
 522              		.loc 1 936 0
 523 000e 4568     		ldr	r5, [r0, #4]
 524              	.LVL76:
 951:Generated_Source\PSoC6/CapSense_Processing.c ****         {
 525              		.loc 1 951 0
 526 0010 13F0080F 		tst	r3, #8
ARM GAS  C:\Users\Austina\AppData\Local\Temp\ccLgwUrp.s 			page 32


 527 0014 04D0     		beq	.L36
 953:Generated_Source\PSoC6/CapSense_Processing.c ****         }
 528              		.loc 1 953 0
 529 0016 3246     		mov	r2, r6
 530              	.LVL77:
 531 0018 298A     		ldrh	r1, [r5, #16]
 532              	.LVL78:
 533 001a 3888     		ldrh	r0, [r7]
 534              	.LVL79:
 535 001c FFF7FEFF 		bl	SmartSense_RunNoiseEnvelope
 536              	.LVL80:
 537              	.L36:
 956:Generated_Source\PSoC6/CapSense_Processing.c ****         {
 538              		.loc 1 956 0
 539 0020 14F0100F 		tst	r4, #16
 540 0024 04D0     		beq	.L37
 958:Generated_Source\PSoC6/CapSense_Processing.c **** 
 541              		.loc 1 958 0
 542 0026 0022     		movs	r2, #0
 543              	.LVL81:
 544 0028 3146     		mov	r1, r6
 545 002a 2846     		mov	r0, r5
 546 002c FFF7FEFF 		bl	CapSense_DpUpdateThresholds
 547              	.LVL82:
 548              	.L37:
 976:Generated_Source\PSoC6/CapSense_Processing.c ****     {
 549              		.loc 1 976 0
 550 0030 14F0020F 		tst	r4, #2
 551 0034 06D0     		beq	.L40
 978:Generated_Source\PSoC6/CapSense_Processing.c ****     }
 552              		.loc 1 978 0
 553 0036 4246     		mov	r2, r8
 554              	.LVL83:
 555 0038 3946     		mov	r1, r7
 556 003a 2846     		mov	r0, r5
 557 003c FFF7FEFF 		bl	CapSense_FtUpdateBaseline
 558              	.LVL84:
 559 0040 0646     		mov	r6, r0
 560              	.LVL85:
 561 0042 00E0     		b	.L38
 562              	.LVL86:
 563              	.L40:
 921:Generated_Source\PSoC6/CapSense_Processing.c ****     uint32  widgetType;
 564              		.loc 1 921 0
 565 0044 0026     		movs	r6, #0
 566              	.LVL87:
 567              	.L38:
 981:Generated_Source\PSoC6/CapSense_Processing.c ****     {
 568              		.loc 1 981 0
 569 0046 14F0040F 		tst	r4, #4
 570 004a 03D0     		beq	.L39
 983:Generated_Source\PSoC6/CapSense_Processing.c ****     }
 571              		.loc 1 983 0
 572 004c 3946     		mov	r1, r7
 573 004e 2846     		mov	r0, r5
 574 0050 FFF7FEFF 		bl	CapSense_DpUpdateDifferences
 575              	.LVL88:
ARM GAS  C:\Users\Austina\AppData\Local\Temp\ccLgwUrp.s 			page 33


 576              	.L39:
 986:Generated_Source\PSoC6/CapSense_Processing.c **** 
 577              		.loc 1 986 0
 578 0054 3046     		mov	r0, r6
 579 0056 BDE8F081 		pop	{r4, r5, r6, r7, r8, pc}
 580              		.cfi_endproc
 581              	.LFE131:
 582              		.size	CapSense_DpProcessCsdSensorRawCountsExt, .-CapSense_DpProcessCsdSensorRawCountsExt
 583 005a 00BF     		.section	.text.CapSense_DpProcessButton,"ax",%progbits
 584              		.align	2
 585              		.global	CapSense_DpProcessButton
 586              		.thumb
 587              		.thumb_func
 588              		.type	CapSense_DpProcessButton, %function
 589              	CapSense_DpProcessButton:
 590              	.LFB135:
1191:Generated_Source\PSoC6/CapSense_Processing.c **** 
1192:Generated_Source\PSoC6/CapSense_Processing.c **** 
1193:Generated_Source\PSoC6/CapSense_Processing.c **** #if ((0u != CapSense_BUTTON_WIDGET_EN) || (0u != CapSense_CSX_MATRIX_WIDGET_EN))
1194:Generated_Source\PSoC6/CapSense_Processing.c **** /*******************************************************************************
1195:Generated_Source\PSoC6/CapSense_Processing.c **** * Function Name: CapSense_DpProcessButton
1196:Generated_Source\PSoC6/CapSense_Processing.c **** ****************************************************************************//**
1197:Generated_Source\PSoC6/CapSense_Processing.c **** *
1198:Generated_Source\PSoC6/CapSense_Processing.c **** * \brief
1199:Generated_Source\PSoC6/CapSense_Processing.c **** *   Processes the status of the Button widget.
1200:Generated_Source\PSoC6/CapSense_Processing.c **** *
1201:Generated_Source\PSoC6/CapSense_Processing.c **** * \details
1202:Generated_Source\PSoC6/CapSense_Processing.c **** *   This API processes the status of the CSD/CSX Button widget and
1203:Generated_Source\PSoC6/CapSense_Processing.c **** *   CSX Matrix Button widget. It applies the hysteresis and de-bounce algorithm
1204:Generated_Source\PSoC6/CapSense_Processing.c **** *   to each sensor difference value. This API is expected to be called
1205:Generated_Source\PSoC6/CapSense_Processing.c **** *   after each new widget scan. If it is called multiple times for the same
1206:Generated_Source\PSoC6/CapSense_Processing.c **** *   scan data, the de-bounce algorithm will not work properly.
1207:Generated_Source\PSoC6/CapSense_Processing.c **** *
1208:Generated_Source\PSoC6/CapSense_Processing.c **** *   This API does not update any Data Structure registers
1209:Generated_Source\PSoC6/CapSense_Processing.c **** *   except the de-bounce counters.
1210:Generated_Source\PSoC6/CapSense_Processing.c **** *
1211:Generated_Source\PSoC6/CapSense_Processing.c **** * \param currStatus   The current status of the widget sensors.
1212:Generated_Source\PSoC6/CapSense_Processing.c **** * \param ptrFlashWdgt The pointer to the Flash Widget Object.
1213:Generated_Source\PSoC6/CapSense_Processing.c **** *
1214:Generated_Source\PSoC6/CapSense_Processing.c **** * \return Returns the status of the widget's sensors. Bit #0 - corresponds to Sensor #0.
1215:Generated_Source\PSoC6/CapSense_Processing.c **** *
1216:Generated_Source\PSoC6/CapSense_Processing.c **** *******************************************************************************/
1217:Generated_Source\PSoC6/CapSense_Processing.c **** uint32 CapSense_DpProcessButton(uint32 currStatus, CapSense_FLASH_WD_STRUCT const *ptrFlashWdgt)
1218:Generated_Source\PSoC6/CapSense_Processing.c **** {
 591              		.loc 1 1218 0
 592              		.cfi_startproc
 593              		@ args = 0, pretend = 0, frame = 0
 594              		@ frame_needed = 0, uses_anonymous_args = 0
 595              	.LVL89:
 596 0000 F0B5     		push	{r4, r5, r6, r7, lr}
 597              		.cfi_def_cfa_offset 20
 598              		.cfi_offset 4, -20
 599              		.cfi_offset 5, -16
 600              		.cfi_offset 6, -12
 601              		.cfi_offset 7, -8
 602              		.cfi_offset 14, -4
1219:Generated_Source\PSoC6/CapSense_Processing.c ****     uint32 snsCnt;
ARM GAS  C:\Users\Austina\AppData\Local\Temp\ccLgwUrp.s 			page 34


1220:Generated_Source\PSoC6/CapSense_Processing.c ****     uint32 snsMask;
1221:Generated_Source\PSoC6/CapSense_Processing.c ****     uint32 newStatus;
1222:Generated_Source\PSoC6/CapSense_Processing.c ****     uint32 touchTh;
1223:Generated_Source\PSoC6/CapSense_Processing.c ****     CapSense_RAM_SNS_STRUCT *ptrSnsTmp;
1224:Generated_Source\PSoC6/CapSense_Processing.c ****     CapSense_RAM_WD_BASE_STRUCT *ptrRamWdgt;
1225:Generated_Source\PSoC6/CapSense_Processing.c ****     uint8 * ptrDebounceCnt;
1226:Generated_Source\PSoC6/CapSense_Processing.c **** 
1227:Generated_Source\PSoC6/CapSense_Processing.c ****     snsCnt = ptrFlashWdgt->totalNumSns;
 603              		.loc 1 1227 0
 604 0002 0C8B     		ldrh	r4, [r1, #24]
 605              	.LVL90:
1228:Generated_Source\PSoC6/CapSense_Processing.c ****     ptrSnsTmp = ptrFlashWdgt->ptr2SnsRam;
 606              		.loc 1 1228 0
 607 0004 8D68     		ldr	r5, [r1, #8]
 608              	.LVL91:
1229:Generated_Source\PSoC6/CapSense_Processing.c ****     ptrRamWdgt = (CapSense_RAM_WD_BASE_STRUCT *)ptrFlashWdgt->ptr2WdgtRam;
 609              		.loc 1 1229 0
 610 0006 4F68     		ldr	r7, [r1, #4]
 611              	.LVL92:
1230:Generated_Source\PSoC6/CapSense_Processing.c ****     ptrDebounceCnt = ptrFlashWdgt->ptr2DebounceArr;
 612              		.loc 1 1230 0
 613 0008 0A69     		ldr	r2, [r1, #16]
 614              	.LVL93:
1231:Generated_Source\PSoC6/CapSense_Processing.c **** 
1232:Generated_Source\PSoC6/CapSense_Processing.c ****     /* Go through all widget's sensors */
1233:Generated_Source\PSoC6/CapSense_Processing.c ****     snsMask = 1Lu;
 615              		.loc 1 1233 0
 616 000a 0123     		movs	r3, #1
1234:Generated_Source\PSoC6/CapSense_Processing.c ****     for (; snsCnt-- > 0u; )
 617              		.loc 1 1234 0
 618 000c 24E0     		b	.L43
 619              	.LVL94:
 620              	.L51:
1235:Generated_Source\PSoC6/CapSense_Processing.c ****     {
1236:Generated_Source\PSoC6/CapSense_Processing.c ****         /* Calculate touch threshold taking into account hysteresis
1237:Generated_Source\PSoC6/CapSense_Processing.c ****            and current sensor state. */
1238:Generated_Source\PSoC6/CapSense_Processing.c ****         touchTh = (0u == (currStatus & snsMask)) ?
1239:Generated_Source\PSoC6/CapSense_Processing.c ****                   ((uint32)ptrRamWdgt->fingerTh + ptrRamWdgt->hysteresis) :
 621              		.loc 1 1239 0
 622 000e 10EA0304 		ands	r4, r0, r3
 623 0012 03D1     		bne	.L44
 624              		.loc 1 1239 0 is_stmt 0 discriminator 1
 625 0014 7E88     		ldrh	r6, [r7, #2]
 626 0016 B979     		ldrb	r1, [r7, #6]	@ zero_extendqisi2
 627 0018 3144     		add	r1, r1, r6
 628 001a 02E0     		b	.L45
 629              	.L44:
1240:Generated_Source\PSoC6/CapSense_Processing.c ****                   ((uint32)ptrRamWdgt->fingerTh - ptrRamWdgt->hysteresis);
 630              		.loc 1 1240 0 is_stmt 1 discriminator 2
 631 001c 7988     		ldrh	r1, [r7, #2]
 632 001e BE79     		ldrb	r6, [r7, #6]	@ zero_extendqisi2
1239:Generated_Source\PSoC6/CapSense_Processing.c ****                   ((uint32)ptrRamWdgt->fingerTh - ptrRamWdgt->hysteresis);
 633              		.loc 1 1239 0 discriminator 2
 634 0020 891B     		subs	r1, r1, r6
 635              	.L45:
 636              	.LVL95:
1241:Generated_Source\PSoC6/CapSense_Processing.c **** 
ARM GAS  C:\Users\Austina\AppData\Local\Temp\ccLgwUrp.s 			page 35


1242:Generated_Source\PSoC6/CapSense_Processing.c ****         /* Determine new potential sensor state */
1243:Generated_Source\PSoC6/CapSense_Processing.c ****         newStatus = (ptrSnsTmp->diff > touchTh) ? snsMask : 0u;
 637              		.loc 1 1243 0
 638 0022 EE88     		ldrh	r6, [r5, #6]
 639 0024 B142     		cmp	r1, r6
 640 0026 01D3     		bcc	.L52
 641 0028 0021     		movs	r1, #0
 642              	.LVL96:
 643 002a 00E0     		b	.L46
 644              	.LVL97:
 645              	.L52:
 646 002c 1946     		mov	r1, r3
 647              	.LVL98:
 648              	.L46:
1244:Generated_Source\PSoC6/CapSense_Processing.c **** 
1245:Generated_Source\PSoC6/CapSense_Processing.c ****         /* Sensor state changed ? */
1246:Generated_Source\PSoC6/CapSense_Processing.c ****         if (newStatus != (currStatus & snsMask))
 649              		.loc 1 1246 0 discriminator 4
 650 002e A142     		cmp	r1, r4
 651 0030 02D0     		beq	.L47
1247:Generated_Source\PSoC6/CapSense_Processing.c ****         {
1248:Generated_Source\PSoC6/CapSense_Processing.c ****             /* Decrement de-bounce counter */
1249:Generated_Source\PSoC6/CapSense_Processing.c ****             (*ptrDebounceCnt)--;
 652              		.loc 1 1249 0
 653 0032 1678     		ldrb	r6, [r2]	@ zero_extendqisi2
 654 0034 013E     		subs	r6, r6, #1
 655 0036 1670     		strb	r6, [r2]
 656              	.L47:
1250:Generated_Source\PSoC6/CapSense_Processing.c ****         }
1251:Generated_Source\PSoC6/CapSense_Processing.c **** 
1252:Generated_Source\PSoC6/CapSense_Processing.c ****         /*
1253:Generated_Source\PSoC6/CapSense_Processing.c ****         *  This piece of code has two objectives:
1254:Generated_Source\PSoC6/CapSense_Processing.c ****         *  1. Reset de-bounce counter if the sensor state did not change.
1255:Generated_Source\PSoC6/CapSense_Processing.c ****         *     (It is possible that during previous processing cycles sensor
1256:Generated_Source\PSoC6/CapSense_Processing.c ****         *     was active and de-bounce counter was decremented.)
1257:Generated_Source\PSoC6/CapSense_Processing.c ****         *  2. Set new sensor state after successful de-bounce.
1258:Generated_Source\PSoC6/CapSense_Processing.c ****         */
1259:Generated_Source\PSoC6/CapSense_Processing.c ****         if ((newStatus == (currStatus & snsMask)) || (0u == (*ptrDebounceCnt)))
 657              		.loc 1 1259 0
 658 0038 A142     		cmp	r1, r4
 659 003a 01D0     		beq	.L48
 660              		.loc 1 1259 0 is_stmt 0 discriminator 1
 661 003c 1478     		ldrb	r4, [r2]	@ zero_extendqisi2
 662 003e 3CB9     		cbnz	r4, .L49
 663              	.L48:
1260:Generated_Source\PSoC6/CapSense_Processing.c ****         {
1261:Generated_Source\PSoC6/CapSense_Processing.c ****             /* Set new sensor status */
1262:Generated_Source\PSoC6/CapSense_Processing.c ****             currStatus &= ~snsMask;
 664              		.loc 1 1262 0 is_stmt 1
 665 0040 20EA0300 		bic	r0, r0, r3
 666              	.LVL99:
1263:Generated_Source\PSoC6/CapSense_Processing.c ****             currStatus |= newStatus;
 667              		.loc 1 1263 0
 668 0044 0843     		orrs	r0, r0, r1
 669              	.LVL100:
1264:Generated_Source\PSoC6/CapSense_Processing.c **** 
1265:Generated_Source\PSoC6/CapSense_Processing.c ****             /* Reset de-bounce counter */
ARM GAS  C:\Users\Austina\AppData\Local\Temp\ccLgwUrp.s 			page 36


1266:Generated_Source\PSoC6/CapSense_Processing.c ****             #if (0u != CapSense_OFF_DEBOUNCE_EN)
1267:Generated_Source\PSoC6/CapSense_Processing.c ****                 *ptrDebounceCnt = (0Lu == newStatus) ? ptrRamWdgt->onDebounce : ptrRamWdgt->offDebo
1268:Generated_Source\PSoC6/CapSense_Processing.c ****             #else
1269:Generated_Source\PSoC6/CapSense_Processing.c ****                 *ptrDebounceCnt = (0Lu == newStatus) ? ptrRamWdgt->onDebounce : DEFAULT_OFF_DEBOUNC
 670              		.loc 1 1269 0
 671 0046 09B9     		cbnz	r1, .L53
 672              		.loc 1 1269 0 is_stmt 0 discriminator 1
 673 0048 F979     		ldrb	r1, [r7, #7]	@ zero_extendqisi2
 674              	.LVL101:
 675 004a 00E0     		b	.L50
 676              	.LVL102:
 677              	.L53:
 678              		.loc 1 1269 0
 679 004c 0121     		movs	r1, #1
 680              	.LVL103:
 681              	.L50:
 682              		.loc 1 1269 0 discriminator 4
 683 004e 1170     		strb	r1, [r2]
 684              	.L49:
1270:Generated_Source\PSoC6/CapSense_Processing.c ****             #endif /* #if (0u != CapSense_OFF_DEBOUNCE_EN) */
1271:Generated_Source\PSoC6/CapSense_Processing.c ****         }
1272:Generated_Source\PSoC6/CapSense_Processing.c **** 
1273:Generated_Source\PSoC6/CapSense_Processing.c ****         /* Move mask to the next sensor */
1274:Generated_Source\PSoC6/CapSense_Processing.c ****         snsMask <<= 1u;
 685              		.loc 1 1274 0 is_stmt 1
 686 0050 5B00     		lsls	r3, r3, #1
 687              	.LVL104:
1275:Generated_Source\PSoC6/CapSense_Processing.c **** 
1276:Generated_Source\PSoC6/CapSense_Processing.c ****         ptrSnsTmp++;
 688              		.loc 1 1276 0
 689 0052 0A35     		adds	r5, r5, #10
 690              	.LVL105:
1277:Generated_Source\PSoC6/CapSense_Processing.c ****         ptrDebounceCnt++;
 691              		.loc 1 1277 0
 692 0054 0132     		adds	r2, r2, #1
 693              	.LVL106:
1234:Generated_Source\PSoC6/CapSense_Processing.c ****     {
 694              		.loc 1 1234 0
 695 0056 7446     		mov	r4, lr
 696              	.LVL107:
 697              	.L43:
 698 0058 04F1FF3E 		add	lr, r4, #-1
 699              	.LVL108:
 700 005c 002C     		cmp	r4, #0
 701 005e D6D1     		bne	.L51
1278:Generated_Source\PSoC6/CapSense_Processing.c ****     }
1279:Generated_Source\PSoC6/CapSense_Processing.c **** 
1280:Generated_Source\PSoC6/CapSense_Processing.c ****     return currStatus;
1281:Generated_Source\PSoC6/CapSense_Processing.c **** }
 702              		.loc 1 1281 0
 703 0060 F0BD     		pop	{r4, r5, r6, r7, pc}
 704              		.cfi_endproc
 705              	.LFE135:
 706              		.size	CapSense_DpProcessButton, .-CapSense_DpProcessButton
 707 0062 00BF     		.section	.text.CapSense_DpProcessCsxWidgetStatus,"ax",%progbits
 708              		.align	2
 709              		.global	CapSense_DpProcessCsxWidgetStatus
ARM GAS  C:\Users\Austina\AppData\Local\Temp\ccLgwUrp.s 			page 37


 710              		.thumb
 711              		.thumb_func
 712              		.type	CapSense_DpProcessCsxWidgetStatus, %function
 713              	CapSense_DpProcessCsxWidgetStatus:
 714              	.LFB129:
 706:Generated_Source\PSoC6/CapSense_Processing.c ****     uint32 sensorStatus;
 715              		.loc 1 706 0
 716              		.cfi_startproc
 717              		@ args = 0, pretend = 0, frame = 0
 718              		@ frame_needed = 0, uses_anonymous_args = 0
 719              	.LVL109:
 720 0000 38B5     		push	{r3, r4, r5, lr}
 721              		.cfi_def_cfa_offset 16
 722              		.cfi_offset 3, -16
 723              		.cfi_offset 4, -12
 724              		.cfi_offset 5, -8
 725              		.cfi_offset 14, -4
 726 0002 0446     		mov	r4, r0
 712:Generated_Source\PSoC6/CapSense_Processing.c ****     sensorStatus = CapSense_dsRam.snsStatus[widgetId];
 727              		.loc 1 712 0
 728 0004 8A7E     		ldrb	r2, [r1, #26]	@ zero_extendqisi2
 729              	.LVL110:
 713:Generated_Source\PSoC6/CapSense_Processing.c **** 
 730              		.loc 1 713 0
 731 0006 154B     		ldr	r3, .L63
 732 0008 0344     		add	r3, r3, r0
 733 000a 1D7E     		ldrb	r5, [r3, #24]	@ zero_extendqisi2
 734              	.LVL111:
 715:Generated_Source\PSoC6/CapSense_Processing.c ****     {
 735              		.loc 1 715 0
 736 000c 012A     		cmp	r2, #1
 737 000e 04D1     		bne	.L61
 719:Generated_Source\PSoC6/CapSense_Processing.c ****             break;
 738              		.loc 1 719 0
 739 0010 2846     		mov	r0, r5
 740              	.LVL112:
 741 0012 FFF7FEFF 		bl	CapSense_DpProcessButton
 742              	.LVL113:
 743 0016 0546     		mov	r5, r0
 744              	.LVL114:
 720:Generated_Source\PSoC6/CapSense_Processing.c ****     #endif /* #if (0u != CapSense_BUTTON_WIDGET_EN) */
 745              		.loc 1 720 0
 746 0018 04E0     		b	.L58
 747              	.LVL115:
 748              	.L61:
 736:Generated_Source\PSoC6/CapSense_Processing.c ****         break;
 749              		.loc 1 736 0 discriminator 1
 750 001a 4FF43871 		mov	r1, #736
 751              	.LVL116:
 752 001e 1048     		ldr	r0, .L63+4
 753              	.LVL117:
 754 0020 FFF7FEFF 		bl	Cy_SysLib_AssertFailed
 755              	.LVL118:
 756              	.L58:
 741:Generated_Source\PSoC6/CapSense_Processing.c **** 
 757              		.loc 1 741 0
 758 0024 0D4B     		ldr	r3, .L63
ARM GAS  C:\Users\Austina\AppData\Local\Temp\ccLgwUrp.s 			page 38


 759 0026 2344     		add	r3, r3, r4
 760 0028 1D76     		strb	r5, [r3, #24]
 744:Generated_Source\PSoC6/CapSense_Processing.c ****     wdStatusMask = CapSense_GET_WDGT_STATUS_MASK(widgetId);
 761              		.loc 1 744 0
 762 002a 6209     		lsrs	r2, r4, #5
 763              	.LVL119:
 745:Generated_Source\PSoC6/CapSense_Processing.c **** 
 764              		.loc 1 745 0
 765 002c 04F01F04 		and	r4, r4, #31
 766              	.LVL120:
 767 0030 0123     		movs	r3, #1
 768 0032 03FA04F4 		lsl	r4, r3, r4
 769              	.LVL121:
 748:Generated_Source\PSoC6/CapSense_Processing.c ****     {
 770              		.loc 1 748 0
 771 0036 45B9     		cbnz	r5, .L59
 750:Generated_Source\PSoC6/CapSense_Processing.c ****     }
 772              		.loc 1 750 0
 773 0038 0432     		adds	r2, r2, #4
 774              	.LVL122:
 775 003a 084B     		ldr	r3, .L63
 776 003c 03EB8202 		add	r2, r3, r2, lsl #2
 777              	.LVL123:
 778 0040 5368     		ldr	r3, [r2, #4]
 779 0042 23EA0404 		bic	r4, r3, r4
 780              	.LVL124:
 781 0046 5460     		str	r4, [r2, #4]
 782 0048 38BD     		pop	{r3, r4, r5, pc}
 783              	.LVL125:
 784              	.L59:
 754:Generated_Source\PSoC6/CapSense_Processing.c ****     }
 785              		.loc 1 754 0
 786 004a 0432     		adds	r2, r2, #4
 787              	.LVL126:
 788 004c 034B     		ldr	r3, .L63
 789 004e 03EB8202 		add	r2, r3, r2, lsl #2
 790              	.LVL127:
 791 0052 5368     		ldr	r3, [r2, #4]
 792 0054 1C43     		orrs	r4, r4, r3
 793              	.LVL128:
 794 0056 5460     		str	r4, [r2, #4]
 795 0058 38BD     		pop	{r3, r4, r5, pc}
 796              	.LVL129:
 797              	.L64:
 798 005a 00BF     		.align	2
 799              	.L63:
 800 005c 00000000 		.word	CapSense_dsRam
 801 0060 00000000 		.word	.LC0
 802              		.cfi_endproc
 803              	.LFE129:
 804              		.size	CapSense_DpProcessCsxWidgetStatus, .-CapSense_DpProcessCsxWidgetStatus
 805              		.section	.text.CapSense_DpProcessSlider,"ax",%progbits
 806              		.align	2
 807              		.global	CapSense_DpProcessSlider
 808              		.thumb
 809              		.thumb_func
 810              		.type	CapSense_DpProcessSlider, %function
ARM GAS  C:\Users\Austina\AppData\Local\Temp\ccLgwUrp.s 			page 39


 811              	CapSense_DpProcessSlider:
 812              	.LFB136:
1282:Generated_Source\PSoC6/CapSense_Processing.c **** #endif /* #if ((0u != CapSense_BUTTON_WIDGET_EN) || (0u != CapSense_CSX_MATRIX_WIDGET_EN)) */
1283:Generated_Source\PSoC6/CapSense_Processing.c **** 
1284:Generated_Source\PSoC6/CapSense_Processing.c **** 
1285:Generated_Source\PSoC6/CapSense_Processing.c **** #if (0u != CapSense_PROXIMITY_WIDGET_EN)
1286:Generated_Source\PSoC6/CapSense_Processing.c **** /*******************************************************************************
1287:Generated_Source\PSoC6/CapSense_Processing.c **** * Function Name: CapSense_DpProcessProximity
1288:Generated_Source\PSoC6/CapSense_Processing.c **** ****************************************************************************//**
1289:Generated_Source\PSoC6/CapSense_Processing.c **** *
1290:Generated_Source\PSoC6/CapSense_Processing.c **** * \brief
1291:Generated_Source\PSoC6/CapSense_Processing.c **** *   Processes the status of the Proximity widget.
1292:Generated_Source\PSoC6/CapSense_Processing.c **** *
1293:Generated_Source\PSoC6/CapSense_Processing.c **** * \details
1294:Generated_Source\PSoC6/CapSense_Processing.c **** *   This API processes the status of the CSD Proximity widget. It applies the
1295:Generated_Source\PSoC6/CapSense_Processing.c **** *   hysteresis and debounce algorithm to each sensor difference value.
1296:Generated_Source\PSoC6/CapSense_Processing.c **** *   The proximity and touch events are considered independently so debounce and
1297:Generated_Source\PSoC6/CapSense_Processing.c **** *   hysteresis are also applied independently.
1298:Generated_Source\PSoC6/CapSense_Processing.c **** *
1299:Generated_Source\PSoC6/CapSense_Processing.c **** *   This API is expected to be called after each new widget scan. If it is
1300:Generated_Source\PSoC6/CapSense_Processing.c **** *   called multiple times for the same scan data the debounce algorithm
1301:Generated_Source\PSoC6/CapSense_Processing.c **** *   will not work properly.
1302:Generated_Source\PSoC6/CapSense_Processing.c **** *
1303:Generated_Source\PSoC6/CapSense_Processing.c **** *   This API does not update any Data Structure registers
1304:Generated_Source\PSoC6/CapSense_Processing.c **** *   except the debounce counters.
1305:Generated_Source\PSoC6/CapSense_Processing.c **** *
1306:Generated_Source\PSoC6/CapSense_Processing.c **** * \param currStatus   The value with the current widget status.
1307:Generated_Source\PSoC6/CapSense_Processing.c **** * \param ptrFlashWdgt The pointer to the Flash Widget Object.
1308:Generated_Source\PSoC6/CapSense_Processing.c **** *
1309:Generated_Source\PSoC6/CapSense_Processing.c **** * \return
1310:Generated_Source\PSoC6/CapSense_Processing.c **** *  Returns the status of the proximity sensors. Each sensor is represented by two bits
1311:Generated_Source\PSoC6/CapSense_Processing.c **** *  that can take the following values:
1312:Generated_Source\PSoC6/CapSense_Processing.c **** *   - 00b not active
1313:Generated_Source\PSoC6/CapSense_Processing.c **** *   - 01b proximity is detected (signal is above finger threshold)
1314:Generated_Source\PSoC6/CapSense_Processing.c **** *   - 11b finger touch is detected (signal is above the touch threshold)
1315:Generated_Source\PSoC6/CapSense_Processing.c **** *
1316:Generated_Source\PSoC6/CapSense_Processing.c **** *******************************************************************************/
1317:Generated_Source\PSoC6/CapSense_Processing.c **** uint32 CapSense_DpProcessProximity(uint32 currStatus, CapSense_FLASH_WD_STRUCT const *ptrFlashWdgt)
1318:Generated_Source\PSoC6/CapSense_Processing.c **** {
1319:Generated_Source\PSoC6/CapSense_Processing.c ****     uint32 currTh;
1320:Generated_Source\PSoC6/CapSense_Processing.c ****     uint32 snsCnt;
1321:Generated_Source\PSoC6/CapSense_Processing.c ****     uint32 snsMask;
1322:Generated_Source\PSoC6/CapSense_Processing.c ****     uint32 newStatus;
1323:Generated_Source\PSoC6/CapSense_Processing.c ****     uint32 difference;
1324:Generated_Source\PSoC6/CapSense_Processing.c **** 
1325:Generated_Source\PSoC6/CapSense_Processing.c ****     uint8 *ptrDebounceCnt;
1326:Generated_Source\PSoC6/CapSense_Processing.c ****     CapSense_RAM_SNS_STRUCT *ptrSnsTmp;
1327:Generated_Source\PSoC6/CapSense_Processing.c ****     CapSense_RAM_WD_PROXIMITY_STRUCT *ptrRamWdgt;
1328:Generated_Source\PSoC6/CapSense_Processing.c **** 
1329:Generated_Source\PSoC6/CapSense_Processing.c ****     /* Mask for proximity status bits. (All odd bits.) */
1330:Generated_Source\PSoC6/CapSense_Processing.c ****     const uint32 proxMask = UINT32_ODD_BITS_CONST;
1331:Generated_Source\PSoC6/CapSense_Processing.c **** 
1332:Generated_Source\PSoC6/CapSense_Processing.c ****     ptrSnsTmp = ptrFlashWdgt->ptr2SnsRam;
1333:Generated_Source\PSoC6/CapSense_Processing.c ****     ptrRamWdgt = (CapSense_RAM_WD_PROXIMITY_STRUCT *)ptrFlashWdgt->ptr2WdgtRam;
1334:Generated_Source\PSoC6/CapSense_Processing.c ****     ptrDebounceCnt = ptrFlashWdgt->ptr2DebounceArr;
1335:Generated_Source\PSoC6/CapSense_Processing.c **** 
1336:Generated_Source\PSoC6/CapSense_Processing.c ****     /* Get number of sensors and multiply it by 2 - proximity and touch statuses per sensor. */
ARM GAS  C:\Users\Austina\AppData\Local\Temp\ccLgwUrp.s 			page 40


1337:Generated_Source\PSoC6/CapSense_Processing.c ****     snsCnt = (uint32)ptrFlashWdgt->totalNumSns << 1u;
1338:Generated_Source\PSoC6/CapSense_Processing.c **** 
1339:Generated_Source\PSoC6/CapSense_Processing.c ****     /* Go through all sensor's status bits */
1340:Generated_Source\PSoC6/CapSense_Processing.c ****     snsMask = 1Lu;
1341:Generated_Source\PSoC6/CapSense_Processing.c ****     for (; snsCnt-- > 0u;)
1342:Generated_Source\PSoC6/CapSense_Processing.c ****     {
1343:Generated_Source\PSoC6/CapSense_Processing.c ****         difference = ptrSnsTmp->diff;
1344:Generated_Source\PSoC6/CapSense_Processing.c **** 
1345:Generated_Source\PSoC6/CapSense_Processing.c ****         /* Determine current event (proximity - odd; touch - even) and get appropriate threshold. *
1346:Generated_Source\PSoC6/CapSense_Processing.c ****         currTh = ptrRamWdgt->fingerTh;
1347:Generated_Source\PSoC6/CapSense_Processing.c **** 
1348:Generated_Source\PSoC6/CapSense_Processing.c ****         if (0u == (snsMask & proxMask))
1349:Generated_Source\PSoC6/CapSense_Processing.c ****         {
1350:Generated_Source\PSoC6/CapSense_Processing.c ****             currTh = ptrRamWdgt->proxTouchTh;
1351:Generated_Source\PSoC6/CapSense_Processing.c ****             ptrSnsTmp++;
1352:Generated_Source\PSoC6/CapSense_Processing.c ****         }
1353:Generated_Source\PSoC6/CapSense_Processing.c **** 
1354:Generated_Source\PSoC6/CapSense_Processing.c ****         /* Calculate finger threshold applying hysteresis based on current sensor state. */
1355:Generated_Source\PSoC6/CapSense_Processing.c ****         currTh = (0u == (currStatus & snsMask)) ? (currTh + ptrRamWdgt->hysteresis) : (currTh - ptr
1356:Generated_Source\PSoC6/CapSense_Processing.c **** 
1357:Generated_Source\PSoC6/CapSense_Processing.c ****         /* Determine new potential sensor state before de-bounce */
1358:Generated_Source\PSoC6/CapSense_Processing.c ****         newStatus = (difference > currTh) ? snsMask : 0Lu;
1359:Generated_Source\PSoC6/CapSense_Processing.c **** 
1360:Generated_Source\PSoC6/CapSense_Processing.c ****         /* Sensor state changed ? */
1361:Generated_Source\PSoC6/CapSense_Processing.c ****         if (newStatus != (currStatus & snsMask))
1362:Generated_Source\PSoC6/CapSense_Processing.c ****         {
1363:Generated_Source\PSoC6/CapSense_Processing.c ****             /* Decrement de-bounce counter */
1364:Generated_Source\PSoC6/CapSense_Processing.c ****             (*ptrDebounceCnt)--;
1365:Generated_Source\PSoC6/CapSense_Processing.c ****         }
1366:Generated_Source\PSoC6/CapSense_Processing.c **** 
1367:Generated_Source\PSoC6/CapSense_Processing.c ****         /*
1368:Generated_Source\PSoC6/CapSense_Processing.c ****         *  This piece of code has two objectives:
1369:Generated_Source\PSoC6/CapSense_Processing.c ****         *  1. Reset de-bounce counter if new sensor state has not changed.
1370:Generated_Source\PSoC6/CapSense_Processing.c ****         *     (It is possible that during previous processing cycles the sensor
1371:Generated_Source\PSoC6/CapSense_Processing.c ****         *     state was different which caused de-bounce counter change.)
1372:Generated_Source\PSoC6/CapSense_Processing.c ****         *  2. Set new sensor state after successful de-bounce.
1373:Generated_Source\PSoC6/CapSense_Processing.c ****         */
1374:Generated_Source\PSoC6/CapSense_Processing.c ****         if ((newStatus == (currStatus & snsMask)) || (0u == (*ptrDebounceCnt)))
1375:Generated_Source\PSoC6/CapSense_Processing.c ****         {
1376:Generated_Source\PSoC6/CapSense_Processing.c ****             /* Set new sensor status */
1377:Generated_Source\PSoC6/CapSense_Processing.c ****             currStatus &= ~snsMask;
1378:Generated_Source\PSoC6/CapSense_Processing.c ****             currStatus |= newStatus;
1379:Generated_Source\PSoC6/CapSense_Processing.c **** 
1380:Generated_Source\PSoC6/CapSense_Processing.c ****             /* Reset de-bounce counter */
1381:Generated_Source\PSoC6/CapSense_Processing.c ****             #if (0u != CapSense_OFF_DEBOUNCE_EN)
1382:Generated_Source\PSoC6/CapSense_Processing.c ****                 *ptrDebounceCnt = (0Lu == newStatus) ? ptrRamWdgt->onDebounce : ptrRamWdgt->offDebo
1383:Generated_Source\PSoC6/CapSense_Processing.c ****             #else
1384:Generated_Source\PSoC6/CapSense_Processing.c ****                 *ptrDebounceCnt = (0Lu == newStatus) ? ptrRamWdgt->onDebounce : DEFAULT_OFF_DEBOUNC
1385:Generated_Source\PSoC6/CapSense_Processing.c ****             #endif /* #if (0u != CapSense_OFF_DEBOUNCE_EN) */
1386:Generated_Source\PSoC6/CapSense_Processing.c ****         }
1387:Generated_Source\PSoC6/CapSense_Processing.c **** 
1388:Generated_Source\PSoC6/CapSense_Processing.c ****         ptrDebounceCnt++;
1389:Generated_Source\PSoC6/CapSense_Processing.c **** 
1390:Generated_Source\PSoC6/CapSense_Processing.c ****         /* Move sensor mask to the next sensor */
1391:Generated_Source\PSoC6/CapSense_Processing.c ****         snsMask <<= 1u;
1392:Generated_Source\PSoC6/CapSense_Processing.c ****     }
1393:Generated_Source\PSoC6/CapSense_Processing.c **** 
ARM GAS  C:\Users\Austina\AppData\Local\Temp\ccLgwUrp.s 			page 41


1394:Generated_Source\PSoC6/CapSense_Processing.c ****     return currStatus;
1395:Generated_Source\PSoC6/CapSense_Processing.c **** }
1396:Generated_Source\PSoC6/CapSense_Processing.c **** #endif /* #if (0u != CapSense_PROXIMITY_WIDGET_EN) */
1397:Generated_Source\PSoC6/CapSense_Processing.c **** 
1398:Generated_Source\PSoC6/CapSense_Processing.c **** 
1399:Generated_Source\PSoC6/CapSense_Processing.c **** #if (0u != CapSense_SLIDER_WIDGET_EN)
1400:Generated_Source\PSoC6/CapSense_Processing.c **** /*******************************************************************************
1401:Generated_Source\PSoC6/CapSense_Processing.c **** * Function Name: CapSense_DpProcessSlider
1402:Generated_Source\PSoC6/CapSense_Processing.c **** ****************************************************************************//**
1403:Generated_Source\PSoC6/CapSense_Processing.c **** *
1404:Generated_Source\PSoC6/CapSense_Processing.c **** * \brief
1405:Generated_Source\PSoC6/CapSense_Processing.c **** *   Processes the status of the Linear/Radial Slider widget.
1406:Generated_Source\PSoC6/CapSense_Processing.c **** *   The process involves running the Linear/Radial Centroid algorithm.
1407:Generated_Source\PSoC6/CapSense_Processing.c **** *
1408:Generated_Source\PSoC6/CapSense_Processing.c **** * \details
1409:Generated_Source\PSoC6/CapSense_Processing.c **** *   This API processes the status of the CSD Slider widget (Linear and Radial).
1410:Generated_Source\PSoC6/CapSense_Processing.c **** *   It applies the hysteresis and de-bounce algorithm to the widget ignoring
1411:Generated_Source\PSoC6/CapSense_Processing.c **** *   the individual states of the sensors.
1412:Generated_Source\PSoC6/CapSense_Processing.c **** *
1413:Generated_Source\PSoC6/CapSense_Processing.c **** *   This API is expected to be called after each new widget scan. If it is
1414:Generated_Source\PSoC6/CapSense_Processing.c **** *   called multiple times for the same scan data, the debounce algorithm
1415:Generated_Source\PSoC6/CapSense_Processing.c **** *   will not work properly.
1416:Generated_Source\PSoC6/CapSense_Processing.c **** *
1417:Generated_Source\PSoC6/CapSense_Processing.c **** *   Slider widgets do not support the ON to OFF debounce.
1418:Generated_Source\PSoC6/CapSense_Processing.c **** *
1419:Generated_Source\PSoC6/CapSense_Processing.c **** *   This API does not update any Data Structure registers
1420:Generated_Source\PSoC6/CapSense_Processing.c **** *   except the debounce counters.
1421:Generated_Source\PSoC6/CapSense_Processing.c **** *
1422:Generated_Source\PSoC6/CapSense_Processing.c **** * \param currStatus   The current sensor status of the Slider widget.
1423:Generated_Source\PSoC6/CapSense_Processing.c **** * \param ptrFlashWdgt The pointer to the Flash Widget Object.
1424:Generated_Source\PSoC6/CapSense_Processing.c **** *
1425:Generated_Source\PSoC6/CapSense_Processing.c **** * \return Returns the status of the widget's sensors. Bit #0 - corresponds to Sensor #0.
1426:Generated_Source\PSoC6/CapSense_Processing.c **** *
1427:Generated_Source\PSoC6/CapSense_Processing.c **** *******************************************************************************/
1428:Generated_Source\PSoC6/CapSense_Processing.c **** uint32 CapSense_DpProcessSlider(uint32 currStatus, CapSense_FLASH_WD_STRUCT const *ptrFlashWdgt)
1429:Generated_Source\PSoC6/CapSense_Processing.c **** {
 813              		.loc 1 1429 0
 814              		.cfi_startproc
 815              		@ args = 0, pretend = 0, frame = 8
 816              		@ frame_needed = 0, uses_anonymous_args = 0
 817              	.LVL130:
 818 0000 F0B5     		push	{r4, r5, r6, r7, lr}
 819              		.cfi_def_cfa_offset 20
 820              		.cfi_offset 4, -20
 821              		.cfi_offset 5, -16
 822              		.cfi_offset 6, -12
 823              		.cfi_offset 7, -8
 824              		.cfi_offset 14, -4
 825 0002 83B0     		sub	sp, sp, #12
 826              		.cfi_def_cfa_offset 32
 827              	.LVL131:
1430:Generated_Source\PSoC6/CapSense_Processing.c ****     uint32 snsCnt;
1431:Generated_Source\PSoC6/CapSense_Processing.c ****     uint32 snsMask;
1432:Generated_Source\PSoC6/CapSense_Processing.c ****     uint32 touchTh;
1433:Generated_Source\PSoC6/CapSense_Processing.c ****     uint32 newStatus = 0Lu;
1434:Generated_Source\PSoC6/CapSense_Processing.c ****     uint8 * ptrDebounceCnt;
1435:Generated_Source\PSoC6/CapSense_Processing.c ****     CapSense_RAM_SNS_STRUCT *ptrSnsTmp;
ARM GAS  C:\Users\Austina\AppData\Local\Temp\ccLgwUrp.s 			page 42


1436:Generated_Source\PSoC6/CapSense_Processing.c ****     CapSense_RAM_WD_SLIDER_STRUCT *ptrRamWdgt;
1437:Generated_Source\PSoC6/CapSense_Processing.c **** 
1438:Generated_Source\PSoC6/CapSense_Processing.c ****     #if (0u != CapSense_POSITION_FILTER_EN)
1439:Generated_Source\PSoC6/CapSense_Processing.c ****         CapSense_SLIDER_POS_HISTORY_STRUCT *ptrHistory;
1440:Generated_Source\PSoC6/CapSense_Processing.c ****     #endif /* #if (0u != CapSense_POSITION_FILTER_EN) */
1441:Generated_Source\PSoC6/CapSense_Processing.c **** 
1442:Generated_Source\PSoC6/CapSense_Processing.c ****     uint32 touchIdx;
1443:Generated_Source\PSoC6/CapSense_Processing.c ****     uint32 touchCnt = 0Lu;
1444:Generated_Source\PSoC6/CapSense_Processing.c ****     uint16 newPos[CapSense_NUM_CENTROIDS];
1445:Generated_Source\PSoC6/CapSense_Processing.c **** 
1446:Generated_Source\PSoC6/CapSense_Processing.c ****     snsCnt = ptrFlashWdgt->totalNumSns;
 828              		.loc 1 1446 0
 829 0004 0B8B     		ldrh	r3, [r1, #24]
 830              	.LVL132:
1447:Generated_Source\PSoC6/CapSense_Processing.c ****     ptrSnsTmp = ptrFlashWdgt->ptr2SnsRam;
 831              		.loc 1 1447 0
 832 0006 8A68     		ldr	r2, [r1, #8]
 833              	.LVL133:
1448:Generated_Source\PSoC6/CapSense_Processing.c ****     ptrRamWdgt = (CapSense_RAM_WD_SLIDER_STRUCT *)ptrFlashWdgt->ptr2WdgtRam;
 834              		.loc 1 1448 0
 835 0008 4D68     		ldr	r5, [r1, #4]
 836              	.LVL134:
1449:Generated_Source\PSoC6/CapSense_Processing.c ****     ptrDebounceCnt = ptrFlashWdgt->ptr2DebounceArr;
 837              		.loc 1 1449 0
 838 000a D1F810E0 		ldr	lr, [r1, #16]
 839              	.LVL135:
1450:Generated_Source\PSoC6/CapSense_Processing.c **** 
1451:Generated_Source\PSoC6/CapSense_Processing.c ****     #if (0u != CapSense_POSITION_FILTER_EN)
1452:Generated_Source\PSoC6/CapSense_Processing.c ****         ptrHistory = ptrFlashWdgt->ptr2PosHistory;
1453:Generated_Source\PSoC6/CapSense_Processing.c ****     #endif /* #if (0u != CapSense_POSITION_FILTER_EN) */
1454:Generated_Source\PSoC6/CapSense_Processing.c **** 
1455:Generated_Source\PSoC6/CapSense_Processing.c ****     /* Calculate touch threshold based on current slider state */
1456:Generated_Source\PSoC6/CapSense_Processing.c ****     touchTh = (0Lu == currStatus ) ?
1457:Generated_Source\PSoC6/CapSense_Processing.c ****               ((uint32)ptrRamWdgt->fingerTh + ptrRamWdgt->hysteresis) :
 840              		.loc 1 1457 0
 841 000e 8446     		mov	ip, r0
 842 0010 18B9     		cbnz	r0, .L66
 843              		.loc 1 1457 0 is_stmt 0 discriminator 1
 844 0012 6F88     		ldrh	r7, [r5, #2]
 845 0014 A879     		ldrb	r0, [r5, #6]	@ zero_extendqisi2
 846              	.LVL136:
 847 0016 0744     		add	r7, r7, r0
 848 0018 02E0     		b	.L67
 849              	.LVL137:
 850              	.L66:
1458:Generated_Source\PSoC6/CapSense_Processing.c ****               ((uint32)ptrRamWdgt->fingerTh - ptrRamWdgt->hysteresis);
 851              		.loc 1 1458 0 is_stmt 1 discriminator 2
 852 001a 6888     		ldrh	r0, [r5, #2]
 853              	.LVL138:
 854 001c AF79     		ldrb	r7, [r5, #6]	@ zero_extendqisi2
1457:Generated_Source\PSoC6/CapSense_Processing.c ****               ((uint32)ptrRamWdgt->fingerTh - ptrRamWdgt->hysteresis);
 855              		.loc 1 1457 0 discriminator 2
 856 001e C71B     		subs	r7, r0, r7
 857              	.L67:
 858              	.LVL139:
1433:Generated_Source\PSoC6/CapSense_Processing.c ****     uint8 * ptrDebounceCnt;
 859              		.loc 1 1433 0
ARM GAS  C:\Users\Austina\AppData\Local\Temp\ccLgwUrp.s 			page 43


 860 0020 0024     		movs	r4, #0
1459:Generated_Source\PSoC6/CapSense_Processing.c **** 
1460:Generated_Source\PSoC6/CapSense_Processing.c ****     /* Go through all widget's sensors */
1461:Generated_Source\PSoC6/CapSense_Processing.c ****     snsMask = 1Lu;
 861              		.loc 1 1461 0
 862 0022 0120     		movs	r0, #1
1462:Generated_Source\PSoC6/CapSense_Processing.c ****     for (; snsCnt-- > 0Lu; )
 863              		.loc 1 1462 0
 864 0024 09E0     		b	.L68
 865              	.LVL140:
 866              	.L70:
1463:Generated_Source\PSoC6/CapSense_Processing.c ****     {
1464:Generated_Source\PSoC6/CapSense_Processing.c ****         /* Determine new potential sensor state */
1465:Generated_Source\PSoC6/CapSense_Processing.c ****         newStatus |= (ptrSnsTmp->diff > touchTh) ? snsMask : 0Lu;
 867              		.loc 1 1465 0
 868 0026 D388     		ldrh	r3, [r2, #6]
 869 0028 9F42     		cmp	r7, r3
 870 002a 01D3     		bcc	.L80
 871 002c 0023     		movs	r3, #0
 872 002e 00E0     		b	.L69
 873              	.L80:
 874 0030 0346     		mov	r3, r0
 875              	.L69:
 876              		.loc 1 1465 0 is_stmt 0 discriminator 4
 877 0032 1C43     		orrs	r4, r4, r3
 878              	.LVL141:
1466:Generated_Source\PSoC6/CapSense_Processing.c ****         ptrSnsTmp++;
 879              		.loc 1 1466 0 is_stmt 1 discriminator 4
 880 0034 0A32     		adds	r2, r2, #10
 881              	.LVL142:
1467:Generated_Source\PSoC6/CapSense_Processing.c **** 
1468:Generated_Source\PSoC6/CapSense_Processing.c ****         snsMask <<= 1u;
 882              		.loc 1 1468 0 discriminator 4
 883 0036 4000     		lsls	r0, r0, #1
 884              	.LVL143:
1462:Generated_Source\PSoC6/CapSense_Processing.c ****     {
 885              		.loc 1 1462 0 discriminator 4
 886 0038 3346     		mov	r3, r6
 887              	.LVL144:
 888              	.L68:
1462:Generated_Source\PSoC6/CapSense_Processing.c ****     {
 889              		.loc 1 1462 0 is_stmt 0
 890 003a 5E1E     		subs	r6, r3, #1
 891              	.LVL145:
 892 003c 002B     		cmp	r3, #0
 893 003e F2D1     		bne	.L70
1469:Generated_Source\PSoC6/CapSense_Processing.c ****     }
1470:Generated_Source\PSoC6/CapSense_Processing.c **** 
1471:Generated_Source\PSoC6/CapSense_Processing.c ****     /* If widget is active, check whether debounce is needed */
1472:Generated_Source\PSoC6/CapSense_Processing.c ****     if (0Lu != newStatus)
 894              		.loc 1 1472 0 is_stmt 1
 895 0040 54B1     		cbz	r4, .L71
1473:Generated_Source\PSoC6/CapSense_Processing.c ****     {
1474:Generated_Source\PSoC6/CapSense_Processing.c ****         if (0u < (*ptrDebounceCnt))
 896              		.loc 1 1474 0
 897 0042 9EF80030 		ldrb	r3, [lr]	@ zero_extendqisi2
 898 0046 13B1     		cbz	r3, .L72
ARM GAS  C:\Users\Austina\AppData\Local\Temp\ccLgwUrp.s 			page 44


1475:Generated_Source\PSoC6/CapSense_Processing.c ****         {
1476:Generated_Source\PSoC6/CapSense_Processing.c ****             /* Decrement debounce counter */
1477:Generated_Source\PSoC6/CapSense_Processing.c ****             (*ptrDebounceCnt)--;
 899              		.loc 1 1477 0
 900 0048 013B     		subs	r3, r3, #1
 901 004a 8EF80030 		strb	r3, [lr]
 902              	.L72:
1478:Generated_Source\PSoC6/CapSense_Processing.c ****         }
1479:Generated_Source\PSoC6/CapSense_Processing.c **** 
1480:Generated_Source\PSoC6/CapSense_Processing.c ****         if (0u == (*ptrDebounceCnt))
 903              		.loc 1 1480 0
 904 004e 9EF80030 		ldrb	r3, [lr]	@ zero_extendqisi2
 905 0052 23B1     		cbz	r3, .L73
 906 0054 6446     		mov	r4, ip
 907              	.LVL146:
 908 0056 02E0     		b	.L73
 909              	.LVL147:
 910              	.L71:
1481:Generated_Source\PSoC6/CapSense_Processing.c ****         {
1482:Generated_Source\PSoC6/CapSense_Processing.c ****             /* Update slider sensor state when debounce completes */
1483:Generated_Source\PSoC6/CapSense_Processing.c ****             currStatus = newStatus;
1484:Generated_Source\PSoC6/CapSense_Processing.c ****         }
1485:Generated_Source\PSoC6/CapSense_Processing.c ****     }
1486:Generated_Source\PSoC6/CapSense_Processing.c ****     else
1487:Generated_Source\PSoC6/CapSense_Processing.c ****     {
1488:Generated_Source\PSoC6/CapSense_Processing.c ****         /* Reset debounce counter */
1489:Generated_Source\PSoC6/CapSense_Processing.c ****         *ptrDebounceCnt = ptrRamWdgt->onDebounce;
 911              		.loc 1 1489 0
 912 0058 EB79     		ldrb	r3, [r5, #7]	@ zero_extendqisi2
 913 005a 8EF80030 		strb	r3, [lr]
 914              	.LVL148:
 915              	.L73:
1490:Generated_Source\PSoC6/CapSense_Processing.c **** 
1491:Generated_Source\PSoC6/CapSense_Processing.c ****         /* Clear slider sensor state */
1492:Generated_Source\PSoC6/CapSense_Processing.c ****         currStatus = 0Lu;
1493:Generated_Source\PSoC6/CapSense_Processing.c ****     }
1494:Generated_Source\PSoC6/CapSense_Processing.c **** 
1495:Generated_Source\PSoC6/CapSense_Processing.c ****     /* Centroid processing */
1496:Generated_Source\PSoC6/CapSense_Processing.c ****     /* If there are active sensors after debounce run the centroid algorithm */
1497:Generated_Source\PSoC6/CapSense_Processing.c ****     if (0u != currStatus)
 916              		.loc 1 1497 0
 917 005e 5CB1     		cbz	r4, .L81
 918 0060 0E46     		mov	r6, r1
 919              	.LVL149:
1498:Generated_Source\PSoC6/CapSense_Processing.c ****     {
1499:Generated_Source\PSoC6/CapSense_Processing.c ****         /* Centroid always uses the lowest finger threshold (minus hysteresis)
1500:Generated_Source\PSoC6/CapSense_Processing.c ****          * to produce same results for first and all consecutive invocations */
1501:Generated_Source\PSoC6/CapSense_Processing.c ****         touchTh = (uint32)ptrRamWdgt->fingerTh - ptrRamWdgt->hysteresis;
 920              		.loc 1 1501 0
 921 0062 6A88     		ldrh	r2, [r5, #2]
 922              	.LVL150:
 923 0064 AB79     		ldrb	r3, [r5, #6]	@ zero_extendqisi2
 924              	.LVL151:
1502:Generated_Source\PSoC6/CapSense_Processing.c ****         snsCnt = ptrFlashWdgt->totalNumSns;
 925              		.loc 1 1502 0
 926 0066 0F8B     		ldrh	r7, [r1, #24]
 927              	.LVL152:
ARM GAS  C:\Users\Austina\AppData\Local\Temp\ccLgwUrp.s 			page 45


1503:Generated_Source\PSoC6/CapSense_Processing.c **** 
1504:Generated_Source\PSoC6/CapSense_Processing.c ****         #if (0u != CapSense_TOTAL_DIPLEXED_SLIDERS)
1505:Generated_Source\PSoC6/CapSense_Processing.c ****             if ((0u != (ptrFlashWdgt->staticConfig & CapSense_DIPLEXING_MASK)))
1506:Generated_Source\PSoC6/CapSense_Processing.c ****             {
1507:Generated_Source\PSoC6/CapSense_Processing.c ****                 /* Run local maximum search for duplexed slider */
1508:Generated_Source\PSoC6/CapSense_Processing.c ****                 touchCnt = CapSense_DpFindLocalMaxDiplex(
1509:Generated_Source\PSoC6/CapSense_Processing.c ****                                 ptrFlashWdgt->ptr2SnsRam, snsCnt, ptrFlashWdgt->ptr2DiplexTable, to
1510:Generated_Source\PSoC6/CapSense_Processing.c **** 
1511:Generated_Source\PSoC6/CapSense_Processing.c ****                 /* Centroid calculation API requires double sensor count for the diplexed sliders. 
1512:Generated_Source\PSoC6/CapSense_Processing.c ****                 snsCnt *= 2u;
1513:Generated_Source\PSoC6/CapSense_Processing.c ****             }
1514:Generated_Source\PSoC6/CapSense_Processing.c ****             else
1515:Generated_Source\PSoC6/CapSense_Processing.c ****             {
1516:Generated_Source\PSoC6/CapSense_Processing.c ****                 /* Run local maximum search for NON-duplexed slider */
1517:Generated_Source\PSoC6/CapSense_Processing.c ****                 #if (CapSense_ENABLE == CapSense_4PTS_LOCAL_MAX_EN)
1518:Generated_Source\PSoC6/CapSense_Processing.c ****                     touchCnt = CapSense_DpFindLocalMaxSd4pts(ptrFlashWdgt, ptrFlashWdgt->ptr2SnsRam
1519:Generated_Source\PSoC6/CapSense_Processing.c ****                 #else
1520:Generated_Source\PSoC6/CapSense_Processing.c ****                     touchCnt = CapSense_DpFindLocalMaxSd(ptrFlashWdgt->ptr2SnsRam, snsCnt, touchTh)
1521:Generated_Source\PSoC6/CapSense_Processing.c ****                 #endif
1522:Generated_Source\PSoC6/CapSense_Processing.c ****             }
1523:Generated_Source\PSoC6/CapSense_Processing.c ****         #else
1524:Generated_Source\PSoC6/CapSense_Processing.c ****             /* Run local maximum search for NON-duplexed slider */
1525:Generated_Source\PSoC6/CapSense_Processing.c ****             #if (CapSense_ENABLE == CapSense_4PTS_LOCAL_MAX_EN)
1526:Generated_Source\PSoC6/CapSense_Processing.c ****                 touchCnt = CapSense_DpFindLocalMaxSd4pts(ptrFlashWdgt, ptrFlashWdgt->ptr2SnsRam, sn
1527:Generated_Source\PSoC6/CapSense_Processing.c ****             #else
1528:Generated_Source\PSoC6/CapSense_Processing.c ****                 touchCnt = CapSense_DpFindLocalMaxSd(ptrFlashWdgt->ptr2SnsRam, snsCnt, touchTh);
 928              		.loc 1 1528 0
 929 0068 D21A     		subs	r2, r2, r3
 930              	.LVL153:
 931 006a 3946     		mov	r1, r7
 932              	.LVL154:
 933 006c B068     		ldr	r0, [r6, #8]
 934              	.LVL155:
 935 006e FFF7FEFF 		bl	CapSense_DpFindLocalMaxSd
 936              	.LVL156:
1529:Generated_Source\PSoC6/CapSense_Processing.c ****             #endif
1530:Generated_Source\PSoC6/CapSense_Processing.c ****         #endif /* #if (0u != CapSense_TOTAL_DIPLEXED_SLIDERS) */
1531:Generated_Source\PSoC6/CapSense_Processing.c **** 
1532:Generated_Source\PSoC6/CapSense_Processing.c ****         /* If at least one touch is detected */
1533:Generated_Source\PSoC6/CapSense_Processing.c ****         if (0u != touchCnt)
 937              		.loc 1 1533 0
 938 0072 0346     		mov	r3, r0
 939 0074 10B9     		cbnz	r0, .L75
 940 0076 23E0     		b	.L76
 941              	.LVL157:
 942              	.L81:
1443:Generated_Source\PSoC6/CapSense_Processing.c ****     uint16 newPos[CapSense_NUM_CENTROIDS];
 943              		.loc 1 1443 0
 944 0078 0023     		movs	r3, #0
 945 007a 21E0     		b	.L76
 946              	.LVL158:
 947              	.L75:
1534:Generated_Source\PSoC6/CapSense_Processing.c ****         {
1535:Generated_Source\PSoC6/CapSense_Processing.c ****             /* Determine slider type and calculate new position(s) */
1536:Generated_Source\PSoC6/CapSense_Processing.c ****             #if (0u != CapSense_TOTAL_LINEAR_SLIDERS)
1537:Generated_Source\PSoC6/CapSense_Processing.c ****                 if ((CapSense_WD_TYPE_ENUM)ptrFlashWdgt->wdgtType == CapSense_WD_LINEAR_SLIDER_E)
 948              		.loc 1 1537 0
ARM GAS  C:\Users\Austina\AppData\Local\Temp\ccLgwUrp.s 			page 46


 949 007c B27E     		ldrb	r2, [r6, #26]	@ zero_extendqisi2
 950 007e 022A     		cmp	r2, #2
 951 0080 1ED1     		bne	.L76
1538:Generated_Source\PSoC6/CapSense_Processing.c ****                 {
1539:Generated_Source\PSoC6/CapSense_Processing.c ****                     #if (CapSense_ENABLE == CapSense_SLIDER_MULT_METHOD)
1540:Generated_Source\PSoC6/CapSense_Processing.c ****                         touchCnt = CapSense_DpCalcLinearCentroid(newPos, (uint32)ptrFlashWdgt->xCen
1541:Generated_Source\PSoC6/CapSense_Processing.c ****                                     snsCnt, (uint32)(ptrFlashWdgt->xCentroidMultiplier >> 1));
1542:Generated_Source\PSoC6/CapSense_Processing.c ****                     #else
1543:Generated_Source\PSoC6/CapSense_Processing.c ****                         touchCnt = CapSense_DpCalcLinearCentroid(
 952              		.loc 1 1543 0
 953 0082 0023     		movs	r3, #0
 954 0084 3A46     		mov	r2, r7
 955 0086 316A     		ldr	r1, [r6, #32]
 956 0088 01A8     		add	r0, sp, #4
 957              	.LVL159:
 958 008a FFF7FEFF 		bl	CapSense_DpCalcLinearCentroid
 959              	.LVL160:
 960 008e 0346     		mov	r3, r0
 961              	.LVL161:
 962              	.LBB8:
 963              	.LBB9:
1544:Generated_Source\PSoC6/CapSense_Processing.c ****                                         newPos, (uint32)ptrFlashWdgt->xCentroidMultiplier, snsCnt, 
1545:Generated_Source\PSoC6/CapSense_Processing.c ****                     #endif
1546:Generated_Source\PSoC6/CapSense_Processing.c ****                     DpUpdateLinSlider(newPos, touchCnt, ptrFlashWdgt, ptrRamWdgt);
1547:Generated_Source\PSoC6/CapSense_Processing.c ****                 }
1548:Generated_Source\PSoC6/CapSense_Processing.c ****             #endif /* #if (0u != CapSense_TOTAL_LINEAR_SLIDERS) */
1549:Generated_Source\PSoC6/CapSense_Processing.c **** 
1550:Generated_Source\PSoC6/CapSense_Processing.c ****             #if (0u != CapSense_TOTAL_RADIAL_SLIDERS)
1551:Generated_Source\PSoC6/CapSense_Processing.c ****                 if ((CapSense_WD_TYPE_ENUM)ptrFlashWdgt->wdgtType == CapSense_WD_RADIAL_SLIDER_E)
1552:Generated_Source\PSoC6/CapSense_Processing.c ****                 {
1553:Generated_Source\PSoC6/CapSense_Processing.c ****                     touchCnt = CapSense_DpCalcRadialCentroid(
1554:Generated_Source\PSoC6/CapSense_Processing.c ****                                     newPos, (uint32)ptrFlashWdgt->xCentroidMultiplier, snsCnt);
1555:Generated_Source\PSoC6/CapSense_Processing.c ****                     DpUpdateRadSlider(newPos, touchCnt, ptrFlashWdgt, ptrRamWdgt);
1556:Generated_Source\PSoC6/CapSense_Processing.c ****                 }
1557:Generated_Source\PSoC6/CapSense_Processing.c ****             #endif /* #if (0u != CapSense_TOTAL_RADIAL_SLIDERS) */
1558:Generated_Source\PSoC6/CapSense_Processing.c ****         }
1559:Generated_Source\PSoC6/CapSense_Processing.c ****     }
1560:Generated_Source\PSoC6/CapSense_Processing.c **** 
1561:Generated_Source\PSoC6/CapSense_Processing.c ****     /* Clear not active position data slots */
1562:Generated_Source\PSoC6/CapSense_Processing.c ****     for (touchIdx = touchCnt; touchIdx < CapSense_NUM_CENTROIDS; touchIdx++)
1563:Generated_Source\PSoC6/CapSense_Processing.c ****     {
1564:Generated_Source\PSoC6/CapSense_Processing.c ****         ptrRamWdgt->position[touchIdx] = CapSense_SLIDER_POS_NONE;
1565:Generated_Source\PSoC6/CapSense_Processing.c **** 
1566:Generated_Source\PSoC6/CapSense_Processing.c ****         #if (0u != CapSense_POSITION_FILTER_EN)
1567:Generated_Source\PSoC6/CapSense_Processing.c ****             if (NULL != ptrHistory)
1568:Generated_Source\PSoC6/CapSense_Processing.c ****             {
1569:Generated_Source\PSoC6/CapSense_Processing.c ****                 CapSense_InitPosFiltersSd(&ptrHistory[touchIdx], CapSense_SLIDER_POS_NONE);
1570:Generated_Source\PSoC6/CapSense_Processing.c ****             }
1571:Generated_Source\PSoC6/CapSense_Processing.c ****         #endif /* #if (0u != CapSense_POSITION_FILTER_EN) */
1572:Generated_Source\PSoC6/CapSense_Processing.c ****     }
1573:Generated_Source\PSoC6/CapSense_Processing.c **** 
1574:Generated_Source\PSoC6/CapSense_Processing.c ****     return currStatus;
1575:Generated_Source\PSoC6/CapSense_Processing.c **** }
1576:Generated_Source\PSoC6/CapSense_Processing.c **** #endif /* #if (0u != CapSense_SLIDER_WIDGET_EN) */
1577:Generated_Source\PSoC6/CapSense_Processing.c **** 
1578:Generated_Source\PSoC6/CapSense_Processing.c **** #if (0u != CapSense_TOTAL_LINEAR_SLIDERS)
1579:Generated_Source\PSoC6/CapSense_Processing.c **** /*******************************************************************************
ARM GAS  C:\Users\Austina\AppData\Local\Temp\ccLgwUrp.s 			page 47


1580:Generated_Source\PSoC6/CapSense_Processing.c **** * Function Name: DpUpdateLinSlider
1581:Generated_Source\PSoC6/CapSense_Processing.c **** ****************************************************************************//**
1582:Generated_Source\PSoC6/CapSense_Processing.c **** *
1583:Generated_Source\PSoC6/CapSense_Processing.c **** * \brief
1584:Generated_Source\PSoC6/CapSense_Processing.c **** *   Updates the touch status of the Linear Slider widget.
1585:Generated_Source\PSoC6/CapSense_Processing.c **** *
1586:Generated_Source\PSoC6/CapSense_Processing.c **** * \details
1587:Generated_Source\PSoC6/CapSense_Processing.c **** *   This function updates the position data of the Linear Slider
1588:Generated_Source\PSoC6/CapSense_Processing.c **** *   in the Data Structure. Also, this function runs position filters for the
1589:Generated_Source\PSoC6/CapSense_Processing.c **** *   position data if any enabled.
1590:Generated_Source\PSoC6/CapSense_Processing.c **** *
1591:Generated_Source\PSoC6/CapSense_Processing.c **** * \param newPos       The pointer to the array with the new finger position coordinates.
1592:Generated_Source\PSoC6/CapSense_Processing.c **** * \param numTouches   The number of the coordinates in the newPos array.
1593:Generated_Source\PSoC6/CapSense_Processing.c **** * \param ptrFlashWdgt The pointer to the Flash Widget Object.
1594:Generated_Source\PSoC6/CapSense_Processing.c **** * \param ptrRamWdgt   The pointer to the RAM Widget Object.
1595:Generated_Source\PSoC6/CapSense_Processing.c **** *
1596:Generated_Source\PSoC6/CapSense_Processing.c **** *******************************************************************************/
1597:Generated_Source\PSoC6/CapSense_Processing.c **** __STATIC_INLINE void DpUpdateLinSlider(
1598:Generated_Source\PSoC6/CapSense_Processing.c ****                         const uint16 newPos[],
1599:Generated_Source\PSoC6/CapSense_Processing.c ****                         uint32 numTouches,
1600:Generated_Source\PSoC6/CapSense_Processing.c ****                         CapSense_FLASH_WD_STRUCT const *ptrFlashWdgt,
1601:Generated_Source\PSoC6/CapSense_Processing.c ****                         CapSense_RAM_WD_SLIDER_STRUCT *ptrRamWdgt)
1602:Generated_Source\PSoC6/CapSense_Processing.c **** {
1603:Generated_Source\PSoC6/CapSense_Processing.c ****     uint32 touchIdx;
1604:Generated_Source\PSoC6/CapSense_Processing.c **** 
1605:Generated_Source\PSoC6/CapSense_Processing.c ****     #if (0u != CapSense_POS_AVERAGE_FILTER_EN)
1606:Generated_Source\PSoC6/CapSense_Processing.c ****         uint16 tempPosition;
1607:Generated_Source\PSoC6/CapSense_Processing.c ****     #endif /* (0u != CapSense_POS_AVERAGE_FILTER_EN) */
1608:Generated_Source\PSoC6/CapSense_Processing.c **** 
1609:Generated_Source\PSoC6/CapSense_Processing.c ****     #if (0u == CapSense_POSITION_FILTER_EN)
1610:Generated_Source\PSoC6/CapSense_Processing.c ****         /* This parameter is unused in such configurations */
1611:Generated_Source\PSoC6/CapSense_Processing.c ****         (void)ptrFlashWdgt;
1612:Generated_Source\PSoC6/CapSense_Processing.c ****     #else
1613:Generated_Source\PSoC6/CapSense_Processing.c ****         uint16 filteredPosition;
1614:Generated_Source\PSoC6/CapSense_Processing.c ****         /* Get bitmask with the enabled filters */
1615:Generated_Source\PSoC6/CapSense_Processing.c ****         uint32 filterConfig = (uint32)ptrFlashWdgt->staticConfig;
1616:Generated_Source\PSoC6/CapSense_Processing.c ****         /* Get pointer to the position filter history */
1617:Generated_Source\PSoC6/CapSense_Processing.c ****         CapSense_SLIDER_POS_HISTORY_STRUCT *ptrHistory = ptrFlashWdgt->ptr2PosHistory;
1618:Generated_Source\PSoC6/CapSense_Processing.c ****     #endif /* #if (0u == CapSense_POSITION_FILTER_EN) */
1619:Generated_Source\PSoC6/CapSense_Processing.c **** 
1620:Generated_Source\PSoC6/CapSense_Processing.c ****     #if (0u != CapSense_POS_ADAPTIVE_IIR_FILTER_EN)
1621:Generated_Source\PSoC6/CapSense_Processing.c ****         ADAPTIVE_FILTER_CONTEXT_STRUCT contextAIIR;
1622:Generated_Source\PSoC6/CapSense_Processing.c ****         uint16 emptyPosition = 0;
1623:Generated_Source\PSoC6/CapSense_Processing.c ****     #endif /* (0u != CapSense_POS_ADAPTIVE_IIR_FILTER_EN) */
1624:Generated_Source\PSoC6/CapSense_Processing.c **** 
1625:Generated_Source\PSoC6/CapSense_Processing.c ****     /* Run Filter and update the position registers with the filtered data */
1626:Generated_Source\PSoC6/CapSense_Processing.c ****     for (touchIdx = 0u; touchIdx < numTouches; touchIdx++)
 964              		.loc 1 1626 0
 965 0090 0022     		movs	r2, #0
 966 0092 0AE0     		b	.L77
 967              	.LVL162:
 968              	.L78:
1627:Generated_Source\PSoC6/CapSense_Processing.c ****     {
1628:Generated_Source\PSoC6/CapSense_Processing.c ****         #if (0u == CapSense_POSITION_FILTER_EN)
1629:Generated_Source\PSoC6/CapSense_Processing.c ****             /* If filters are not enabled just copy the position data */
1630:Generated_Source\PSoC6/CapSense_Processing.c ****             ptrRamWdgt->position[touchIdx] = newPos[touchIdx];
 969              		.loc 1 1630 0
ARM GAS  C:\Users\Austina\AppData\Local\Temp\ccLgwUrp.s 			page 48


 970 0094 02A9     		add	r1, sp, #8
 971 0096 01EB4201 		add	r1, r1, r2, lsl #1
 972 009a 31F8040C 		ldrh	r0, [r1, #-4]
 973 009e 02F10801 		add	r1, r2, #8
 974 00a2 05EB4101 		add	r1, r5, r1, lsl #1
 975 00a6 8880     		strh	r0, [r1, #4]	@ movhi
1626:Generated_Source\PSoC6/CapSense_Processing.c ****     {
 976              		.loc 1 1626 0
 977 00a8 0132     		adds	r2, r2, #1
 978              	.LVL163:
 979              	.L77:
 980 00aa 9342     		cmp	r3, r2
 981 00ac F2D8     		bhi	.L78
 982 00ae 07E0     		b	.L76
 983              	.LVL164:
 984              	.L79:
 985              	.LBE9:
 986              	.LBE8:
1564:Generated_Source\PSoC6/CapSense_Processing.c **** 
 987              		.loc 1 1564 0 discriminator 3
 988 00b0 03F10802 		add	r2, r3, #8
 989 00b4 05EB4202 		add	r2, r5, r2, lsl #1
 990 00b8 4FF6FF71 		movw	r1, #65535
 991 00bc 9180     		strh	r1, [r2, #4]	@ movhi
1562:Generated_Source\PSoC6/CapSense_Processing.c ****     {
 992              		.loc 1 1562 0 discriminator 3
 993 00be 0133     		adds	r3, r3, #1
 994              	.LVL165:
 995              	.L76:
1562:Generated_Source\PSoC6/CapSense_Processing.c ****     {
 996              		.loc 1 1562 0 is_stmt 0 discriminator 1
 997 00c0 002B     		cmp	r3, #0
 998 00c2 F5D0     		beq	.L79
1575:Generated_Source\PSoC6/CapSense_Processing.c **** #endif /* #if (0u != CapSense_SLIDER_WIDGET_EN) */
 999              		.loc 1 1575 0 is_stmt 1
 1000 00c4 2046     		mov	r0, r4
 1001 00c6 03B0     		add	sp, sp, #12
 1002              		.cfi_def_cfa_offset 20
 1003              		@ sp needed
 1004 00c8 F0BD     		pop	{r4, r5, r6, r7, pc}
 1005              		.cfi_endproc
 1006              	.LFE136:
 1007              		.size	CapSense_DpProcessSlider, .-CapSense_DpProcessSlider
 1008 00ca 00BF     		.section	.text.CapSense_DpProcessCsdWidgetStatus,"ax",%progbits
 1009              		.align	2
 1010              		.global	CapSense_DpProcessCsdWidgetStatus
 1011              		.thumb
 1012              		.thumb_func
 1013              		.type	CapSense_DpProcessCsdWidgetStatus, %function
 1014              	CapSense_DpProcessCsdWidgetStatus:
 1015              	.LFB132:
1016:Generated_Source\PSoC6/CapSense_Processing.c ****     uint32 sensorStatus;
 1016              		.loc 1 1016 0
 1017              		.cfi_startproc
 1018              		@ args = 0, pretend = 0, frame = 0
 1019              		@ frame_needed = 0, uses_anonymous_args = 0
 1020              	.LVL166:
ARM GAS  C:\Users\Austina\AppData\Local\Temp\ccLgwUrp.s 			page 49


 1021 0000 38B5     		push	{r3, r4, r5, lr}
 1022              		.cfi_def_cfa_offset 16
 1023              		.cfi_offset 3, -16
 1024              		.cfi_offset 4, -12
 1025              		.cfi_offset 5, -8
 1026              		.cfi_offset 14, -4
 1027 0002 0446     		mov	r4, r0
1022:Generated_Source\PSoC6/CapSense_Processing.c ****     sensorStatus = CapSense_dsRam.snsStatus[widgetId];
 1028              		.loc 1 1022 0
 1029 0004 8A7E     		ldrb	r2, [r1, #26]	@ zero_extendqisi2
 1030              	.LVL167:
1023:Generated_Source\PSoC6/CapSense_Processing.c **** 
 1031              		.loc 1 1023 0
 1032 0006 194B     		ldr	r3, .L92
 1033 0008 0344     		add	r3, r3, r0
 1034 000a 1D7E     		ldrb	r5, [r3, #24]	@ zero_extendqisi2
 1035              	.LVL168:
1025:Generated_Source\PSoC6/CapSense_Processing.c ****     {
 1036              		.loc 1 1025 0
 1037 000c 012A     		cmp	r2, #1
 1038 000e 03D0     		beq	.L85
 1039 0010 62B1     		cbz	r2, .L84
 1040 0012 032A     		cmp	r2, #3
 1041 0014 05D9     		bls	.L90
 1042 0016 09E0     		b	.L84
 1043              	.L85:
1029:Generated_Source\PSoC6/CapSense_Processing.c ****             break;
 1044              		.loc 1 1029 0
 1045 0018 2846     		mov	r0, r5
 1046              	.LVL169:
 1047 001a FFF7FEFF 		bl	CapSense_DpProcessButton
 1048              	.LVL170:
 1049 001e 0546     		mov	r5, r0
 1050              	.LVL171:
1030:Generated_Source\PSoC6/CapSense_Processing.c ****     #endif /* #if (0u != CapSense_BUTTON_WIDGET_EN) */
 1051              		.loc 1 1030 0
 1052 0020 09E0     		b	.L87
 1053              	.LVL172:
 1054              	.L90:
1036:Generated_Source\PSoC6/CapSense_Processing.c ****             break;
 1055              		.loc 1 1036 0
 1056 0022 2846     		mov	r0, r5
 1057              	.LVL173:
 1058 0024 FFF7FEFF 		bl	CapSense_DpProcessSlider
 1059              	.LVL174:
 1060 0028 0546     		mov	r5, r0
 1061              	.LVL175:
1037:Generated_Source\PSoC6/CapSense_Processing.c ****     #endif /* #if (0u != CapSense_SLIDER_WIDGET_EN) */
 1062              		.loc 1 1037 0
 1063 002a 04E0     		b	.L87
 1064              	.LVL176:
 1065              	.L84:
1062:Generated_Source\PSoC6/CapSense_Processing.c ****         break;
 1066              		.loc 1 1062 0 discriminator 1
 1067 002c 40F22641 		movw	r1, #1062
 1068              	.LVL177:
 1069 0030 0F48     		ldr	r0, .L92+4
ARM GAS  C:\Users\Austina\AppData\Local\Temp\ccLgwUrp.s 			page 50


 1070              	.LVL178:
 1071 0032 FFF7FEFF 		bl	Cy_SysLib_AssertFailed
 1072              	.LVL179:
 1073              	.L87:
1066:Generated_Source\PSoC6/CapSense_Processing.c **** 
 1074              		.loc 1 1066 0
 1075 0036 0D4B     		ldr	r3, .L92
 1076 0038 2344     		add	r3, r3, r4
 1077 003a 1D76     		strb	r5, [r3, #24]
1069:Generated_Source\PSoC6/CapSense_Processing.c ****     wdStatusMask = CapSense_GET_WDGT_STATUS_MASK(widgetId);
 1078              		.loc 1 1069 0
 1079 003c 6209     		lsrs	r2, r4, #5
 1080              	.LVL180:
1070:Generated_Source\PSoC6/CapSense_Processing.c **** 
 1081              		.loc 1 1070 0
 1082 003e 04F01F04 		and	r4, r4, #31
 1083              	.LVL181:
 1084 0042 0123     		movs	r3, #1
 1085 0044 03FA04F4 		lsl	r4, r3, r4
 1086              	.LVL182:
1073:Generated_Source\PSoC6/CapSense_Processing.c ****     {
 1087              		.loc 1 1073 0
 1088 0048 45B9     		cbnz	r5, .L88
1075:Generated_Source\PSoC6/CapSense_Processing.c ****     }
 1089              		.loc 1 1075 0
 1090 004a 0432     		adds	r2, r2, #4
 1091              	.LVL183:
 1092 004c 074B     		ldr	r3, .L92
 1093 004e 03EB8202 		add	r2, r3, r2, lsl #2
 1094              	.LVL184:
 1095 0052 5368     		ldr	r3, [r2, #4]
 1096 0054 23EA0404 		bic	r4, r3, r4
 1097              	.LVL185:
 1098 0058 5460     		str	r4, [r2, #4]
 1099 005a 38BD     		pop	{r3, r4, r5, pc}
 1100              	.LVL186:
 1101              	.L88:
1079:Generated_Source\PSoC6/CapSense_Processing.c ****     }
 1102              		.loc 1 1079 0
 1103 005c 0432     		adds	r2, r2, #4
 1104              	.LVL187:
 1105 005e 034B     		ldr	r3, .L92
 1106 0060 03EB8202 		add	r2, r3, r2, lsl #2
 1107              	.LVL188:
 1108 0064 5368     		ldr	r3, [r2, #4]
 1109 0066 1C43     		orrs	r4, r4, r3
 1110              	.LVL189:
 1111 0068 5460     		str	r4, [r2, #4]
 1112 006a 38BD     		pop	{r3, r4, r5, pc}
 1113              	.LVL190:
 1114              	.L93:
 1115              		.align	2
 1116              	.L92:
 1117 006c 00000000 		.word	CapSense_dsRam
 1118 0070 00000000 		.word	.LC0
 1119              		.cfi_endproc
 1120              	.LFE132:
ARM GAS  C:\Users\Austina\AppData\Local\Temp\ccLgwUrp.s 			page 51


 1121              		.size	CapSense_DpProcessCsdWidgetStatus, .-CapSense_DpProcessCsdWidgetStatus
 1122              		.section	.rodata.str1.4,"aMS",%progbits,1
 1123              		.align	2
 1124              	.LC0:
 1125 0000 47656E65 		.ascii	"Generated_Source\\PSoC6\\CapSense_Processing.c\000"
 1125      72617465 
 1125      645F536F 
 1125      75726365 
 1125      5C50536F 
 1126              		.text
 1127              	.Letext0:
 1128              		.file 2 "c:\\program files (x86)\\cypress\\psoc creator\\4.2\\psoc creator\\import\\gnu\\arm\\5.4.
 1129              		.file 3 "c:\\program files (x86)\\cypress\\psoc creator\\4.2\\psoc creator\\import\\gnu\\arm\\5.4.
 1130              		.file 4 "Generated_Source\\PSoC6\\pdl\\drivers/peripheral/syslib/cy_syslib.h"
 1131              		.file 5 "c:\\program files (x86)\\cypress\\psoc creator\\4.2\\psoc creator\\import\\gnu\\arm\\5.4.
 1132              		.file 6 "Generated_Source\\PSoC6\\CapSense_Configuration.h"
 1133              		.file 7 "Generated_Source\\PSoC6\\CapSense_SmartSense_LL.h"
 1134              		.file 8 "Generated_Source\\PSoC6\\CapSense_TMG.h"
 1135              		.file 9 "Generated_Source\\PSoC6\\CapSense_Structure.h"
 1136              		.file 10 "Generated_Source\\PSoC6\\pdl\\cmsis/include/core_cm4.h"
 1137              		.file 11 "c:\\program files (x86)\\cypress\\psoc creator\\4.2\\psoc creator\\import\\gnu\\arm\\5.4
 1138              		.file 12 "Generated_Source\\PSoC6\\CapSense_Filter.h"
 1139              		.file 13 "Generated_Source\\PSoC6\\CapSense_Centroid_LL.h"
 1140              		.section	.debug_info,"",%progbits
 1141              	.Ldebug_info0:
 1142 0000 6F150000 		.4byte	0x156f
 1143 0004 0400     		.2byte	0x4
 1144 0006 00000000 		.4byte	.Ldebug_abbrev0
 1145 000a 04       		.byte	0x4
 1146 000b 01       		.uleb128 0x1
 1147 000c 11030000 		.4byte	.LASF248
 1148 0010 0C       		.byte	0xc
 1149 0011 4E050000 		.4byte	.LASF249
 1150 0015 D1040000 		.4byte	.LASF250
 1151 0019 00000000 		.4byte	.Ldebug_ranges0+0
 1152 001d 00000000 		.4byte	0
 1153 0021 00000000 		.4byte	.Ldebug_line0
 1154 0025 02       		.uleb128 0x2
 1155 0026 01       		.byte	0x1
 1156 0027 06       		.byte	0x6
 1157 0028 D70E0000 		.4byte	.LASF0
 1158 002c 03       		.uleb128 0x3
 1159 002d B80C0000 		.4byte	.LASF3
 1160 0031 02       		.byte	0x2
 1161 0032 1D       		.byte	0x1d
 1162 0033 37000000 		.4byte	0x37
 1163 0037 02       		.uleb128 0x2
 1164 0038 01       		.byte	0x1
 1165 0039 08       		.byte	0x8
 1166 003a 000E0000 		.4byte	.LASF1
 1167 003e 02       		.uleb128 0x2
 1168 003f 02       		.byte	0x2
 1169 0040 05       		.byte	0x5
 1170 0041 C10B0000 		.4byte	.LASF2
 1171 0045 03       		.uleb128 0x3
 1172 0046 60060000 		.4byte	.LASF4
 1173 004a 02       		.byte	0x2
ARM GAS  C:\Users\Austina\AppData\Local\Temp\ccLgwUrp.s 			page 52


 1174 004b 2B       		.byte	0x2b
 1175 004c 50000000 		.4byte	0x50
 1176 0050 02       		.uleb128 0x2
 1177 0051 02       		.byte	0x2
 1178 0052 07       		.byte	0x7
 1179 0053 0D0F0000 		.4byte	.LASF5
 1180 0057 03       		.uleb128 0x3
 1181 0058 64020000 		.4byte	.LASF6
 1182 005c 02       		.byte	0x2
 1183 005d 3F       		.byte	0x3f
 1184 005e 62000000 		.4byte	0x62
 1185 0062 02       		.uleb128 0x2
 1186 0063 04       		.byte	0x4
 1187 0064 05       		.byte	0x5
 1188 0065 FC0B0000 		.4byte	.LASF7
 1189 0069 03       		.uleb128 0x3
 1190 006a 1B0E0000 		.4byte	.LASF8
 1191 006e 02       		.byte	0x2
 1192 006f 41       		.byte	0x41
 1193 0070 74000000 		.4byte	0x74
 1194 0074 02       		.uleb128 0x2
 1195 0075 04       		.byte	0x4
 1196 0076 07       		.byte	0x7
 1197 0077 410D0000 		.4byte	.LASF9
 1198 007b 02       		.uleb128 0x2
 1199 007c 08       		.byte	0x8
 1200 007d 05       		.byte	0x5
 1201 007e 68090000 		.4byte	.LASF10
 1202 0082 02       		.uleb128 0x2
 1203 0083 08       		.byte	0x8
 1204 0084 07       		.byte	0x7
 1205 0085 F1050000 		.4byte	.LASF11
 1206 0089 04       		.uleb128 0x4
 1207 008a 04       		.byte	0x4
 1208 008b 05       		.byte	0x5
 1209 008c 696E7400 		.ascii	"int\000"
 1210 0090 02       		.uleb128 0x2
 1211 0091 04       		.byte	0x4
 1212 0092 07       		.byte	0x7
 1213 0093 D4010000 		.4byte	.LASF12
 1214 0097 03       		.uleb128 0x3
 1215 0098 B7080000 		.4byte	.LASF13
 1216 009c 03       		.byte	0x3
 1217 009d 18       		.byte	0x18
 1218 009e 2C000000 		.4byte	0x2c
 1219 00a2 03       		.uleb128 0x3
 1220 00a3 F70D0000 		.4byte	.LASF14
 1221 00a7 03       		.byte	0x3
 1222 00a8 24       		.byte	0x24
 1223 00a9 45000000 		.4byte	0x45
 1224 00ad 03       		.uleb128 0x3
 1225 00ae 96020000 		.4byte	.LASF15
 1226 00b2 03       		.byte	0x3
 1227 00b3 2C       		.byte	0x2c
 1228 00b4 57000000 		.4byte	0x57
 1229 00b8 03       		.uleb128 0x3
 1230 00b9 A5040000 		.4byte	.LASF16
ARM GAS  C:\Users\Austina\AppData\Local\Temp\ccLgwUrp.s 			page 53


 1231 00bd 03       		.byte	0x3
 1232 00be 30       		.byte	0x30
 1233 00bf 69000000 		.4byte	0x69
 1234 00c3 02       		.uleb128 0x2
 1235 00c4 04       		.byte	0x4
 1236 00c5 07       		.byte	0x7
 1237 00c6 380D0000 		.4byte	.LASF17
 1238 00ca 05       		.uleb128 0x5
 1239 00cb 97000000 		.4byte	0x97
 1240 00cf 05       		.uleb128 0x5
 1241 00d0 A2000000 		.4byte	0xa2
 1242 00d4 06       		.uleb128 0x6
 1243 00d5 440C0000 		.4byte	.LASF18
 1244 00d9 04       		.byte	0x4
 1245 00da C401     		.2byte	0x1c4
 1246 00dc E0000000 		.4byte	0xe0
 1247 00e0 02       		.uleb128 0x2
 1248 00e1 01       		.byte	0x1
 1249 00e2 08       		.byte	0x8
 1250 00e3 33080000 		.4byte	.LASF19
 1251 00e7 02       		.uleb128 0x2
 1252 00e8 04       		.byte	0x4
 1253 00e9 04       		.byte	0x4
 1254 00ea 42050000 		.4byte	.LASF20
 1255 00ee 02       		.uleb128 0x2
 1256 00ef 08       		.byte	0x8
 1257 00f0 04       		.byte	0x4
 1258 00f1 800F0000 		.4byte	.LASF21
 1259 00f5 06       		.uleb128 0x6
 1260 00f6 7A0F0000 		.4byte	.LASF22
 1261 00fa 04       		.byte	0x4
 1262 00fb 8503     		.2byte	0x385
 1263 00fd 97000000 		.4byte	0x97
 1264 0101 06       		.uleb128 0x6
 1265 0102 A5080000 		.4byte	.LASF23
 1266 0106 04       		.byte	0x4
 1267 0107 8603     		.2byte	0x386
 1268 0109 A2000000 		.4byte	0xa2
 1269 010d 06       		.uleb128 0x6
 1270 010e 600A0000 		.4byte	.LASF24
 1271 0112 04       		.byte	0x4
 1272 0113 8703     		.2byte	0x387
 1273 0115 B8000000 		.4byte	0xb8
 1274 0119 06       		.uleb128 0x6
 1275 011a 48050000 		.4byte	.LASF25
 1276 011e 04       		.byte	0x4
 1277 011f 8A03     		.2byte	0x38a
 1278 0121 AD000000 		.4byte	0xad
 1279 0125 03       		.uleb128 0x3
 1280 0126 F2060000 		.4byte	.LASF26
 1281 012a 05       		.byte	0x5
 1282 012b D8       		.byte	0xd8
 1283 012c 90000000 		.4byte	0x90
 1284 0130 02       		.uleb128 0x2
 1285 0131 08       		.byte	0x8
 1286 0132 04       		.byte	0x4
 1287 0133 000B0000 		.4byte	.LASF27
ARM GAS  C:\Users\Austina\AppData\Local\Temp\ccLgwUrp.s 			page 54


 1288 0137 07       		.uleb128 0x7
 1289 0138 04       		.byte	0x4
 1290 0139 03       		.uleb128 0x3
 1291 013a 770E0000 		.4byte	.LASF28
 1292 013e 06       		.byte	0x6
 1293 013f F2       		.byte	0xf2
 1294 0140 01010000 		.4byte	0x101
 1295 0144 03       		.uleb128 0x3
 1296 0145 C6080000 		.4byte	.LASF29
 1297 0149 06       		.byte	0x6
 1298 014a F6       		.byte	0xf6
 1299 014b F5000000 		.4byte	0xf5
 1300 014f 08       		.uleb128 0x8
 1301 0150 0C       		.byte	0xc
 1302 0151 07       		.byte	0x7
 1303 0152 6E       		.byte	0x6e
 1304 0153 AC010000 		.4byte	0x1ac
 1305 0157 09       		.uleb128 0x9
 1306 0158 AF0F0000 		.4byte	.LASF30
 1307 015c 07       		.byte	0x7
 1308 015d 73       		.byte	0x73
 1309 015e 01010000 		.4byte	0x101
 1310 0162 00       		.byte	0
 1311 0163 09       		.uleb128 0x9
 1312 0164 B60F0000 		.4byte	.LASF31
 1313 0168 07       		.byte	0x7
 1314 0169 77       		.byte	0x77
 1315 016a 01010000 		.4byte	0x101
 1316 016e 02       		.byte	0x2
 1317 016f 09       		.uleb128 0x9
 1318 0170 BD0F0000 		.4byte	.LASF32
 1319 0174 07       		.byte	0x7
 1320 0175 7B       		.byte	0x7b
 1321 0176 01010000 		.4byte	0x101
 1322 017a 04       		.byte	0x4
 1323 017b 09       		.uleb128 0x9
 1324 017c C40F0000 		.4byte	.LASF33
 1325 0180 07       		.byte	0x7
 1326 0181 7F       		.byte	0x7f
 1327 0182 01010000 		.4byte	0x101
 1328 0186 06       		.byte	0x6
 1329 0187 09       		.uleb128 0x9
 1330 0188 CB0F0000 		.4byte	.LASF34
 1331 018c 07       		.byte	0x7
 1332 018d 83       		.byte	0x83
 1333 018e 01010000 		.4byte	0x101
 1334 0192 08       		.byte	0x8
 1335 0193 09       		.uleb128 0x9
 1336 0194 D20F0000 		.4byte	.LASF35
 1337 0198 07       		.byte	0x7
 1338 0199 87       		.byte	0x87
 1339 019a F5000000 		.4byte	0xf5
 1340 019e 0A       		.byte	0xa
 1341 019f 09       		.uleb128 0x9
 1342 01a0 D90F0000 		.4byte	.LASF36
 1343 01a4 07       		.byte	0x7
 1344 01a5 8B       		.byte	0x8b
ARM GAS  C:\Users\Austina\AppData\Local\Temp\ccLgwUrp.s 			page 55


 1345 01a6 F5000000 		.4byte	0xf5
 1346 01aa 0B       		.byte	0xb
 1347 01ab 00       		.byte	0
 1348 01ac 03       		.uleb128 0x3
 1349 01ad 06080000 		.4byte	.LASF37
 1350 01b1 07       		.byte	0x7
 1351 01b2 8C       		.byte	0x8c
 1352 01b3 4F010000 		.4byte	0x14f
 1353 01b7 08       		.uleb128 0x8
 1354 01b8 06       		.byte	0x6
 1355 01b9 07       		.byte	0x7
 1356 01ba 94       		.byte	0x94
 1357 01bb F0010000 		.4byte	0x1f0
 1358 01bf 09       		.uleb128 0x9
 1359 01c0 A50C0000 		.4byte	.LASF38
 1360 01c4 07       		.byte	0x7
 1361 01c5 99       		.byte	0x99
 1362 01c6 01010000 		.4byte	0x101
 1363 01ca 00       		.byte	0
 1364 01cb 09       		.uleb128 0x9
 1365 01cc 2B080000 		.4byte	.LASF39
 1366 01d0 07       		.byte	0x7
 1367 01d1 9E       		.byte	0x9e
 1368 01d2 F5000000 		.4byte	0xf5
 1369 01d6 02       		.byte	0x2
 1370 01d7 09       		.uleb128 0x9
 1371 01d8 E4090000 		.4byte	.LASF40
 1372 01dc 07       		.byte	0x7
 1373 01dd A3       		.byte	0xa3
 1374 01de F5000000 		.4byte	0xf5
 1375 01e2 03       		.byte	0x3
 1376 01e3 09       		.uleb128 0x9
 1377 01e4 1C070000 		.4byte	.LASF41
 1378 01e8 07       		.byte	0x7
 1379 01e9 A8       		.byte	0xa8
 1380 01ea F5000000 		.4byte	0xf5
 1381 01ee 04       		.byte	0x4
 1382 01ef 00       		.byte	0
 1383 01f0 03       		.uleb128 0x3
 1384 01f1 120C0000 		.4byte	.LASF42
 1385 01f5 07       		.byte	0x7
 1386 01f6 A9       		.byte	0xa9
 1387 01f7 B7010000 		.4byte	0x1b7
 1388 01fb 08       		.uleb128 0x8
 1389 01fc 56       		.byte	0x56
 1390 01fd 08       		.byte	0x8
 1391 01fe 21       		.byte	0x21
 1392 01ff 98050000 		.4byte	0x598
 1393 0203 09       		.uleb128 0x9
 1394 0204 510A0000 		.4byte	.LASF43
 1395 0208 08       		.byte	0x8
 1396 0209 26       		.byte	0x26
 1397 020a CA000000 		.4byte	0xca
 1398 020e 00       		.byte	0
 1399 020f 09       		.uleb128 0x9
 1400 0210 8C000000 		.4byte	.LASF44
 1401 0214 08       		.byte	0x8
ARM GAS  C:\Users\Austina\AppData\Local\Temp\ccLgwUrp.s 			page 56


 1402 0215 2D       		.byte	0x2d
 1403 0216 CA000000 		.4byte	0xca
 1404 021a 01       		.byte	0x1
 1405 021b 09       		.uleb128 0x9
 1406 021c 9F000000 		.4byte	.LASF45
 1407 0220 08       		.byte	0x8
 1408 0221 33       		.byte	0x33
 1409 0222 CA000000 		.4byte	0xca
 1410 0226 02       		.byte	0x2
 1411 0227 09       		.uleb128 0x9
 1412 0228 51040000 		.4byte	.LASF46
 1413 022c 08       		.byte	0x8
 1414 022d 39       		.byte	0x39
 1415 022e CA000000 		.4byte	0xca
 1416 0232 03       		.byte	0x3
 1417 0233 09       		.uleb128 0x9
 1418 0234 65040000 		.4byte	.LASF47
 1419 0238 08       		.byte	0x8
 1420 0239 3F       		.byte	0x3f
 1421 023a CA000000 		.4byte	0xca
 1422 023e 04       		.byte	0x4
 1423 023f 09       		.uleb128 0x9
 1424 0240 62000000 		.4byte	.LASF48
 1425 0244 08       		.byte	0x8
 1426 0245 45       		.byte	0x45
 1427 0246 CA000000 		.4byte	0xca
 1428 024a 05       		.byte	0x5
 1429 024b 09       		.uleb128 0x9
 1430 024c 77000000 		.4byte	.LASF49
 1431 0250 08       		.byte	0x8
 1432 0251 4B       		.byte	0x4b
 1433 0252 CA000000 		.4byte	0xca
 1434 0256 06       		.byte	0x6
 1435 0257 09       		.uleb128 0x9
 1436 0258 5B0D0000 		.4byte	.LASF50
 1437 025c 08       		.byte	0x8
 1438 025d 51       		.byte	0x51
 1439 025e CA000000 		.4byte	0xca
 1440 0262 07       		.byte	0x7
 1441 0263 09       		.uleb128 0x9
 1442 0264 18100000 		.4byte	.LASF51
 1443 0268 08       		.byte	0x8
 1444 0269 57       		.byte	0x57
 1445 026a CA000000 		.4byte	0xca
 1446 026e 08       		.byte	0x8
 1447 026f 09       		.uleb128 0x9
 1448 0270 6C010000 		.4byte	.LASF52
 1449 0274 08       		.byte	0x8
 1450 0275 5D       		.byte	0x5d
 1451 0276 CA000000 		.4byte	0xca
 1452 027a 09       		.byte	0x9
 1453 027b 09       		.uleb128 0x9
 1454 027c C8020000 		.4byte	.LASF53
 1455 0280 08       		.byte	0x8
 1456 0281 63       		.byte	0x63
 1457 0282 CA000000 		.4byte	0xca
 1458 0286 0A       		.byte	0xa
ARM GAS  C:\Users\Austina\AppData\Local\Temp\ccLgwUrp.s 			page 57


 1459 0287 09       		.uleb128 0x9
 1460 0288 5E0F0000 		.4byte	.LASF54
 1461 028c 08       		.byte	0x8
 1462 028d 69       		.byte	0x69
 1463 028e CA000000 		.4byte	0xca
 1464 0292 0B       		.byte	0xb
 1465 0293 09       		.uleb128 0x9
 1466 0294 2C100000 		.4byte	.LASF55
 1467 0298 08       		.byte	0x8
 1468 0299 6F       		.byte	0x6f
 1469 029a CA000000 		.4byte	0xca
 1470 029e 0C       		.byte	0xc
 1471 029f 09       		.uleb128 0x9
 1472 02a0 80010000 		.4byte	.LASF56
 1473 02a4 08       		.byte	0x8
 1474 02a5 75       		.byte	0x75
 1475 02a6 CA000000 		.4byte	0xca
 1476 02aa 0D       		.byte	0xd
 1477 02ab 09       		.uleb128 0x9
 1478 02ac DC020000 		.4byte	.LASF57
 1479 02b0 08       		.byte	0x8
 1480 02b1 7B       		.byte	0x7b
 1481 02b2 CA000000 		.4byte	0xca
 1482 02b6 0E       		.byte	0xe
 1483 02b7 09       		.uleb128 0x9
 1484 02b8 620B0000 		.4byte	.LASF58
 1485 02bc 08       		.byte	0x8
 1486 02bd 83       		.byte	0x83
 1487 02be CA000000 		.4byte	0xca
 1488 02c2 0F       		.byte	0xf
 1489 02c3 09       		.uleb128 0x9
 1490 02c4 3A020000 		.4byte	.LASF59
 1491 02c8 08       		.byte	0x8
 1492 02c9 8B       		.byte	0x8b
 1493 02ca CA000000 		.4byte	0xca
 1494 02ce 10       		.byte	0x10
 1495 02cf 09       		.uleb128 0x9
 1496 02d0 48020000 		.4byte	.LASF60
 1497 02d4 08       		.byte	0x8
 1498 02d5 93       		.byte	0x93
 1499 02d6 CA000000 		.4byte	0xca
 1500 02da 11       		.byte	0x11
 1501 02db 09       		.uleb128 0x9
 1502 02dc 56020000 		.4byte	.LASF61
 1503 02e0 08       		.byte	0x8
 1504 02e1 9B       		.byte	0x9b
 1505 02e2 CA000000 		.4byte	0xca
 1506 02e6 12       		.byte	0x12
 1507 02e7 09       		.uleb128 0x9
 1508 02e8 1E090000 		.4byte	.LASF62
 1509 02ec 08       		.byte	0x8
 1510 02ed A2       		.byte	0xa2
 1511 02ee CA000000 		.4byte	0xca
 1512 02f2 13       		.byte	0x13
 1513 02f3 09       		.uleb128 0x9
 1514 02f4 6E020000 		.4byte	.LASF63
 1515 02f8 08       		.byte	0x8
ARM GAS  C:\Users\Austina\AppData\Local\Temp\ccLgwUrp.s 			page 58


 1516 02f9 A8       		.byte	0xa8
 1517 02fa CA000000 		.4byte	0xca
 1518 02fe 14       		.byte	0x14
 1519 02ff 09       		.uleb128 0x9
 1520 0300 9E020000 		.4byte	.LASF64
 1521 0304 08       		.byte	0x8
 1522 0305 AE       		.byte	0xae
 1523 0306 CA000000 		.4byte	0xca
 1524 030a 15       		.byte	0x15
 1525 030b 09       		.uleb128 0x9
 1526 030c 91050000 		.4byte	.LASF65
 1527 0310 08       		.byte	0x8
 1528 0311 B4       		.byte	0xb4
 1529 0312 CA000000 		.4byte	0xca
 1530 0316 16       		.byte	0x16
 1531 0317 09       		.uleb128 0x9
 1532 0318 99060000 		.4byte	.LASF66
 1533 031c 08       		.byte	0x8
 1534 031d BA       		.byte	0xba
 1535 031e CA000000 		.4byte	0xca
 1536 0322 17       		.byte	0x17
 1537 0323 09       		.uleb128 0x9
 1538 0324 82020000 		.4byte	.LASF67
 1539 0328 08       		.byte	0x8
 1540 0329 C0       		.byte	0xc0
 1541 032a CA000000 		.4byte	0xca
 1542 032e 18       		.byte	0x18
 1543 032f 09       		.uleb128 0x9
 1544 0330 EC030000 		.4byte	.LASF68
 1545 0334 08       		.byte	0x8
 1546 0335 C6       		.byte	0xc6
 1547 0336 CA000000 		.4byte	0xca
 1548 033a 19       		.byte	0x19
 1549 033b 09       		.uleb128 0x9
 1550 033c A5050000 		.4byte	.LASF69
 1551 0340 08       		.byte	0x8
 1552 0341 CC       		.byte	0xcc
 1553 0342 CA000000 		.4byte	0xca
 1554 0346 1A       		.byte	0x1a
 1555 0347 09       		.uleb128 0x9
 1556 0348 AD060000 		.4byte	.LASF70
 1557 034c 08       		.byte	0x8
 1558 034d D2       		.byte	0xd2
 1559 034e CA000000 		.4byte	0xca
 1560 0352 1B       		.byte	0x1b
 1561 0353 09       		.uleb128 0x9
 1562 0354 890B0000 		.4byte	.LASF71
 1563 0358 08       		.byte	0x8
 1564 0359 DA       		.byte	0xda
 1565 035a CA000000 		.4byte	0xca
 1566 035e 1C       		.byte	0x1c
 1567 035f 09       		.uleb128 0x9
 1568 0360 970B0000 		.4byte	.LASF72
 1569 0364 08       		.byte	0x8
 1570 0365 E2       		.byte	0xe2
 1571 0366 CA000000 		.4byte	0xca
 1572 036a 1D       		.byte	0x1d
ARM GAS  C:\Users\Austina\AppData\Local\Temp\ccLgwUrp.s 			page 59


 1573 036b 09       		.uleb128 0x9
 1574 036c A50B0000 		.4byte	.LASF73
 1575 0370 08       		.byte	0x8
 1576 0371 EA       		.byte	0xea
 1577 0372 CA000000 		.4byte	0xca
 1578 0376 1E       		.byte	0x1e
 1579 0377 09       		.uleb128 0x9
 1580 0378 B30B0000 		.4byte	.LASF74
 1581 037c 08       		.byte	0x8
 1582 037d F2       		.byte	0xf2
 1583 037e CA000000 		.4byte	0xca
 1584 0382 1F       		.byte	0x1f
 1585 0383 09       		.uleb128 0x9
 1586 0384 C4030000 		.4byte	.LASF75
 1587 0388 08       		.byte	0x8
 1588 0389 F9       		.byte	0xf9
 1589 038a CA000000 		.4byte	0xca
 1590 038e 20       		.byte	0x20
 1591 038f 0A       		.uleb128 0xa
 1592 0390 AD070000 		.4byte	.LASF76
 1593 0394 08       		.byte	0x8
 1594 0395 0001     		.2byte	0x100
 1595 0397 CA000000 		.4byte	0xca
 1596 039b 21       		.byte	0x21
 1597 039c 0A       		.uleb128 0xa
 1598 039d D8070000 		.4byte	.LASF77
 1599 03a1 08       		.byte	0x8
 1600 03a2 0701     		.2byte	0x107
 1601 03a4 CA000000 		.4byte	0xca
 1602 03a8 22       		.byte	0x22
 1603 03a9 0A       		.uleb128 0xa
 1604 03aa EF070000 		.4byte	.LASF78
 1605 03ae 08       		.byte	0x8
 1606 03af 0E01     		.2byte	0x10e
 1607 03b1 CA000000 		.4byte	0xca
 1608 03b5 23       		.byte	0x23
 1609 03b6 0A       		.uleb128 0xa
 1610 03b7 F1000000 		.4byte	.LASF79
 1611 03bb 08       		.byte	0x8
 1612 03bc 1501     		.2byte	0x115
 1613 03be CA000000 		.4byte	0xca
 1614 03c2 24       		.byte	0x24
 1615 03c3 0A       		.uleb128 0xa
 1616 03c4 3E010000 		.4byte	.LASF80
 1617 03c8 08       		.byte	0x8
 1618 03c9 1C01     		.2byte	0x11c
 1619 03cb CA000000 		.4byte	0xca
 1620 03cf 25       		.byte	0x25
 1621 03d0 0A       		.uleb128 0xa
 1622 03d1 55010000 		.4byte	.LASF81
 1623 03d5 08       		.byte	0x8
 1624 03d6 2301     		.2byte	0x123
 1625 03d8 CA000000 		.4byte	0xca
 1626 03dc 26       		.byte	0x26
 1627 03dd 0A       		.uleb128 0xa
 1628 03de 08060000 		.4byte	.LASF82
 1629 03e2 08       		.byte	0x8
ARM GAS  C:\Users\Austina\AppData\Local\Temp\ccLgwUrp.s 			page 60


 1630 03e3 2A01     		.2byte	0x12a
 1631 03e5 CA000000 		.4byte	0xca
 1632 03e9 27       		.byte	0x27
 1633 03ea 0A       		.uleb128 0xa
 1634 03eb E30E0000 		.4byte	.LASF83
 1635 03ef 08       		.byte	0x8
 1636 03f0 3101     		.2byte	0x131
 1637 03f2 CA000000 		.4byte	0xca
 1638 03f6 28       		.byte	0x28
 1639 03f7 0A       		.uleb128 0xa
 1640 03f8 FB0E0000 		.4byte	.LASF84
 1641 03fc 08       		.byte	0x8
 1642 03fd 3701     		.2byte	0x137
 1643 03ff CA000000 		.4byte	0xca
 1644 0403 29       		.byte	0x29
 1645 0404 0A       		.uleb128 0xa
 1646 0405 FA080000 		.4byte	.LASF85
 1647 0409 08       		.byte	0x8
 1648 040a 3D01     		.2byte	0x13d
 1649 040c CA000000 		.4byte	0xca
 1650 0410 2A       		.byte	0x2a
 1651 0411 0A       		.uleb128 0xa
 1652 0412 52090000 		.4byte	.LASF86
 1653 0416 08       		.byte	0x8
 1654 0417 4401     		.2byte	0x144
 1655 0419 CA000000 		.4byte	0xca
 1656 041d 2B       		.byte	0x2b
 1657 041e 0A       		.uleb128 0xa
 1658 041f 38090000 		.4byte	.LASF87
 1659 0423 08       		.byte	0x8
 1660 0424 4A01     		.2byte	0x14a
 1661 0426 CA000000 		.4byte	0xca
 1662 042a 2C       		.byte	0x2c
 1663 042b 0A       		.uleb128 0xa
 1664 042c E20A0000 		.4byte	.LASF88
 1665 0430 08       		.byte	0x8
 1666 0431 5001     		.2byte	0x150
 1667 0433 CA000000 		.4byte	0xca
 1668 0437 2D       		.byte	0x2d
 1669 0438 0A       		.uleb128 0xa
 1670 0439 420F0000 		.4byte	.LASF89
 1671 043d 08       		.byte	0x8
 1672 043e 5701     		.2byte	0x157
 1673 0440 CA000000 		.4byte	0xca
 1674 0444 2E       		.byte	0x2e
 1675 0445 0A       		.uleb128 0xa
 1676 0446 AE040000 		.4byte	.LASF90
 1677 044a 08       		.byte	0x8
 1678 044b 5F01     		.2byte	0x15f
 1679 044d CA000000 		.4byte	0xca
 1680 0451 2F       		.byte	0x2f
 1681 0452 0A       		.uleb128 0xa
 1682 0453 870F0000 		.4byte	.LASF91
 1683 0457 08       		.byte	0x8
 1684 0458 6801     		.2byte	0x168
 1685 045a CA000000 		.4byte	0xca
 1686 045e 30       		.byte	0x30
ARM GAS  C:\Users\Austina\AppData\Local\Temp\ccLgwUrp.s 			page 61


 1687 045f 0A       		.uleb128 0xa
 1688 0460 9B070000 		.4byte	.LASF92
 1689 0464 08       		.byte	0x8
 1690 0465 6E01     		.2byte	0x16e
 1691 0467 CA000000 		.4byte	0xca
 1692 046b 31       		.byte	0x31
 1693 046c 0A       		.uleb128 0xa
 1694 046d 35040000 		.4byte	.LASF93
 1695 0471 08       		.byte	0x8
 1696 0472 7401     		.2byte	0x174
 1697 0474 CA000000 		.4byte	0xca
 1698 0478 32       		.byte	0x32
 1699 0479 0A       		.uleb128 0xa
 1700 047a F8090000 		.4byte	.LASF94
 1701 047e 08       		.byte	0x8
 1702 047f 7A01     		.2byte	0x17a
 1703 0481 CA000000 		.4byte	0xca
 1704 0485 33       		.byte	0x33
 1705 0486 0A       		.uleb128 0xa
 1706 0487 050A0000 		.4byte	.LASF95
 1707 048b 08       		.byte	0x8
 1708 048c 8001     		.2byte	0x180
 1709 048e CA000000 		.4byte	0xca
 1710 0492 34       		.byte	0x34
 1711 0493 0A       		.uleb128 0xa
 1712 0494 B6010000 		.4byte	.LASF96
 1713 0498 08       		.byte	0x8
 1714 0499 8601     		.2byte	0x186
 1715 049b CF000000 		.4byte	0xcf
 1716 049f 36       		.byte	0x36
 1717 04a0 0A       		.uleb128 0xa
 1718 04a1 7F0D0000 		.4byte	.LASF97
 1719 04a5 08       		.byte	0x8
 1720 04a6 8B01     		.2byte	0x18b
 1721 04a8 CF000000 		.4byte	0xcf
 1722 04ac 38       		.byte	0x38
 1723 04ad 0A       		.uleb128 0xa
 1724 04ae 8B0D0000 		.4byte	.LASF98
 1725 04b2 08       		.byte	0x8
 1726 04b3 9001     		.2byte	0x190
 1727 04b5 CF000000 		.4byte	0xcf
 1728 04b9 3A       		.byte	0x3a
 1729 04ba 0A       		.uleb128 0xa
 1730 04bb 32050000 		.4byte	.LASF99
 1731 04bf 08       		.byte	0x8
 1732 04c0 9501     		.2byte	0x195
 1733 04c2 CF000000 		.4byte	0xcf
 1734 04c6 3C       		.byte	0x3c
 1735 04c7 0A       		.uleb128 0xa
 1736 04c8 00000000 		.4byte	.LASF100
 1737 04cc 08       		.byte	0x8
 1738 04cd 9A01     		.2byte	0x19a
 1739 04cf CF000000 		.4byte	0xcf
 1740 04d3 3E       		.byte	0x3e
 1741 04d4 0A       		.uleb128 0xa
 1742 04d5 F0020000 		.4byte	.LASF101
 1743 04d9 08       		.byte	0x8
ARM GAS  C:\Users\Austina\AppData\Local\Temp\ccLgwUrp.s 			page 62


 1744 04da A001     		.2byte	0x1a0
 1745 04dc CF000000 		.4byte	0xcf
 1746 04e0 40       		.byte	0x40
 1747 04e1 0A       		.uleb128 0xa
 1748 04e2 460B0000 		.4byte	.LASF102
 1749 04e6 08       		.byte	0x8
 1750 04e7 A801     		.2byte	0x1a8
 1751 04e9 CF000000 		.4byte	0xcf
 1752 04ed 42       		.byte	0x42
 1753 04ee 0A       		.uleb128 0xa
 1754 04ef E50D0000 		.4byte	.LASF103
 1755 04f3 08       		.byte	0x8
 1756 04f4 AF01     		.2byte	0x1af
 1757 04f6 CF000000 		.4byte	0xcf
 1758 04fa 44       		.byte	0x44
 1759 04fb 0A       		.uleb128 0xa
 1760 04fc 03070000 		.4byte	.LASF104
 1761 0500 08       		.byte	0x8
 1762 0501 B701     		.2byte	0x1b7
 1763 0503 CF000000 		.4byte	0xcf
 1764 0507 46       		.byte	0x46
 1765 0508 0A       		.uleb128 0xa
 1766 0509 530E0000 		.4byte	.LASF105
 1767 050d 08       		.byte	0x8
 1768 050e BD01     		.2byte	0x1bd
 1769 0510 CF000000 		.4byte	0xcf
 1770 0514 48       		.byte	0x48
 1771 0515 0A       		.uleb128 0xa
 1772 0516 78070000 		.4byte	.LASF106
 1773 051a 08       		.byte	0x8
 1774 051b C301     		.2byte	0x1c3
 1775 051d CF000000 		.4byte	0xcf
 1776 0521 4A       		.byte	0x4a
 1777 0522 0A       		.uleb128 0xa
 1778 0523 47040000 		.4byte	.LASF107
 1779 0527 08       		.byte	0x8
 1780 0528 CC01     		.2byte	0x1cc
 1781 052a CA000000 		.4byte	0xca
 1782 052e 4C       		.byte	0x4c
 1783 052f 0A       		.uleb128 0xa
 1784 0530 A50A0000 		.4byte	.LASF108
 1785 0534 08       		.byte	0x8
 1786 0535 D101     		.2byte	0x1d1
 1787 0537 CA000000 		.4byte	0xca
 1788 053b 4D       		.byte	0x4d
 1789 053c 0A       		.uleb128 0xa
 1790 053d D80A0000 		.4byte	.LASF109
 1791 0541 08       		.byte	0x8
 1792 0542 D601     		.2byte	0x1d6
 1793 0544 CA000000 		.4byte	0xca
 1794 0548 4E       		.byte	0x4e
 1795 0549 0A       		.uleb128 0xa
 1796 054a B2020000 		.4byte	.LASF110
 1797 054e 08       		.byte	0x8
 1798 054f DB01     		.2byte	0x1db
 1799 0551 CA000000 		.4byte	0xca
 1800 0555 4F       		.byte	0x4f
ARM GAS  C:\Users\Austina\AppData\Local\Temp\ccLgwUrp.s 			page 63


 1801 0556 0A       		.uleb128 0xa
 1802 0557 00040000 		.4byte	.LASF111
 1803 055b 08       		.byte	0x8
 1804 055c E001     		.2byte	0x1e0
 1805 055e CA000000 		.4byte	0xca
 1806 0562 50       		.byte	0x50
 1807 0563 0A       		.uleb128 0xa
 1808 0564 C20C0000 		.4byte	.LASF112
 1809 0568 08       		.byte	0x8
 1810 0569 E501     		.2byte	0x1e5
 1811 056b CA000000 		.4byte	0xca
 1812 056f 51       		.byte	0x51
 1813 0570 0A       		.uleb128 0xa
 1814 0571 AE0C0000 		.4byte	.LASF113
 1815 0575 08       		.byte	0x8
 1816 0576 EA01     		.2byte	0x1ea
 1817 0578 CA000000 		.4byte	0xca
 1818 057c 52       		.byte	0x52
 1819 057d 0A       		.uleb128 0xa
 1820 057e 7D080000 		.4byte	.LASF114
 1821 0582 08       		.byte	0x8
 1822 0583 EF01     		.2byte	0x1ef
 1823 0585 CA000000 		.4byte	0xca
 1824 0589 53       		.byte	0x53
 1825 058a 0A       		.uleb128 0xa
 1826 058b F9060000 		.4byte	.LASF115
 1827 058f 08       		.byte	0x8
 1828 0590 F401     		.2byte	0x1f4
 1829 0592 CA000000 		.4byte	0xca
 1830 0596 54       		.byte	0x54
 1831 0597 00       		.byte	0
 1832 0598 06       		.uleb128 0x6
 1833 0599 1D0D0000 		.4byte	.LASF116
 1834 059d 08       		.byte	0x8
 1835 059e F501     		.2byte	0x1f5
 1836 05a0 FB010000 		.4byte	0x1fb
 1837 05a4 0B       		.uleb128 0xb
 1838 05a5 01       		.byte	0x1
 1839 05a6 37000000 		.4byte	0x37
 1840 05aa 09       		.byte	0x9
 1841 05ab 61       		.byte	0x61
 1842 05ac D5050000 		.4byte	0x5d5
 1843 05b0 0C       		.uleb128 0xc
 1844 05b1 610C0000 		.4byte	.LASF117
 1845 05b5 01       		.byte	0x1
 1846 05b6 0C       		.uleb128 0xc
 1847 05b7 890A0000 		.4byte	.LASF118
 1848 05bb 02       		.byte	0x2
 1849 05bc 0C       		.uleb128 0xc
 1850 05bd 27070000 		.4byte	.LASF119
 1851 05c1 03       		.byte	0x3
 1852 05c2 0C       		.uleb128 0xc
 1853 05c3 1A060000 		.4byte	.LASF120
 1854 05c7 04       		.byte	0x4
 1855 05c8 0C       		.uleb128 0xc
 1856 05c9 D5030000 		.4byte	.LASF121
 1857 05cd 05       		.byte	0x5
ARM GAS  C:\Users\Austina\AppData\Local\Temp\ccLgwUrp.s 			page 64


 1858 05ce 0C       		.uleb128 0xc
 1859 05cf 22000000 		.4byte	.LASF122
 1860 05d3 06       		.byte	0x6
 1861 05d4 00       		.byte	0
 1862 05d5 03       		.uleb128 0x3
 1863 05d6 2E0A0000 		.4byte	.LASF123
 1864 05da 09       		.byte	0x9
 1865 05db 68       		.byte	0x68
 1866 05dc A4050000 		.4byte	0x5a4
 1867 05e0 08       		.uleb128 0x8
 1868 05e1 14       		.byte	0x14
 1869 05e2 09       		.byte	0x9
 1870 05e3 8C       		.byte	0x8c
 1871 05e4 85060000 		.4byte	0x685
 1872 05e8 09       		.uleb128 0x9
 1873 05e9 AC080000 		.4byte	.LASF124
 1874 05ed 09       		.byte	0x9
 1875 05ee 92       		.byte	0x92
 1876 05ef 01010000 		.4byte	0x101
 1877 05f3 00       		.byte	0
 1878 05f4 09       		.uleb128 0x9
 1879 05f5 A50C0000 		.4byte	.LASF38
 1880 05f9 09       		.byte	0x9
 1881 05fa 97       		.byte	0x97
 1882 05fb 39010000 		.4byte	0x139
 1883 05ff 02       		.byte	0x2
 1884 0600 09       		.uleb128 0x9
 1885 0601 2B080000 		.4byte	.LASF39
 1886 0605 09       		.byte	0x9
 1887 0606 9C       		.byte	0x9c
 1888 0607 F5000000 		.4byte	0xf5
 1889 060b 04       		.byte	0x4
 1890 060c 09       		.uleb128 0x9
 1891 060d E4090000 		.4byte	.LASF40
 1892 0611 09       		.byte	0x9
 1893 0612 A1       		.byte	0xa1
 1894 0613 F5000000 		.4byte	0xf5
 1895 0617 05       		.byte	0x5
 1896 0618 09       		.uleb128 0x9
 1897 0619 1C070000 		.4byte	.LASF41
 1898 061d 09       		.byte	0x9
 1899 061e A6       		.byte	0xa6
 1900 061f F5000000 		.4byte	0xf5
 1901 0623 06       		.byte	0x6
 1902 0624 09       		.uleb128 0x9
 1903 0625 7E090000 		.4byte	.LASF125
 1904 0629 09       		.byte	0x9
 1905 062a AB       		.byte	0xab
 1906 062b F5000000 		.4byte	0xf5
 1907 062f 07       		.byte	0x7
 1908 0630 09       		.uleb128 0x9
 1909 0631 90070000 		.4byte	.LASF126
 1910 0635 09       		.byte	0x9
 1911 0636 B2       		.byte	0xb2
 1912 0637 44010000 		.4byte	0x144
 1913 063b 08       		.byte	0x8
 1914 063c 09       		.uleb128 0x9
ARM GAS  C:\Users\Austina\AppData\Local\Temp\ccLgwUrp.s 			page 65


 1915 063d 530D0000 		.4byte	.LASF127
 1916 0641 09       		.byte	0x9
 1917 0642 BA       		.byte	0xba
 1918 0643 85060000 		.4byte	0x685
 1919 0647 09       		.byte	0x9
 1920 0648 09       		.uleb128 0x9
 1921 0649 BA0E0000 		.4byte	.LASF128
 1922 064d 09       		.byte	0x9
 1923 064e C3       		.byte	0xc3
 1924 064f 01010000 		.4byte	0x101
 1925 0653 0A       		.byte	0xa
 1926 0654 09       		.uleb128 0x9
 1927 0655 700B0000 		.4byte	.LASF129
 1928 0659 09       		.byte	0x9
 1929 065a C8       		.byte	0xc8
 1930 065b F5000000 		.4byte	0xf5
 1931 065f 0C       		.byte	0xc
 1932 0660 09       		.uleb128 0x9
 1933 0661 DF0C0000 		.4byte	.LASF130
 1934 0665 09       		.byte	0x9
 1935 0666 CF       		.byte	0xcf
 1936 0667 01010000 		.4byte	0x101
 1937 066b 0E       		.byte	0xe
 1938 066c 09       		.uleb128 0x9
 1939 066d 15070000 		.4byte	.LASF131
 1940 0671 09       		.byte	0x9
 1941 0672 D4       		.byte	0xd4
 1942 0673 01010000 		.4byte	0x101
 1943 0677 10       		.byte	0x10
 1944 0678 09       		.uleb128 0x9
 1945 0679 560A0000 		.4byte	.LASF132
 1946 067d 09       		.byte	0x9
 1947 067e D9       		.byte	0xd9
 1948 067f F5000000 		.4byte	0xf5
 1949 0683 12       		.byte	0x12
 1950 0684 00       		.byte	0
 1951 0685 0D       		.uleb128 0xd
 1952 0686 F5000000 		.4byte	0xf5
 1953 068a 95060000 		.4byte	0x695
 1954 068e 0E       		.uleb128 0xe
 1955 068f C3000000 		.4byte	0xc3
 1956 0693 00       		.byte	0
 1957 0694 00       		.byte	0
 1958 0695 03       		.uleb128 0x3
 1959 0696 120A0000 		.4byte	.LASF133
 1960 069a 09       		.byte	0x9
 1961 069b DA       		.byte	0xda
 1962 069c E0050000 		.4byte	0x5e0
 1963 06a0 08       		.uleb128 0x8
 1964 06a1 14       		.byte	0x14
 1965 06a2 09       		.byte	0x9
 1966 06a3 DF       		.byte	0xdf
 1967 06a4 4C070000 		.4byte	0x74c
 1968 06a8 09       		.uleb128 0x9
 1969 06a9 AC080000 		.4byte	.LASF124
 1970 06ad 09       		.byte	0x9
 1971 06ae E5       		.byte	0xe5
ARM GAS  C:\Users\Austina\AppData\Local\Temp\ccLgwUrp.s 			page 66


 1972 06af 01010000 		.4byte	0x101
 1973 06b3 00       		.byte	0
 1974 06b4 09       		.uleb128 0x9
 1975 06b5 A50C0000 		.4byte	.LASF38
 1976 06b9 09       		.byte	0x9
 1977 06ba EA       		.byte	0xea
 1978 06bb 39010000 		.4byte	0x139
 1979 06bf 02       		.byte	0x2
 1980 06c0 09       		.uleb128 0x9
 1981 06c1 2B080000 		.4byte	.LASF39
 1982 06c5 09       		.byte	0x9
 1983 06c6 EF       		.byte	0xef
 1984 06c7 F5000000 		.4byte	0xf5
 1985 06cb 04       		.byte	0x4
 1986 06cc 09       		.uleb128 0x9
 1987 06cd E4090000 		.4byte	.LASF40
 1988 06d1 09       		.byte	0x9
 1989 06d2 F4       		.byte	0xf4
 1990 06d3 F5000000 		.4byte	0xf5
 1991 06d7 05       		.byte	0x5
 1992 06d8 09       		.uleb128 0x9
 1993 06d9 1C070000 		.4byte	.LASF41
 1994 06dd 09       		.byte	0x9
 1995 06de F9       		.byte	0xf9
 1996 06df F5000000 		.4byte	0xf5
 1997 06e3 06       		.byte	0x6
 1998 06e4 09       		.uleb128 0x9
 1999 06e5 7E090000 		.4byte	.LASF125
 2000 06e9 09       		.byte	0x9
 2001 06ea FE       		.byte	0xfe
 2002 06eb F5000000 		.4byte	0xf5
 2003 06ef 07       		.byte	0x7
 2004 06f0 0A       		.uleb128 0xa
 2005 06f1 90070000 		.4byte	.LASF126
 2006 06f5 09       		.byte	0x9
 2007 06f6 0501     		.2byte	0x105
 2008 06f8 44010000 		.4byte	0x144
 2009 06fc 08       		.byte	0x8
 2010 06fd 0A       		.uleb128 0xa
 2011 06fe 530D0000 		.4byte	.LASF127
 2012 0702 09       		.byte	0x9
 2013 0703 0D01     		.2byte	0x10d
 2014 0705 85060000 		.4byte	0x685
 2015 0709 09       		.byte	0x9
 2016 070a 0A       		.uleb128 0xa
 2017 070b BA0E0000 		.4byte	.LASF128
 2018 070f 09       		.byte	0x9
 2019 0710 1601     		.2byte	0x116
 2020 0712 01010000 		.4byte	0x101
 2021 0716 0A       		.byte	0xa
 2022 0717 0A       		.uleb128 0xa
 2023 0718 700B0000 		.4byte	.LASF129
 2024 071c 09       		.byte	0x9
 2025 071d 1B01     		.2byte	0x11b
 2026 071f F5000000 		.4byte	0xf5
 2027 0723 0C       		.byte	0xc
 2028 0724 0A       		.uleb128 0xa
ARM GAS  C:\Users\Austina\AppData\Local\Temp\ccLgwUrp.s 			page 67


 2029 0725 DF0C0000 		.4byte	.LASF130
 2030 0729 09       		.byte	0x9
 2031 072a 2201     		.2byte	0x122
 2032 072c 01010000 		.4byte	0x101
 2033 0730 0E       		.byte	0xe
 2034 0731 0A       		.uleb128 0xa
 2035 0732 15070000 		.4byte	.LASF131
 2036 0736 09       		.byte	0x9
 2037 0737 2701     		.2byte	0x127
 2038 0739 01010000 		.4byte	0x101
 2039 073d 10       		.byte	0x10
 2040 073e 0A       		.uleb128 0xa
 2041 073f 560A0000 		.4byte	.LASF132
 2042 0743 09       		.byte	0x9
 2043 0744 2C01     		.2byte	0x12c
 2044 0746 F5000000 		.4byte	0xf5
 2045 074a 12       		.byte	0x12
 2046 074b 00       		.byte	0
 2047 074c 06       		.uleb128 0x6
 2048 074d BC0D0000 		.4byte	.LASF134
 2049 0751 09       		.byte	0x9
 2050 0752 2D01     		.2byte	0x12d
 2051 0754 A0060000 		.4byte	0x6a0
 2052 0758 0F       		.uleb128 0xf
 2053 0759 16       		.byte	0x16
 2054 075a 09       		.byte	0x9
 2055 075b 3201     		.2byte	0x132
 2056 075d 18080000 		.4byte	0x818
 2057 0761 0A       		.uleb128 0xa
 2058 0762 AC080000 		.4byte	.LASF124
 2059 0766 09       		.byte	0x9
 2060 0767 3801     		.2byte	0x138
 2061 0769 01010000 		.4byte	0x101
 2062 076d 00       		.byte	0
 2063 076e 0A       		.uleb128 0xa
 2064 076f A50C0000 		.4byte	.LASF38
 2065 0773 09       		.byte	0x9
 2066 0774 3D01     		.2byte	0x13d
 2067 0776 39010000 		.4byte	0x139
 2068 077a 02       		.byte	0x2
 2069 077b 0A       		.uleb128 0xa
 2070 077c 2B080000 		.4byte	.LASF39
 2071 0780 09       		.byte	0x9
 2072 0781 4201     		.2byte	0x142
 2073 0783 F5000000 		.4byte	0xf5
 2074 0787 04       		.byte	0x4
 2075 0788 0A       		.uleb128 0xa
 2076 0789 E4090000 		.4byte	.LASF40
 2077 078d 09       		.byte	0x9
 2078 078e 4701     		.2byte	0x147
 2079 0790 F5000000 		.4byte	0xf5
 2080 0794 05       		.byte	0x5
 2081 0795 0A       		.uleb128 0xa
 2082 0796 1C070000 		.4byte	.LASF41
 2083 079a 09       		.byte	0x9
 2084 079b 4C01     		.2byte	0x14c
 2085 079d F5000000 		.4byte	0xf5
ARM GAS  C:\Users\Austina\AppData\Local\Temp\ccLgwUrp.s 			page 68


 2086 07a1 06       		.byte	0x6
 2087 07a2 0A       		.uleb128 0xa
 2088 07a3 7E090000 		.4byte	.LASF125
 2089 07a7 09       		.byte	0x9
 2090 07a8 5101     		.2byte	0x151
 2091 07aa F5000000 		.4byte	0xf5
 2092 07ae 07       		.byte	0x7
 2093 07af 0A       		.uleb128 0xa
 2094 07b0 90070000 		.4byte	.LASF126
 2095 07b4 09       		.byte	0x9
 2096 07b5 5801     		.2byte	0x158
 2097 07b7 44010000 		.4byte	0x144
 2098 07bb 08       		.byte	0x8
 2099 07bc 0A       		.uleb128 0xa
 2100 07bd 530D0000 		.4byte	.LASF127
 2101 07c1 09       		.byte	0x9
 2102 07c2 6001     		.2byte	0x160
 2103 07c4 85060000 		.4byte	0x685
 2104 07c8 09       		.byte	0x9
 2105 07c9 0A       		.uleb128 0xa
 2106 07ca BA0E0000 		.4byte	.LASF128
 2107 07ce 09       		.byte	0x9
 2108 07cf 6901     		.2byte	0x169
 2109 07d1 01010000 		.4byte	0x101
 2110 07d5 0A       		.byte	0xa
 2111 07d6 0A       		.uleb128 0xa
 2112 07d7 700B0000 		.4byte	.LASF129
 2113 07db 09       		.byte	0x9
 2114 07dc 6E01     		.2byte	0x16e
 2115 07de F5000000 		.4byte	0xf5
 2116 07e2 0C       		.byte	0xc
 2117 07e3 0A       		.uleb128 0xa
 2118 07e4 DF0C0000 		.4byte	.LASF130
 2119 07e8 09       		.byte	0x9
 2120 07e9 7501     		.2byte	0x175
 2121 07eb 01010000 		.4byte	0x101
 2122 07ef 0E       		.byte	0xe
 2123 07f0 0A       		.uleb128 0xa
 2124 07f1 15070000 		.4byte	.LASF131
 2125 07f5 09       		.byte	0x9
 2126 07f6 7A01     		.2byte	0x17a
 2127 07f8 01010000 		.4byte	0x101
 2128 07fc 10       		.byte	0x10
 2129 07fd 0A       		.uleb128 0xa
 2130 07fe 560A0000 		.4byte	.LASF132
 2131 0802 09       		.byte	0x9
 2132 0803 7F01     		.2byte	0x17f
 2133 0805 F5000000 		.4byte	0xf5
 2134 0809 12       		.byte	0x12
 2135 080a 0A       		.uleb128 0xa
 2136 080b F20F0000 		.4byte	.LASF135
 2137 080f 09       		.byte	0x9
 2138 0810 8401     		.2byte	0x184
 2139 0812 18080000 		.4byte	0x818
 2140 0816 14       		.byte	0x14
 2141 0817 00       		.byte	0
 2142 0818 0D       		.uleb128 0xd
ARM GAS  C:\Users\Austina\AppData\Local\Temp\ccLgwUrp.s 			page 69


 2143 0819 01010000 		.4byte	0x101
 2144 081d 28080000 		.4byte	0x828
 2145 0821 0E       		.uleb128 0xe
 2146 0822 C3000000 		.4byte	0xc3
 2147 0826 00       		.byte	0
 2148 0827 00       		.byte	0
 2149 0828 06       		.uleb128 0x6
 2150 0829 FF0C0000 		.4byte	.LASF136
 2151 082d 09       		.byte	0x9
 2152 082e 8501     		.2byte	0x185
 2153 0830 58070000 		.4byte	0x758
 2154 0834 0F       		.uleb128 0xf
 2155 0835 3E       		.byte	0x3e
 2156 0836 09       		.byte	0x9
 2157 0837 8B01     		.2byte	0x18b
 2158 0839 65080000 		.4byte	0x865
 2159 083d 0A       		.uleb128 0xa
 2160 083e 4B0C0000 		.4byte	.LASF137
 2161 0842 09       		.byte	0x9
 2162 0843 9001     		.2byte	0x190
 2163 0845 4C070000 		.4byte	0x74c
 2164 0849 00       		.byte	0
 2165 084a 0A       		.uleb128 0xa
 2166 084b 530C0000 		.4byte	.LASF138
 2167 084f 09       		.byte	0x9
 2168 0850 9501     		.2byte	0x195
 2169 0852 4C070000 		.4byte	0x74c
 2170 0856 14       		.byte	0x14
 2171 0857 0A       		.uleb128 0xa
 2172 0858 970E0000 		.4byte	.LASF139
 2173 085c 09       		.byte	0x9
 2174 085d 9A01     		.2byte	0x19a
 2175 085f 28080000 		.4byte	0x828
 2176 0863 28       		.byte	0x28
 2177 0864 00       		.byte	0
 2178 0865 06       		.uleb128 0x6
 2179 0866 B2000000 		.4byte	.LASF140
 2180 086a 09       		.byte	0x9
 2181 086b 9B01     		.2byte	0x19b
 2182 086d 34080000 		.4byte	0x834
 2183 0871 0F       		.uleb128 0xf
 2184 0872 0A       		.byte	0xa
 2185 0873 09       		.byte	0x9
 2186 0874 A101     		.2byte	0x1a1
 2187 0876 C9080000 		.4byte	0x8c9
 2188 087a 10       		.uleb128 0x10
 2189 087b 72617700 		.ascii	"raw\000"
 2190 087f 09       		.byte	0x9
 2191 0880 A601     		.2byte	0x1a6
 2192 0882 18080000 		.4byte	0x818
 2193 0886 00       		.byte	0
 2194 0887 0A       		.uleb128 0xa
 2195 0888 C2040000 		.4byte	.LASF141
 2196 088c 09       		.byte	0x9
 2197 088d AB01     		.2byte	0x1ab
 2198 088f 18080000 		.4byte	0x818
 2199 0893 02       		.byte	0x2
ARM GAS  C:\Users\Austina\AppData\Local\Temp\ccLgwUrp.s 			page 70


 2200 0894 0A       		.uleb128 0xa
 2201 0895 B40D0000 		.4byte	.LASF142
 2202 0899 09       		.byte	0x9
 2203 089a B101     		.2byte	0x1b1
 2204 089c 85060000 		.4byte	0x685
 2205 08a0 04       		.byte	0x4
 2206 08a1 0A       		.uleb128 0xa
 2207 08a2 3F0C0000 		.4byte	.LASF143
 2208 08a6 09       		.byte	0x9
 2209 08a7 B601     		.2byte	0x1b6
 2210 08a9 39010000 		.4byte	0x139
 2211 08ad 06       		.byte	0x6
 2212 08ae 0A       		.uleb128 0xa
 2213 08af 960F0000 		.4byte	.LASF144
 2214 08b3 09       		.byte	0x9
 2215 08b4 BB01     		.2byte	0x1bb
 2216 08b6 C9080000 		.4byte	0x8c9
 2217 08ba 08       		.byte	0x8
 2218 08bb 0A       		.uleb128 0xa
 2219 08bc 2F090000 		.4byte	.LASF145
 2220 08c0 09       		.byte	0x9
 2221 08c1 C101     		.2byte	0x1c1
 2222 08c3 85060000 		.4byte	0x685
 2223 08c7 09       		.byte	0x9
 2224 08c8 00       		.byte	0
 2225 08c9 0D       		.uleb128 0xd
 2226 08ca 44010000 		.4byte	0x144
 2227 08ce D9080000 		.4byte	0x8d9
 2228 08d2 0E       		.uleb128 0xe
 2229 08d3 C3000000 		.4byte	0xc3
 2230 08d7 00       		.byte	0
 2231 08d8 00       		.byte	0
 2232 08d9 06       		.uleb128 0x6
 2233 08da DA060000 		.4byte	.LASF146
 2234 08de 09       		.byte	0x9
 2235 08df C201     		.2byte	0x1c2
 2236 08e1 71080000 		.4byte	0x871
 2237 08e5 0F       		.uleb128 0xf
 2238 08e6 46       		.byte	0x46
 2239 08e7 09       		.byte	0x9
 2240 08e8 C801     		.2byte	0x1c8
 2241 08ea 16090000 		.4byte	0x916
 2242 08ee 0A       		.uleb128 0xa
 2243 08ef 4B0C0000 		.4byte	.LASF137
 2244 08f3 09       		.byte	0x9
 2245 08f4 CD01     		.2byte	0x1cd
 2246 08f6 16090000 		.4byte	0x916
 2247 08fa 00       		.byte	0
 2248 08fb 0A       		.uleb128 0xa
 2249 08fc 530C0000 		.4byte	.LASF138
 2250 0900 09       		.byte	0x9
 2251 0901 D201     		.2byte	0x1d2
 2252 0903 16090000 		.4byte	0x916
 2253 0907 0A       		.byte	0xa
 2254 0908 0A       		.uleb128 0xa
 2255 0909 970E0000 		.4byte	.LASF139
 2256 090d 09       		.byte	0x9
ARM GAS  C:\Users\Austina\AppData\Local\Temp\ccLgwUrp.s 			page 71


 2257 090e D701     		.2byte	0x1d7
 2258 0910 26090000 		.4byte	0x926
 2259 0914 14       		.byte	0x14
 2260 0915 00       		.byte	0
 2261 0916 0D       		.uleb128 0xd
 2262 0917 D9080000 		.4byte	0x8d9
 2263 091b 26090000 		.4byte	0x926
 2264 091f 0E       		.uleb128 0xe
 2265 0920 C3000000 		.4byte	0xc3
 2266 0924 00       		.byte	0
 2267 0925 00       		.byte	0
 2268 0926 0D       		.uleb128 0xd
 2269 0927 D9080000 		.4byte	0x8d9
 2270 092b 36090000 		.4byte	0x936
 2271 092f 0E       		.uleb128 0xe
 2272 0930 C3000000 		.4byte	0xc3
 2273 0934 04       		.byte	0x4
 2274 0935 00       		.byte	0
 2275 0936 06       		.uleb128 0x6
 2276 0937 FB0F0000 		.4byte	.LASF147
 2277 093b 09       		.byte	0x9
 2278 093c D801     		.2byte	0x1d8
 2279 093e E5080000 		.4byte	0x8e5
 2280 0942 11       		.uleb128 0x11
 2281 0943 0C01     		.2byte	0x10c
 2282 0945 09       		.byte	0x9
 2283 0946 DE01     		.2byte	0x1de
 2284 0948 630A0000 		.4byte	0xa63
 2285 094c 0A       		.uleb128 0xa
 2286 094d 320B0000 		.4byte	.LASF148
 2287 0951 09       		.byte	0x9
 2288 0952 E601     		.2byte	0x1e6
 2289 0954 01010000 		.4byte	0x101
 2290 0958 00       		.byte	0
 2291 0959 0A       		.uleb128 0xa
 2292 095a E00F0000 		.4byte	.LASF149
 2293 095e 09       		.byte	0x9
 2294 095f EB01     		.2byte	0x1eb
 2295 0961 01010000 		.4byte	0x101
 2296 0965 02       		.byte	0x2
 2297 0966 0A       		.uleb128 0xa
 2298 0967 32020000 		.4byte	.LASF150
 2299 096b 09       		.byte	0x9
 2300 096c F001     		.2byte	0x1f0
 2301 096e 01010000 		.4byte	0x101
 2302 0972 04       		.byte	0x4
 2303 0973 0A       		.uleb128 0xa
 2304 0974 AB0D0000 		.4byte	.LASF151
 2305 0978 09       		.byte	0x9
 2306 0979 F601     		.2byte	0x1f6
 2307 097b 01010000 		.4byte	0x101
 2308 097f 06       		.byte	0x6
 2309 0980 0A       		.uleb128 0xa
 2310 0981 09020000 		.4byte	.LASF152
 2311 0985 09       		.byte	0x9
 2312 0986 FB01     		.2byte	0x1fb
 2313 0988 01010000 		.4byte	0x101
ARM GAS  C:\Users\Austina\AppData\Local\Temp\ccLgwUrp.s 			page 72


 2314 098c 08       		.byte	0x8
 2315 098d 0A       		.uleb128 0xa
 2316 098e BF080000 		.4byte	.LASF153
 2317 0992 09       		.byte	0x9
 2318 0993 0002     		.2byte	0x200
 2319 0995 630A0000 		.4byte	0xa63
 2320 0999 0C       		.byte	0xc
 2321 099a 0A       		.uleb128 0xa
 2322 099b F40C0000 		.4byte	.LASF154
 2323 099f 09       		.byte	0x9
 2324 09a0 0602     		.2byte	0x206
 2325 09a2 680A0000 		.4byte	0xa68
 2326 09a6 10       		.byte	0x10
 2327 09a7 0A       		.uleb128 0xa
 2328 09a8 E90C0000 		.4byte	.LASF155
 2329 09ac 09       		.byte	0x9
 2330 09ad 0C02     		.2byte	0x20c
 2331 09af 680A0000 		.4byte	0xa68
 2332 09b3 14       		.byte	0x14
 2333 09b4 0A       		.uleb128 0xa
 2334 09b5 580B0000 		.4byte	.LASF156
 2335 09b9 09       		.byte	0x9
 2336 09ba 1E02     		.2byte	0x21e
 2337 09bc 780A0000 		.4byte	0xa78
 2338 09c0 18       		.byte	0x18
 2339 09c1 0A       		.uleb128 0xa
 2340 09c2 ED090000 		.4byte	.LASF157
 2341 09c6 09       		.byte	0x9
 2342 09c7 2302     		.2byte	0x223
 2343 09c9 01010000 		.4byte	0x101
 2344 09cd 1C       		.byte	0x1c
 2345 09ce 0A       		.uleb128 0xa
 2346 09cf D0060000 		.4byte	.LASF158
 2347 09d3 09       		.byte	0x9
 2348 09d4 2802     		.2byte	0x228
 2349 09d6 F5000000 		.4byte	0xf5
 2350 09da 1E       		.byte	0x1e
 2351 09db 0A       		.uleb128 0xa
 2352 09dc 490E0000 		.4byte	.LASF159
 2353 09e0 09       		.byte	0x9
 2354 09e1 2D02     		.2byte	0x22d
 2355 09e3 F5000000 		.4byte	0xf5
 2356 09e7 1F       		.byte	0x1f
 2357 09e8 0A       		.uleb128 0xa
 2358 09e9 93090000 		.4byte	.LASF160
 2359 09ed 09       		.byte	0x9
 2360 09ee 3202     		.2byte	0x232
 2361 09f0 65080000 		.4byte	0x865
 2362 09f4 20       		.byte	0x20
 2363 09f5 0A       		.uleb128 0xa
 2364 09f6 C4050000 		.4byte	.LASF161
 2365 09fa 09       		.byte	0x9
 2366 09fb 3702     		.2byte	0x237
 2367 09fd 36090000 		.4byte	0x936
 2368 0a01 5E       		.byte	0x5e
 2369 0a02 0A       		.uleb128 0xa
 2370 0a03 330E0000 		.4byte	.LASF162
ARM GAS  C:\Users\Austina\AppData\Local\Temp\ccLgwUrp.s 			page 73


 2371 0a07 09       		.byte	0x9
 2372 0a08 3C02     		.2byte	0x23c
 2373 0a0a 98050000 		.4byte	0x598
 2374 0a0e A4       		.byte	0xa4
 2375 0a0f 0A       		.uleb128 0xa
 2376 0a10 93040000 		.4byte	.LASF163
 2377 0a14 09       		.byte	0x9
 2378 0a15 4102     		.2byte	0x241
 2379 0a17 0D010000 		.4byte	0x10d
 2380 0a1b FC       		.byte	0xfc
 2381 0a1c 12       		.uleb128 0x12
 2382 0a1d B00E0000 		.4byte	.LASF164
 2383 0a21 09       		.byte	0x9
 2384 0a22 4602     		.2byte	0x246
 2385 0a24 0D010000 		.4byte	0x10d
 2386 0a28 0001     		.2byte	0x100
 2387 0a2a 12       		.uleb128 0x12
 2388 0a2b 14010000 		.4byte	.LASF165
 2389 0a2f 09       		.byte	0x9
 2390 0a30 4B02     		.2byte	0x24b
 2391 0a32 F5000000 		.4byte	0xf5
 2392 0a36 0401     		.2byte	0x104
 2393 0a38 12       		.uleb128 0x12
 2394 0a39 41060000 		.4byte	.LASF166
 2395 0a3d 09       		.byte	0x9
 2396 0a3e 5002     		.2byte	0x250
 2397 0a40 F5000000 		.4byte	0xf5
 2398 0a44 0501     		.2byte	0x105
 2399 0a46 12       		.uleb128 0x12
 2400 0a47 1F0B0000 		.4byte	.LASF167
 2401 0a4b 09       		.byte	0x9
 2402 0a4c 5502     		.2byte	0x255
 2403 0a4e 01010000 		.4byte	0x101
 2404 0a52 0601     		.2byte	0x106
 2405 0a54 12       		.uleb128 0x12
 2406 0a55 CD090000 		.4byte	.LASF168
 2407 0a59 09       		.byte	0x9
 2408 0a5a 5A02     		.2byte	0x25a
 2409 0a5c 18080000 		.4byte	0x818
 2410 0a60 0801     		.2byte	0x108
 2411 0a62 00       		.byte	0
 2412 0a63 05       		.uleb128 0x5
 2413 0a64 0D010000 		.4byte	0x10d
 2414 0a68 0D       		.uleb128 0xd
 2415 0a69 0D010000 		.4byte	0x10d
 2416 0a6d 780A0000 		.4byte	0xa78
 2417 0a71 0E       		.uleb128 0xe
 2418 0a72 C3000000 		.4byte	0xc3
 2419 0a76 00       		.byte	0
 2420 0a77 00       		.byte	0
 2421 0a78 0D       		.uleb128 0xd
 2422 0a79 F5000000 		.4byte	0xf5
 2423 0a7d 880A0000 		.4byte	0xa88
 2424 0a81 0E       		.uleb128 0xe
 2425 0a82 C3000000 		.4byte	0xc3
 2426 0a86 02       		.byte	0x2
 2427 0a87 00       		.byte	0
ARM GAS  C:\Users\Austina\AppData\Local\Temp\ccLgwUrp.s 			page 74


 2428 0a88 06       		.uleb128 0x6
 2429 0a89 CB0B0000 		.4byte	.LASF169
 2430 0a8d 09       		.byte	0x9
 2431 0a8e 5B02     		.2byte	0x25b
 2432 0a90 42090000 		.4byte	0x942
 2433 0a94 0F       		.uleb128 0xf
 2434 0a95 2C       		.byte	0x2c
 2435 0a96 09       		.byte	0x9
 2436 0a97 9902     		.2byte	0x299
 2437 0a99 610B0000 		.4byte	0xb61
 2438 0a9d 0A       		.uleb128 0xa
 2439 0a9e 510F0000 		.4byte	.LASF170
 2440 0aa2 09       		.byte	0x9
 2441 0aa3 A202     		.2byte	0x2a2
 2442 0aa5 610B0000 		.4byte	0xb61
 2443 0aa9 00       		.byte	0
 2444 0aaa 0A       		.uleb128 0xa
 2445 0aab 6B0E0000 		.4byte	.LASF171
 2446 0aaf 09       		.byte	0x9
 2447 0ab0 A902     		.2byte	0x2a9
 2448 0ab2 37010000 		.4byte	0x137
 2449 0ab6 04       		.byte	0x4
 2450 0ab7 0A       		.uleb128 0xa
 2451 0ab8 3B0B0000 		.4byte	.LASF172
 2452 0abc 09       		.byte	0x9
 2453 0abd AF02     		.2byte	0x2af
 2454 0abf 680B0000 		.4byte	0xb68
 2455 0ac3 08       		.byte	0x8
 2456 0ac4 0A       		.uleb128 0xa
 2457 0ac5 790A0000 		.4byte	.LASF173
 2458 0ac9 09       		.byte	0x9
 2459 0aca B402     		.2byte	0x2b4
 2460 0acc 37010000 		.4byte	0x137
 2461 0ad0 0C       		.byte	0xc
 2462 0ad1 0A       		.uleb128 0xa
 2463 0ad2 6F0D0000 		.4byte	.LASF174
 2464 0ad6 09       		.byte	0x9
 2465 0ad7 BB02     		.2byte	0x2bb
 2466 0ad9 6E0B0000 		.4byte	0xb6e
 2467 0add 10       		.byte	0x10
 2468 0ade 0A       		.uleb128 0xa
 2469 0adf 3C0E0000 		.4byte	.LASF175
 2470 0ae3 09       		.byte	0x9
 2471 0ae4 C002     		.2byte	0x2c0
 2472 0ae6 0D010000 		.4byte	0x10d
 2473 0aea 14       		.byte	0x14
 2474 0aeb 0A       		.uleb128 0xa
 2475 0aec CC070000 		.4byte	.LASF176
 2476 0af0 09       		.byte	0x9
 2477 0af1 C702     		.2byte	0x2c7
 2478 0af3 01010000 		.4byte	0x101
 2479 0af7 18       		.byte	0x18
 2480 0af8 0A       		.uleb128 0xa
 2481 0af9 6B060000 		.4byte	.LASF177
 2482 0afd 09       		.byte	0x9
 2483 0afe D202     		.2byte	0x2d2
 2484 0b00 F5000000 		.4byte	0xf5
ARM GAS  C:\Users\Austina\AppData\Local\Temp\ccLgwUrp.s 			page 75


 2485 0b04 1A       		.byte	0x1a
 2486 0b05 0A       		.uleb128 0xa
 2487 0b06 46090000 		.4byte	.LASF178
 2488 0b0a 09       		.byte	0x9
 2489 0b0b D702     		.2byte	0x2d7
 2490 0b0d F5000000 		.4byte	0xf5
 2491 0b11 1B       		.byte	0x1b
 2492 0b12 0A       		.uleb128 0xa
 2493 0b13 76090000 		.4byte	.LASF179
 2494 0b17 09       		.byte	0x9
 2495 0b18 DF02     		.2byte	0x2df
 2496 0b1a F5000000 		.4byte	0xf5
 2497 0b1e 1C       		.byte	0x1c
 2498 0b1f 0A       		.uleb128 0xa
 2499 0b20 8F0E0000 		.4byte	.LASF180
 2500 0b24 09       		.byte	0x9
 2501 0b25 E602     		.2byte	0x2e6
 2502 0b27 F5000000 		.4byte	0xf5
 2503 0b2b 1D       		.byte	0x1d
 2504 0b2c 0A       		.uleb128 0xa
 2505 0b2d 7D0B0000 		.4byte	.LASF181
 2506 0b31 09       		.byte	0x9
 2507 0b32 EC02     		.2byte	0x2ec
 2508 0b34 01010000 		.4byte	0x101
 2509 0b38 1E       		.byte	0x1e
 2510 0b39 0A       		.uleb128 0xa
 2511 0b3a 970D0000 		.4byte	.LASF182
 2512 0b3e 09       		.byte	0x9
 2513 0b3f F602     		.2byte	0x2f6
 2514 0b41 0D010000 		.4byte	0x10d
 2515 0b45 20       		.byte	0x20
 2516 0b46 0A       		.uleb128 0xa
 2517 0b47 51060000 		.4byte	.LASF183
 2518 0b4b 09       		.byte	0x9
 2519 0b4c FE02     		.2byte	0x2fe
 2520 0b4e 740B0000 		.4byte	0xb74
 2521 0b52 24       		.byte	0x24
 2522 0b53 0A       		.uleb128 0xa
 2523 0b54 0A040000 		.4byte	.LASF184
 2524 0b58 09       		.byte	0x9
 2525 0b59 0303     		.2byte	0x303
 2526 0b5b F5000000 		.4byte	0xf5
 2527 0b5f 28       		.byte	0x28
 2528 0b60 00       		.byte	0
 2529 0b61 13       		.uleb128 0x13
 2530 0b62 04       		.byte	0x4
 2531 0b63 670B0000 		.4byte	0xb67
 2532 0b67 14       		.uleb128 0x14
 2533 0b68 13       		.uleb128 0x13
 2534 0b69 04       		.byte	0x4
 2535 0b6a D9080000 		.4byte	0x8d9
 2536 0b6e 13       		.uleb128 0x13
 2537 0b6f 04       		.byte	0x4
 2538 0b70 F5000000 		.4byte	0xf5
 2539 0b74 13       		.uleb128 0x13
 2540 0b75 04       		.byte	0x4
 2541 0b76 AC010000 		.4byte	0x1ac
ARM GAS  C:\Users\Austina\AppData\Local\Temp\ccLgwUrp.s 			page 76


 2542 0b7a 06       		.uleb128 0x6
 2543 0b7b 5F070000 		.4byte	.LASF185
 2544 0b7f 09       		.byte	0x9
 2545 0b80 0403     		.2byte	0x304
 2546 0b82 940A0000 		.4byte	0xa94
 2547 0b86 0F       		.uleb128 0xf
 2548 0b87 84       		.byte	0x84
 2549 0b88 09       		.byte	0x9
 2550 0b89 0A03     		.2byte	0x30a
 2551 0b8b 9D0B0000 		.4byte	0xb9d
 2552 0b8f 0A       		.uleb128 0xa
 2553 0b90 40100000 		.4byte	.LASF186
 2554 0b94 09       		.byte	0x9
 2555 0b95 0F03     		.2byte	0x30f
 2556 0b97 9D0B0000 		.4byte	0xb9d
 2557 0b9b 00       		.byte	0
 2558 0b9c 00       		.byte	0
 2559 0b9d 0D       		.uleb128 0xd
 2560 0b9e 7A0B0000 		.4byte	0xb7a
 2561 0ba2 AD0B0000 		.4byte	0xbad
 2562 0ba6 0E       		.uleb128 0xe
 2563 0ba7 C3000000 		.4byte	0xc3
 2564 0bab 02       		.byte	0x2
 2565 0bac 00       		.byte	0
 2566 0bad 06       		.uleb128 0x6
 2567 0bae 9C090000 		.4byte	.LASF187
 2568 0bb2 09       		.byte	0x9
 2569 0bb3 1003     		.2byte	0x310
 2570 0bb5 860B0000 		.4byte	0xb86
 2571 0bb9 0F       		.uleb128 0xf
 2572 0bba 02       		.byte	0x2
 2573 0bbb 09       		.byte	0x9
 2574 0bbc 4503     		.2byte	0x345
 2575 0bbe D00B0000 		.4byte	0xbd0
 2576 0bc2 0A       		.uleb128 0xa
 2577 0bc3 720F0000 		.4byte	.LASF188
 2578 0bc7 09       		.byte	0x9
 2579 0bc8 4703     		.2byte	0x347
 2580 0bca 01010000 		.4byte	0x101
 2581 0bce 00       		.byte	0
 2582 0bcf 00       		.byte	0
 2583 0bd0 06       		.uleb128 0x6
 2584 0bd1 760C0000 		.4byte	.LASF189
 2585 0bd5 09       		.byte	0x9
 2586 0bd6 4803     		.2byte	0x348
 2587 0bd8 B90B0000 		.4byte	0xbb9
 2588 0bdc 0F       		.uleb128 0xf
 2589 0bdd 02       		.byte	0x2
 2590 0bde 09       		.byte	0x9
 2591 0bdf 4D03     		.2byte	0x34d
 2592 0be1 F30B0000 		.4byte	0xbf3
 2593 0be5 0A       		.uleb128 0xa
 2594 0be6 C1060000 		.4byte	.LASF190
 2595 0bea 09       		.byte	0x9
 2596 0beb 5203     		.2byte	0x352
 2597 0bed F30B0000 		.4byte	0xbf3
 2598 0bf1 00       		.byte	0
ARM GAS  C:\Users\Austina\AppData\Local\Temp\ccLgwUrp.s 			page 77


 2599 0bf2 00       		.byte	0
 2600 0bf3 0D       		.uleb128 0xd
 2601 0bf4 D00B0000 		.4byte	0xbd0
 2602 0bf8 030C0000 		.4byte	0xc03
 2603 0bfc 0E       		.uleb128 0xe
 2604 0bfd C3000000 		.4byte	0xc3
 2605 0c01 00       		.byte	0
 2606 0c02 00       		.byte	0
 2607 0c03 06       		.uleb128 0x6
 2608 0c04 DF0B0000 		.4byte	.LASF191
 2609 0c08 09       		.byte	0x9
 2610 0c09 5303     		.2byte	0x353
 2611 0c0b DC0B0000 		.4byte	0xbdc
 2612 0c0f 15       		.uleb128 0x15
 2613 0c10 04       		.byte	0x4
 2614 0c11 09       		.byte	0x9
 2615 0c12 5803     		.2byte	0x358
 2616 0c14 310C0000 		.4byte	0xc31
 2617 0c18 16       		.uleb128 0x16
 2618 0c19 70747200 		.ascii	"ptr\000"
 2619 0c1d 09       		.byte	0x9
 2620 0c1e 5D03     		.2byte	0x35d
 2621 0c20 37010000 		.4byte	0x137
 2622 0c24 17       		.uleb128 0x17
 2623 0c25 36060000 		.4byte	.LASF192
 2624 0c29 09       		.byte	0x9
 2625 0c2a 6203     		.2byte	0x362
 2626 0c2c 310C0000 		.4byte	0xc31
 2627 0c30 00       		.byte	0
 2628 0c31 13       		.uleb128 0x13
 2629 0c32 04       		.byte	0x4
 2630 0c33 030C0000 		.4byte	0xc03
 2631 0c37 06       		.uleb128 0x6
 2632 0c38 43070000 		.4byte	.LASF193
 2633 0c3c 09       		.byte	0x9
 2634 0c3d 6303     		.2byte	0x363
 2635 0c3f 0F0C0000 		.4byte	0xc0f
 2636 0c43 18       		.uleb128 0x18
 2637 0c44 C10E0000 		.4byte	.LASF195
 2638 0c48 01       		.byte	0x1
 2639 0c49 3B01     		.2byte	0x13b
 2640 0c4b 03       		.byte	0x3
 2641 0c4c 750C0000 		.4byte	0xc75
 2642 0c50 19       		.uleb128 0x19
 2643 0c51 260E0000 		.4byte	.LASF197
 2644 0c55 01       		.byte	0x1
 2645 0c56 3B01     		.2byte	0x13b
 2646 0c58 750C0000 		.4byte	0xc75
 2647 0c5c 1A       		.uleb128 0x1a
 2648 0c5d 69647800 		.ascii	"idx\000"
 2649 0c61 01       		.byte	0x1
 2650 0c62 3D01     		.2byte	0x13d
 2651 0c64 0D010000 		.4byte	0x10d
 2652 0c68 1B       		.uleb128 0x1b
 2653 0c69 B2090000 		.4byte	.LASF194
 2654 0c6d 01       		.byte	0x1
 2655 0c6e 3E01     		.2byte	0x13e
ARM GAS  C:\Users\Austina\AppData\Local\Temp\ccLgwUrp.s 			page 78


 2656 0c70 800C0000 		.4byte	0xc80
 2657 0c74 00       		.byte	0
 2658 0c75 13       		.uleb128 0x13
 2659 0c76 04       		.byte	0x4
 2660 0c77 7B0C0000 		.4byte	0xc7b
 2661 0c7b 1C       		.uleb128 0x1c
 2662 0c7c 7A0B0000 		.4byte	0xb7a
 2663 0c80 13       		.uleb128 0x13
 2664 0c81 04       		.byte	0x4
 2665 0c82 28080000 		.4byte	0x828
 2666 0c86 18       		.uleb128 0x18
 2667 0c87 670A0000 		.4byte	.LASF196
 2668 0c8b 01       		.byte	0x1
 2669 0c8c 3D06     		.2byte	0x63d
 2670 0c8e 03       		.byte	0x3
 2671 0c8f D00C0000 		.4byte	0xcd0
 2672 0c93 19       		.uleb128 0x19
 2673 0c94 F90A0000 		.4byte	.LASF198
 2674 0c98 01       		.byte	0x1
 2675 0c99 3E06     		.2byte	0x63e
 2676 0c9b D00C0000 		.4byte	0xcd0
 2677 0c9f 19       		.uleb128 0x19
 2678 0ca0 DA0D0000 		.4byte	.LASF199
 2679 0ca4 01       		.byte	0x1
 2680 0ca5 3F06     		.2byte	0x63f
 2681 0ca7 0D010000 		.4byte	0x10d
 2682 0cab 19       		.uleb128 0x19
 2683 0cac 260E0000 		.4byte	.LASF197
 2684 0cb0 01       		.byte	0x1
 2685 0cb1 4006     		.2byte	0x640
 2686 0cb3 750C0000 		.4byte	0xc75
 2687 0cb7 19       		.uleb128 0x19
 2688 0cb8 0C0B0000 		.4byte	.LASF200
 2689 0cbc 01       		.byte	0x1
 2690 0cbd 4106     		.2byte	0x641
 2691 0cbf 800C0000 		.4byte	0xc80
 2692 0cc3 1B       		.uleb128 0x1b
 2693 0cc4 74080000 		.4byte	.LASF201
 2694 0cc8 01       		.byte	0x1
 2695 0cc9 4306     		.2byte	0x643
 2696 0ccb 0D010000 		.4byte	0x10d
 2697 0ccf 00       		.byte	0
 2698 0cd0 13       		.uleb128 0x13
 2699 0cd1 04       		.byte	0x4
 2700 0cd2 D60C0000 		.4byte	0xcd6
 2701 0cd6 1C       		.uleb128 0x1c
 2702 0cd7 01010000 		.4byte	0x101
 2703 0cdb 1D       		.uleb128 0x1d
 2704 0cdc 7B050000 		.4byte	.LASF204
 2705 0ce0 01       		.byte	0x1
 2706 0ce1 9101     		.2byte	0x191
 2707 0ce3 00000000 		.4byte	.LFB126
 2708 0ce7 90000000 		.4byte	.LFE126-.LFB126
 2709 0ceb 01       		.uleb128 0x1
 2710 0cec 9C       		.byte	0x9c
 2711 0ced 750D0000 		.4byte	0xd75
 2712 0cf1 1E       		.uleb128 0x1e
ARM GAS  C:\Users\Austina\AppData\Local\Temp\ccLgwUrp.s 			page 79


 2713 0cf2 03010000 		.4byte	.LASF202
 2714 0cf6 01       		.byte	0x1
 2715 0cf7 9301     		.2byte	0x193
 2716 0cf9 0D010000 		.4byte	0x10d
 2717 0cfd 00000000 		.4byte	.LLST0
 2718 0d01 1E       		.uleb128 0x1e
 2719 0d02 A40F0000 		.4byte	.LASF203
 2720 0d06 01       		.byte	0x1
 2721 0d07 9401     		.2byte	0x194
 2722 0d09 D5050000 		.4byte	0x5d5
 2723 0d0d 4D000000 		.4byte	.LLST1
 2724 0d11 1E       		.uleb128 0x1e
 2725 0d12 0C0B0000 		.4byte	.LASF200
 2726 0d16 01       		.byte	0x1
 2727 0d17 9501     		.2byte	0x195
 2728 0d19 750D0000 		.4byte	0xd75
 2729 0d1d 87000000 		.4byte	.LLST2
 2730 0d21 1E       		.uleb128 0x1e
 2731 0d22 260E0000 		.4byte	.LASF197
 2732 0d26 01       		.byte	0x1
 2733 0d27 9601     		.2byte	0x196
 2734 0d29 750C0000 		.4byte	0xc75
 2735 0d2d 9A000000 		.4byte	.LLST3
 2736 0d31 1F       		.uleb128 0x1f
 2737 0d32 430C0000 		.4byte	0xc43
 2738 0d36 58000000 		.4byte	.LBB6
 2739 0d3a 1C000000 		.4byte	.LBE6-.LBB6
 2740 0d3e 01       		.byte	0x1
 2741 0d3f DB01     		.2byte	0x1db
 2742 0d41 6B0D0000 		.4byte	0xd6b
 2743 0d45 20       		.uleb128 0x20
 2744 0d46 500C0000 		.4byte	0xc50
 2745 0d4a AD000000 		.4byte	.LLST4
 2746 0d4e 21       		.uleb128 0x21
 2747 0d4f 58000000 		.4byte	.LBB7
 2748 0d53 1C000000 		.4byte	.LBE7-.LBB7
 2749 0d57 22       		.uleb128 0x22
 2750 0d58 5C0C0000 		.4byte	0xc5c
 2751 0d5c C0000000 		.4byte	.LLST5
 2752 0d60 22       		.uleb128 0x22
 2753 0d61 680C0000 		.4byte	0xc68
 2754 0d65 DF000000 		.4byte	.LLST6
 2755 0d69 00       		.byte	0
 2756 0d6a 00       		.byte	0
 2757 0d6b 23       		.uleb128 0x23
 2758 0d6c 4E000000 		.4byte	.LVL8
 2759 0d70 24150000 		.4byte	0x1524
 2760 0d74 00       		.byte	0
 2761 0d75 13       		.uleb128 0x13
 2762 0d76 04       		.byte	0x4
 2763 0d77 95060000 		.4byte	0x695
 2764 0d7b 1D       		.uleb128 0x1d
 2765 0d7c CE000000 		.4byte	.LASF205
 2766 0d80 01       		.byte	0x1
 2767 0d81 4E04     		.2byte	0x44e
 2768 0d83 00000000 		.4byte	.LFB133
 2769 0d87 34000000 		.4byte	.LFE133-.LFB133
ARM GAS  C:\Users\Austina\AppData\Local\Temp\ccLgwUrp.s 			page 80


 2770 0d8b 01       		.uleb128 0x1
 2771 0d8c 9C       		.byte	0x9c
 2772 0d8d FF0D0000 		.4byte	0xdff
 2773 0d91 24       		.uleb128 0x24
 2774 0d92 0C0B0000 		.4byte	.LASF200
 2775 0d96 01       		.byte	0x1
 2776 0d97 4E04     		.2byte	0x44e
 2777 0d99 750D0000 		.4byte	0xd75
 2778 0d9d F2000000 		.4byte	.LLST7
 2779 0da1 24       		.uleb128 0x24
 2780 0da2 11000000 		.4byte	.LASF206
 2781 0da6 01       		.byte	0x1
 2782 0da7 4F04     		.2byte	0x44f
 2783 0da9 740B0000 		.4byte	0xb74
 2784 0dad 10010000 		.4byte	.LLST8
 2785 0db1 24       		.uleb128 0x24
 2786 0db2 89090000 		.4byte	.LASF207
 2787 0db6 01       		.byte	0x1
 2788 0db7 5004     		.2byte	0x450
 2789 0db9 0D010000 		.4byte	0x10d
 2790 0dbd 3C010000 		.4byte	.LLST9
 2791 0dc1 25       		.uleb128 0x25
 2792 0dc2 B9050000 		.4byte	.LASF208
 2793 0dc6 01       		.byte	0x1
 2794 0dc7 5204     		.2byte	0x452
 2795 0dc9 F0010000 		.4byte	0x1f0
 2796 0dcd 02       		.uleb128 0x2
 2797 0dce 91       		.byte	0x91
 2798 0dcf 70       		.sleb128 -16
 2799 0dd0 1E       		.uleb128 0x1e
 2800 0dd1 C6010000 		.4byte	.LASF209
 2801 0dd5 01       		.byte	0x1
 2802 0dd6 5304     		.2byte	0x453
 2803 0dd8 FF0D0000 		.4byte	0xdff
 2804 0ddc 68010000 		.4byte	.LLST10
 2805 0de0 26       		.uleb128 0x26
 2806 0de1 18000000 		.4byte	.LVL25
 2807 0de5 2F150000 		.4byte	0x152f
 2808 0de9 27       		.uleb128 0x27
 2809 0dea 01       		.uleb128 0x1
 2810 0deb 50       		.byte	0x50
 2811 0dec 03       		.uleb128 0x3
 2812 0ded F3       		.byte	0xf3
 2813 0dee 01       		.uleb128 0x1
 2814 0def 51       		.byte	0x51
 2815 0df0 27       		.uleb128 0x27
 2816 0df1 01       		.uleb128 0x1
 2817 0df2 51       		.byte	0x51
 2818 0df3 02       		.uleb128 0x2
 2819 0df4 91       		.byte	0x91
 2820 0df5 70       		.sleb128 -16
 2821 0df6 27       		.uleb128 0x27
 2822 0df7 01       		.uleb128 0x1
 2823 0df8 53       		.byte	0x53
 2824 0df9 03       		.uleb128 0x3
 2825 0dfa F3       		.byte	0xf3
 2826 0dfb 01       		.uleb128 0x1
ARM GAS  C:\Users\Austina\AppData\Local\Temp\ccLgwUrp.s 			page 81


 2827 0dfc 52       		.byte	0x52
 2828 0dfd 00       		.byte	0
 2829 0dfe 00       		.byte	0
 2830 0dff 13       		.uleb128 0x13
 2831 0e00 04       		.byte	0x4
 2832 0e01 F0010000 		.4byte	0x1f0
 2833 0e05 1D       		.uleb128 0x1d
 2834 0e06 15020000 		.4byte	.LASF210
 2835 0e0a 01       		.byte	0x1
 2836 0e0b 7704     		.2byte	0x477
 2837 0e0d 00000000 		.4byte	.LFB134
 2838 0e11 18000000 		.4byte	.LFE134-.LFB134
 2839 0e15 01       		.uleb128 0x1
 2840 0e16 9C       		.byte	0x9c
 2841 0e17 4A0E0000 		.4byte	0xe4a
 2842 0e1b 24       		.uleb128 0x24
 2843 0e1c 0C0B0000 		.4byte	.LASF200
 2844 0e20 01       		.byte	0x1
 2845 0e21 7804     		.2byte	0x478
 2846 0e23 750D0000 		.4byte	0xd75
 2847 0e27 88010000 		.4byte	.LLST11
 2848 0e2b 28       		.uleb128 0x28
 2849 0e2c 07030000 		.4byte	.LASF211
 2850 0e30 01       		.byte	0x1
 2851 0e31 7904     		.2byte	0x479
 2852 0e33 680B0000 		.4byte	0xb68
 2853 0e37 01       		.uleb128 0x1
 2854 0e38 51       		.byte	0x51
 2855 0e39 1E       		.uleb128 0x1e
 2856 0e3a BE020000 		.4byte	.LASF212
 2857 0e3e 01       		.byte	0x1
 2858 0e3f 7B04     		.2byte	0x47b
 2859 0e41 19010000 		.4byte	0x119
 2860 0e45 A9010000 		.4byte	.LLST12
 2861 0e49 00       		.byte	0
 2862 0e4a 29       		.uleb128 0x29
 2863 0e4b 74060000 		.4byte	.LASF216
 2864 0e4f 01       		.byte	0x1
 2865 0e50 2A02     		.2byte	0x22a
 2866 0e52 0D010000 		.4byte	0x10d
 2867 0e56 00000000 		.4byte	.LFB127
 2868 0e5a 36000000 		.4byte	.LFE127-.LFB127
 2869 0e5e 01       		.uleb128 0x1
 2870 0e5f 9C       		.byte	0x9c
 2871 0e60 F50E0000 		.4byte	0xef5
 2872 0e64 24       		.uleb128 0x24
 2873 0e65 260E0000 		.4byte	.LASF197
 2874 0e69 01       		.byte	0x1
 2875 0e6a 2A02     		.2byte	0x22a
 2876 0e6c 750C0000 		.4byte	0xc75
 2877 0e70 D8010000 		.4byte	.LLST13
 2878 0e74 1E       		.uleb128 0x1e
 2879 0e75 CC050000 		.4byte	.LASF213
 2880 0e79 01       		.byte	0x1
 2881 0e7a 2C02     		.2byte	0x22c
 2882 0e7c 0D010000 		.4byte	0x10d
 2883 0e80 F9010000 		.4byte	.LLST14
ARM GAS  C:\Users\Austina\AppData\Local\Temp\ccLgwUrp.s 			page 82


 2884 0e84 25       		.uleb128 0x25
 2885 0e85 A40F0000 		.4byte	.LASF203
 2886 0e89 01       		.byte	0x1
 2887 0e8a 2D02     		.2byte	0x22d
 2888 0e8c 0D010000 		.4byte	0x10d
 2889 0e90 01       		.uleb128 0x1
 2890 0e91 58       		.byte	0x58
 2891 0e92 1E       		.uleb128 0x1e
 2892 0e93 F00A0000 		.4byte	.LASF214
 2893 0e97 01       		.byte	0x1
 2894 0e98 2E02     		.2byte	0x22e
 2895 0e9a 0D010000 		.4byte	0x10d
 2896 0e9e 2E020000 		.4byte	.LLST15
 2897 0ea2 25       		.uleb128 0x25
 2898 0ea3 9B0C0000 		.4byte	.LASF215
 2899 0ea7 01       		.byte	0x1
 2900 0ea8 2F02     		.2byte	0x22f
 2901 0eaa 680B0000 		.4byte	0xb68
 2902 0eae 01       		.uleb128 0x1
 2903 0eaf 54       		.byte	0x54
 2904 0eb0 25       		.uleb128 0x25
 2905 0eb1 0C0B0000 		.4byte	.LASF200
 2906 0eb5 01       		.byte	0x1
 2907 0eb6 3002     		.2byte	0x230
 2908 0eb8 750D0000 		.4byte	0xd75
 2909 0ebc 01       		.uleb128 0x1
 2910 0ebd 55       		.byte	0x55
 2911 0ebe 2A       		.uleb128 0x2a
 2912 0ebf 1C000000 		.4byte	.LVL39
 2913 0ec3 3A150000 		.4byte	0x153a
 2914 0ec7 DE0E0000 		.4byte	0xede
 2915 0ecb 27       		.uleb128 0x27
 2916 0ecc 01       		.uleb128 0x1
 2917 0ecd 50       		.byte	0x50
 2918 0ece 02       		.uleb128 0x2
 2919 0ecf 75       		.byte	0x75
 2920 0ed0 00       		.sleb128 0
 2921 0ed1 27       		.uleb128 0x27
 2922 0ed2 01       		.uleb128 0x1
 2923 0ed3 51       		.byte	0x51
 2924 0ed4 02       		.uleb128 0x2
 2925 0ed5 74       		.byte	0x74
 2926 0ed6 00       		.sleb128 0
 2927 0ed7 27       		.uleb128 0x27
 2928 0ed8 01       		.uleb128 0x1
 2929 0ed9 52       		.byte	0x52
 2930 0eda 02       		.uleb128 0x2
 2931 0edb 78       		.byte	0x78
 2932 0edc 00       		.sleb128 0
 2933 0edd 00       		.byte	0
 2934 0ede 26       		.uleb128 0x26
 2935 0edf 26000000 		.4byte	.LVL42
 2936 0ee3 050E0000 		.4byte	0xe05
 2937 0ee7 27       		.uleb128 0x27
 2938 0ee8 01       		.uleb128 0x1
 2939 0ee9 50       		.byte	0x50
 2940 0eea 02       		.uleb128 0x2
ARM GAS  C:\Users\Austina\AppData\Local\Temp\ccLgwUrp.s 			page 83


 2941 0eeb 75       		.byte	0x75
 2942 0eec 00       		.sleb128 0
 2943 0eed 27       		.uleb128 0x27
 2944 0eee 01       		.uleb128 0x1
 2945 0eef 51       		.byte	0x51
 2946 0ef0 02       		.uleb128 0x2
 2947 0ef1 74       		.byte	0x74
 2948 0ef2 00       		.sleb128 0
 2949 0ef3 00       		.byte	0
 2950 0ef4 00       		.byte	0
 2951 0ef5 29       		.uleb128 0x29
 2952 0ef6 E1010000 		.4byte	.LASF217
 2953 0efa 01       		.byte	0x1
 2954 0efb 8202     		.2byte	0x282
 2955 0efd 0D010000 		.4byte	0x10d
 2956 0f01 00000000 		.4byte	.LFB128
 2957 0f05 2E000000 		.4byte	.LFE128-.LFB128
 2958 0f09 01       		.uleb128 0x1
 2959 0f0a 9C       		.byte	0x9c
 2960 0f0b AE0F0000 		.4byte	0xfae
 2961 0f0f 24       		.uleb128 0x24
 2962 0f10 260E0000 		.4byte	.LASF197
 2963 0f14 01       		.byte	0x1
 2964 0f15 8302     		.2byte	0x283
 2965 0f17 750C0000 		.4byte	0xc75
 2966 0f1b 62020000 		.4byte	.LLST16
 2967 0f1f 24       		.uleb128 0x24
 2968 0f20 07030000 		.4byte	.LASF211
 2969 0f24 01       		.byte	0x1
 2970 0f25 8402     		.2byte	0x284
 2971 0f27 680B0000 		.4byte	0xb68
 2972 0f2b 9C020000 		.4byte	.LLST17
 2973 0f2f 24       		.uleb128 0x24
 2974 0f30 0A010000 		.4byte	.LASF218
 2975 0f34 01       		.byte	0x1
 2976 0f35 8502     		.2byte	0x285
 2977 0f37 370C0000 		.4byte	0xc37
 2978 0f3b D0020000 		.4byte	.LLST18
 2979 0f3f 24       		.uleb128 0x24
 2980 0f40 02030000 		.4byte	.LASF219
 2981 0f44 01       		.byte	0x1
 2982 0f45 8602     		.2byte	0x286
 2983 0f47 0D010000 		.4byte	0x10d
 2984 0f4b E3020000 		.4byte	.LLST19
 2985 0f4f 1E       		.uleb128 0x1e
 2986 0f50 CC050000 		.4byte	.LASF213
 2987 0f54 01       		.byte	0x1
 2988 0f55 8802     		.2byte	0x288
 2989 0f57 0D010000 		.4byte	0x10d
 2990 0f5b 17030000 		.4byte	.LLST20
 2991 0f5f 1E       		.uleb128 0x1e
 2992 0f60 A40F0000 		.4byte	.LASF203
 2993 0f64 01       		.byte	0x1
 2994 0f65 8902     		.2byte	0x289
 2995 0f67 0D010000 		.4byte	0x10d
 2996 0f6b 4D030000 		.4byte	.LLST21
 2997 0f6f 25       		.uleb128 0x25
ARM GAS  C:\Users\Austina\AppData\Local\Temp\ccLgwUrp.s 			page 84


 2998 0f70 0C0B0000 		.4byte	.LASF200
 2999 0f74 01       		.byte	0x1
 3000 0f75 8A02     		.2byte	0x28a
 3001 0f77 750D0000 		.4byte	0xd75
 3002 0f7b 01       		.uleb128 0x1
 3003 0f7c 56       		.byte	0x56
 3004 0f7d 2A       		.uleb128 0x2a
 3005 0f7e 16000000 		.4byte	.LVL51
 3006 0f82 3A150000 		.4byte	0x153a
 3007 0f86 970F0000 		.4byte	0xf97
 3008 0f8a 27       		.uleb128 0x27
 3009 0f8b 01       		.uleb128 0x1
 3010 0f8c 50       		.byte	0x50
 3011 0f8d 02       		.uleb128 0x2
 3012 0f8e 76       		.byte	0x76
 3013 0f8f 00       		.sleb128 0
 3014 0f90 27       		.uleb128 0x27
 3015 0f91 01       		.uleb128 0x1
 3016 0f92 51       		.byte	0x51
 3017 0f93 02       		.uleb128 0x2
 3018 0f94 77       		.byte	0x77
 3019 0f95 00       		.sleb128 0
 3020 0f96 00       		.byte	0
 3021 0f97 26       		.uleb128 0x26
 3022 0f98 2A000000 		.4byte	.LVL55
 3023 0f9c 050E0000 		.4byte	0xe05
 3024 0fa0 27       		.uleb128 0x27
 3025 0fa1 01       		.uleb128 0x1
 3026 0fa2 50       		.byte	0x50
 3027 0fa3 02       		.uleb128 0x2
 3028 0fa4 76       		.byte	0x76
 3029 0fa5 00       		.sleb128 0
 3030 0fa6 27       		.uleb128 0x27
 3031 0fa7 01       		.uleb128 0x1
 3032 0fa8 51       		.byte	0x51
 3033 0fa9 02       		.uleb128 0x2
 3034 0faa 77       		.byte	0x77
 3035 0fab 00       		.sleb128 0
 3036 0fac 00       		.byte	0
 3037 0fad 00       		.byte	0
 3038 0fae 29       		.uleb128 0x29
 3039 0faf 4F080000 		.4byte	.LASF220
 3040 0fb3 01       		.byte	0x1
 3041 0fb4 1103     		.2byte	0x311
 3042 0fb6 0D010000 		.4byte	0x10d
 3043 0fba 00000000 		.4byte	.LFB130
 3044 0fbe 52000000 		.4byte	.LFE130-.LFB130
 3045 0fc2 01       		.uleb128 0x1
 3046 0fc3 9C       		.byte	0x9c
 3047 0fc4 9B100000 		.4byte	0x109b
 3048 0fc8 24       		.uleb128 0x24
 3049 0fc9 260E0000 		.4byte	.LASF197
 3050 0fcd 01       		.byte	0x1
 3051 0fce 1103     		.2byte	0x311
 3052 0fd0 750C0000 		.4byte	0xc75
 3053 0fd4 6B030000 		.4byte	.LLST22
 3054 0fd8 1E       		.uleb128 0x1e
ARM GAS  C:\Users\Austina\AppData\Local\Temp\ccLgwUrp.s 			page 85


 3055 0fd9 CC050000 		.4byte	.LASF213
 3056 0fdd 01       		.byte	0x1
 3057 0fde 1303     		.2byte	0x313
 3058 0fe0 0D010000 		.4byte	0x10d
 3059 0fe4 89030000 		.4byte	.LLST23
 3060 0fe8 25       		.uleb128 0x25
 3061 0fe9 A40F0000 		.4byte	.LASF203
 3062 0fed 01       		.byte	0x1
 3063 0fee 1903     		.2byte	0x319
 3064 0ff0 0D010000 		.4byte	0x10d
 3065 0ff4 01       		.uleb128 0x1
 3066 0ff5 5A       		.byte	0x5a
 3067 0ff6 1E       		.uleb128 0x1e
 3068 0ff7 5B0C0000 		.4byte	.LASF221
 3069 0ffb 01       		.byte	0x1
 3070 0ffc 1A03     		.2byte	0x31a
 3071 0ffe 0D010000 		.4byte	0x10d
 3072 1002 BE030000 		.4byte	.LLST24
 3073 1006 25       		.uleb128 0x25
 3074 1007 9B0C0000 		.4byte	.LASF215
 3075 100b 01       		.byte	0x1
 3076 100c 1B03     		.2byte	0x31b
 3077 100e 680B0000 		.4byte	0xb68
 3078 1012 01       		.uleb128 0x1
 3079 1013 54       		.byte	0x54
 3080 1014 25       		.uleb128 0x25
 3081 1015 0C0B0000 		.4byte	.LASF200
 3082 1019 01       		.byte	0x1
 3083 101a 1C03     		.2byte	0x31c
 3084 101c 750D0000 		.4byte	0xd75
 3085 1020 01       		.uleb128 0x1
 3086 1021 57       		.byte	0x57
 3087 1022 25       		.uleb128 0x25
 3088 1023 11000000 		.4byte	.LASF206
 3089 1027 01       		.byte	0x1
 3090 1028 2003     		.2byte	0x320
 3091 102a 740B0000 		.4byte	0xb74
 3092 102e 01       		.uleb128 0x1
 3093 102f 56       		.byte	0x56
 3094 1030 2A       		.uleb128 0x2a
 3095 1031 20000000 		.4byte	.LVL63
 3096 1035 45150000 		.4byte	0x1545
 3097 1039 44100000 		.4byte	0x1044
 3098 103d 27       		.uleb128 0x27
 3099 103e 01       		.uleb128 0x1
 3100 103f 52       		.byte	0x52
 3101 1040 02       		.uleb128 0x2
 3102 1041 76       		.byte	0x76
 3103 1042 00       		.sleb128 0
 3104 1043 00       		.byte	0
 3105 1044 2A       		.uleb128 0x2a
 3106 1045 2A000000 		.4byte	.LVL64
 3107 1049 7B0D0000 		.4byte	0xd7b
 3108 104d 64100000 		.4byte	0x1064
 3109 1051 27       		.uleb128 0x27
 3110 1052 01       		.uleb128 0x1
 3111 1053 50       		.byte	0x50
ARM GAS  C:\Users\Austina\AppData\Local\Temp\ccLgwUrp.s 			page 86


 3112 1054 02       		.uleb128 0x2
 3113 1055 77       		.byte	0x77
 3114 1056 00       		.sleb128 0
 3115 1057 27       		.uleb128 0x27
 3116 1058 01       		.uleb128 0x1
 3117 1059 51       		.byte	0x51
 3118 105a 02       		.uleb128 0x2
 3119 105b 76       		.byte	0x76
 3120 105c 00       		.sleb128 0
 3121 105d 27       		.uleb128 0x27
 3122 105e 01       		.uleb128 0x1
 3123 105f 52       		.byte	0x52
 3124 1060 02       		.uleb128 0x2
 3125 1061 75       		.byte	0x75
 3126 1062 00       		.sleb128 0
 3127 1063 00       		.byte	0
 3128 1064 2A       		.uleb128 0x2a
 3129 1065 36000000 		.4byte	.LVL66
 3130 1069 3A150000 		.4byte	0x153a
 3131 106d 84100000 		.4byte	0x1084
 3132 1071 27       		.uleb128 0x27
 3133 1072 01       		.uleb128 0x1
 3134 1073 50       		.byte	0x50
 3135 1074 02       		.uleb128 0x2
 3136 1075 77       		.byte	0x77
 3137 1076 00       		.sleb128 0
 3138 1077 27       		.uleb128 0x27
 3139 1078 01       		.uleb128 0x1
 3140 1079 51       		.byte	0x51
 3141 107a 02       		.uleb128 0x2
 3142 107b 74       		.byte	0x74
 3143 107c 00       		.sleb128 0
 3144 107d 27       		.uleb128 0x27
 3145 107e 01       		.uleb128 0x1
 3146 107f 52       		.byte	0x52
 3147 1080 02       		.uleb128 0x2
 3148 1081 7A       		.byte	0x7a
 3149 1082 00       		.sleb128 0
 3150 1083 00       		.byte	0
 3151 1084 26       		.uleb128 0x26
 3152 1085 40000000 		.4byte	.LVL69
 3153 1089 050E0000 		.4byte	0xe05
 3154 108d 27       		.uleb128 0x27
 3155 108e 01       		.uleb128 0x1
 3156 108f 50       		.byte	0x50
 3157 1090 02       		.uleb128 0x2
 3158 1091 77       		.byte	0x77
 3159 1092 00       		.sleb128 0
 3160 1093 27       		.uleb128 0x27
 3161 1094 01       		.uleb128 0x1
 3162 1095 51       		.byte	0x51
 3163 1096 02       		.uleb128 0x2
 3164 1097 74       		.byte	0x74
 3165 1098 00       		.sleb128 0
 3166 1099 00       		.byte	0
 3167 109a 00       		.byte	0
 3168 109b 29       		.uleb128 0x29
ARM GAS  C:\Users\Austina\AppData\Local\Temp\ccLgwUrp.s 			page 87


 3169 109c 3A000000 		.4byte	.LASF222
 3170 10a0 01       		.byte	0x1
 3171 10a1 9303     		.2byte	0x393
 3172 10a3 0D010000 		.4byte	0x10d
 3173 10a7 00000000 		.4byte	.LFB131
 3174 10ab 5A000000 		.4byte	.LFE131-.LFB131
 3175 10af 01       		.uleb128 0x1
 3176 10b0 9C       		.byte	0x9c
 3177 10b1 9B110000 		.4byte	0x119b
 3178 10b5 24       		.uleb128 0x24
 3179 10b6 260E0000 		.4byte	.LASF197
 3180 10ba 01       		.byte	0x1
 3181 10bb 9403     		.2byte	0x394
 3182 10bd 750C0000 		.4byte	0xc75
 3183 10c1 DD030000 		.4byte	.LLST25
 3184 10c5 24       		.uleb128 0x24
 3185 10c6 07030000 		.4byte	.LASF211
 3186 10ca 01       		.byte	0x1
 3187 10cb 9503     		.2byte	0x395
 3188 10cd 680B0000 		.4byte	0xb68
 3189 10d1 FE030000 		.4byte	.LLST26
 3190 10d5 24       		.uleb128 0x24
 3191 10d6 0A010000 		.4byte	.LASF218
 3192 10da 01       		.byte	0x1
 3193 10db 9603     		.2byte	0x396
 3194 10dd 370C0000 		.4byte	0xc37
 3195 10e1 1C040000 		.4byte	.LLST27
 3196 10e5 24       		.uleb128 0x24
 3197 10e6 02030000 		.4byte	.LASF219
 3198 10ea 01       		.byte	0x1
 3199 10eb 9703     		.2byte	0x397
 3200 10ed 0D010000 		.4byte	0x10d
 3201 10f1 5B040000 		.4byte	.LLST28
 3202 10f5 1E       		.uleb128 0x1e
 3203 10f6 CC050000 		.4byte	.LASF213
 3204 10fa 01       		.byte	0x1
 3205 10fb 9903     		.2byte	0x399
 3206 10fd 0D010000 		.4byte	0x10d
 3207 1101 79040000 		.4byte	.LLST29
 3208 1105 25       		.uleb128 0x25
 3209 1106 A40F0000 		.4byte	.LASF203
 3210 110a 01       		.byte	0x1
 3211 110b 9A03     		.2byte	0x39a
 3212 110d 0D010000 		.4byte	0x10d
 3213 1111 01       		.uleb128 0x1
 3214 1112 58       		.byte	0x58
 3215 1113 25       		.uleb128 0x25
 3216 1114 0C0B0000 		.4byte	.LASF200
 3217 1118 01       		.byte	0x1
 3218 1119 9B03     		.2byte	0x39b
 3219 111b 750D0000 		.4byte	0xd75
 3220 111f 01       		.uleb128 0x1
 3221 1120 55       		.byte	0x55
 3222 1121 1E       		.uleb128 0x1e
 3223 1122 11000000 		.4byte	.LASF206
 3224 1126 01       		.byte	0x1
 3225 1127 9E03     		.2byte	0x39e
ARM GAS  C:\Users\Austina\AppData\Local\Temp\ccLgwUrp.s 			page 88


 3226 1129 740B0000 		.4byte	0xb74
 3227 112d AF040000 		.4byte	.LLST30
 3228 1131 2A       		.uleb128 0x2a
 3229 1132 20000000 		.4byte	.LVL80
 3230 1136 45150000 		.4byte	0x1545
 3231 113a 45110000 		.4byte	0x1145
 3232 113e 27       		.uleb128 0x27
 3233 113f 01       		.uleb128 0x1
 3234 1140 52       		.byte	0x52
 3235 1141 02       		.uleb128 0x2
 3236 1142 76       		.byte	0x76
 3237 1143 00       		.sleb128 0
 3238 1144 00       		.byte	0
 3239 1145 2A       		.uleb128 0x2a
 3240 1146 30000000 		.4byte	.LVL82
 3241 114a 7B0D0000 		.4byte	0xd7b
 3242 114e 64110000 		.4byte	0x1164
 3243 1152 27       		.uleb128 0x27
 3244 1153 01       		.uleb128 0x1
 3245 1154 50       		.byte	0x50
 3246 1155 02       		.uleb128 0x2
 3247 1156 75       		.byte	0x75
 3248 1157 00       		.sleb128 0
 3249 1158 27       		.uleb128 0x27
 3250 1159 01       		.uleb128 0x1
 3251 115a 51       		.byte	0x51
 3252 115b 02       		.uleb128 0x2
 3253 115c 76       		.byte	0x76
 3254 115d 00       		.sleb128 0
 3255 115e 27       		.uleb128 0x27
 3256 115f 01       		.uleb128 0x1
 3257 1160 52       		.byte	0x52
 3258 1161 01       		.uleb128 0x1
 3259 1162 30       		.byte	0x30
 3260 1163 00       		.byte	0
 3261 1164 2A       		.uleb128 0x2a
 3262 1165 40000000 		.4byte	.LVL84
 3263 1169 3A150000 		.4byte	0x153a
 3264 116d 84110000 		.4byte	0x1184
 3265 1171 27       		.uleb128 0x27
 3266 1172 01       		.uleb128 0x1
 3267 1173 50       		.byte	0x50
 3268 1174 02       		.uleb128 0x2
 3269 1175 75       		.byte	0x75
 3270 1176 00       		.sleb128 0
 3271 1177 27       		.uleb128 0x27
 3272 1178 01       		.uleb128 0x1
 3273 1179 51       		.byte	0x51
 3274 117a 02       		.uleb128 0x2
 3275 117b 77       		.byte	0x77
 3276 117c 00       		.sleb128 0
 3277 117d 27       		.uleb128 0x27
 3278 117e 01       		.uleb128 0x1
 3279 117f 52       		.byte	0x52
 3280 1180 02       		.uleb128 0x2
 3281 1181 78       		.byte	0x78
 3282 1182 00       		.sleb128 0
ARM GAS  C:\Users\Austina\AppData\Local\Temp\ccLgwUrp.s 			page 89


 3283 1183 00       		.byte	0
 3284 1184 26       		.uleb128 0x26
 3285 1185 54000000 		.4byte	.LVL88
 3286 1189 050E0000 		.4byte	0xe05
 3287 118d 27       		.uleb128 0x27
 3288 118e 01       		.uleb128 0x1
 3289 118f 50       		.byte	0x50
 3290 1190 02       		.uleb128 0x2
 3291 1191 75       		.byte	0x75
 3292 1192 00       		.sleb128 0
 3293 1193 27       		.uleb128 0x27
 3294 1194 01       		.uleb128 0x1
 3295 1195 51       		.byte	0x51
 3296 1196 02       		.uleb128 0x2
 3297 1197 77       		.byte	0x77
 3298 1198 00       		.sleb128 0
 3299 1199 00       		.byte	0
 3300 119a 00       		.byte	0
 3301 119b 29       		.uleb128 0x29
 3302 119c E1080000 		.4byte	.LASF223
 3303 11a0 01       		.byte	0x1
 3304 11a1 C104     		.2byte	0x4c1
 3305 11a3 0D010000 		.4byte	0x10d
 3306 11a7 00000000 		.4byte	.LFB135
 3307 11ab 62000000 		.4byte	.LFE135-.LFB135
 3308 11af 01       		.uleb128 0x1
 3309 11b0 9C       		.byte	0x9c
 3310 11b1 40120000 		.4byte	0x1240
 3311 11b5 24       		.uleb128 0x24
 3312 11b6 A50E0000 		.4byte	.LASF224
 3313 11ba 01       		.byte	0x1
 3314 11bb C104     		.2byte	0x4c1
 3315 11bd 0D010000 		.4byte	0x10d
 3316 11c1 CD040000 		.4byte	.LLST31
 3317 11c5 24       		.uleb128 0x24
 3318 11c6 260E0000 		.4byte	.LASF197
 3319 11ca 01       		.byte	0x1
 3320 11cb C104     		.2byte	0x4c1
 3321 11cd 750C0000 		.4byte	0xc75
 3322 11d1 EB040000 		.4byte	.LLST32
 3323 11d5 1E       		.uleb128 0x1e
 3324 11d6 EA000000 		.4byte	.LASF225
 3325 11da 01       		.byte	0x1
 3326 11db C304     		.2byte	0x4c3
 3327 11dd 0D010000 		.4byte	0x10d
 3328 11e1 0C050000 		.4byte	.LLST33
 3329 11e5 1E       		.uleb128 0x1e
 3330 11e6 170B0000 		.4byte	.LASF226
 3331 11ea 01       		.byte	0x1
 3332 11eb C404     		.2byte	0x4c4
 3333 11ed 0D010000 		.4byte	0x10d
 3334 11f1 40050000 		.4byte	.LLST34
 3335 11f5 1E       		.uleb128 0x1e
 3336 11f6 C7040000 		.4byte	.LASF227
 3337 11fa 01       		.byte	0x1
 3338 11fb C504     		.2byte	0x4c5
 3339 11fd 0D010000 		.4byte	0x10d
ARM GAS  C:\Users\Austina\AppData\Local\Temp\ccLgwUrp.s 			page 90


 3340 1201 5F050000 		.4byte	.LLST35
 3341 1205 1E       		.uleb128 0x1e
 3342 1206 C4070000 		.4byte	.LASF228
 3343 120a 01       		.byte	0x1
 3344 120b C604     		.2byte	0x4c6
 3345 120d 0D010000 		.4byte	0x10d
 3346 1211 7D050000 		.4byte	.LLST36
 3347 1215 25       		.uleb128 0x25
 3348 1216 9B0C0000 		.4byte	.LASF215
 3349 121a 01       		.byte	0x1
 3350 121b C704     		.2byte	0x4c7
 3351 121d 680B0000 		.4byte	0xb68
 3352 1221 01       		.uleb128 0x1
 3353 1222 55       		.byte	0x55
 3354 1223 25       		.uleb128 0x25
 3355 1224 0C0B0000 		.4byte	.LASF200
 3356 1228 01       		.byte	0x1
 3357 1229 C804     		.2byte	0x4c8
 3358 122b 750D0000 		.4byte	0xd75
 3359 122f 01       		.uleb128 0x1
 3360 1230 57       		.byte	0x57
 3361 1231 25       		.uleb128 0x25
 3362 1232 0F090000 		.4byte	.LASF229
 3363 1236 01       		.byte	0x1
 3364 1237 C904     		.2byte	0x4c9
 3365 1239 6E0B0000 		.4byte	0xb6e
 3366 123d 01       		.uleb128 0x1
 3367 123e 52       		.byte	0x52
 3368 123f 00       		.byte	0
 3369 1240 1D       		.uleb128 0x1d
 3370 1241 200F0000 		.4byte	.LASF230
 3371 1245 01       		.byte	0x1
 3372 1246 C102     		.2byte	0x2c1
 3373 1248 00000000 		.4byte	.LFB129
 3374 124c 64000000 		.4byte	.LFE129-.LFB129
 3375 1250 01       		.uleb128 0x1
 3376 1251 9C       		.byte	0x9c
 3377 1252 EC120000 		.4byte	0x12ec
 3378 1256 24       		.uleb128 0x24
 3379 1257 E90F0000 		.4byte	.LASF231
 3380 125b 01       		.byte	0x1
 3381 125c C102     		.2byte	0x2c1
 3382 125e 0D010000 		.4byte	0x10d
 3383 1262 9B050000 		.4byte	.LLST37
 3384 1266 24       		.uleb128 0x24
 3385 1267 260E0000 		.4byte	.LASF197
 3386 126b 01       		.byte	0x1
 3387 126c C102     		.2byte	0x2c1
 3388 126e 750C0000 		.4byte	0xc75
 3389 1272 DD050000 		.4byte	.LLST38
 3390 1276 1E       		.uleb128 0x1e
 3391 1277 440A0000 		.4byte	.LASF232
 3392 127b 01       		.byte	0x1
 3393 127c C302     		.2byte	0x2c3
 3394 127e 0D010000 		.4byte	0x10d
 3395 1282 17060000 		.4byte	.LLST39
 3396 1286 1E       		.uleb128 0x1e
ARM GAS  C:\Users\Austina\AppData\Local\Temp\ccLgwUrp.s 			page 91


 3397 1287 B10A0000 		.4byte	.LASF233
 3398 128b 01       		.byte	0x1
 3399 128c C402     		.2byte	0x2c4
 3400 128e 0D010000 		.4byte	0x10d
 3401 1292 40060000 		.4byte	.LLST40
 3402 1296 1E       		.uleb128 0x1e
 3403 1297 0E0E0000 		.4byte	.LASF234
 3404 129b 01       		.byte	0x1
 3405 129c C502     		.2byte	0x2c5
 3406 129e 0D010000 		.4byte	0x10d
 3407 12a2 98060000 		.4byte	.LLST41
 3408 12a6 1E       		.uleb128 0x1e
 3409 12a7 A40F0000 		.4byte	.LASF203
 3410 12ab 01       		.byte	0x1
 3411 12ac C602     		.2byte	0x2c6
 3412 12ae D5050000 		.4byte	0x5d5
 3413 12b2 DA060000 		.4byte	.LLST42
 3414 12b6 2A       		.uleb128 0x2a
 3415 12b7 16000000 		.4byte	.LVL113
 3416 12bb 9B110000 		.4byte	0x119b
 3417 12bf D1120000 		.4byte	0x12d1
 3418 12c3 27       		.uleb128 0x27
 3419 12c4 01       		.uleb128 0x1
 3420 12c5 50       		.byte	0x50
 3421 12c6 02       		.uleb128 0x2
 3422 12c7 75       		.byte	0x75
 3423 12c8 00       		.sleb128 0
 3424 12c9 27       		.uleb128 0x27
 3425 12ca 01       		.uleb128 0x1
 3426 12cb 51       		.byte	0x51
 3427 12cc 03       		.uleb128 0x3
 3428 12cd F3       		.byte	0xf3
 3429 12ce 01       		.uleb128 0x1
 3430 12cf 51       		.byte	0x51
 3431 12d0 00       		.byte	0
 3432 12d1 26       		.uleb128 0x26
 3433 12d2 24000000 		.4byte	.LVL118
 3434 12d6 50150000 		.4byte	0x1550
 3435 12da 27       		.uleb128 0x27
 3436 12db 01       		.uleb128 0x1
 3437 12dc 50       		.byte	0x50
 3438 12dd 05       		.uleb128 0x5
 3439 12de 03       		.byte	0x3
 3440 12df 00000000 		.4byte	.LC0
 3441 12e3 27       		.uleb128 0x27
 3442 12e4 01       		.uleb128 0x1
 3443 12e5 51       		.byte	0x51
 3444 12e6 03       		.uleb128 0x3
 3445 12e7 0A       		.byte	0xa
 3446 12e8 E002     		.2byte	0x2e0
 3447 12ea 00       		.byte	0
 3448 12eb 00       		.byte	0
 3449 12ec 29       		.uleb128 0x29
 3450 12ed BF0A0000 		.4byte	.LASF235
 3451 12f1 01       		.byte	0x1
 3452 12f2 9405     		.2byte	0x594
 3453 12f4 0D010000 		.4byte	0x10d
ARM GAS  C:\Users\Austina\AppData\Local\Temp\ccLgwUrp.s 			page 92


 3454 12f8 00000000 		.4byte	.LFB136
 3455 12fc CA000000 		.4byte	.LFE136-.LFB136
 3456 1300 01       		.uleb128 0x1
 3457 1301 9C       		.byte	0x9c
 3458 1302 3D140000 		.4byte	0x143d
 3459 1306 24       		.uleb128 0x24
 3460 1307 A50E0000 		.4byte	.LASF224
 3461 130b 01       		.byte	0x1
 3462 130c 9405     		.2byte	0x594
 3463 130e 0D010000 		.4byte	0x10d
 3464 1312 F8060000 		.4byte	.LLST43
 3465 1316 24       		.uleb128 0x24
 3466 1317 260E0000 		.4byte	.LASF197
 3467 131b 01       		.byte	0x1
 3468 131c 9405     		.2byte	0x594
 3469 131e 750C0000 		.4byte	0xc75
 3470 1322 37070000 		.4byte	.LLST44
 3471 1326 1E       		.uleb128 0x1e
 3472 1327 EA000000 		.4byte	.LASF225
 3473 132b 01       		.byte	0x1
 3474 132c 9605     		.2byte	0x596
 3475 132e 0D010000 		.4byte	0x10d
 3476 1332 79070000 		.4byte	.LLST45
 3477 1336 1E       		.uleb128 0x1e
 3478 1337 170B0000 		.4byte	.LASF226
 3479 133b 01       		.byte	0x1
 3480 133c 9705     		.2byte	0x597
 3481 133e 0D010000 		.4byte	0x10d
 3482 1342 CE070000 		.4byte	.LLST46
 3483 1346 1E       		.uleb128 0x1e
 3484 1347 C4070000 		.4byte	.LASF228
 3485 134b 01       		.byte	0x1
 3486 134c 9805     		.2byte	0x598
 3487 134e 0D010000 		.4byte	0x10d
 3488 1352 F8070000 		.4byte	.LLST47
 3489 1356 1E       		.uleb128 0x1e
 3490 1357 C7040000 		.4byte	.LASF227
 3491 135b 01       		.byte	0x1
 3492 135c 9905     		.2byte	0x599
 3493 135e 0D010000 		.4byte	0x10d
 3494 1362 31080000 		.4byte	.LLST48
 3495 1366 1E       		.uleb128 0x1e
 3496 1367 0F090000 		.4byte	.LASF229
 3497 136b 01       		.byte	0x1
 3498 136c 9A05     		.2byte	0x59a
 3499 136e 6E0B0000 		.4byte	0xb6e
 3500 1372 5B080000 		.4byte	.LLST49
 3501 1376 1E       		.uleb128 0x1e
 3502 1377 9B0C0000 		.4byte	.LASF215
 3503 137b 01       		.byte	0x1
 3504 137c 9B05     		.2byte	0x59b
 3505 137e 680B0000 		.4byte	0xb68
 3506 1382 79080000 		.4byte	.LLST50
 3507 1386 25       		.uleb128 0x25
 3508 1387 0C0B0000 		.4byte	.LASF200
 3509 138b 01       		.byte	0x1
 3510 138c 9C05     		.2byte	0x59c
ARM GAS  C:\Users\Austina\AppData\Local\Temp\ccLgwUrp.s 			page 93


 3511 138e 800C0000 		.4byte	0xc80
 3512 1392 01       		.uleb128 0x1
 3513 1393 55       		.byte	0x55
 3514 1394 25       		.uleb128 0x25
 3515 1395 74080000 		.4byte	.LASF201
 3516 1399 01       		.byte	0x1
 3517 139a A205     		.2byte	0x5a2
 3518 139c 0D010000 		.4byte	0x10d
 3519 13a0 01       		.uleb128 0x1
 3520 13a1 53       		.byte	0x53
 3521 13a2 1E       		.uleb128 0x1e
 3522 13a3 360C0000 		.4byte	.LASF236
 3523 13a7 01       		.byte	0x1
 3524 13a8 A305     		.2byte	0x5a3
 3525 13aa 0D010000 		.4byte	0x10d
 3526 13ae 97080000 		.4byte	.LLST51
 3527 13b2 25       		.uleb128 0x25
 3528 13b3 F90A0000 		.4byte	.LASF198
 3529 13b7 01       		.byte	0x1
 3530 13b8 A405     		.2byte	0x5a4
 3531 13ba 18080000 		.4byte	0x818
 3532 13be 02       		.uleb128 0x2
 3533 13bf 91       		.byte	0x91
 3534 13c0 64       		.sleb128 -28
 3535 13c1 1F       		.uleb128 0x1f
 3536 13c2 860C0000 		.4byte	0xc86
 3537 13c6 90000000 		.4byte	.LBB8
 3538 13ca 20000000 		.4byte	.LBE8-.LBB8
 3539 13ce 01       		.byte	0x1
 3540 13cf 0A06     		.2byte	0x60a
 3541 13d1 0D140000 		.4byte	0x140d
 3542 13d5 20       		.uleb128 0x20
 3543 13d6 B70C0000 		.4byte	0xcb7
 3544 13da E3080000 		.4byte	.LLST52
 3545 13de 20       		.uleb128 0x20
 3546 13df AB0C0000 		.4byte	0xcab
 3547 13e3 F6080000 		.4byte	.LLST53
 3548 13e7 20       		.uleb128 0x20
 3549 13e8 9F0C0000 		.4byte	0xc9f
 3550 13ec 09090000 		.4byte	.LLST54
 3551 13f0 20       		.uleb128 0x20
 3552 13f1 930C0000 		.4byte	0xc93
 3553 13f5 27090000 		.4byte	.LLST55
 3554 13f9 21       		.uleb128 0x21
 3555 13fa 90000000 		.4byte	.LBB9
 3556 13fe 20000000 		.4byte	.LBE9-.LBB9
 3557 1402 22       		.uleb128 0x22
 3558 1403 C30C0000 		.4byte	0xcc3
 3559 1407 3C090000 		.4byte	.LLST56
 3560 140b 00       		.byte	0
 3561 140c 00       		.byte	0
 3562 140d 2A       		.uleb128 0x2a
 3563 140e 72000000 		.4byte	.LVL156
 3564 1412 5C150000 		.4byte	0x155c
 3565 1416 21140000 		.4byte	0x1421
 3566 141a 27       		.uleb128 0x27
 3567 141b 01       		.uleb128 0x1
ARM GAS  C:\Users\Austina\AppData\Local\Temp\ccLgwUrp.s 			page 94


 3568 141c 51       		.byte	0x51
 3569 141d 02       		.uleb128 0x2
 3570 141e 77       		.byte	0x77
 3571 141f 00       		.sleb128 0
 3572 1420 00       		.byte	0
 3573 1421 26       		.uleb128 0x26
 3574 1422 8E000000 		.4byte	.LVL160
 3575 1426 67150000 		.4byte	0x1567
 3576 142a 27       		.uleb128 0x27
 3577 142b 01       		.uleb128 0x1
 3578 142c 50       		.byte	0x50
 3579 142d 02       		.uleb128 0x2
 3580 142e 91       		.byte	0x91
 3581 142f 64       		.sleb128 -28
 3582 1430 27       		.uleb128 0x27
 3583 1431 01       		.uleb128 0x1
 3584 1432 52       		.byte	0x52
 3585 1433 02       		.uleb128 0x2
 3586 1434 77       		.byte	0x77
 3587 1435 00       		.sleb128 0
 3588 1436 27       		.uleb128 0x27
 3589 1437 01       		.uleb128 0x1
 3590 1438 53       		.byte	0x53
 3591 1439 01       		.uleb128 0x1
 3592 143a 30       		.byte	0x30
 3593 143b 00       		.byte	0
 3594 143c 00       		.byte	0
 3595 143d 1D       		.uleb128 0x1d
 3596 143e 94010000 		.4byte	.LASF237
 3597 1442 01       		.byte	0x1
 3598 1443 F703     		.2byte	0x3f7
 3599 1445 00000000 		.4byte	.LFB132
 3600 1449 74000000 		.4byte	.LFE132-.LFB132
 3601 144d 01       		.uleb128 0x1
 3602 144e 9C       		.byte	0x9c
 3603 144f F6140000 		.4byte	0x14f6
 3604 1453 24       		.uleb128 0x24
 3605 1454 E90F0000 		.4byte	.LASF231
 3606 1458 01       		.byte	0x1
 3607 1459 F703     		.2byte	0x3f7
 3608 145b 0D010000 		.4byte	0x10d
 3609 145f 5B090000 		.4byte	.LLST57
 3610 1463 24       		.uleb128 0x24
 3611 1464 260E0000 		.4byte	.LASF197
 3612 1468 01       		.byte	0x1
 3613 1469 F703     		.2byte	0x3f7
 3614 146b 750C0000 		.4byte	0xc75
 3615 146f B3090000 		.4byte	.LLST58
 3616 1473 1E       		.uleb128 0x1e
 3617 1474 440A0000 		.4byte	.LASF232
 3618 1478 01       		.byte	0x1
 3619 1479 F903     		.2byte	0x3f9
 3620 147b 0D010000 		.4byte	0x10d
 3621 147f 060A0000 		.4byte	.LLST59
 3622 1483 1E       		.uleb128 0x1e
 3623 1484 B10A0000 		.4byte	.LASF233
 3624 1488 01       		.byte	0x1
ARM GAS  C:\Users\Austina\AppData\Local\Temp\ccLgwUrp.s 			page 95


 3625 1489 FA03     		.2byte	0x3fa
 3626 148b 0D010000 		.4byte	0x10d
 3627 148f 450A0000 		.4byte	.LLST60
 3628 1493 1E       		.uleb128 0x1e
 3629 1494 0E0E0000 		.4byte	.LASF234
 3630 1498 01       		.byte	0x1
 3631 1499 FB03     		.2byte	0x3fb
 3632 149b 0D010000 		.4byte	0x10d
 3633 149f 9D0A0000 		.4byte	.LLST61
 3634 14a3 1E       		.uleb128 0x1e
 3635 14a4 A40F0000 		.4byte	.LASF203
 3636 14a8 01       		.byte	0x1
 3637 14a9 FC03     		.2byte	0x3fc
 3638 14ab D5050000 		.4byte	0x5d5
 3639 14af DF0A0000 		.4byte	.LLST62
 3640 14b3 2A       		.uleb128 0x2a
 3641 14b4 1E000000 		.4byte	.LVL170
 3642 14b8 9B110000 		.4byte	0x119b
 3643 14bc C7140000 		.4byte	0x14c7
 3644 14c0 27       		.uleb128 0x27
 3645 14c1 01       		.uleb128 0x1
 3646 14c2 50       		.byte	0x50
 3647 14c3 02       		.uleb128 0x2
 3648 14c4 75       		.byte	0x75
 3649 14c5 00       		.sleb128 0
 3650 14c6 00       		.byte	0
 3651 14c7 2A       		.uleb128 0x2a
 3652 14c8 28000000 		.4byte	.LVL174
 3653 14cc EC120000 		.4byte	0x12ec
 3654 14d0 DB140000 		.4byte	0x14db
 3655 14d4 27       		.uleb128 0x27
 3656 14d5 01       		.uleb128 0x1
 3657 14d6 50       		.byte	0x50
 3658 14d7 02       		.uleb128 0x2
 3659 14d8 75       		.byte	0x75
 3660 14d9 00       		.sleb128 0
 3661 14da 00       		.byte	0
 3662 14db 26       		.uleb128 0x26
 3663 14dc 36000000 		.4byte	.LVL179
 3664 14e0 50150000 		.4byte	0x1550
 3665 14e4 27       		.uleb128 0x27
 3666 14e5 01       		.uleb128 0x1
 3667 14e6 50       		.byte	0x50
 3668 14e7 05       		.uleb128 0x5
 3669 14e8 03       		.byte	0x3
 3670 14e9 00000000 		.4byte	.LC0
 3671 14ed 27       		.uleb128 0x27
 3672 14ee 01       		.uleb128 0x1
 3673 14ef 51       		.byte	0x51
 3674 14f0 03       		.uleb128 0x3
 3675 14f1 0A       		.byte	0xa
 3676 14f2 2604     		.2byte	0x426
 3677 14f4 00       		.byte	0
 3678 14f5 00       		.byte	0
 3679 14f6 2B       		.uleb128 0x2b
 3680 14f7 050C0000 		.4byte	.LASF238
 3681 14fb 0A       		.byte	0xa
ARM GAS  C:\Users\Austina\AppData\Local\Temp\ccLgwUrp.s 			page 96


 3682 14fc EA07     		.2byte	0x7ea
 3683 14fe 02150000 		.4byte	0x1502
 3684 1502 05       		.uleb128 0x5
 3685 1503 AD000000 		.4byte	0xad
 3686 1507 2B       		.uleb128 0x2b
 3687 1508 BE090000 		.4byte	.LASF239
 3688 150c 09       		.byte	0x9
 3689 150d 9D04     		.2byte	0x49d
 3690 150f 880A0000 		.4byte	0xa88
 3691 1513 2B       		.uleb128 0x2b
 3692 1514 CE0C0000 		.4byte	.LASF240
 3693 1518 09       		.byte	0x9
 3694 1519 9E04     		.2byte	0x49e
 3695 151b 1F150000 		.4byte	0x151f
 3696 151f 1C       		.uleb128 0x1c
 3697 1520 AD0B0000 		.4byte	0xbad
 3698 1524 2C       		.uleb128 0x2c
 3699 1525 DD090000 		.4byte	.LASF241
 3700 1529 DD090000 		.4byte	.LASF241
 3701 152d 0B       		.byte	0xb
 3702 152e 19       		.byte	0x19
 3703 152f 2C       		.uleb128 0x2c
 3704 1530 19040000 		.4byte	.LASF242
 3705 1534 19040000 		.4byte	.LASF242
 3706 1538 07       		.byte	0x7
 3707 1539 B3       		.byte	0xb3
 3708 153a 2C       		.uleb128 0x2c
 3709 153b 79040000 		.4byte	.LASF243
 3710 153f 79040000 		.4byte	.LASF243
 3711 1543 0C       		.byte	0xc
 3712 1544 70       		.byte	0x70
 3713 1545 2C       		.uleb128 0x2c
 3714 1546 89080000 		.4byte	.LASF244
 3715 154a 89080000 		.4byte	.LASF244
 3716 154e 07       		.byte	0x7
 3717 154f BC       		.byte	0xbc
 3718 1550 2D       		.uleb128 0x2d
 3719 1551 38080000 		.4byte	.LASF245
 3720 1555 38080000 		.4byte	.LASF245
 3721 1559 04       		.byte	0x4
 3722 155a 2A03     		.2byte	0x32a
 3723 155c 2C       		.uleb128 0x2c
 3724 155d 24010000 		.4byte	.LASF246
 3725 1561 24010000 		.4byte	.LASF246
 3726 1565 0D       		.byte	0xd
 3727 1566 4E       		.byte	0x4e
 3728 1567 2C       		.uleb128 0x2c
 3729 1568 D3050000 		.4byte	.LASF247
 3730 156c D3050000 		.4byte	.LASF247
 3731 1570 0D       		.byte	0xd
 3732 1571 5D       		.byte	0x5d
 3733 1572 00       		.byte	0
 3734              		.section	.debug_abbrev,"",%progbits
 3735              	.Ldebug_abbrev0:
 3736 0000 01       		.uleb128 0x1
 3737 0001 11       		.uleb128 0x11
 3738 0002 01       		.byte	0x1
ARM GAS  C:\Users\Austina\AppData\Local\Temp\ccLgwUrp.s 			page 97


 3739 0003 25       		.uleb128 0x25
 3740 0004 0E       		.uleb128 0xe
 3741 0005 13       		.uleb128 0x13
 3742 0006 0B       		.uleb128 0xb
 3743 0007 03       		.uleb128 0x3
 3744 0008 0E       		.uleb128 0xe
 3745 0009 1B       		.uleb128 0x1b
 3746 000a 0E       		.uleb128 0xe
 3747 000b 55       		.uleb128 0x55
 3748 000c 17       		.uleb128 0x17
 3749 000d 11       		.uleb128 0x11
 3750 000e 01       		.uleb128 0x1
 3751 000f 10       		.uleb128 0x10
 3752 0010 17       		.uleb128 0x17
 3753 0011 00       		.byte	0
 3754 0012 00       		.byte	0
 3755 0013 02       		.uleb128 0x2
 3756 0014 24       		.uleb128 0x24
 3757 0015 00       		.byte	0
 3758 0016 0B       		.uleb128 0xb
 3759 0017 0B       		.uleb128 0xb
 3760 0018 3E       		.uleb128 0x3e
 3761 0019 0B       		.uleb128 0xb
 3762 001a 03       		.uleb128 0x3
 3763 001b 0E       		.uleb128 0xe
 3764 001c 00       		.byte	0
 3765 001d 00       		.byte	0
 3766 001e 03       		.uleb128 0x3
 3767 001f 16       		.uleb128 0x16
 3768 0020 00       		.byte	0
 3769 0021 03       		.uleb128 0x3
 3770 0022 0E       		.uleb128 0xe
 3771 0023 3A       		.uleb128 0x3a
 3772 0024 0B       		.uleb128 0xb
 3773 0025 3B       		.uleb128 0x3b
 3774 0026 0B       		.uleb128 0xb
 3775 0027 49       		.uleb128 0x49
 3776 0028 13       		.uleb128 0x13
 3777 0029 00       		.byte	0
 3778 002a 00       		.byte	0
 3779 002b 04       		.uleb128 0x4
 3780 002c 24       		.uleb128 0x24
 3781 002d 00       		.byte	0
 3782 002e 0B       		.uleb128 0xb
 3783 002f 0B       		.uleb128 0xb
 3784 0030 3E       		.uleb128 0x3e
 3785 0031 0B       		.uleb128 0xb
 3786 0032 03       		.uleb128 0x3
 3787 0033 08       		.uleb128 0x8
 3788 0034 00       		.byte	0
 3789 0035 00       		.byte	0
 3790 0036 05       		.uleb128 0x5
 3791 0037 35       		.uleb128 0x35
 3792 0038 00       		.byte	0
 3793 0039 49       		.uleb128 0x49
 3794 003a 13       		.uleb128 0x13
 3795 003b 00       		.byte	0
ARM GAS  C:\Users\Austina\AppData\Local\Temp\ccLgwUrp.s 			page 98


 3796 003c 00       		.byte	0
 3797 003d 06       		.uleb128 0x6
 3798 003e 16       		.uleb128 0x16
 3799 003f 00       		.byte	0
 3800 0040 03       		.uleb128 0x3
 3801 0041 0E       		.uleb128 0xe
 3802 0042 3A       		.uleb128 0x3a
 3803 0043 0B       		.uleb128 0xb
 3804 0044 3B       		.uleb128 0x3b
 3805 0045 05       		.uleb128 0x5
 3806 0046 49       		.uleb128 0x49
 3807 0047 13       		.uleb128 0x13
 3808 0048 00       		.byte	0
 3809 0049 00       		.byte	0
 3810 004a 07       		.uleb128 0x7
 3811 004b 0F       		.uleb128 0xf
 3812 004c 00       		.byte	0
 3813 004d 0B       		.uleb128 0xb
 3814 004e 0B       		.uleb128 0xb
 3815 004f 00       		.byte	0
 3816 0050 00       		.byte	0
 3817 0051 08       		.uleb128 0x8
 3818 0052 13       		.uleb128 0x13
 3819 0053 01       		.byte	0x1
 3820 0054 0B       		.uleb128 0xb
 3821 0055 0B       		.uleb128 0xb
 3822 0056 3A       		.uleb128 0x3a
 3823 0057 0B       		.uleb128 0xb
 3824 0058 3B       		.uleb128 0x3b
 3825 0059 0B       		.uleb128 0xb
 3826 005a 01       		.uleb128 0x1
 3827 005b 13       		.uleb128 0x13
 3828 005c 00       		.byte	0
 3829 005d 00       		.byte	0
 3830 005e 09       		.uleb128 0x9
 3831 005f 0D       		.uleb128 0xd
 3832 0060 00       		.byte	0
 3833 0061 03       		.uleb128 0x3
 3834 0062 0E       		.uleb128 0xe
 3835 0063 3A       		.uleb128 0x3a
 3836 0064 0B       		.uleb128 0xb
 3837 0065 3B       		.uleb128 0x3b
 3838 0066 0B       		.uleb128 0xb
 3839 0067 49       		.uleb128 0x49
 3840 0068 13       		.uleb128 0x13
 3841 0069 38       		.uleb128 0x38
 3842 006a 0B       		.uleb128 0xb
 3843 006b 00       		.byte	0
 3844 006c 00       		.byte	0
 3845 006d 0A       		.uleb128 0xa
 3846 006e 0D       		.uleb128 0xd
 3847 006f 00       		.byte	0
 3848 0070 03       		.uleb128 0x3
 3849 0071 0E       		.uleb128 0xe
 3850 0072 3A       		.uleb128 0x3a
 3851 0073 0B       		.uleb128 0xb
 3852 0074 3B       		.uleb128 0x3b
ARM GAS  C:\Users\Austina\AppData\Local\Temp\ccLgwUrp.s 			page 99


 3853 0075 05       		.uleb128 0x5
 3854 0076 49       		.uleb128 0x49
 3855 0077 13       		.uleb128 0x13
 3856 0078 38       		.uleb128 0x38
 3857 0079 0B       		.uleb128 0xb
 3858 007a 00       		.byte	0
 3859 007b 00       		.byte	0
 3860 007c 0B       		.uleb128 0xb
 3861 007d 04       		.uleb128 0x4
 3862 007e 01       		.byte	0x1
 3863 007f 0B       		.uleb128 0xb
 3864 0080 0B       		.uleb128 0xb
 3865 0081 49       		.uleb128 0x49
 3866 0082 13       		.uleb128 0x13
 3867 0083 3A       		.uleb128 0x3a
 3868 0084 0B       		.uleb128 0xb
 3869 0085 3B       		.uleb128 0x3b
 3870 0086 0B       		.uleb128 0xb
 3871 0087 01       		.uleb128 0x1
 3872 0088 13       		.uleb128 0x13
 3873 0089 00       		.byte	0
 3874 008a 00       		.byte	0
 3875 008b 0C       		.uleb128 0xc
 3876 008c 28       		.uleb128 0x28
 3877 008d 00       		.byte	0
 3878 008e 03       		.uleb128 0x3
 3879 008f 0E       		.uleb128 0xe
 3880 0090 1C       		.uleb128 0x1c
 3881 0091 0B       		.uleb128 0xb
 3882 0092 00       		.byte	0
 3883 0093 00       		.byte	0
 3884 0094 0D       		.uleb128 0xd
 3885 0095 01       		.uleb128 0x1
 3886 0096 01       		.byte	0x1
 3887 0097 49       		.uleb128 0x49
 3888 0098 13       		.uleb128 0x13
 3889 0099 01       		.uleb128 0x1
 3890 009a 13       		.uleb128 0x13
 3891 009b 00       		.byte	0
 3892 009c 00       		.byte	0
 3893 009d 0E       		.uleb128 0xe
 3894 009e 21       		.uleb128 0x21
 3895 009f 00       		.byte	0
 3896 00a0 49       		.uleb128 0x49
 3897 00a1 13       		.uleb128 0x13
 3898 00a2 2F       		.uleb128 0x2f
 3899 00a3 0B       		.uleb128 0xb
 3900 00a4 00       		.byte	0
 3901 00a5 00       		.byte	0
 3902 00a6 0F       		.uleb128 0xf
 3903 00a7 13       		.uleb128 0x13
 3904 00a8 01       		.byte	0x1
 3905 00a9 0B       		.uleb128 0xb
 3906 00aa 0B       		.uleb128 0xb
 3907 00ab 3A       		.uleb128 0x3a
 3908 00ac 0B       		.uleb128 0xb
 3909 00ad 3B       		.uleb128 0x3b
ARM GAS  C:\Users\Austina\AppData\Local\Temp\ccLgwUrp.s 			page 100


 3910 00ae 05       		.uleb128 0x5
 3911 00af 01       		.uleb128 0x1
 3912 00b0 13       		.uleb128 0x13
 3913 00b1 00       		.byte	0
 3914 00b2 00       		.byte	0
 3915 00b3 10       		.uleb128 0x10
 3916 00b4 0D       		.uleb128 0xd
 3917 00b5 00       		.byte	0
 3918 00b6 03       		.uleb128 0x3
 3919 00b7 08       		.uleb128 0x8
 3920 00b8 3A       		.uleb128 0x3a
 3921 00b9 0B       		.uleb128 0xb
 3922 00ba 3B       		.uleb128 0x3b
 3923 00bb 05       		.uleb128 0x5
 3924 00bc 49       		.uleb128 0x49
 3925 00bd 13       		.uleb128 0x13
 3926 00be 38       		.uleb128 0x38
 3927 00bf 0B       		.uleb128 0xb
 3928 00c0 00       		.byte	0
 3929 00c1 00       		.byte	0
 3930 00c2 11       		.uleb128 0x11
 3931 00c3 13       		.uleb128 0x13
 3932 00c4 01       		.byte	0x1
 3933 00c5 0B       		.uleb128 0xb
 3934 00c6 05       		.uleb128 0x5
 3935 00c7 3A       		.uleb128 0x3a
 3936 00c8 0B       		.uleb128 0xb
 3937 00c9 3B       		.uleb128 0x3b
 3938 00ca 05       		.uleb128 0x5
 3939 00cb 01       		.uleb128 0x1
 3940 00cc 13       		.uleb128 0x13
 3941 00cd 00       		.byte	0
 3942 00ce 00       		.byte	0
 3943 00cf 12       		.uleb128 0x12
 3944 00d0 0D       		.uleb128 0xd
 3945 00d1 00       		.byte	0
 3946 00d2 03       		.uleb128 0x3
 3947 00d3 0E       		.uleb128 0xe
 3948 00d4 3A       		.uleb128 0x3a
 3949 00d5 0B       		.uleb128 0xb
 3950 00d6 3B       		.uleb128 0x3b
 3951 00d7 05       		.uleb128 0x5
 3952 00d8 49       		.uleb128 0x49
 3953 00d9 13       		.uleb128 0x13
 3954 00da 38       		.uleb128 0x38
 3955 00db 05       		.uleb128 0x5
 3956 00dc 00       		.byte	0
 3957 00dd 00       		.byte	0
 3958 00de 13       		.uleb128 0x13
 3959 00df 0F       		.uleb128 0xf
 3960 00e0 00       		.byte	0
 3961 00e1 0B       		.uleb128 0xb
 3962 00e2 0B       		.uleb128 0xb
 3963 00e3 49       		.uleb128 0x49
 3964 00e4 13       		.uleb128 0x13
 3965 00e5 00       		.byte	0
 3966 00e6 00       		.byte	0
ARM GAS  C:\Users\Austina\AppData\Local\Temp\ccLgwUrp.s 			page 101


 3967 00e7 14       		.uleb128 0x14
 3968 00e8 26       		.uleb128 0x26
 3969 00e9 00       		.byte	0
 3970 00ea 00       		.byte	0
 3971 00eb 00       		.byte	0
 3972 00ec 15       		.uleb128 0x15
 3973 00ed 17       		.uleb128 0x17
 3974 00ee 01       		.byte	0x1
 3975 00ef 0B       		.uleb128 0xb
 3976 00f0 0B       		.uleb128 0xb
 3977 00f1 3A       		.uleb128 0x3a
 3978 00f2 0B       		.uleb128 0xb
 3979 00f3 3B       		.uleb128 0x3b
 3980 00f4 05       		.uleb128 0x5
 3981 00f5 01       		.uleb128 0x1
 3982 00f6 13       		.uleb128 0x13
 3983 00f7 00       		.byte	0
 3984 00f8 00       		.byte	0
 3985 00f9 16       		.uleb128 0x16
 3986 00fa 0D       		.uleb128 0xd
 3987 00fb 00       		.byte	0
 3988 00fc 03       		.uleb128 0x3
 3989 00fd 08       		.uleb128 0x8
 3990 00fe 3A       		.uleb128 0x3a
 3991 00ff 0B       		.uleb128 0xb
 3992 0100 3B       		.uleb128 0x3b
 3993 0101 05       		.uleb128 0x5
 3994 0102 49       		.uleb128 0x49
 3995 0103 13       		.uleb128 0x13
 3996 0104 00       		.byte	0
 3997 0105 00       		.byte	0
 3998 0106 17       		.uleb128 0x17
 3999 0107 0D       		.uleb128 0xd
 4000 0108 00       		.byte	0
 4001 0109 03       		.uleb128 0x3
 4002 010a 0E       		.uleb128 0xe
 4003 010b 3A       		.uleb128 0x3a
 4004 010c 0B       		.uleb128 0xb
 4005 010d 3B       		.uleb128 0x3b
 4006 010e 05       		.uleb128 0x5
 4007 010f 49       		.uleb128 0x49
 4008 0110 13       		.uleb128 0x13
 4009 0111 00       		.byte	0
 4010 0112 00       		.byte	0
 4011 0113 18       		.uleb128 0x18
 4012 0114 2E       		.uleb128 0x2e
 4013 0115 01       		.byte	0x1
 4014 0116 03       		.uleb128 0x3
 4015 0117 0E       		.uleb128 0xe
 4016 0118 3A       		.uleb128 0x3a
 4017 0119 0B       		.uleb128 0xb
 4018 011a 3B       		.uleb128 0x3b
 4019 011b 05       		.uleb128 0x5
 4020 011c 27       		.uleb128 0x27
 4021 011d 19       		.uleb128 0x19
 4022 011e 20       		.uleb128 0x20
 4023 011f 0B       		.uleb128 0xb
ARM GAS  C:\Users\Austina\AppData\Local\Temp\ccLgwUrp.s 			page 102


 4024 0120 01       		.uleb128 0x1
 4025 0121 13       		.uleb128 0x13
 4026 0122 00       		.byte	0
 4027 0123 00       		.byte	0
 4028 0124 19       		.uleb128 0x19
 4029 0125 05       		.uleb128 0x5
 4030 0126 00       		.byte	0
 4031 0127 03       		.uleb128 0x3
 4032 0128 0E       		.uleb128 0xe
 4033 0129 3A       		.uleb128 0x3a
 4034 012a 0B       		.uleb128 0xb
 4035 012b 3B       		.uleb128 0x3b
 4036 012c 05       		.uleb128 0x5
 4037 012d 49       		.uleb128 0x49
 4038 012e 13       		.uleb128 0x13
 4039 012f 00       		.byte	0
 4040 0130 00       		.byte	0
 4041 0131 1A       		.uleb128 0x1a
 4042 0132 34       		.uleb128 0x34
 4043 0133 00       		.byte	0
 4044 0134 03       		.uleb128 0x3
 4045 0135 08       		.uleb128 0x8
 4046 0136 3A       		.uleb128 0x3a
 4047 0137 0B       		.uleb128 0xb
 4048 0138 3B       		.uleb128 0x3b
 4049 0139 05       		.uleb128 0x5
 4050 013a 49       		.uleb128 0x49
 4051 013b 13       		.uleb128 0x13
 4052 013c 00       		.byte	0
 4053 013d 00       		.byte	0
 4054 013e 1B       		.uleb128 0x1b
 4055 013f 34       		.uleb128 0x34
 4056 0140 00       		.byte	0
 4057 0141 03       		.uleb128 0x3
 4058 0142 0E       		.uleb128 0xe
 4059 0143 3A       		.uleb128 0x3a
 4060 0144 0B       		.uleb128 0xb
 4061 0145 3B       		.uleb128 0x3b
 4062 0146 05       		.uleb128 0x5
 4063 0147 49       		.uleb128 0x49
 4064 0148 13       		.uleb128 0x13
 4065 0149 00       		.byte	0
 4066 014a 00       		.byte	0
 4067 014b 1C       		.uleb128 0x1c
 4068 014c 26       		.uleb128 0x26
 4069 014d 00       		.byte	0
 4070 014e 49       		.uleb128 0x49
 4071 014f 13       		.uleb128 0x13
 4072 0150 00       		.byte	0
 4073 0151 00       		.byte	0
 4074 0152 1D       		.uleb128 0x1d
 4075 0153 2E       		.uleb128 0x2e
 4076 0154 01       		.byte	0x1
 4077 0155 3F       		.uleb128 0x3f
 4078 0156 19       		.uleb128 0x19
 4079 0157 03       		.uleb128 0x3
 4080 0158 0E       		.uleb128 0xe
ARM GAS  C:\Users\Austina\AppData\Local\Temp\ccLgwUrp.s 			page 103


 4081 0159 3A       		.uleb128 0x3a
 4082 015a 0B       		.uleb128 0xb
 4083 015b 3B       		.uleb128 0x3b
 4084 015c 05       		.uleb128 0x5
 4085 015d 27       		.uleb128 0x27
 4086 015e 19       		.uleb128 0x19
 4087 015f 11       		.uleb128 0x11
 4088 0160 01       		.uleb128 0x1
 4089 0161 12       		.uleb128 0x12
 4090 0162 06       		.uleb128 0x6
 4091 0163 40       		.uleb128 0x40
 4092 0164 18       		.uleb128 0x18
 4093 0165 9742     		.uleb128 0x2117
 4094 0167 19       		.uleb128 0x19
 4095 0168 01       		.uleb128 0x1
 4096 0169 13       		.uleb128 0x13
 4097 016a 00       		.byte	0
 4098 016b 00       		.byte	0
 4099 016c 1E       		.uleb128 0x1e
 4100 016d 34       		.uleb128 0x34
 4101 016e 00       		.byte	0
 4102 016f 03       		.uleb128 0x3
 4103 0170 0E       		.uleb128 0xe
 4104 0171 3A       		.uleb128 0x3a
 4105 0172 0B       		.uleb128 0xb
 4106 0173 3B       		.uleb128 0x3b
 4107 0174 05       		.uleb128 0x5
 4108 0175 49       		.uleb128 0x49
 4109 0176 13       		.uleb128 0x13
 4110 0177 02       		.uleb128 0x2
 4111 0178 17       		.uleb128 0x17
 4112 0179 00       		.byte	0
 4113 017a 00       		.byte	0
 4114 017b 1F       		.uleb128 0x1f
 4115 017c 1D       		.uleb128 0x1d
 4116 017d 01       		.byte	0x1
 4117 017e 31       		.uleb128 0x31
 4118 017f 13       		.uleb128 0x13
 4119 0180 11       		.uleb128 0x11
 4120 0181 01       		.uleb128 0x1
 4121 0182 12       		.uleb128 0x12
 4122 0183 06       		.uleb128 0x6
 4123 0184 58       		.uleb128 0x58
 4124 0185 0B       		.uleb128 0xb
 4125 0186 59       		.uleb128 0x59
 4126 0187 05       		.uleb128 0x5
 4127 0188 01       		.uleb128 0x1
 4128 0189 13       		.uleb128 0x13
 4129 018a 00       		.byte	0
 4130 018b 00       		.byte	0
 4131 018c 20       		.uleb128 0x20
 4132 018d 05       		.uleb128 0x5
 4133 018e 00       		.byte	0
 4134 018f 31       		.uleb128 0x31
 4135 0190 13       		.uleb128 0x13
 4136 0191 02       		.uleb128 0x2
 4137 0192 17       		.uleb128 0x17
ARM GAS  C:\Users\Austina\AppData\Local\Temp\ccLgwUrp.s 			page 104


 4138 0193 00       		.byte	0
 4139 0194 00       		.byte	0
 4140 0195 21       		.uleb128 0x21
 4141 0196 0B       		.uleb128 0xb
 4142 0197 01       		.byte	0x1
 4143 0198 11       		.uleb128 0x11
 4144 0199 01       		.uleb128 0x1
 4145 019a 12       		.uleb128 0x12
 4146 019b 06       		.uleb128 0x6
 4147 019c 00       		.byte	0
 4148 019d 00       		.byte	0
 4149 019e 22       		.uleb128 0x22
 4150 019f 34       		.uleb128 0x34
 4151 01a0 00       		.byte	0
 4152 01a1 31       		.uleb128 0x31
 4153 01a2 13       		.uleb128 0x13
 4154 01a3 02       		.uleb128 0x2
 4155 01a4 17       		.uleb128 0x17
 4156 01a5 00       		.byte	0
 4157 01a6 00       		.byte	0
 4158 01a7 23       		.uleb128 0x23
 4159 01a8 898201   		.uleb128 0x4109
 4160 01ab 00       		.byte	0
 4161 01ac 11       		.uleb128 0x11
 4162 01ad 01       		.uleb128 0x1
 4163 01ae 31       		.uleb128 0x31
 4164 01af 13       		.uleb128 0x13
 4165 01b0 00       		.byte	0
 4166 01b1 00       		.byte	0
 4167 01b2 24       		.uleb128 0x24
 4168 01b3 05       		.uleb128 0x5
 4169 01b4 00       		.byte	0
 4170 01b5 03       		.uleb128 0x3
 4171 01b6 0E       		.uleb128 0xe
 4172 01b7 3A       		.uleb128 0x3a
 4173 01b8 0B       		.uleb128 0xb
 4174 01b9 3B       		.uleb128 0x3b
 4175 01ba 05       		.uleb128 0x5
 4176 01bb 49       		.uleb128 0x49
 4177 01bc 13       		.uleb128 0x13
 4178 01bd 02       		.uleb128 0x2
 4179 01be 17       		.uleb128 0x17
 4180 01bf 00       		.byte	0
 4181 01c0 00       		.byte	0
 4182 01c1 25       		.uleb128 0x25
 4183 01c2 34       		.uleb128 0x34
 4184 01c3 00       		.byte	0
 4185 01c4 03       		.uleb128 0x3
 4186 01c5 0E       		.uleb128 0xe
 4187 01c6 3A       		.uleb128 0x3a
 4188 01c7 0B       		.uleb128 0xb
 4189 01c8 3B       		.uleb128 0x3b
 4190 01c9 05       		.uleb128 0x5
 4191 01ca 49       		.uleb128 0x49
 4192 01cb 13       		.uleb128 0x13
 4193 01cc 02       		.uleb128 0x2
 4194 01cd 18       		.uleb128 0x18
ARM GAS  C:\Users\Austina\AppData\Local\Temp\ccLgwUrp.s 			page 105


 4195 01ce 00       		.byte	0
 4196 01cf 00       		.byte	0
 4197 01d0 26       		.uleb128 0x26
 4198 01d1 898201   		.uleb128 0x4109
 4199 01d4 01       		.byte	0x1
 4200 01d5 11       		.uleb128 0x11
 4201 01d6 01       		.uleb128 0x1
 4202 01d7 31       		.uleb128 0x31
 4203 01d8 13       		.uleb128 0x13
 4204 01d9 00       		.byte	0
 4205 01da 00       		.byte	0
 4206 01db 27       		.uleb128 0x27
 4207 01dc 8A8201   		.uleb128 0x410a
 4208 01df 00       		.byte	0
 4209 01e0 02       		.uleb128 0x2
 4210 01e1 18       		.uleb128 0x18
 4211 01e2 9142     		.uleb128 0x2111
 4212 01e4 18       		.uleb128 0x18
 4213 01e5 00       		.byte	0
 4214 01e6 00       		.byte	0
 4215 01e7 28       		.uleb128 0x28
 4216 01e8 05       		.uleb128 0x5
 4217 01e9 00       		.byte	0
 4218 01ea 03       		.uleb128 0x3
 4219 01eb 0E       		.uleb128 0xe
 4220 01ec 3A       		.uleb128 0x3a
 4221 01ed 0B       		.uleb128 0xb
 4222 01ee 3B       		.uleb128 0x3b
 4223 01ef 05       		.uleb128 0x5
 4224 01f0 49       		.uleb128 0x49
 4225 01f1 13       		.uleb128 0x13
 4226 01f2 02       		.uleb128 0x2
 4227 01f3 18       		.uleb128 0x18
 4228 01f4 00       		.byte	0
 4229 01f5 00       		.byte	0
 4230 01f6 29       		.uleb128 0x29
 4231 01f7 2E       		.uleb128 0x2e
 4232 01f8 01       		.byte	0x1
 4233 01f9 3F       		.uleb128 0x3f
 4234 01fa 19       		.uleb128 0x19
 4235 01fb 03       		.uleb128 0x3
 4236 01fc 0E       		.uleb128 0xe
 4237 01fd 3A       		.uleb128 0x3a
 4238 01fe 0B       		.uleb128 0xb
 4239 01ff 3B       		.uleb128 0x3b
 4240 0200 05       		.uleb128 0x5
 4241 0201 27       		.uleb128 0x27
 4242 0202 19       		.uleb128 0x19
 4243 0203 49       		.uleb128 0x49
 4244 0204 13       		.uleb128 0x13
 4245 0205 11       		.uleb128 0x11
 4246 0206 01       		.uleb128 0x1
 4247 0207 12       		.uleb128 0x12
 4248 0208 06       		.uleb128 0x6
 4249 0209 40       		.uleb128 0x40
 4250 020a 18       		.uleb128 0x18
 4251 020b 9742     		.uleb128 0x2117
ARM GAS  C:\Users\Austina\AppData\Local\Temp\ccLgwUrp.s 			page 106


 4252 020d 19       		.uleb128 0x19
 4253 020e 01       		.uleb128 0x1
 4254 020f 13       		.uleb128 0x13
 4255 0210 00       		.byte	0
 4256 0211 00       		.byte	0
 4257 0212 2A       		.uleb128 0x2a
 4258 0213 898201   		.uleb128 0x4109
 4259 0216 01       		.byte	0x1
 4260 0217 11       		.uleb128 0x11
 4261 0218 01       		.uleb128 0x1
 4262 0219 31       		.uleb128 0x31
 4263 021a 13       		.uleb128 0x13
 4264 021b 01       		.uleb128 0x1
 4265 021c 13       		.uleb128 0x13
 4266 021d 00       		.byte	0
 4267 021e 00       		.byte	0
 4268 021f 2B       		.uleb128 0x2b
 4269 0220 34       		.uleb128 0x34
 4270 0221 00       		.byte	0
 4271 0222 03       		.uleb128 0x3
 4272 0223 0E       		.uleb128 0xe
 4273 0224 3A       		.uleb128 0x3a
 4274 0225 0B       		.uleb128 0xb
 4275 0226 3B       		.uleb128 0x3b
 4276 0227 05       		.uleb128 0x5
 4277 0228 49       		.uleb128 0x49
 4278 0229 13       		.uleb128 0x13
 4279 022a 3F       		.uleb128 0x3f
 4280 022b 19       		.uleb128 0x19
 4281 022c 3C       		.uleb128 0x3c
 4282 022d 19       		.uleb128 0x19
 4283 022e 00       		.byte	0
 4284 022f 00       		.byte	0
 4285 0230 2C       		.uleb128 0x2c
 4286 0231 2E       		.uleb128 0x2e
 4287 0232 00       		.byte	0
 4288 0233 3F       		.uleb128 0x3f
 4289 0234 19       		.uleb128 0x19
 4290 0235 3C       		.uleb128 0x3c
 4291 0236 19       		.uleb128 0x19
 4292 0237 6E       		.uleb128 0x6e
 4293 0238 0E       		.uleb128 0xe
 4294 0239 03       		.uleb128 0x3
 4295 023a 0E       		.uleb128 0xe
 4296 023b 3A       		.uleb128 0x3a
 4297 023c 0B       		.uleb128 0xb
 4298 023d 3B       		.uleb128 0x3b
 4299 023e 0B       		.uleb128 0xb
 4300 023f 00       		.byte	0
 4301 0240 00       		.byte	0
 4302 0241 2D       		.uleb128 0x2d
 4303 0242 2E       		.uleb128 0x2e
 4304 0243 00       		.byte	0
 4305 0244 3F       		.uleb128 0x3f
 4306 0245 19       		.uleb128 0x19
 4307 0246 3C       		.uleb128 0x3c
 4308 0247 19       		.uleb128 0x19
ARM GAS  C:\Users\Austina\AppData\Local\Temp\ccLgwUrp.s 			page 107


 4309 0248 6E       		.uleb128 0x6e
 4310 0249 0E       		.uleb128 0xe
 4311 024a 03       		.uleb128 0x3
 4312 024b 0E       		.uleb128 0xe
 4313 024c 3A       		.uleb128 0x3a
 4314 024d 0B       		.uleb128 0xb
 4315 024e 3B       		.uleb128 0x3b
 4316 024f 05       		.uleb128 0x5
 4317 0250 00       		.byte	0
 4318 0251 00       		.byte	0
 4319 0252 00       		.byte	0
 4320              		.section	.debug_loc,"",%progbits
 4321              	.Ldebug_loc0:
 4322              	.LLST0:
 4323 0000 02000000 		.4byte	.LVL0
 4324 0004 06000000 		.4byte	.LVL1
 4325 0008 0200     		.2byte	0x2
 4326 000a 30       		.byte	0x30
 4327 000b 9F       		.byte	0x9f
 4328 000c 06000000 		.4byte	.LVL1
 4329 0010 24000000 		.4byte	.LVL3
 4330 0014 0100     		.2byte	0x1
 4331 0016 53       		.byte	0x53
 4332 0017 26000000 		.4byte	.LVL4
 4333 001b 80000000 		.4byte	.LVL18
 4334 001f 0100     		.2byte	0x1
 4335 0021 55       		.byte	0x55
 4336 0022 80000000 		.4byte	.LVL18
 4337 0026 82000000 		.4byte	.LVL19
 4338 002a 0100     		.2byte	0x1
 4339 002c 53       		.byte	0x53
 4340 002d 82000000 		.4byte	.LVL19
 4341 0031 88000000 		.4byte	.LVL20
 4342 0035 0100     		.2byte	0x1
 4343 0037 55       		.byte	0x55
 4344 0038 88000000 		.4byte	.LVL20
 4345 003c 90000000 		.4byte	.LFE126
 4346 0040 0300     		.2byte	0x3
 4347 0042 73       		.byte	0x73
 4348 0043 7F       		.sleb128 -1
 4349 0044 9F       		.byte	0x9f
 4350 0045 00000000 		.4byte	0
 4351 0049 00000000 		.4byte	0
 4352              	.LLST1:
 4353 004d 2A000000 		.4byte	.LVL6
 4354 0051 34000000 		.4byte	.LVL7
 4355 0055 0100     		.2byte	0x1
 4356 0057 53       		.byte	0x53
 4357 0058 34000000 		.4byte	.LVL7
 4358 005c 4D000000 		.4byte	.LVL8-1
 4359 0060 0300     		.2byte	0x3
 4360 0062 73       		.byte	0x73
 4361 0063 01       		.sleb128 1
 4362 0064 9F       		.byte	0x9f
 4363 0065 50000000 		.4byte	.LVL9
 4364 0069 52000000 		.4byte	.LVL10
 4365 006d 0300     		.2byte	0x3
ARM GAS  C:\Users\Austina\AppData\Local\Temp\ccLgwUrp.s 			page 108


 4366 006f 73       		.byte	0x73
 4367 0070 01       		.sleb128 1
 4368 0071 9F       		.byte	0x9f
 4369 0072 74000000 		.4byte	.LVL15
 4370 0076 76000000 		.4byte	.LVL16
 4371 007a 0300     		.2byte	0x3
 4372 007c 73       		.byte	0x73
 4373 007d 01       		.sleb128 1
 4374 007e 9F       		.byte	0x9f
 4375 007f 00000000 		.4byte	0
 4376 0083 00000000 		.4byte	0
 4377              	.LLST2:
 4378 0087 28000000 		.4byte	.LVL5
 4379 008b 80000000 		.4byte	.LVL18
 4380 008f 0100     		.2byte	0x1
 4381 0091 56       		.byte	0x56
 4382 0092 00000000 		.4byte	0
 4383 0096 00000000 		.4byte	0
 4384              	.LLST3:
 4385 009a 26000000 		.4byte	.LVL4
 4386 009e 88000000 		.4byte	.LVL20
 4387 00a2 0100     		.2byte	0x1
 4388 00a4 54       		.byte	0x54
 4389 00a5 00000000 		.4byte	0
 4390 00a9 00000000 		.4byte	0
 4391              	.LLST4:
 4392 00ad 58000000 		.4byte	.LVL11
 4393 00b1 74000000 		.4byte	.LVL15
 4394 00b5 0100     		.2byte	0x1
 4395 00b7 54       		.byte	0x54
 4396 00b8 00000000 		.4byte	0
 4397 00bc 00000000 		.4byte	0
 4398              	.LLST5:
 4399 00c0 5A000000 		.4byte	.LVL12
 4400 00c4 5E000000 		.4byte	.LVL13
 4401 00c8 0200     		.2byte	0x2
 4402 00ca 30       		.byte	0x30
 4403 00cb 9F       		.byte	0x9f
 4404 00cc 5E000000 		.4byte	.LVL13
 4405 00d0 74000000 		.4byte	.LVL15
 4406 00d4 0100     		.2byte	0x1
 4407 00d6 53       		.byte	0x53
 4408 00d7 00000000 		.4byte	0
 4409 00db 00000000 		.4byte	0
 4410              	.LLST6:
 4411 00df 5A000000 		.4byte	.LVL12
 4412 00e3 74000000 		.4byte	.LVL15
 4413 00e7 0100     		.2byte	0x1
 4414 00e9 51       		.byte	0x51
 4415 00ea 00000000 		.4byte	0
 4416 00ee 00000000 		.4byte	0
 4417              	.LLST7:
 4418 00f2 00000000 		.4byte	.LVL21
 4419 00f6 08000000 		.4byte	.LVL22
 4420 00fa 0100     		.2byte	0x1
 4421 00fc 50       		.byte	0x50
 4422 00fd 08000000 		.4byte	.LVL22
ARM GAS  C:\Users\Austina\AppData\Local\Temp\ccLgwUrp.s 			page 109


 4423 0101 34000000 		.4byte	.LFE133
 4424 0105 0100     		.2byte	0x1
 4425 0107 54       		.byte	0x54
 4426 0108 00000000 		.4byte	0
 4427 010c 00000000 		.4byte	0
 4428              	.LLST8:
 4429 0110 00000000 		.4byte	.LVL21
 4430 0114 0C000000 		.4byte	.LVL23
 4431 0118 0100     		.2byte	0x1
 4432 011a 51       		.byte	0x51
 4433 011b 0C000000 		.4byte	.LVL23
 4434 011f 17000000 		.4byte	.LVL25-1
 4435 0123 0100     		.2byte	0x1
 4436 0125 50       		.byte	0x50
 4437 0126 17000000 		.4byte	.LVL25-1
 4438 012a 34000000 		.4byte	.LFE133
 4439 012e 0400     		.2byte	0x4
 4440 0130 F3       		.byte	0xf3
 4441 0131 01       		.uleb128 0x1
 4442 0132 51       		.byte	0x51
 4443 0133 9F       		.byte	0x9f
 4444 0134 00000000 		.4byte	0
 4445 0138 00000000 		.4byte	0
 4446              	.LLST9:
 4447 013c 00000000 		.4byte	.LVL21
 4448 0140 14000000 		.4byte	.LVL24
 4449 0144 0100     		.2byte	0x1
 4450 0146 52       		.byte	0x52
 4451 0147 14000000 		.4byte	.LVL24
 4452 014b 17000000 		.4byte	.LVL25-1
 4453 014f 0100     		.2byte	0x1
 4454 0151 53       		.byte	0x53
 4455 0152 17000000 		.4byte	.LVL25-1
 4456 0156 34000000 		.4byte	.LFE133
 4457 015a 0400     		.2byte	0x4
 4458 015c F3       		.byte	0xf3
 4459 015d 01       		.uleb128 0x1
 4460 015e 52       		.byte	0x52
 4461 015f 9F       		.byte	0x9f
 4462 0160 00000000 		.4byte	0
 4463 0164 00000000 		.4byte	0
 4464              	.LLST10:
 4465 0168 08000000 		.4byte	.LVL22
 4466 016c 32000000 		.4byte	.LVL26
 4467 0170 0100     		.2byte	0x1
 4468 0172 5D       		.byte	0x5d
 4469 0173 32000000 		.4byte	.LVL26
 4470 0177 34000000 		.4byte	.LFE133
 4471 017b 0300     		.2byte	0x3
 4472 017d 91       		.byte	0x91
 4473 017e 70       		.sleb128 -16
 4474 017f 9F       		.byte	0x9f
 4475 0180 00000000 		.4byte	0
 4476 0184 00000000 		.4byte	0
 4477              	.LLST11:
 4478 0188 00000000 		.4byte	.LVL27
 4479 018c 0E000000 		.4byte	.LVL30
ARM GAS  C:\Users\Austina\AppData\Local\Temp\ccLgwUrp.s 			page 110


 4480 0190 0100     		.2byte	0x1
 4481 0192 50       		.byte	0x50
 4482 0193 0E000000 		.4byte	.LVL30
 4483 0197 18000000 		.4byte	.LFE134
 4484 019b 0400     		.2byte	0x4
 4485 019d F3       		.byte	0xf3
 4486 019e 01       		.uleb128 0x1
 4487 019f 50       		.byte	0x50
 4488 01a0 9F       		.byte	0x9f
 4489 01a1 00000000 		.4byte	0
 4490 01a5 00000000 		.4byte	0
 4491              	.LLST12:
 4492 01a9 02000000 		.4byte	.LVL28
 4493 01ad 08000000 		.4byte	.LVL29
 4494 01b1 0200     		.2byte	0x2
 4495 01b3 30       		.byte	0x30
 4496 01b4 9F       		.byte	0x9f
 4497 01b5 08000000 		.4byte	.LVL29
 4498 01b9 16000000 		.4byte	.LVL31
 4499 01bd 0100     		.2byte	0x1
 4500 01bf 54       		.byte	0x54
 4501 01c0 16000000 		.4byte	.LVL31
 4502 01c4 18000000 		.4byte	.LFE134
 4503 01c8 0600     		.2byte	0x6
 4504 01ca 73       		.byte	0x73
 4505 01cb 00       		.sleb128 0
 4506 01cc 72       		.byte	0x72
 4507 01cd 00       		.sleb128 0
 4508 01ce 1C       		.byte	0x1c
 4509 01cf 9F       		.byte	0x9f
 4510 01d0 00000000 		.4byte	0
 4511 01d4 00000000 		.4byte	0
 4512              	.LLST13:
 4513 01d8 00000000 		.4byte	.LVL32
 4514 01dc 12000000 		.4byte	.LVL38
 4515 01e0 0100     		.2byte	0x1
 4516 01e2 50       		.byte	0x50
 4517 01e3 12000000 		.4byte	.LVL38
 4518 01e7 36000000 		.4byte	.LFE127
 4519 01eb 0400     		.2byte	0x4
 4520 01ed F3       		.byte	0xf3
 4521 01ee 01       		.uleb128 0x1
 4522 01ef 50       		.byte	0x50
 4523 01f0 9F       		.byte	0x9f
 4524 01f1 00000000 		.4byte	0
 4525 01f5 00000000 		.4byte	0
 4526              	.LLST14:
 4527 01f9 04000000 		.4byte	.LVL33
 4528 01fd 12000000 		.4byte	.LVL38
 4529 0201 0200     		.2byte	0x2
 4530 0203 30       		.byte	0x30
 4531 0204 9F       		.byte	0x9f
 4532 0205 12000000 		.4byte	.LVL38
 4533 0209 1E000000 		.4byte	.LVL40
 4534 020d 0100     		.2byte	0x1
 4535 020f 57       		.byte	0x57
 4536 0210 1E000000 		.4byte	.LVL40
ARM GAS  C:\Users\Austina\AppData\Local\Temp\ccLgwUrp.s 			page 111


 4537 0214 22000000 		.4byte	.LVL41
 4538 0218 0100     		.2byte	0x1
 4539 021a 50       		.byte	0x50
 4540 021b 22000000 		.4byte	.LVL41
 4541 021f 36000000 		.4byte	.LFE127
 4542 0223 0100     		.2byte	0x1
 4543 0225 57       		.byte	0x57
 4544 0226 00000000 		.4byte	0
 4545 022a 00000000 		.4byte	0
 4546              	.LLST15:
 4547 022e 08000000 		.4byte	.LVL35
 4548 0232 12000000 		.4byte	.LVL38
 4549 0236 0100     		.2byte	0x1
 4550 0238 53       		.byte	0x53
 4551 0239 12000000 		.4byte	.LVL38
 4552 023d 2A000000 		.4byte	.LVL44
 4553 0241 0100     		.2byte	0x1
 4554 0243 56       		.byte	0x56
 4555 0244 2A000000 		.4byte	.LVL44
 4556 0248 2C000000 		.4byte	.LVL45
 4557 024c 0100     		.2byte	0x1
 4558 024e 53       		.byte	0x53
 4559 024f 2C000000 		.4byte	.LVL45
 4560 0253 36000000 		.4byte	.LFE127
 4561 0257 0100     		.2byte	0x1
 4562 0259 56       		.byte	0x56
 4563 025a 00000000 		.4byte	0
 4564 025e 00000000 		.4byte	0
 4565              	.LLST16:
 4566 0262 00000000 		.4byte	.LVL46
 4567 0266 12000000 		.4byte	.LVL50
 4568 026a 0100     		.2byte	0x1
 4569 026c 50       		.byte	0x50
 4570 026d 12000000 		.4byte	.LVL50
 4571 0271 1A000000 		.4byte	.LVL53
 4572 0275 0400     		.2byte	0x4
 4573 0277 F3       		.byte	0xf3
 4574 0278 01       		.uleb128 0x1
 4575 0279 50       		.byte	0x50
 4576 027a 9F       		.byte	0x9f
 4577 027b 1A000000 		.4byte	.LVL53
 4578 027f 1C000000 		.4byte	.LVL54
 4579 0283 0100     		.2byte	0x1
 4580 0285 50       		.byte	0x50
 4581 0286 1C000000 		.4byte	.LVL54
 4582 028a 2E000000 		.4byte	.LFE128
 4583 028e 0400     		.2byte	0x4
 4584 0290 F3       		.byte	0xf3
 4585 0291 01       		.uleb128 0x1
 4586 0292 50       		.byte	0x50
 4587 0293 9F       		.byte	0x9f
 4588 0294 00000000 		.4byte	0
 4589 0298 00000000 		.4byte	0
 4590              	.LLST17:
 4591 029c 00000000 		.4byte	.LVL46
 4592 02a0 15000000 		.4byte	.LVL51-1
 4593 02a4 0100     		.2byte	0x1
ARM GAS  C:\Users\Austina\AppData\Local\Temp\ccLgwUrp.s 			page 112


 4594 02a6 51       		.byte	0x51
 4595 02a7 15000000 		.4byte	.LVL51-1
 4596 02ab 1A000000 		.4byte	.LVL53
 4597 02af 0100     		.2byte	0x1
 4598 02b1 57       		.byte	0x57
 4599 02b2 1A000000 		.4byte	.LVL53
 4600 02b6 1C000000 		.4byte	.LVL54
 4601 02ba 0100     		.2byte	0x1
 4602 02bc 51       		.byte	0x51
 4603 02bd 1C000000 		.4byte	.LVL54
 4604 02c1 2E000000 		.4byte	.LFE128
 4605 02c5 0100     		.2byte	0x1
 4606 02c7 57       		.byte	0x57
 4607 02c8 00000000 		.4byte	0
 4608 02cc 00000000 		.4byte	0
 4609              	.LLST18:
 4610 02d0 00000000 		.4byte	.LVL46
 4611 02d4 08000000 		.4byte	.LVL48
 4612 02d8 0100     		.2byte	0x1
 4613 02da 52       		.byte	0x52
 4614 02db 00000000 		.4byte	0
 4615 02df 00000000 		.4byte	0
 4616              	.LLST19:
 4617 02e3 00000000 		.4byte	.LVL46
 4618 02e7 15000000 		.4byte	.LVL51-1
 4619 02eb 0100     		.2byte	0x1
 4620 02ed 53       		.byte	0x53
 4621 02ee 15000000 		.4byte	.LVL51-1
 4622 02f2 1A000000 		.4byte	.LVL53
 4623 02f6 0100     		.2byte	0x1
 4624 02f8 54       		.byte	0x54
 4625 02f9 1A000000 		.4byte	.LVL53
 4626 02fd 1C000000 		.4byte	.LVL54
 4627 0301 0100     		.2byte	0x1
 4628 0303 53       		.byte	0x53
 4629 0304 1C000000 		.4byte	.LVL54
 4630 0308 2E000000 		.4byte	.LFE128
 4631 030c 0100     		.2byte	0x1
 4632 030e 54       		.byte	0x54
 4633 030f 00000000 		.4byte	0
 4634 0313 00000000 		.4byte	0
 4635              	.LLST20:
 4636 0317 06000000 		.4byte	.LVL47
 4637 031b 18000000 		.4byte	.LVL52
 4638 031f 0200     		.2byte	0x2
 4639 0321 30       		.byte	0x30
 4640 0322 9F       		.byte	0x9f
 4641 0323 18000000 		.4byte	.LVL52
 4642 0327 1A000000 		.4byte	.LVL53
 4643 032b 0100     		.2byte	0x1
 4644 032d 50       		.byte	0x50
 4645 032e 1A000000 		.4byte	.LVL53
 4646 0332 1C000000 		.4byte	.LVL54
 4647 0336 0200     		.2byte	0x2
 4648 0338 30       		.byte	0x30
 4649 0339 9F       		.byte	0x9f
 4650 033a 1C000000 		.4byte	.LVL54
ARM GAS  C:\Users\Austina\AppData\Local\Temp\ccLgwUrp.s 			page 113


 4651 033e 2E000000 		.4byte	.LFE128
 4652 0342 0100     		.2byte	0x1
 4653 0344 55       		.byte	0x55
 4654 0345 00000000 		.4byte	0
 4655 0349 00000000 		.4byte	0
 4656              	.LLST21:
 4657 034d 08000000 		.4byte	.LVL48
 4658 0351 15000000 		.4byte	.LVL51-1
 4659 0355 0100     		.2byte	0x1
 4660 0357 52       		.byte	0x52
 4661 0358 1A000000 		.4byte	.LVL53
 4662 035c 1C000000 		.4byte	.LVL54
 4663 0360 0100     		.2byte	0x1
 4664 0362 52       		.byte	0x52
 4665 0363 00000000 		.4byte	0
 4666 0367 00000000 		.4byte	0
 4667              	.LLST22:
 4668 036b 00000000 		.4byte	.LVL56
 4669 036f 16000000 		.4byte	.LVL62
 4670 0373 0100     		.2byte	0x1
 4671 0375 50       		.byte	0x50
 4672 0376 16000000 		.4byte	.LVL62
 4673 037a 52000000 		.4byte	.LFE130
 4674 037e 0100     		.2byte	0x1
 4675 0380 58       		.byte	0x58
 4676 0381 00000000 		.4byte	0
 4677 0385 00000000 		.4byte	0
 4678              	.LLST23:
 4679 0389 06000000 		.4byte	.LVL57
 4680 038d 16000000 		.4byte	.LVL62
 4681 0391 0200     		.2byte	0x2
 4682 0393 30       		.byte	0x30
 4683 0394 9F       		.byte	0x9f
 4684 0395 16000000 		.4byte	.LVL62
 4685 0399 38000000 		.4byte	.LVL67
 4686 039d 0100     		.2byte	0x1
 4687 039f 59       		.byte	0x59
 4688 03a0 38000000 		.4byte	.LVL67
 4689 03a4 3C000000 		.4byte	.LVL68
 4690 03a8 0100     		.2byte	0x1
 4691 03aa 50       		.byte	0x50
 4692 03ab 3C000000 		.4byte	.LVL68
 4693 03af 52000000 		.4byte	.LFE130
 4694 03b3 0100     		.2byte	0x1
 4695 03b5 59       		.byte	0x59
 4696 03b6 00000000 		.4byte	0
 4697 03ba 00000000 		.4byte	0
 4698              	.LLST24:
 4699 03be 10000000 		.4byte	.LVL61
 4700 03c2 16000000 		.4byte	.LVL62
 4701 03c6 0200     		.2byte	0x2
 4702 03c8 30       		.byte	0x30
 4703 03c9 9F       		.byte	0x9f
 4704 03ca 16000000 		.4byte	.LVL62
 4705 03ce 52000000 		.4byte	.LFE130
 4706 03d2 0100     		.2byte	0x1
 4707 03d4 55       		.byte	0x55
ARM GAS  C:\Users\Austina\AppData\Local\Temp\ccLgwUrp.s 			page 114


 4708 03d5 00000000 		.4byte	0
 4709 03d9 00000000 		.4byte	0
 4710              	.LLST25:
 4711 03dd 00000000 		.4byte	.LVL72
 4712 03e1 1C000000 		.4byte	.LVL79
 4713 03e5 0100     		.2byte	0x1
 4714 03e7 50       		.byte	0x50
 4715 03e8 1C000000 		.4byte	.LVL79
 4716 03ec 5A000000 		.4byte	.LFE131
 4717 03f0 0400     		.2byte	0x4
 4718 03f2 F3       		.byte	0xf3
 4719 03f3 01       		.uleb128 0x1
 4720 03f4 50       		.byte	0x50
 4721 03f5 9F       		.byte	0x9f
 4722 03f6 00000000 		.4byte	0
 4723 03fa 00000000 		.4byte	0
 4724              	.LLST26:
 4725 03fe 00000000 		.4byte	.LVL72
 4726 0402 1A000000 		.4byte	.LVL78
 4727 0406 0100     		.2byte	0x1
 4728 0408 51       		.byte	0x51
 4729 0409 1A000000 		.4byte	.LVL78
 4730 040d 5A000000 		.4byte	.LFE131
 4731 0411 0100     		.2byte	0x1
 4732 0413 57       		.byte	0x57
 4733 0414 00000000 		.4byte	0
 4734 0418 00000000 		.4byte	0
 4735              	.LLST27:
 4736 041c 00000000 		.4byte	.LVL72
 4737 0420 18000000 		.4byte	.LVL77
 4738 0424 0100     		.2byte	0x1
 4739 0426 52       		.byte	0x52
 4740 0427 20000000 		.4byte	.LVL80
 4741 042b 28000000 		.4byte	.LVL81
 4742 042f 0100     		.2byte	0x1
 4743 0431 52       		.byte	0x52
 4744 0432 30000000 		.4byte	.LVL82
 4745 0436 38000000 		.4byte	.LVL83
 4746 043a 0100     		.2byte	0x1
 4747 043c 52       		.byte	0x52
 4748 043d 44000000 		.4byte	.LVL86
 4749 0441 53000000 		.4byte	.LVL88-1
 4750 0445 0100     		.2byte	0x1
 4751 0447 52       		.byte	0x52
 4752 0448 54000000 		.4byte	.LVL88
 4753 044c 5A000000 		.4byte	.LFE131
 4754 0450 0100     		.2byte	0x1
 4755 0452 52       		.byte	0x52
 4756 0453 00000000 		.4byte	0
 4757 0457 00000000 		.4byte	0
 4758              	.LLST28:
 4759 045b 00000000 		.4byte	.LVL72
 4760 045f 1F000000 		.4byte	.LVL80-1
 4761 0463 0100     		.2byte	0x1
 4762 0465 53       		.byte	0x53
 4763 0466 1F000000 		.4byte	.LVL80-1
 4764 046a 5A000000 		.4byte	.LFE131
ARM GAS  C:\Users\Austina\AppData\Local\Temp\ccLgwUrp.s 			page 115


 4765 046e 0100     		.2byte	0x1
 4766 0470 54       		.byte	0x54
 4767 0471 00000000 		.4byte	0
 4768 0475 00000000 		.4byte	0
 4769              	.LLST29:
 4770 0479 08000000 		.4byte	.LVL73
 4771 047d 42000000 		.4byte	.LVL85
 4772 0481 0200     		.2byte	0x2
 4773 0483 30       		.byte	0x30
 4774 0484 9F       		.byte	0x9f
 4775 0485 42000000 		.4byte	.LVL85
 4776 0489 44000000 		.4byte	.LVL86
 4777 048d 0100     		.2byte	0x1
 4778 048f 50       		.byte	0x50
 4779 0490 44000000 		.4byte	.LVL86
 4780 0494 46000000 		.4byte	.LVL87
 4781 0498 0200     		.2byte	0x2
 4782 049a 30       		.byte	0x30
 4783 049b 9F       		.byte	0x9f
 4784 049c 46000000 		.4byte	.LVL87
 4785 04a0 5A000000 		.4byte	.LFE131
 4786 04a4 0100     		.2byte	0x1
 4787 04a6 56       		.byte	0x56
 4788 04a7 00000000 		.4byte	0
 4789 04ab 00000000 		.4byte	0
 4790              	.LLST30:
 4791 04af 0A000000 		.4byte	.LVL74
 4792 04b3 42000000 		.4byte	.LVL85
 4793 04b7 0100     		.2byte	0x1
 4794 04b9 56       		.byte	0x56
 4795 04ba 44000000 		.4byte	.LVL86
 4796 04be 46000000 		.4byte	.LVL87
 4797 04c2 0100     		.2byte	0x1
 4798 04c4 56       		.byte	0x56
 4799 04c5 00000000 		.4byte	0
 4800 04c9 00000000 		.4byte	0
 4801              	.LLST31:
 4802 04cd 00000000 		.4byte	.LVL89
 4803 04d1 44000000 		.4byte	.LVL99
 4804 04d5 0100     		.2byte	0x1
 4805 04d7 50       		.byte	0x50
 4806 04d8 44000000 		.4byte	.LVL99
 4807 04dc 62000000 		.4byte	.LFE135
 4808 04e0 0100     		.2byte	0x1
 4809 04e2 50       		.byte	0x50
 4810 04e3 00000000 		.4byte	0
 4811 04e7 00000000 		.4byte	0
 4812              	.LLST32:
 4813 04eb 00000000 		.4byte	.LVL89
 4814 04ef 0E000000 		.4byte	.LVL94
 4815 04f3 0100     		.2byte	0x1
 4816 04f5 51       		.byte	0x51
 4817 04f6 0E000000 		.4byte	.LVL94
 4818 04fa 62000000 		.4byte	.LFE135
 4819 04fe 0400     		.2byte	0x4
 4820 0500 F3       		.byte	0xf3
 4821 0501 01       		.uleb128 0x1
ARM GAS  C:\Users\Austina\AppData\Local\Temp\ccLgwUrp.s 			page 116


 4822 0502 51       		.byte	0x51
 4823 0503 9F       		.byte	0x9f
 4824 0504 00000000 		.4byte	0
 4825 0508 00000000 		.4byte	0
 4826              	.LLST33:
 4827 050c 04000000 		.4byte	.LVL90
 4828 0510 0E000000 		.4byte	.LVL94
 4829 0514 0100     		.2byte	0x1
 4830 0516 54       		.byte	0x54
 4831 0517 0E000000 		.4byte	.LVL94
 4832 051b 58000000 		.4byte	.LVL107
 4833 051f 0100     		.2byte	0x1
 4834 0521 5E       		.byte	0x5e
 4835 0522 58000000 		.4byte	.LVL107
 4836 0526 5C000000 		.4byte	.LVL108
 4837 052a 0100     		.2byte	0x1
 4838 052c 54       		.byte	0x54
 4839 052d 5C000000 		.4byte	.LVL108
 4840 0531 62000000 		.4byte	.LFE135
 4841 0535 0100     		.2byte	0x1
 4842 0537 5E       		.byte	0x5e
 4843 0538 00000000 		.4byte	0
 4844 053c 00000000 		.4byte	0
 4845              	.LLST34:
 4846 0540 0A000000 		.4byte	.LVL93
 4847 0544 0E000000 		.4byte	.LVL94
 4848 0548 0200     		.2byte	0x2
 4849 054a 31       		.byte	0x31
 4850 054b 9F       		.byte	0x9f
 4851 054c 0E000000 		.4byte	.LVL94
 4852 0550 62000000 		.4byte	.LFE135
 4853 0554 0100     		.2byte	0x1
 4854 0556 53       		.byte	0x53
 4855 0557 00000000 		.4byte	0
 4856 055b 00000000 		.4byte	0
 4857              	.LLST35:
 4858 055f 2E000000 		.4byte	.LVL98
 4859 0563 4A000000 		.4byte	.LVL101
 4860 0567 0100     		.2byte	0x1
 4861 0569 51       		.byte	0x51
 4862 056a 4C000000 		.4byte	.LVL102
 4863 056e 4E000000 		.4byte	.LVL103
 4864 0572 0100     		.2byte	0x1
 4865 0574 51       		.byte	0x51
 4866 0575 00000000 		.4byte	0
 4867 0579 00000000 		.4byte	0
 4868              	.LLST36:
 4869 057d 22000000 		.4byte	.LVL95
 4870 0581 2A000000 		.4byte	.LVL96
 4871 0585 0100     		.2byte	0x1
 4872 0587 51       		.byte	0x51
 4873 0588 2C000000 		.4byte	.LVL97
 4874 058c 2E000000 		.4byte	.LVL98
 4875 0590 0100     		.2byte	0x1
 4876 0592 51       		.byte	0x51
 4877 0593 00000000 		.4byte	0
 4878 0597 00000000 		.4byte	0
ARM GAS  C:\Users\Austina\AppData\Local\Temp\ccLgwUrp.s 			page 117


 4879              	.LLST37:
 4880 059b 00000000 		.4byte	.LVL109
 4881 059f 12000000 		.4byte	.LVL112
 4882 05a3 0100     		.2byte	0x1
 4883 05a5 50       		.byte	0x50
 4884 05a6 12000000 		.4byte	.LVL112
 4885 05aa 1A000000 		.4byte	.LVL115
 4886 05ae 0100     		.2byte	0x1
 4887 05b0 54       		.byte	0x54
 4888 05b1 1A000000 		.4byte	.LVL115
 4889 05b5 20000000 		.4byte	.LVL117
 4890 05b9 0100     		.2byte	0x1
 4891 05bb 50       		.byte	0x50
 4892 05bc 20000000 		.4byte	.LVL117
 4893 05c0 30000000 		.4byte	.LVL120
 4894 05c4 0100     		.2byte	0x1
 4895 05c6 54       		.byte	0x54
 4896 05c7 30000000 		.4byte	.LVL120
 4897 05cb 64000000 		.4byte	.LFE129
 4898 05cf 0400     		.2byte	0x4
 4899 05d1 F3       		.byte	0xf3
 4900 05d2 01       		.uleb128 0x1
 4901 05d3 50       		.byte	0x50
 4902 05d4 9F       		.byte	0x9f
 4903 05d5 00000000 		.4byte	0
 4904 05d9 00000000 		.4byte	0
 4905              	.LLST38:
 4906 05dd 00000000 		.4byte	.LVL109
 4907 05e1 15000000 		.4byte	.LVL113-1
 4908 05e5 0100     		.2byte	0x1
 4909 05e7 51       		.byte	0x51
 4910 05e8 15000000 		.4byte	.LVL113-1
 4911 05ec 1A000000 		.4byte	.LVL115
 4912 05f0 0400     		.2byte	0x4
 4913 05f2 F3       		.byte	0xf3
 4914 05f3 01       		.uleb128 0x1
 4915 05f4 51       		.byte	0x51
 4916 05f5 9F       		.byte	0x9f
 4917 05f6 1A000000 		.4byte	.LVL115
 4918 05fa 1E000000 		.4byte	.LVL116
 4919 05fe 0100     		.2byte	0x1
 4920 0600 51       		.byte	0x51
 4921 0601 1E000000 		.4byte	.LVL116
 4922 0605 64000000 		.4byte	.LFE129
 4923 0609 0400     		.2byte	0x4
 4924 060b F3       		.byte	0xf3
 4925 060c 01       		.uleb128 0x1
 4926 060d 51       		.byte	0x51
 4927 060e 9F       		.byte	0x9f
 4928 060f 00000000 		.4byte	0
 4929 0613 00000000 		.4byte	0
 4930              	.LLST39:
 4931 0617 0C000000 		.4byte	.LVL111
 4932 061b 18000000 		.4byte	.LVL114
 4933 061f 0100     		.2byte	0x1
 4934 0621 55       		.byte	0x55
 4935 0622 18000000 		.4byte	.LVL114
ARM GAS  C:\Users\Austina\AppData\Local\Temp\ccLgwUrp.s 			page 118


 4936 0626 1A000000 		.4byte	.LVL115
 4937 062a 0100     		.2byte	0x1
 4938 062c 50       		.byte	0x50
 4939 062d 1A000000 		.4byte	.LVL115
 4940 0631 5A000000 		.4byte	.LVL129
 4941 0635 0100     		.2byte	0x1
 4942 0637 55       		.byte	0x55
 4943 0638 00000000 		.4byte	0
 4944 063c 00000000 		.4byte	0
 4945              	.LLST40:
 4946 0640 2C000000 		.4byte	.LVL119
 4947 0644 3A000000 		.4byte	.LVL122
 4948 0648 0100     		.2byte	0x1
 4949 064a 52       		.byte	0x52
 4950 064b 3A000000 		.4byte	.LVL122
 4951 064f 40000000 		.4byte	.LVL123
 4952 0653 0300     		.2byte	0x3
 4953 0655 72       		.byte	0x72
 4954 0656 7C       		.sleb128 -4
 4955 0657 9F       		.byte	0x9f
 4956 0658 40000000 		.4byte	.LVL123
 4957 065c 4A000000 		.4byte	.LVL125
 4958 0660 0600     		.2byte	0x6
 4959 0662 F3       		.byte	0xf3
 4960 0663 01       		.uleb128 0x1
 4961 0664 50       		.byte	0x50
 4962 0665 35       		.byte	0x35
 4963 0666 25       		.byte	0x25
 4964 0667 9F       		.byte	0x9f
 4965 0668 4A000000 		.4byte	.LVL125
 4966 066c 4C000000 		.4byte	.LVL126
 4967 0670 0100     		.2byte	0x1
 4968 0672 52       		.byte	0x52
 4969 0673 4C000000 		.4byte	.LVL126
 4970 0677 52000000 		.4byte	.LVL127
 4971 067b 0300     		.2byte	0x3
 4972 067d 72       		.byte	0x72
 4973 067e 7C       		.sleb128 -4
 4974 067f 9F       		.byte	0x9f
 4975 0680 52000000 		.4byte	.LVL127
 4976 0684 64000000 		.4byte	.LFE129
 4977 0688 0600     		.2byte	0x6
 4978 068a F3       		.byte	0xf3
 4979 068b 01       		.uleb128 0x1
 4980 068c 50       		.byte	0x50
 4981 068d 35       		.byte	0x35
 4982 068e 25       		.byte	0x25
 4983 068f 9F       		.byte	0x9f
 4984 0690 00000000 		.4byte	0
 4985 0694 00000000 		.4byte	0
 4986              	.LLST41:
 4987 0698 36000000 		.4byte	.LVL121
 4988 069c 46000000 		.4byte	.LVL124
 4989 06a0 0100     		.2byte	0x1
 4990 06a2 54       		.byte	0x54
 4991 06a3 46000000 		.4byte	.LVL124
 4992 06a7 4A000000 		.4byte	.LVL125
ARM GAS  C:\Users\Austina\AppData\Local\Temp\ccLgwUrp.s 			page 119


 4993 06ab 0800     		.2byte	0x8
 4994 06ad 31       		.byte	0x31
 4995 06ae F3       		.byte	0xf3
 4996 06af 01       		.uleb128 0x1
 4997 06b0 50       		.byte	0x50
 4998 06b1 4F       		.byte	0x4f
 4999 06b2 1A       		.byte	0x1a
 5000 06b3 24       		.byte	0x24
 5001 06b4 9F       		.byte	0x9f
 5002 06b5 4A000000 		.4byte	.LVL125
 5003 06b9 56000000 		.4byte	.LVL128
 5004 06bd 0100     		.2byte	0x1
 5005 06bf 54       		.byte	0x54
 5006 06c0 56000000 		.4byte	.LVL128
 5007 06c4 64000000 		.4byte	.LFE129
 5008 06c8 0800     		.2byte	0x8
 5009 06ca 31       		.byte	0x31
 5010 06cb F3       		.byte	0xf3
 5011 06cc 01       		.uleb128 0x1
 5012 06cd 50       		.byte	0x50
 5013 06ce 4F       		.byte	0x4f
 5014 06cf 1A       		.byte	0x1a
 5015 06d0 24       		.byte	0x24
 5016 06d1 9F       		.byte	0x9f
 5017 06d2 00000000 		.4byte	0
 5018 06d6 00000000 		.4byte	0
 5019              	.LLST42:
 5020 06da 06000000 		.4byte	.LVL110
 5021 06de 15000000 		.4byte	.LVL113-1
 5022 06e2 0100     		.2byte	0x1
 5023 06e4 52       		.byte	0x52
 5024 06e5 1A000000 		.4byte	.LVL115
 5025 06e9 23000000 		.4byte	.LVL118-1
 5026 06ed 0100     		.2byte	0x1
 5027 06ef 52       		.byte	0x52
 5028 06f0 00000000 		.4byte	0
 5029 06f4 00000000 		.4byte	0
 5030              	.LLST43:
 5031 06f8 00000000 		.4byte	.LVL130
 5032 06fc 16000000 		.4byte	.LVL136
 5033 0700 0100     		.2byte	0x1
 5034 0702 50       		.byte	0x50
 5035 0703 16000000 		.4byte	.LVL136
 5036 0707 1A000000 		.4byte	.LVL137
 5037 070b 0100     		.2byte	0x1
 5038 070d 5C       		.byte	0x5c
 5039 070e 1A000000 		.4byte	.LVL137
 5040 0712 1C000000 		.4byte	.LVL138
 5041 0716 0100     		.2byte	0x1
 5042 0718 50       		.byte	0x50
 5043 0719 1C000000 		.4byte	.LVL138
 5044 071d 5E000000 		.4byte	.LVL148
 5045 0721 0100     		.2byte	0x1
 5046 0723 5C       		.byte	0x5c
 5047 0724 5E000000 		.4byte	.LVL148
 5048 0728 CA000000 		.4byte	.LFE136
 5049 072c 0100     		.2byte	0x1
ARM GAS  C:\Users\Austina\AppData\Local\Temp\ccLgwUrp.s 			page 120


 5050 072e 54       		.byte	0x54
 5051 072f 00000000 		.4byte	0
 5052 0733 00000000 		.4byte	0
 5053              	.LLST44:
 5054 0737 00000000 		.4byte	.LVL130
 5055 073b 6C000000 		.4byte	.LVL154
 5056 073f 0100     		.2byte	0x1
 5057 0741 51       		.byte	0x51
 5058 0742 6C000000 		.4byte	.LVL154
 5059 0746 78000000 		.4byte	.LVL157
 5060 074a 0100     		.2byte	0x1
 5061 074c 56       		.byte	0x56
 5062 074d 78000000 		.4byte	.LVL157
 5063 0751 7C000000 		.4byte	.LVL158
 5064 0755 0100     		.2byte	0x1
 5065 0757 51       		.byte	0x51
 5066 0758 7C000000 		.4byte	.LVL158
 5067 075c B0000000 		.4byte	.LVL164
 5068 0760 0100     		.2byte	0x1
 5069 0762 56       		.byte	0x56
 5070 0763 B0000000 		.4byte	.LVL164
 5071 0767 CA000000 		.4byte	.LFE136
 5072 076b 0400     		.2byte	0x4
 5073 076d F3       		.byte	0xf3
 5074 076e 01       		.uleb128 0x1
 5075 076f 51       		.byte	0x51
 5076 0770 9F       		.byte	0x9f
 5077 0771 00000000 		.4byte	0
 5078 0775 00000000 		.4byte	0
 5079              	.LLST45:
 5080 0779 06000000 		.4byte	.LVL132
 5081 077d 26000000 		.4byte	.LVL140
 5082 0781 0100     		.2byte	0x1
 5083 0783 53       		.byte	0x53
 5084 0784 26000000 		.4byte	.LVL140
 5085 0788 3A000000 		.4byte	.LVL144
 5086 078c 0100     		.2byte	0x1
 5087 078e 56       		.byte	0x56
 5088 078f 3A000000 		.4byte	.LVL144
 5089 0793 3C000000 		.4byte	.LVL145
 5090 0797 0100     		.2byte	0x1
 5091 0799 53       		.byte	0x53
 5092 079a 3C000000 		.4byte	.LVL145
 5093 079e 62000000 		.4byte	.LVL149
 5094 07a2 0100     		.2byte	0x1
 5095 07a4 56       		.byte	0x56
 5096 07a5 68000000 		.4byte	.LVL152
 5097 07a9 78000000 		.4byte	.LVL157
 5098 07ad 0100     		.2byte	0x1
 5099 07af 57       		.byte	0x57
 5100 07b0 78000000 		.4byte	.LVL157
 5101 07b4 7C000000 		.4byte	.LVL158
 5102 07b8 0100     		.2byte	0x1
 5103 07ba 56       		.byte	0x56
 5104 07bb 7C000000 		.4byte	.LVL158
 5105 07bf B0000000 		.4byte	.LVL164
 5106 07c3 0100     		.2byte	0x1
ARM GAS  C:\Users\Austina\AppData\Local\Temp\ccLgwUrp.s 			page 121


 5107 07c5 57       		.byte	0x57
 5108 07c6 00000000 		.4byte	0
 5109 07ca 00000000 		.4byte	0
 5110              	.LLST46:
 5111 07ce 20000000 		.4byte	.LVL139
 5112 07d2 26000000 		.4byte	.LVL140
 5113 07d6 0200     		.2byte	0x2
 5114 07d8 31       		.byte	0x31
 5115 07d9 9F       		.byte	0x9f
 5116 07da 26000000 		.4byte	.LVL140
 5117 07de 6E000000 		.4byte	.LVL155
 5118 07e2 0100     		.2byte	0x1
 5119 07e4 50       		.byte	0x50
 5120 07e5 78000000 		.4byte	.LVL157
 5121 07e9 7C000000 		.4byte	.LVL158
 5122 07ed 0100     		.2byte	0x1
 5123 07ef 50       		.byte	0x50
 5124 07f0 00000000 		.4byte	0
 5125 07f4 00000000 		.4byte	0
 5126              	.LLST47:
 5127 07f8 20000000 		.4byte	.LVL139
 5128 07fc 66000000 		.4byte	.LVL151
 5129 0800 0100     		.2byte	0x1
 5130 0802 57       		.byte	0x57
 5131 0803 66000000 		.4byte	.LVL151
 5132 0807 6A000000 		.4byte	.LVL153
 5133 080b 0600     		.2byte	0x6
 5134 080d 72       		.byte	0x72
 5135 080e 00       		.sleb128 0
 5136 080f 73       		.byte	0x73
 5137 0810 00       		.sleb128 0
 5138 0811 1C       		.byte	0x1c
 5139 0812 9F       		.byte	0x9f
 5140 0813 6A000000 		.4byte	.LVL153
 5141 0817 71000000 		.4byte	.LVL156-1
 5142 081b 0100     		.2byte	0x1
 5143 081d 52       		.byte	0x52
 5144 081e 78000000 		.4byte	.LVL157
 5145 0822 7C000000 		.4byte	.LVL158
 5146 0826 0100     		.2byte	0x1
 5147 0828 57       		.byte	0x57
 5148 0829 00000000 		.4byte	0
 5149 082d 00000000 		.4byte	0
 5150              	.LLST48:
 5151 0831 04000000 		.4byte	.LVL131
 5152 0835 26000000 		.4byte	.LVL140
 5153 0839 0200     		.2byte	0x2
 5154 083b 30       		.byte	0x30
 5155 083c 9F       		.byte	0x9f
 5156 083d 26000000 		.4byte	.LVL140
 5157 0841 56000000 		.4byte	.LVL146
 5158 0845 0100     		.2byte	0x1
 5159 0847 54       		.byte	0x54
 5160 0848 58000000 		.4byte	.LVL147
 5161 084c 5E000000 		.4byte	.LVL148
 5162 0850 0100     		.2byte	0x1
 5163 0852 54       		.byte	0x54
ARM GAS  C:\Users\Austina\AppData\Local\Temp\ccLgwUrp.s 			page 122


 5164 0853 00000000 		.4byte	0
 5165 0857 00000000 		.4byte	0
 5166              	.LLST49:
 5167 085b 0E000000 		.4byte	.LVL135
 5168 085f 71000000 		.4byte	.LVL156-1
 5169 0863 0100     		.2byte	0x1
 5170 0865 5E       		.byte	0x5e
 5171 0866 78000000 		.4byte	.LVL157
 5172 086a 7C000000 		.4byte	.LVL158
 5173 086e 0100     		.2byte	0x1
 5174 0870 5E       		.byte	0x5e
 5175 0871 00000000 		.4byte	0
 5176 0875 00000000 		.4byte	0
 5177              	.LLST50:
 5178 0879 08000000 		.4byte	.LVL133
 5179 087d 64000000 		.4byte	.LVL150
 5180 0881 0100     		.2byte	0x1
 5181 0883 52       		.byte	0x52
 5182 0884 78000000 		.4byte	.LVL157
 5183 0888 7C000000 		.4byte	.LVL158
 5184 088c 0100     		.2byte	0x1
 5185 088e 52       		.byte	0x52
 5186 088f 00000000 		.4byte	0
 5187 0893 00000000 		.4byte	0
 5188              	.LLST51:
 5189 0897 04000000 		.4byte	.LVL131
 5190 089b 72000000 		.4byte	.LVL156
 5191 089f 0200     		.2byte	0x2
 5192 08a1 30       		.byte	0x30
 5193 08a2 9F       		.byte	0x9f
 5194 08a3 72000000 		.4byte	.LVL156
 5195 08a7 78000000 		.4byte	.LVL157
 5196 08ab 0100     		.2byte	0x1
 5197 08ad 50       		.byte	0x50
 5198 08ae 78000000 		.4byte	.LVL157
 5199 08b2 7C000000 		.4byte	.LVL158
 5200 08b6 0200     		.2byte	0x2
 5201 08b8 30       		.byte	0x30
 5202 08b9 9F       		.byte	0x9f
 5203 08ba 7C000000 		.4byte	.LVL158
 5204 08be 8A000000 		.4byte	.LVL159
 5205 08c2 0100     		.2byte	0x1
 5206 08c4 50       		.byte	0x50
 5207 08c5 90000000 		.4byte	.LVL161
 5208 08c9 94000000 		.4byte	.LVL162
 5209 08cd 0100     		.2byte	0x1
 5210 08cf 50       		.byte	0x50
 5211 08d0 94000000 		.4byte	.LVL162
 5212 08d4 B0000000 		.4byte	.LVL164
 5213 08d8 0100     		.2byte	0x1
 5214 08da 53       		.byte	0x53
 5215 08db 00000000 		.4byte	0
 5216 08df 00000000 		.4byte	0
 5217              	.LLST52:
 5218 08e3 90000000 		.4byte	.LVL161
 5219 08e7 B0000000 		.4byte	.LVL164
 5220 08eb 0100     		.2byte	0x1
ARM GAS  C:\Users\Austina\AppData\Local\Temp\ccLgwUrp.s 			page 123


 5221 08ed 55       		.byte	0x55
 5222 08ee 00000000 		.4byte	0
 5223 08f2 00000000 		.4byte	0
 5224              	.LLST53:
 5225 08f6 90000000 		.4byte	.LVL161
 5226 08fa B0000000 		.4byte	.LVL164
 5227 08fe 0100     		.2byte	0x1
 5228 0900 56       		.byte	0x56
 5229 0901 00000000 		.4byte	0
 5230 0905 00000000 		.4byte	0
 5231              	.LLST54:
 5232 0909 90000000 		.4byte	.LVL161
 5233 090d 94000000 		.4byte	.LVL162
 5234 0911 0100     		.2byte	0x1
 5235 0913 50       		.byte	0x50
 5236 0914 94000000 		.4byte	.LVL162
 5237 0918 B0000000 		.4byte	.LVL164
 5238 091c 0100     		.2byte	0x1
 5239 091e 53       		.byte	0x53
 5240 091f 00000000 		.4byte	0
 5241 0923 00000000 		.4byte	0
 5242              	.LLST55:
 5243 0927 90000000 		.4byte	.LVL161
 5244 092b B0000000 		.4byte	.LVL164
 5245 092f 0300     		.2byte	0x3
 5246 0931 91       		.byte	0x91
 5247 0932 64       		.sleb128 -28
 5248 0933 9F       		.byte	0x9f
 5249 0934 00000000 		.4byte	0
 5250 0938 00000000 		.4byte	0
 5251              	.LLST56:
 5252 093c 90000000 		.4byte	.LVL161
 5253 0940 94000000 		.4byte	.LVL162
 5254 0944 0200     		.2byte	0x2
 5255 0946 30       		.byte	0x30
 5256 0947 9F       		.byte	0x9f
 5257 0948 94000000 		.4byte	.LVL162
 5258 094c B0000000 		.4byte	.LVL164
 5259 0950 0100     		.2byte	0x1
 5260 0952 52       		.byte	0x52
 5261 0953 00000000 		.4byte	0
 5262 0957 00000000 		.4byte	0
 5263              	.LLST57:
 5264 095b 00000000 		.4byte	.LVL166
 5265 095f 1A000000 		.4byte	.LVL169
 5266 0963 0100     		.2byte	0x1
 5267 0965 50       		.byte	0x50
 5268 0966 1A000000 		.4byte	.LVL169
 5269 096a 22000000 		.4byte	.LVL172
 5270 096e 0100     		.2byte	0x1
 5271 0970 54       		.byte	0x54
 5272 0971 22000000 		.4byte	.LVL172
 5273 0975 24000000 		.4byte	.LVL173
 5274 0979 0100     		.2byte	0x1
 5275 097b 50       		.byte	0x50
 5276 097c 24000000 		.4byte	.LVL173
 5277 0980 2C000000 		.4byte	.LVL176
ARM GAS  C:\Users\Austina\AppData\Local\Temp\ccLgwUrp.s 			page 124


 5278 0984 0100     		.2byte	0x1
 5279 0986 54       		.byte	0x54
 5280 0987 2C000000 		.4byte	.LVL176
 5281 098b 32000000 		.4byte	.LVL178
 5282 098f 0100     		.2byte	0x1
 5283 0991 50       		.byte	0x50
 5284 0992 32000000 		.4byte	.LVL178
 5285 0996 42000000 		.4byte	.LVL181
 5286 099a 0100     		.2byte	0x1
 5287 099c 54       		.byte	0x54
 5288 099d 42000000 		.4byte	.LVL181
 5289 09a1 74000000 		.4byte	.LFE132
 5290 09a5 0400     		.2byte	0x4
 5291 09a7 F3       		.byte	0xf3
 5292 09a8 01       		.uleb128 0x1
 5293 09a9 50       		.byte	0x50
 5294 09aa 9F       		.byte	0x9f
 5295 09ab 00000000 		.4byte	0
 5296 09af 00000000 		.4byte	0
 5297              	.LLST58:
 5298 09b3 00000000 		.4byte	.LVL166
 5299 09b7 1D000000 		.4byte	.LVL170-1
 5300 09bb 0100     		.2byte	0x1
 5301 09bd 51       		.byte	0x51
 5302 09be 1D000000 		.4byte	.LVL170-1
 5303 09c2 22000000 		.4byte	.LVL172
 5304 09c6 0400     		.2byte	0x4
 5305 09c8 F3       		.byte	0xf3
 5306 09c9 01       		.uleb128 0x1
 5307 09ca 51       		.byte	0x51
 5308 09cb 9F       		.byte	0x9f
 5309 09cc 22000000 		.4byte	.LVL172
 5310 09d0 27000000 		.4byte	.LVL174-1
 5311 09d4 0100     		.2byte	0x1
 5312 09d6 51       		.byte	0x51
 5313 09d7 27000000 		.4byte	.LVL174-1
 5314 09db 2C000000 		.4byte	.LVL176
 5315 09df 0400     		.2byte	0x4
 5316 09e1 F3       		.byte	0xf3
 5317 09e2 01       		.uleb128 0x1
 5318 09e3 51       		.byte	0x51
 5319 09e4 9F       		.byte	0x9f
 5320 09e5 2C000000 		.4byte	.LVL176
 5321 09e9 30000000 		.4byte	.LVL177
 5322 09ed 0100     		.2byte	0x1
 5323 09ef 51       		.byte	0x51
 5324 09f0 30000000 		.4byte	.LVL177
 5325 09f4 74000000 		.4byte	.LFE132
 5326 09f8 0400     		.2byte	0x4
 5327 09fa F3       		.byte	0xf3
 5328 09fb 01       		.uleb128 0x1
 5329 09fc 51       		.byte	0x51
 5330 09fd 9F       		.byte	0x9f
 5331 09fe 00000000 		.4byte	0
 5332 0a02 00000000 		.4byte	0
 5333              	.LLST59:
 5334 0a06 0C000000 		.4byte	.LVL168
ARM GAS  C:\Users\Austina\AppData\Local\Temp\ccLgwUrp.s 			page 125


 5335 0a0a 20000000 		.4byte	.LVL171
 5336 0a0e 0100     		.2byte	0x1
 5337 0a10 55       		.byte	0x55
 5338 0a11 20000000 		.4byte	.LVL171
 5339 0a15 22000000 		.4byte	.LVL172
 5340 0a19 0100     		.2byte	0x1
 5341 0a1b 50       		.byte	0x50
 5342 0a1c 22000000 		.4byte	.LVL172
 5343 0a20 2A000000 		.4byte	.LVL175
 5344 0a24 0100     		.2byte	0x1
 5345 0a26 55       		.byte	0x55
 5346 0a27 2A000000 		.4byte	.LVL175
 5347 0a2b 2C000000 		.4byte	.LVL176
 5348 0a2f 0100     		.2byte	0x1
 5349 0a31 50       		.byte	0x50
 5350 0a32 2C000000 		.4byte	.LVL176
 5351 0a36 6C000000 		.4byte	.LVL190
 5352 0a3a 0100     		.2byte	0x1
 5353 0a3c 55       		.byte	0x55
 5354 0a3d 00000000 		.4byte	0
 5355 0a41 00000000 		.4byte	0
 5356              	.LLST60:
 5357 0a45 3E000000 		.4byte	.LVL180
 5358 0a49 4C000000 		.4byte	.LVL183
 5359 0a4d 0100     		.2byte	0x1
 5360 0a4f 52       		.byte	0x52
 5361 0a50 4C000000 		.4byte	.LVL183
 5362 0a54 52000000 		.4byte	.LVL184
 5363 0a58 0300     		.2byte	0x3
 5364 0a5a 72       		.byte	0x72
 5365 0a5b 7C       		.sleb128 -4
 5366 0a5c 9F       		.byte	0x9f
 5367 0a5d 52000000 		.4byte	.LVL184
 5368 0a61 5C000000 		.4byte	.LVL186
 5369 0a65 0600     		.2byte	0x6
 5370 0a67 F3       		.byte	0xf3
 5371 0a68 01       		.uleb128 0x1
 5372 0a69 50       		.byte	0x50
 5373 0a6a 35       		.byte	0x35
 5374 0a6b 25       		.byte	0x25
 5375 0a6c 9F       		.byte	0x9f
 5376 0a6d 5C000000 		.4byte	.LVL186
 5377 0a71 5E000000 		.4byte	.LVL187
 5378 0a75 0100     		.2byte	0x1
 5379 0a77 52       		.byte	0x52
 5380 0a78 5E000000 		.4byte	.LVL187
 5381 0a7c 64000000 		.4byte	.LVL188
 5382 0a80 0300     		.2byte	0x3
 5383 0a82 72       		.byte	0x72
 5384 0a83 7C       		.sleb128 -4
 5385 0a84 9F       		.byte	0x9f
 5386 0a85 64000000 		.4byte	.LVL188
 5387 0a89 74000000 		.4byte	.LFE132
 5388 0a8d 0600     		.2byte	0x6
 5389 0a8f F3       		.byte	0xf3
 5390 0a90 01       		.uleb128 0x1
 5391 0a91 50       		.byte	0x50
ARM GAS  C:\Users\Austina\AppData\Local\Temp\ccLgwUrp.s 			page 126


 5392 0a92 35       		.byte	0x35
 5393 0a93 25       		.byte	0x25
 5394 0a94 9F       		.byte	0x9f
 5395 0a95 00000000 		.4byte	0
 5396 0a99 00000000 		.4byte	0
 5397              	.LLST61:
 5398 0a9d 48000000 		.4byte	.LVL182
 5399 0aa1 58000000 		.4byte	.LVL185
 5400 0aa5 0100     		.2byte	0x1
 5401 0aa7 54       		.byte	0x54
 5402 0aa8 58000000 		.4byte	.LVL185
 5403 0aac 5C000000 		.4byte	.LVL186
 5404 0ab0 0800     		.2byte	0x8
 5405 0ab2 31       		.byte	0x31
 5406 0ab3 F3       		.byte	0xf3
 5407 0ab4 01       		.uleb128 0x1
 5408 0ab5 50       		.byte	0x50
 5409 0ab6 4F       		.byte	0x4f
 5410 0ab7 1A       		.byte	0x1a
 5411 0ab8 24       		.byte	0x24
 5412 0ab9 9F       		.byte	0x9f
 5413 0aba 5C000000 		.4byte	.LVL186
 5414 0abe 68000000 		.4byte	.LVL189
 5415 0ac2 0100     		.2byte	0x1
 5416 0ac4 54       		.byte	0x54
 5417 0ac5 68000000 		.4byte	.LVL189
 5418 0ac9 74000000 		.4byte	.LFE132
 5419 0acd 0800     		.2byte	0x8
 5420 0acf 31       		.byte	0x31
 5421 0ad0 F3       		.byte	0xf3
 5422 0ad1 01       		.uleb128 0x1
 5423 0ad2 50       		.byte	0x50
 5424 0ad3 4F       		.byte	0x4f
 5425 0ad4 1A       		.byte	0x1a
 5426 0ad5 24       		.byte	0x24
 5427 0ad6 9F       		.byte	0x9f
 5428 0ad7 00000000 		.4byte	0
 5429 0adb 00000000 		.4byte	0
 5430              	.LLST62:
 5431 0adf 06000000 		.4byte	.LVL167
 5432 0ae3 1D000000 		.4byte	.LVL170-1
 5433 0ae7 0100     		.2byte	0x1
 5434 0ae9 52       		.byte	0x52
 5435 0aea 22000000 		.4byte	.LVL172
 5436 0aee 27000000 		.4byte	.LVL174-1
 5437 0af2 0100     		.2byte	0x1
 5438 0af4 52       		.byte	0x52
 5439 0af5 2C000000 		.4byte	.LVL176
 5440 0af9 35000000 		.4byte	.LVL179-1
 5441 0afd 0100     		.2byte	0x1
 5442 0aff 52       		.byte	0x52
 5443 0b00 00000000 		.4byte	0
 5444 0b04 00000000 		.4byte	0
 5445              		.section	.debug_aranges,"",%progbits
 5446 0000 6C000000 		.4byte	0x6c
 5447 0004 0200     		.2byte	0x2
 5448 0006 00000000 		.4byte	.Ldebug_info0
ARM GAS  C:\Users\Austina\AppData\Local\Temp\ccLgwUrp.s 			page 127


 5449 000a 04       		.byte	0x4
 5450 000b 00       		.byte	0
 5451 000c 0000     		.2byte	0
 5452 000e 0000     		.2byte	0
 5453 0010 00000000 		.4byte	.LFB126
 5454 0014 90000000 		.4byte	.LFE126-.LFB126
 5455 0018 00000000 		.4byte	.LFB133
 5456 001c 34000000 		.4byte	.LFE133-.LFB133
 5457 0020 00000000 		.4byte	.LFB134
 5458 0024 18000000 		.4byte	.LFE134-.LFB134
 5459 0028 00000000 		.4byte	.LFB127
 5460 002c 36000000 		.4byte	.LFE127-.LFB127
 5461 0030 00000000 		.4byte	.LFB128
 5462 0034 2E000000 		.4byte	.LFE128-.LFB128
 5463 0038 00000000 		.4byte	.LFB130
 5464 003c 52000000 		.4byte	.LFE130-.LFB130
 5465 0040 00000000 		.4byte	.LFB131
 5466 0044 5A000000 		.4byte	.LFE131-.LFB131
 5467 0048 00000000 		.4byte	.LFB135
 5468 004c 62000000 		.4byte	.LFE135-.LFB135
 5469 0050 00000000 		.4byte	.LFB129
 5470 0054 64000000 		.4byte	.LFE129-.LFB129
 5471 0058 00000000 		.4byte	.LFB136
 5472 005c CA000000 		.4byte	.LFE136-.LFB136
 5473 0060 00000000 		.4byte	.LFB132
 5474 0064 74000000 		.4byte	.LFE132-.LFB132
 5475 0068 00000000 		.4byte	0
 5476 006c 00000000 		.4byte	0
 5477              		.section	.debug_ranges,"",%progbits
 5478              	.Ldebug_ranges0:
 5479 0000 00000000 		.4byte	.LFB126
 5480 0004 90000000 		.4byte	.LFE126
 5481 0008 00000000 		.4byte	.LFB133
 5482 000c 34000000 		.4byte	.LFE133
 5483 0010 00000000 		.4byte	.LFB134
 5484 0014 18000000 		.4byte	.LFE134
 5485 0018 00000000 		.4byte	.LFB127
 5486 001c 36000000 		.4byte	.LFE127
 5487 0020 00000000 		.4byte	.LFB128
 5488 0024 2E000000 		.4byte	.LFE128
 5489 0028 00000000 		.4byte	.LFB130
 5490 002c 52000000 		.4byte	.LFE130
 5491 0030 00000000 		.4byte	.LFB131
 5492 0034 5A000000 		.4byte	.LFE131
 5493 0038 00000000 		.4byte	.LFB135
 5494 003c 62000000 		.4byte	.LFE135
 5495 0040 00000000 		.4byte	.LFB129
 5496 0044 64000000 		.4byte	.LFE129
 5497 0048 00000000 		.4byte	.LFB136
 5498 004c CA000000 		.4byte	.LFE136
 5499 0050 00000000 		.4byte	.LFB132
 5500 0054 74000000 		.4byte	.LFE132
 5501 0058 00000000 		.4byte	0
 5502 005c 00000000 		.4byte	0
 5503              		.section	.debug_line,"",%progbits
 5504              	.Ldebug_line0:
 5505 0000 A7050000 		.section	.debug_str,"MS",%progbits,1
ARM GAS  C:\Users\Austina\AppData\Local\Temp\ccLgwUrp.s 			page 128


 5505      02004203 
 5505      00000201 
 5505      FB0E0D00 
 5505      01010101 
 5506              	.LASF100:
 5507 0000 65646765 		.ascii	"edgeSwipeTimeout\000"
 5507      53776970 
 5507      6554696D 
 5507      656F7574 
 5507      00
 5508              	.LASF206:
 5509 0011 7074724E 		.ascii	"ptrNoiseEnvelope\000"
 5509      6F697365 
 5509      456E7665 
 5509      6C6F7065 
 5509      00
 5510              	.LASF122:
 5511 0022 43617053 		.ascii	"CapSense_WD_PROXIMITY_E\000"
 5511      656E7365 
 5511      5F57445F 
 5511      50524F58 
 5511      494D4954 
 5512              	.LASF222:
 5513 003a 43617053 		.ascii	"CapSense_DpProcessCsdSensorRawCountsExt\000"
 5513      656E7365 
 5513      5F447050 
 5513      726F6365 
 5513      73734373 
 5514              	.LASF48:
 5515 0062 666C6963 		.ascii	"flickActiveDistanceX\000"
 5515      6B416374 
 5515      69766544 
 5515      69737461 
 5515      6E636558 
 5516              	.LASF49:
 5517 0077 666C6963 		.ascii	"flickActiveDistanceY\000"
 5517      6B416374 
 5517      69766544 
 5517      69737461 
 5517      6E636559 
 5518              	.LASF44:
 5519 008c 70616E41 		.ascii	"panActiveDistanceX\000"
 5519      63746976 
 5519      65446973 
 5519      74616E63 
 5519      655800
 5520              	.LASF45:
 5521 009f 70616E41 		.ascii	"panActiveDistanceY\000"
 5521      63746976 
 5521      65446973 
 5521      74616E63 
 5521      655900
 5522              	.LASF140:
 5523 00b2 43617053 		.ascii	"CapSense_RAM_WD_LIST_STRUCT\000"
 5523      656E7365 
 5523      5F52414D 
 5523      5F57445F 
ARM GAS  C:\Users\Austina\AppData\Local\Temp\ccLgwUrp.s 			page 129


 5523      4C495354 
 5524              	.LASF205:
 5525 00ce 43617053 		.ascii	"CapSense_DpUpdateThresholds\000"
 5525      656E7365 
 5525      5F447055 
 5525      70646174 
 5525      65546872 
 5526              	.LASF225:
 5527 00ea 736E7343 		.ascii	"snsCnt\000"
 5527      6E7400
 5528              	.LASF79:
 5529 00f1 7374496E 		.ascii	"stInScrCountLevel\000"
 5529      53637243 
 5529      6F756E74 
 5529      4C657665 
 5529      6C00
 5530              	.LASF202:
 5531 0103 77646774 		.ascii	"wdgtId\000"
 5531      496400
 5532              	.LASF218:
 5533 010a 666C7472 		.ascii	"fltrHistV\000"
 5533      48697374 
 5533      5600
 5534              	.LASF165:
 5535 0114 736E7254 		.ascii	"snrTestWidgetId\000"
 5535      65737457 
 5535      69646765 
 5535      74496400 
 5536              	.LASF246:
 5537 0124 43617053 		.ascii	"CapSense_DpFindLocalMaxSd\000"
 5537      656E7365 
 5537      5F447046 
 5537      696E644C 
 5537      6F63616C 
 5538              	.LASF80:
 5539 013e 6474496E 		.ascii	"dtInScrActiveDistanceX\000"
 5539      53637241 
 5539      63746976 
 5539      65446973 
 5539      74616E63 
 5540              	.LASF81:
 5541 0155 6474496E 		.ascii	"dtInScrActiveDistanceY\000"
 5541      53637241 
 5541      63746976 
 5541      65446973 
 5541      74616E63 
 5542              	.LASF52:
 5543 016c 73745363 		.ascii	"stScrollThreshold3X\000"
 5543      726F6C6C 
 5543      54687265 
 5543      73686F6C 
 5543      64335800 
 5544              	.LASF56:
 5545 0180 73745363 		.ascii	"stScrollThreshold3Y\000"
 5545      726F6C6C 
 5545      54687265 
 5545      73686F6C 
ARM GAS  C:\Users\Austina\AppData\Local\Temp\ccLgwUrp.s 			page 130


 5545      64335900 
 5546              	.LASF237:
 5547 0194 43617053 		.ascii	"CapSense_DpProcessCsdWidgetStatus\000"
 5547      656E7365 
 5547      5F447050 
 5547      726F6365 
 5547      73734373 
 5548              	.LASF96:
 5549 01b6 73657474 		.ascii	"settlingTimeout\000"
 5549      6C696E67 
 5549      54696D65 
 5549      6F757400 
 5550              	.LASF209:
 5551 01c6 70747254 		.ascii	"ptrThresholds\000"
 5551      68726573 
 5551      686F6C64 
 5551      7300
 5552              	.LASF12:
 5553 01d4 756E7369 		.ascii	"unsigned int\000"
 5553      676E6564 
 5553      20696E74 
 5553      00
 5554              	.LASF217:
 5555 01e1 43617053 		.ascii	"CapSense_DpProcessCsxSensorRawCountsExt\000"
 5555      656E7365 
 5555      5F447050 
 5555      726F6365 
 5555      73734373 
 5556              	.LASF152:
 5557 0209 7363616E 		.ascii	"scanCounter\000"
 5557      436F756E 
 5557      74657200 
 5558              	.LASF210:
 5559 0215 43617053 		.ascii	"CapSense_DpUpdateDifferences\000"
 5559      656E7365 
 5559      5F447055 
 5559      70646174 
 5559      65446966 
 5560              	.LASF150:
 5561 0232 6877436C 		.ascii	"hwClock\000"
 5561      6F636B00 
 5562              	.LASF59:
 5563 023a 73745363 		.ascii	"stScrollStep2\000"
 5563      726F6C6C 
 5563      53746570 
 5563      3200
 5564              	.LASF60:
 5565 0248 73745363 		.ascii	"stScrollStep3\000"
 5565      726F6C6C 
 5565      53746570 
 5565      3300
 5566              	.LASF61:
 5567 0256 73745363 		.ascii	"stScrollStep4\000"
 5567      726F6C6C 
 5567      53746570 
 5567      3400
 5568              	.LASF6:
ARM GAS  C:\Users\Austina\AppData\Local\Temp\ccLgwUrp.s 			page 131


 5569 0264 5F5F696E 		.ascii	"__int32_t\000"
 5569      7433325F 
 5569      7400
 5570              	.LASF63:
 5571 026e 64745363 		.ascii	"dtScrollThreshold1X\000"
 5571      726F6C6C 
 5571      54687265 
 5571      73686F6C 
 5571      64315800 
 5572              	.LASF67:
 5573 0282 64745363 		.ascii	"dtScrollThreshold1Y\000"
 5573      726F6C6C 
 5573      54687265 
 5573      73686F6C 
 5573      64315900 
 5574              	.LASF15:
 5575 0296 696E7433 		.ascii	"int32_t\000"
 5575      325F7400 
 5576              	.LASF64:
 5577 029e 64745363 		.ascii	"dtScrollThreshold2X\000"
 5577      726F6C6C 
 5577      54687265 
 5577      73686F6C 
 5577      64325800 
 5578              	.LASF110:
 5579 02b2 67726F75 		.ascii	"group2Start\000"
 5579      70325374 
 5579      61727400 
 5580              	.LASF212:
 5581 02be 64696666 		.ascii	"diffValue\000"
 5581      56616C75 
 5581      6500
 5582              	.LASF53:
 5583 02c8 73745363 		.ascii	"stScrollThreshold4X\000"
 5583      726F6C6C 
 5583      54687265 
 5583      73686F6C 
 5583      64345800 
 5584              	.LASF57:
 5585 02dc 73745363 		.ascii	"stScrollThreshold4Y\000"
 5585      726F6C6C 
 5585      54687265 
 5585      73686F6C 
 5585      64345900 
 5586              	.LASF101:
 5587 02f0 4454436C 		.ascii	"DTClickTimeoutMax\000"
 5587      69636B54 
 5587      696D656F 
 5587      75744D61 
 5587      7800
 5588              	.LASF219:
 5589 0302 6D6F6465 		.ascii	"mode\000"
 5589      00
 5590              	.LASF211:
 5591 0307 63757253 		.ascii	"curSnsPtr\000"
 5591      6E735074 
 5591      7200
ARM GAS  C:\Users\Austina\AppData\Local\Temp\ccLgwUrp.s 			page 132


 5592              	.LASF248:
 5593 0311 474E5520 		.ascii	"GNU C11 5.4.1 20160609 (release) [ARM/embedded-5-br"
 5593      43313120 
 5593      352E342E 
 5593      31203230 
 5593      31363036 
 5594 0344 616E6368 		.ascii	"anch revision 237715] -mcpu=cortex-m4 -mfloat-abi=s"
 5594      20726576 
 5594      6973696F 
 5594      6E203233 
 5594      37373135 
 5595 0377 6F667466 		.ascii	"oftfp -mfpu=fpv4-sp-d16 -mthumb -g -Og -ffunction-s"
 5595      70202D6D 
 5595      6670753D 
 5595      66707634 
 5595      2D73702D 
 5596 03aa 65637469 		.ascii	"ections -ffat-lto-objects\000"
 5596      6F6E7320 
 5596      2D666661 
 5596      742D6C74 
 5596      6F2D6F62 
 5597              	.LASF75:
 5598 03c4 64745363 		.ascii	"dtScrollDebounce\000"
 5598      726F6C6C 
 5598      4465626F 
 5598      756E6365 
 5598      00
 5599              	.LASF121:
 5600 03d5 43617053 		.ascii	"CapSense_WD_TOUCHPAD_E\000"
 5600      656E7365 
 5600      5F57445F 
 5600      544F5543 
 5600      48504144 
 5601              	.LASF68:
 5602 03ec 64745363 		.ascii	"dtScrollThreshold2Y\000"
 5602      726F6C6C 
 5602      54687265 
 5602      73686F6C 
 5602      64325900 
 5603              	.LASF111:
 5604 0400 67726F75 		.ascii	"group2End\000"
 5604      7032456E 
 5604      6400
 5605              	.LASF184:
 5606 040a 69697246 		.ascii	"iirFilterCoeff\000"
 5606      696C7465 
 5606      72436F65 
 5606      666600
 5607              	.LASF242:
 5608 0419 536D6172 		.ascii	"SmartSense_UpdateThresholds\000"
 5608      7453656E 
 5608      73655F55 
 5608      70646174 
 5608      65546872 
 5609              	.LASF93:
 5610 0435 646F7562 		.ascii	"doubleClickRadius\000"
 5610      6C65436C 
ARM GAS  C:\Users\Austina\AppData\Local\Temp\ccLgwUrp.s 			page 133


 5610      69636B52 
 5610      61646975 
 5610      7300
 5611              	.LASF107:
 5612 0447 67726F75 		.ascii	"groupMask\000"
 5612      704D6173 
 5612      6B00
 5613              	.LASF46:
 5614 0451 7A6F6F6D 		.ascii	"zoomActiveDistanceX\000"
 5614      41637469 
 5614      76654469 
 5614      7374616E 
 5614      63655800 
 5615              	.LASF47:
 5616 0465 7A6F6F6D 		.ascii	"zoomActiveDistanceY\000"
 5616      41637469 
 5616      76654469 
 5616      7374616E 
 5616      63655900 
 5617              	.LASF243:
 5618 0479 43617053 		.ascii	"CapSense_FtUpdateBaseline\000"
 5618      656E7365 
 5618      5F467455 
 5618      70646174 
 5618      65426173 
 5619              	.LASF163:
 5620 0493 74696D65 		.ascii	"timestampInterval\000"
 5620      7374616D 
 5620      70496E74 
 5620      65727661 
 5620      6C00
 5621              	.LASF16:
 5622 04a5 75696E74 		.ascii	"uint32_t\000"
 5622      33325F74 
 5622      00
 5623              	.LASF90:
 5624 04ae 44545061 		.ascii	"DTPanToZoomDebounce\000"
 5624      6E546F5A 
 5624      6F6F6D44 
 5624      65626F75 
 5624      6E636500 
 5625              	.LASF141:
 5626 04c2 62736C6E 		.ascii	"bsln\000"
 5626      00
 5627              	.LASF227:
 5628 04c7 6E657753 		.ascii	"newStatus\000"
 5628      74617475 
 5628      7300
 5629              	.LASF250:
 5630 04d1 433A5C41 		.ascii	"C:\\Alen\\GitHub_Denzerek\\BLEControlledArm\\BLECon"
 5630      6C656E5C 
 5630      47697448 
 5630      75625F44 
 5630      656E7A65 
 5631 0500 74726F6C 		.ascii	"trolledArm\\BLE_ARM_Workspace\\CapSense_Basic.cydsn"
 5631      6C656441 
 5631      726D5C42 
ARM GAS  C:\Users\Austina\AppData\Local\Temp\ccLgwUrp.s 			page 134


 5631      4C455F41 
 5631      524D5F57 
 5632 0531 00       		.ascii	"\000"
 5633              	.LASF99:
 5634 0532 666C6963 		.ascii	"flickSampleTime\000"
 5634      6B53616D 
 5634      706C6554 
 5634      696D6500 
 5635              	.LASF20:
 5636 0542 666C6F61 		.ascii	"float\000"
 5636      7400
 5637              	.LASF25:
 5638 0548 696E7433 		.ascii	"int32\000"
 5638      3200
 5639              	.LASF249:
 5640 054e 47656E65 		.ascii	"Generated_Source\\PSoC6\\CapSense_Processing.c\000"
 5640      72617465 
 5640      645F536F 
 5640      75726365 
 5640      5C50536F 
 5641              	.LASF204:
 5642 057b 43617053 		.ascii	"CapSense_DpInitialize\000"
 5642      656E7365 
 5642      5F447049 
 5642      6E697469 
 5642      616C697A 
 5643              	.LASF65:
 5644 0591 64745363 		.ascii	"dtScrollThreshold3X\000"
 5644      726F6C6C 
 5644      54687265 
 5644      73686F6C 
 5644      64335800 
 5645              	.LASF69:
 5646 05a5 64745363 		.ascii	"dtScrollThreshold3Y\000"
 5646      726F6C6C 
 5646      54687265 
 5646      73686F6C 
 5646      64335900 
 5647              	.LASF208:
 5648 05b9 74687265 		.ascii	"thresholds\000"
 5648      73686F6C 
 5648      647300
 5649              	.LASF161:
 5650 05c4 736E734C 		.ascii	"snsList\000"
 5650      69737400 
 5651              	.LASF213:
 5652 05cc 72657375 		.ascii	"result\000"
 5652      6C7400
 5653              	.LASF247:
 5654 05d3 43617053 		.ascii	"CapSense_DpCalcLinearCentroid\000"
 5654      656E7365 
 5654      5F447043 
 5654      616C634C 
 5654      696E6561 
 5655              	.LASF11:
 5656 05f1 6C6F6E67 		.ascii	"long long unsigned int\000"
 5656      206C6F6E 
ARM GAS  C:\Users\Austina\AppData\Local\Temp\ccLgwUrp.s 			page 135


 5656      6720756E 
 5656      7369676E 
 5656      65642069 
 5657              	.LASF82:
 5658 0608 6474496E 		.ascii	"dtInScrCountLevel\000"
 5658      53637243 
 5658      6F756E74 
 5658      4C657665 
 5658      6C00
 5659              	.LASF120:
 5660 061a 43617053 		.ascii	"CapSense_WD_MATRIX_BUTTON_E\000"
 5660      656E7365 
 5660      5F57445F 
 5660      4D415452 
 5660      49585F42 
 5661              	.LASF192:
 5662 0636 70747252 		.ascii	"ptrRegular\000"
 5662      6567756C 
 5662      617200
 5663              	.LASF166:
 5664 0641 736E7254 		.ascii	"snrTestSensorId\000"
 5664      65737453 
 5664      656E736F 
 5664      72496400 
 5665              	.LASF183:
 5666 0651 70747232 		.ascii	"ptr2NoiseEnvlp\000"
 5666      4E6F6973 
 5666      65456E76 
 5666      6C7000
 5667              	.LASF4:
 5668 0660 5F5F7569 		.ascii	"__uint16_t\000"
 5668      6E743136 
 5668      5F7400
 5669              	.LASF177:
 5670 066b 77646774 		.ascii	"wdgtType\000"
 5670      54797065 
 5670      00
 5671              	.LASF216:
 5672 0674 43617053 		.ascii	"CapSense_DpProcessCsxWidgetRawCounts\000"
 5672      656E7365 
 5672      5F447050 
 5672      726F6365 
 5672      73734373 
 5673              	.LASF66:
 5674 0699 64745363 		.ascii	"dtScrollThreshold4X\000"
 5674      726F6C6C 
 5674      54687265 
 5674      73686F6C 
 5674      64345800 
 5675              	.LASF70:
 5676 06ad 64745363 		.ascii	"dtScrollThreshold4Y\000"
 5676      726F6C6C 
 5676      54687265 
 5676      73686F6C 
 5676      64345900 
 5677              	.LASF190:
 5678 06c1 72656775 		.ascii	"regularChannel\000"
ARM GAS  C:\Users\Austina\AppData\Local\Temp\ccLgwUrp.s 			page 136


 5678      6C617243 
 5678      68616E6E 
 5678      656C00
 5679              	.LASF158:
 5680 06d0 6D6F6443 		.ascii	"modCsdClk\000"
 5680      7364436C 
 5680      6B00
 5681              	.LASF146:
 5682 06da 43617053 		.ascii	"CapSense_RAM_SNS_STRUCT\000"
 5682      656E7365 
 5682      5F52414D 
 5682      5F534E53 
 5682      5F535452 
 5683              	.LASF26:
 5684 06f2 73697A65 		.ascii	"size_t\000"
 5684      5F7400
 5685              	.LASF115:
 5686 06f9 67726F75 		.ascii	"group4End\000"
 5686      7034456E 
 5686      6400
 5687              	.LASF104:
 5688 0703 5354436C 		.ascii	"STClickTimeoutMin\000"
 5688      69636B54 
 5688      696D656F 
 5688      75744D69 
 5688      6E00
 5689              	.LASF131:
 5690 0715 73696750 		.ascii	"sigPFC\000"
 5690      464300
 5691              	.LASF41:
 5692 071c 68797374 		.ascii	"hysteresis\000"
 5692      65726573 
 5692      697300
 5693              	.LASF119:
 5694 0727 43617053 		.ascii	"CapSense_WD_RADIAL_SLIDER_E\000"
 5694      656E7365 
 5694      5F57445F 
 5694      52414449 
 5694      414C5F53 
 5695              	.LASF193:
 5696 0743 43617053 		.ascii	"CapSense_PTR_FILTER_VARIANT\000"
 5696      656E7365 
 5696      5F505452 
 5696      5F46494C 
 5696      5445525F 
 5697              	.LASF185:
 5698 075f 43617053 		.ascii	"CapSense_FLASH_WD_STRUCT\000"
 5698      656E7365 
 5698      5F464C41 
 5698      53485F57 
 5698      445F5354 
 5699              	.LASF106:
 5700 0778 5354446F 		.ascii	"STDoubleClickTimeoutMin\000"
 5700      75626C65 
 5700      436C6963 
 5700      6B54696D 
 5700      656F7574 
ARM GAS  C:\Users\Austina\AppData\Local\Temp\ccLgwUrp.s 			page 137


 5701              	.LASF126:
 5702 0790 6C6F7742 		.ascii	"lowBslnRst\000"
 5702      736C6E52 
 5702      737400
 5703              	.LASF92:
 5704 079b 636F6D70 		.ascii	"completedDebounce\000"
 5704      6C657465 
 5704      64446562 
 5704      6F756E63 
 5704      6500
 5705              	.LASF76:
 5706 07ad 64745363 		.ascii	"dtScrollToZoomDebounce\000"
 5706      726F6C6C 
 5706      546F5A6F 
 5706      6F6D4465 
 5706      626F756E 
 5707              	.LASF228:
 5708 07c4 746F7563 		.ascii	"touchTh\000"
 5708      68546800 
 5709              	.LASF176:
 5710 07cc 746F7461 		.ascii	"totalNumSns\000"
 5710      6C4E756D 
 5710      536E7300 
 5711              	.LASF77:
 5712 07d8 7374496E 		.ascii	"stInScrActiveDistanceX\000"
 5712      53637241 
 5712      63746976 
 5712      65446973 
 5712      74616E63 
 5713              	.LASF78:
 5714 07ef 7374496E 		.ascii	"stInScrActiveDistanceY\000"
 5714      53637241 
 5714      63746976 
 5714      65446973 
 5714      74616E63 
 5715              	.LASF37:
 5716 0806 534D4152 		.ascii	"SMARTSENSE_CSD_NOISE_ENVELOPE_STRUCT\000"
 5716      5453454E 
 5716      53455F43 
 5716      53445F4E 
 5716      4F495345 
 5717              	.LASF39:
 5718 082b 6E6F6973 		.ascii	"noiseTh\000"
 5718      65546800 
 5719              	.LASF19:
 5720 0833 63686172 		.ascii	"char\000"
 5720      00
 5721              	.LASF245:
 5722 0838 43795F53 		.ascii	"Cy_SysLib_AssertFailed\000"
 5722      79734C69 
 5722      625F4173 
 5722      73657274 
 5722      4661696C 
 5723              	.LASF220:
 5724 084f 43617053 		.ascii	"CapSense_DpProcessCsdWidgetRawCounts\000"
 5724      656E7365 
 5724      5F447050 
ARM GAS  C:\Users\Austina\AppData\Local\Temp\ccLgwUrp.s 			page 138


 5724      726F6365 
 5724      73734373 
 5725              	.LASF201:
 5726 0874 746F7563 		.ascii	"touchIdx\000"
 5726      68496478 
 5726      00
 5727              	.LASF114:
 5728 087d 67726F75 		.ascii	"group4Start\000"
 5728      70345374 
 5728      61727400 
 5729              	.LASF244:
 5730 0889 536D6172 		.ascii	"SmartSense_RunNoiseEnvelope\000"
 5730      7453656E 
 5730      73655F52 
 5730      756E4E6F 
 5730      69736545 
 5731              	.LASF23:
 5732 08a5 75696E74 		.ascii	"uint16\000"
 5732      313600
 5733              	.LASF124:
 5734 08ac 7265736F 		.ascii	"resolution\000"
 5734      6C757469 
 5734      6F6E00
 5735              	.LASF13:
 5736 08b7 75696E74 		.ascii	"uint8_t\000"
 5736      385F7400 
 5737              	.LASF153:
 5738 08bf 73746174 		.ascii	"status\000"
 5738      757300
 5739              	.LASF29:
 5740 08c6 43617053 		.ascii	"CapSense_LOW_BSLN_RST_TYPE\000"
 5740      656E7365 
 5740      5F4C4F57 
 5740      5F42534C 
 5740      4E5F5253 
 5741              	.LASF223:
 5742 08e1 43617053 		.ascii	"CapSense_DpProcessButton\000"
 5742      656E7365 
 5742      5F447050 
 5742      726F6365 
 5742      73734275 
 5743              	.LASF85:
 5744 08fa 626F7474 		.ascii	"bottomAngleThreshold\000"
 5744      6F6D416E 
 5744      676C6554 
 5744      68726573 
 5744      686F6C64 
 5745              	.LASF229:
 5746 090f 70747244 		.ascii	"ptrDebounceCnt\000"
 5746      65626F75 
 5746      6E636543 
 5746      6E7400
 5747              	.LASF62:
 5748 091e 73745363 		.ascii	"stScrollDebounce\000"
 5748      726F6C6C 
 5748      4465626F 
 5748      756E6365 
ARM GAS  C:\Users\Austina\AppData\Local\Temp\ccLgwUrp.s 			page 139


 5748      00
 5749              	.LASF145:
 5750 092f 69646163 		.ascii	"idacComp\000"
 5750      436F6D70 
 5750      00
 5751              	.LASF87:
 5752 0938 53545061 		.ascii	"STPanDebounce\000"
 5752      6E446562 
 5752      6F756E63 
 5752      6500
 5753              	.LASF178:
 5754 0946 73656E73 		.ascii	"senseMethod\000"
 5754      654D6574 
 5754      686F6400 
 5755              	.LASF86:
 5756 0952 77696474 		.ascii	"widthOfDisambiguation\000"
 5756      684F6644 
 5756      6973616D 
 5756      62696775 
 5756      6174696F 
 5757              	.LASF10:
 5758 0968 6C6F6E67 		.ascii	"long long int\000"
 5758      206C6F6E 
 5758      6720696E 
 5758      7400
 5759              	.LASF179:
 5760 0976 6E756D43 		.ascii	"numCols\000"
 5760      6F6C7300 
 5761              	.LASF125:
 5762 097e 6F6E4465 		.ascii	"onDebounce\000"
 5762      626F756E 
 5762      636500
 5763              	.LASF207:
 5764 0989 73746172 		.ascii	"startFlag\000"
 5764      74466C61 
 5764      6700
 5765              	.LASF160:
 5766 0993 77646774 		.ascii	"wdgtList\000"
 5766      4C697374 
 5766      00
 5767              	.LASF187:
 5768 099c 43617053 		.ascii	"CapSense_FLASH_STRUCT\000"
 5768      656E7365 
 5768      5F464C41 
 5768      53485F53 
 5768      54525543 
 5769              	.LASF194:
 5770 09b2 70747257 		.ascii	"ptrWdSlider\000"
 5770      64536C69 
 5770      64657200 
 5771              	.LASF239:
 5772 09be 43617053 		.ascii	"CapSense_dsRam\000"
 5772      656E7365 
 5772      5F647352 
 5772      616D00
 5773              	.LASF168:
 5774 09cd 736E7254 		.ascii	"snrTestRawCount\000"
ARM GAS  C:\Users\Austina\AppData\Local\Temp\ccLgwUrp.s 			page 140


 5774      65737452 
 5774      6177436F 
 5774      756E7400 
 5775              	.LASF241:
 5776 09dd 6D656D73 		.ascii	"memset\000"
 5776      657400
 5777              	.LASF40:
 5778 09e4 6E4E6F69 		.ascii	"nNoiseTh\000"
 5778      73655468 
 5778      00
 5779              	.LASF157:
 5780 09ed 63736430 		.ascii	"csd0Config\000"
 5780      436F6E66 
 5780      696700
 5781              	.LASF94:
 5782 09f8 636C6963 		.ascii	"clickRadiusX\000"
 5782      6B526164 
 5782      69757358 
 5782      00
 5783              	.LASF95:
 5784 0a05 636C6963 		.ascii	"clickRadiusY\000"
 5784      6B526164 
 5784      69757359 
 5784      00
 5785              	.LASF133:
 5786 0a12 43617053 		.ascii	"CapSense_RAM_WD_BASE_STRUCT\000"
 5786      656E7365 
 5786      5F52414D 
 5786      5F57445F 
 5786      42415345 
 5787              	.LASF123:
 5788 0a2e 43617053 		.ascii	"CapSense_WD_TYPE_ENUM\000"
 5788      656E7365 
 5788      5F57445F 
 5788      54595045 
 5788      5F454E55 
 5789              	.LASF232:
 5790 0a44 73656E73 		.ascii	"sensorStatus\000"
 5790      6F725374 
 5790      61747573 
 5790      00
 5791              	.LASF43:
 5792 0a51 73697A65 		.ascii	"size\000"
 5792      00
 5793              	.LASF132:
 5794 0a56 67657374 		.ascii	"gestureId\000"
 5794      75726549 
 5794      6400
 5795              	.LASF24:
 5796 0a60 75696E74 		.ascii	"uint32\000"
 5796      333200
 5797              	.LASF196:
 5798 0a67 44705570 		.ascii	"DpUpdateLinSlider\000"
 5798      64617465 
 5798      4C696E53 
 5798      6C696465 
 5798      7200
ARM GAS  C:\Users\Austina\AppData\Local\Temp\ccLgwUrp.s 			page 141


 5799              	.LASF173:
 5800 0a79 70747232 		.ascii	"ptr2FltrHistory\000"
 5800      466C7472 
 5800      48697374 
 5800      6F727900 
 5801              	.LASF118:
 5802 0a89 43617053 		.ascii	"CapSense_WD_LINEAR_SLIDER_E\000"
 5802      656E7365 
 5802      5F57445F 
 5802      4C494E45 
 5802      41525F53 
 5803              	.LASF108:
 5804 0aa5 67726F75 		.ascii	"group1Start\000"
 5804      70315374 
 5804      61727400 
 5805              	.LASF233:
 5806 0ab1 77645374 		.ascii	"wdStatusIndex\000"
 5806      61747573 
 5806      496E6465 
 5806      7800
 5807              	.LASF235:
 5808 0abf 43617053 		.ascii	"CapSense_DpProcessSlider\000"
 5808      656E7365 
 5808      5F447050 
 5808      726F6365 
 5808      7373536C 
 5809              	.LASF109:
 5810 0ad8 67726F75 		.ascii	"group1End\000"
 5810      7031456E 
 5810      6400
 5811              	.LASF88:
 5812 0ae2 44545061 		.ascii	"DTPanDebounce\000"
 5812      6E446562 
 5812      6F756E63 
 5812      6500
 5813              	.LASF214:
 5814 0af0 736E7343 		.ascii	"snsCount\000"
 5814      6F756E74 
 5814      00
 5815              	.LASF198:
 5816 0af9 6E657750 		.ascii	"newPos\000"
 5816      6F7300
 5817              	.LASF27:
 5818 0b00 6C6F6E67 		.ascii	"long double\000"
 5818      20646F75 
 5818      626C6500 
 5819              	.LASF200:
 5820 0b0c 70747252 		.ascii	"ptrRamWdgt\000"
 5820      616D5764 
 5820      677400
 5821              	.LASF226:
 5822 0b17 736E734D 		.ascii	"snsMask\000"
 5822      61736B00 
 5823              	.LASF167:
 5824 0b1f 736E7254 		.ascii	"snrTestScanCounter\000"
 5824      65737453 
 5824      63616E43 
ARM GAS  C:\Users\Austina\AppData\Local\Temp\ccLgwUrp.s 			page 142


 5824      6F756E74 
 5824      657200
 5825              	.LASF148:
 5826 0b32 636F6E66 		.ascii	"configId\000"
 5826      69674964 
 5826      00
 5827              	.LASF172:
 5828 0b3b 70747232 		.ascii	"ptr2SnsRam\000"
 5828      536E7352 
 5828      616D00
 5829              	.LASF102:
 5830 0b46 4454436C 		.ascii	"DTClickTimeoutMin\000"
 5830      69636B54 
 5830      696D656F 
 5830      75744D69 
 5830      6E00
 5831              	.LASF156:
 5832 0b58 736E7353 		.ascii	"snsStatus\000"
 5832      74617475 
 5832      7300
 5833              	.LASF58:
 5834 0b62 73745363 		.ascii	"stScrollStep1\000"
 5834      726F6C6C 
 5834      53746570 
 5834      3100
 5835              	.LASF129:
 5836 0b70 736E7343 		.ascii	"snsClkSource\000"
 5836      6C6B536F 
 5836      75726365 
 5836      00
 5837              	.LASF181:
 5838 0b7d 78526573 		.ascii	"xResolution\000"
 5838      6F6C7574 
 5838      696F6E00 
 5839              	.LASF71:
 5840 0b89 64745363 		.ascii	"dtScrollStep1\000"
 5840      726F6C6C 
 5840      53746570 
 5840      3100
 5841              	.LASF72:
 5842 0b97 64745363 		.ascii	"dtScrollStep2\000"
 5842      726F6C6C 
 5842      53746570 
 5842      3200
 5843              	.LASF73:
 5844 0ba5 64745363 		.ascii	"dtScrollStep3\000"
 5844      726F6C6C 
 5844      53746570 
 5844      3300
 5845              	.LASF74:
 5846 0bb3 64745363 		.ascii	"dtScrollStep4\000"
 5846      726F6C6C 
 5846      53746570 
 5846      3400
 5847              	.LASF2:
 5848 0bc1 73686F72 		.ascii	"short int\000"
 5848      7420696E 
ARM GAS  C:\Users\Austina\AppData\Local\Temp\ccLgwUrp.s 			page 143


 5848      7400
 5849              	.LASF169:
 5850 0bcb 43617053 		.ascii	"CapSense_RAM_STRUCT\000"
 5850      656E7365 
 5850      5F52414D 
 5850      5F535452 
 5850      55435400 
 5851              	.LASF191:
 5852 0bdf 43617053 		.ascii	"CapSense_REGULAR_FLTR_STRUCT\000"
 5852      656E7365 
 5852      5F524547 
 5852      554C4152 
 5852      5F464C54 
 5853              	.LASF7:
 5854 0bfc 6C6F6E67 		.ascii	"long int\000"
 5854      20696E74 
 5854      00
 5855              	.LASF238:
 5856 0c05 49544D5F 		.ascii	"ITM_RxBuffer\000"
 5856      52784275 
 5856      66666572 
 5856      00
 5857              	.LASF42:
 5858 0c12 534D4152 		.ascii	"SMARTSENSE_UPDATE_THRESHOLDS_STRUCT\000"
 5858      5453454E 
 5858      53455F55 
 5858      50444154 
 5858      455F5448 
 5859              	.LASF236:
 5860 0c36 746F7563 		.ascii	"touchCnt\000"
 5860      68436E74 
 5860      00
 5861              	.LASF143:
 5862 0c3f 64696666 		.ascii	"diff\000"
 5862      00
 5863              	.LASF18:
 5864 0c44 63686172 		.ascii	"char_t\000"
 5864      5F7400
 5865              	.LASF137:
 5866 0c4b 62757474 		.ascii	"button0\000"
 5866      6F6E3000 
 5867              	.LASF138:
 5868 0c53 62757474 		.ascii	"button1\000"
 5868      6F6E3100 
 5869              	.LASF221:
 5870 0c5b 736E7349 		.ascii	"snsId\000"
 5870      6400
 5871              	.LASF117:
 5872 0c61 43617053 		.ascii	"CapSense_WD_BUTTON_E\000"
 5872      656E7365 
 5872      5F57445F 
 5872      42555454 
 5872      4F4E5F45 
 5873              	.LASF189:
 5874 0c76 43617053 		.ascii	"CapSense_REGULAR_FLTR_CHANNEL_STRUCT\000"
 5874      656E7365 
 5874      5F524547 
ARM GAS  C:\Users\Austina\AppData\Local\Temp\ccLgwUrp.s 			page 144


 5874      554C4152 
 5874      5F464C54 
 5875              	.LASF215:
 5876 0c9b 70747253 		.ascii	"ptrSnsTmp\000"
 5876      6E73546D 
 5876      7000
 5877              	.LASF38:
 5878 0ca5 66696E67 		.ascii	"fingerTh\000"
 5878      65725468 
 5878      00
 5879              	.LASF113:
 5880 0cae 67726F75 		.ascii	"group3End\000"
 5880      7033456E 
 5880      6400
 5881              	.LASF3:
 5882 0cb8 5F5F7569 		.ascii	"__uint8_t\000"
 5882      6E74385F 
 5882      7400
 5883              	.LASF112:
 5884 0cc2 67726F75 		.ascii	"group3Start\000"
 5884      70335374 
 5884      61727400 
 5885              	.LASF240:
 5886 0cce 43617053 		.ascii	"CapSense_dsFlash\000"
 5886      656E7365 
 5886      5F647346 
 5886      6C617368 
 5886      00
 5887              	.LASF130:
 5888 0cdf 66696E67 		.ascii	"fingerCap\000"
 5888      65724361 
 5888      7000
 5889              	.LASF155:
 5890 0ce9 77646774 		.ascii	"wdgtStatus\000"
 5890      53746174 
 5890      757300
 5891              	.LASF154:
 5892 0cf4 77646774 		.ascii	"wdgtEnable\000"
 5892      456E6162 
 5892      6C6500
 5893              	.LASF136:
 5894 0cff 43617053 		.ascii	"CapSense_RAM_WD_SLIDER_STRUCT\000"
 5894      656E7365 
 5894      5F52414D 
 5894      5F57445F 
 5894      534C4944 
 5895              	.LASF116:
 5896 0d1d 43617053 		.ascii	"CapSense_TMG_CONFIG_STRUCT\000"
 5896      656E7365 
 5896      5F544D47 
 5896      5F434F4E 
 5896      4649475F 
 5897              	.LASF17:
 5898 0d38 73697A65 		.ascii	"sizetype\000"
 5898      74797065 
 5898      00
 5899              	.LASF9:
ARM GAS  C:\Users\Austina\AppData\Local\Temp\ccLgwUrp.s 			page 145


 5900 0d41 6C6F6E67 		.ascii	"long unsigned int\000"
 5900      20756E73 
 5900      69676E65 
 5900      6420696E 
 5900      7400
 5901              	.LASF127:
 5902 0d53 69646163 		.ascii	"idacMod\000"
 5902      4D6F6400 
 5903              	.LASF50:
 5904 0d5b 73745363 		.ascii	"stScrollThreshold1X\000"
 5904      726F6C6C 
 5904      54687265 
 5904      73686F6C 
 5904      64315800 
 5905              	.LASF174:
 5906 0d6f 70747232 		.ascii	"ptr2DebounceArr\000"
 5906      4465626F 
 5906      756E6365 
 5906      41727200 
 5907              	.LASF97:
 5908 0d7f 7265736F 		.ascii	"resolutionX\000"
 5908      6C757469 
 5908      6F6E5800 
 5909              	.LASF98:
 5910 0d8b 7265736F 		.ascii	"resolutionY\000"
 5910      6C757469 
 5910      6F6E5900 
 5911              	.LASF182:
 5912 0d97 7843656E 		.ascii	"xCentroidMultiplier\000"
 5912      74726F69 
 5912      644D756C 
 5912      7469706C 
 5912      69657200 
 5913              	.LASF151:
 5914 0dab 74756E65 		.ascii	"tunerCmd\000"
 5914      72436D64 
 5914      00
 5915              	.LASF142:
 5916 0db4 62736C6E 		.ascii	"bslnExt\000"
 5916      45787400 
 5917              	.LASF134:
 5918 0dbc 43617053 		.ascii	"CapSense_RAM_WD_BUTTON_STRUCT\000"
 5918      656E7365 
 5918      5F52414D 
 5918      5F57445F 
 5918      42555454 
 5919              	.LASF199:
 5920 0dda 6E756D54 		.ascii	"numTouches\000"
 5920      6F756368 
 5920      657300
 5921              	.LASF103:
 5922 0de5 5354436C 		.ascii	"STClickTimeoutMax\000"
 5922      69636B54 
 5922      696D656F 
 5922      75744D61 
 5922      7800
 5923              	.LASF14:
ARM GAS  C:\Users\Austina\AppData\Local\Temp\ccLgwUrp.s 			page 146


 5924 0df7 75696E74 		.ascii	"uint16_t\000"
 5924      31365F74 
 5924      00
 5925              	.LASF1:
 5926 0e00 756E7369 		.ascii	"unsigned char\000"
 5926      676E6564 
 5926      20636861 
 5926      7200
 5927              	.LASF234:
 5928 0e0e 77645374 		.ascii	"wdStatusMask\000"
 5928      61747573 
 5928      4D61736B 
 5928      00
 5929              	.LASF8:
 5930 0e1b 5F5F7569 		.ascii	"__uint32_t\000"
 5930      6E743332 
 5930      5F7400
 5931              	.LASF197:
 5932 0e26 70747246 		.ascii	"ptrFlashWdgt\000"
 5932      6C617368 
 5932      57646774 
 5932      00
 5933              	.LASF162:
 5934 0e33 67657374 		.ascii	"gestures\000"
 5934      75726573 
 5934      00
 5935              	.LASF175:
 5936 0e3c 73746174 		.ascii	"staticConfig\000"
 5936      6963436F 
 5936      6E666967 
 5936      00
 5937              	.LASF159:
 5938 0e49 6D6F6443 		.ascii	"modCsxClk\000"
 5938      7378436C 
 5938      6B00
 5939              	.LASF105:
 5940 0e53 5354446F 		.ascii	"STDoubleClickTimeoutMax\000"
 5940      75626C65 
 5940      436C6963 
 5940      6B54696D 
 5940      656F7574 
 5941              	.LASF171:
 5942 0e6b 70747232 		.ascii	"ptr2WdgtRam\000"
 5942      57646774 
 5942      52616D00 
 5943              	.LASF28:
 5944 0e77 43617053 		.ascii	"CapSense_THRESHOLD_TYPE\000"
 5944      656E7365 
 5944      5F544852 
 5944      4553484F 
 5944      4C445F54 
 5945              	.LASF180:
 5946 0e8f 6E756D52 		.ascii	"numRows\000"
 5946      6F777300 
 5947              	.LASF139:
 5948 0e97 6C696E65 		.ascii	"linearslider0\000"
 5948      6172736C 
ARM GAS  C:\Users\Austina\AppData\Local\Temp\ccLgwUrp.s 			page 147


 5948      69646572 
 5948      3000
 5949              	.LASF224:
 5950 0ea5 63757272 		.ascii	"currStatus\000"
 5950      53746174 
 5950      757300
 5951              	.LASF164:
 5952 0eb0 74696D65 		.ascii	"timestamp\000"
 5952      7374616D 
 5952      7000
 5953              	.LASF128:
 5954 0eba 736E7343 		.ascii	"snsClk\000"
 5954      6C6B00
 5955              	.LASF195:
 5956 0ec1 43617053 		.ascii	"CapSense_DpInitSlider\000"
 5956      656E7365 
 5956      5F447049 
 5956      6E697453 
 5956      6C696465 
 5957              	.LASF0:
 5958 0ed7 7369676E 		.ascii	"signed char\000"
 5958      65642063 
 5958      68617200 
 5959              	.LASF83:
 5960 0ee3 65646765 		.ascii	"edgeSwipeActiveDistance\000"
 5960      53776970 
 5960      65416374 
 5960      69766544 
 5960      69737461 
 5961              	.LASF84:
 5962 0efb 746F7041 		.ascii	"topAngleThreshold\000"
 5962      6E676C65 
 5962      54687265 
 5962      73686F6C 
 5962      6400
 5963              	.LASF5:
 5964 0f0d 73686F72 		.ascii	"short unsigned int\000"
 5964      7420756E 
 5964      7369676E 
 5964      65642069 
 5964      6E7400
 5965              	.LASF230:
 5966 0f20 43617053 		.ascii	"CapSense_DpProcessCsxWidgetStatus\000"
 5966      656E7365 
 5966      5F447050 
 5966      726F6365 
 5966      73734373 
 5967              	.LASF89:
 5968 0f42 44545A6F 		.ascii	"DTZoomDebounce\000"
 5968      6F6D4465 
 5968      626F756E 
 5968      636500
 5969              	.LASF170:
 5970 0f51 70747232 		.ascii	"ptr2SnsFlash\000"
 5970      536E7346 
 5970      6C617368 
 5970      00
ARM GAS  C:\Users\Austina\AppData\Local\Temp\ccLgwUrp.s 			page 148


 5971              	.LASF54:
 5972 0f5e 73745363 		.ascii	"stScrollThreshold1Y\000"
 5972      726F6C6C 
 5972      54687265 
 5972      73686F6C 
 5972      64315900 
 5973              	.LASF188:
 5974 0f72 6E6F7455 		.ascii	"notUsed\000"
 5974      73656400 
 5975              	.LASF22:
 5976 0f7a 75696E74 		.ascii	"uint8\000"
 5976      3800
 5977              	.LASF21:
 5978 0f80 646F7562 		.ascii	"double\000"
 5978      6C6500
 5979              	.LASF91:
 5980 0f87 726F7461 		.ascii	"rotateDebounce\000"
 5980      74654465 
 5980      626F756E 
 5980      636500
 5981              	.LASF144:
 5982 0f96 6E656742 		.ascii	"negBslnRstCnt\000"
 5982      736C6E52 
 5982      7374436E 
 5982      7400
 5983              	.LASF203:
 5984 0fa4 77696467 		.ascii	"widgetType\000"
 5984      65745479 
 5984      706500
 5985              	.LASF30:
 5986 0faf 70617261 		.ascii	"param0\000"
 5986      6D3000
 5987              	.LASF31:
 5988 0fb6 70617261 		.ascii	"param1\000"
 5988      6D3100
 5989              	.LASF32:
 5990 0fbd 70617261 		.ascii	"param2\000"
 5990      6D3200
 5991              	.LASF33:
 5992 0fc4 70617261 		.ascii	"param3\000"
 5992      6D3300
 5993              	.LASF34:
 5994 0fcb 70617261 		.ascii	"param4\000"
 5994      6D3400
 5995              	.LASF35:
 5996 0fd2 70617261 		.ascii	"param5\000"
 5996      6D3500
 5997              	.LASF36:
 5998 0fd9 70617261 		.ascii	"param6\000"
 5998      6D3600
 5999              	.LASF149:
 6000 0fe0 64657669 		.ascii	"deviceId\000"
 6000      63654964 
 6000      00
 6001              	.LASF231:
 6002 0fe9 77696467 		.ascii	"widgetId\000"
 6002      65744964 
ARM GAS  C:\Users\Austina\AppData\Local\Temp\ccLgwUrp.s 			page 149


 6002      00
 6003              	.LASF135:
 6004 0ff2 706F7369 		.ascii	"position\000"
 6004      74696F6E 
 6004      00
 6005              	.LASF147:
 6006 0ffb 43617053 		.ascii	"CapSense_RAM_SNS_LIST_STRUCT\000"
 6006      656E7365 
 6006      5F52414D 
 6006      5F534E53 
 6006      5F4C4953 
 6007              	.LASF51:
 6008 1018 73745363 		.ascii	"stScrollThreshold2X\000"
 6008      726F6C6C 
 6008      54687265 
 6008      73686F6C 
 6008      64325800 
 6009              	.LASF55:
 6010 102c 73745363 		.ascii	"stScrollThreshold2Y\000"
 6010      726F6C6C 
 6010      54687265 
 6010      73686F6C 
 6010      64325900 
 6011              	.LASF186:
 6012 1040 77646774 		.ascii	"wdgtArray\000"
 6012      41727261 
 6012      7900
 6013              		.ident	"GCC: (GNU Tools for ARM Embedded Processors) 5.4.1 20160609 (release) [ARM/embedded-5-bran
