ARM GAS  C:\Users\Austina\AppData\Local\Temp\ccLgwUrp.s 			page 1


   1              		.syntax unified
   2              		.cpu cortex-m4
   3              		.eabi_attribute 27, 1
   4              		.fpu fpv4-sp-d16
   5              		.eabi_attribute 20, 1
   6              		.eabi_attribute 21, 1
   7              		.eabi_attribute 23, 3
   8              		.eabi_attribute 24, 1
   9              		.eabi_attribute 25, 1
  10              		.eabi_attribute 26, 1
  11              		.eabi_attribute 30, 1
  12              		.eabi_attribute 34, 1
  13              		.eabi_attribute 18, 4
  14              		.thumb
  15              		.syntax unified
  16              		.file	"CapSense_Processing.c"
  17              		.text
  18              	.Ltext0:
  19              		.cfi_sections	.debug_frame
  20              		.section	.text.CapSense_DpInitialize,"ax",%progbits
  21              		.align	2
  22              		.global	CapSense_DpInitialize
  23              		.thumb
  24              		.thumb_func
  25              		.type	CapSense_DpInitialize, %function
  26              	CapSense_DpInitialize:
  27              	.LFB126:
  28              		.file 1 "Generated_Source\\PSoC6\\CapSense_Processing.c"
   1:Generated_Source\PSoC6/CapSense_Processing.c **** /***************************************************************************//**
   2:Generated_Source\PSoC6/CapSense_Processing.c **** * \file CapSense_Processing.c
   3:Generated_Source\PSoC6/CapSense_Processing.c **** * \version 2.0
   4:Generated_Source\PSoC6/CapSense_Processing.c **** *
   5:Generated_Source\PSoC6/CapSense_Processing.c **** * \brief
   6:Generated_Source\PSoC6/CapSense_Processing.c **** *   This file provides the source code for the Data Processing module APIs
   7:Generated_Source\PSoC6/CapSense_Processing.c **** *   of the Component. The Data Processing module is responsible for the
   8:Generated_Source\PSoC6/CapSense_Processing.c **** *   low level raw counts processing provided by the sensing module, maintaining
   9:Generated_Source\PSoC6/CapSense_Processing.c **** *   baseline and difference values and performing high-level widget processing
  10:Generated_Source\PSoC6/CapSense_Processing.c **** *   like updating button status or calculating slider position.
  11:Generated_Source\PSoC6/CapSense_Processing.c **** *
  12:Generated_Source\PSoC6/CapSense_Processing.c **** * \see CapSense v2.0 Datasheet
  13:Generated_Source\PSoC6/CapSense_Processing.c **** *
  14:Generated_Source\PSoC6/CapSense_Processing.c **** *//*****************************************************************************
  15:Generated_Source\PSoC6/CapSense_Processing.c **** * Copyright (2016-2017), Cypress Semiconductor Corporation.
  16:Generated_Source\PSoC6/CapSense_Processing.c **** ********************************************************************************
  17:Generated_Source\PSoC6/CapSense_Processing.c **** * This software is owned by Cypress Semiconductor Corporation (Cypress) and is
  18:Generated_Source\PSoC6/CapSense_Processing.c **** * protected by and subject to worldwide patent protection (United States and
  19:Generated_Source\PSoC6/CapSense_Processing.c **** * foreign), United States copyright laws and international treaty provisions.
  20:Generated_Source\PSoC6/CapSense_Processing.c **** * Cypress hereby grants to licensee a personal, non-exclusive, non-transferable
  21:Generated_Source\PSoC6/CapSense_Processing.c **** * license to copy, use, modify, create derivative works of, and compile the
  22:Generated_Source\PSoC6/CapSense_Processing.c **** * Cypress Source Code and derivative works for the sole purpose of creating
  23:Generated_Source\PSoC6/CapSense_Processing.c **** * custom software in support of licensee product to be used only in conjunction
  24:Generated_Source\PSoC6/CapSense_Processing.c **** * with a Cypress integrated circuit as specified in the applicable agreement.
  25:Generated_Source\PSoC6/CapSense_Processing.c **** * Any reproduction, modification, translation, compilation, or representation of
  26:Generated_Source\PSoC6/CapSense_Processing.c **** * this software except as specified above is prohibited without the express
  27:Generated_Source\PSoC6/CapSense_Processing.c **** * written permission of Cypress.
  28:Generated_Source\PSoC6/CapSense_Processing.c **** *
  29:Generated_Source\PSoC6/CapSense_Processing.c **** * Disclaimer: CYPRESS MAKES NO WARRANTY OF ANY KIND, EXPRESS OR IMPLIED, WITH
ARM GAS  C:\Users\Austina\AppData\Local\Temp\ccLgwUrp.s 			page 2


  30:Generated_Source\PSoC6/CapSense_Processing.c **** * REGARD TO THIS MATERIAL, INCLUDING, BUT NOT LIMITED TO, THE IMPLIED
  31:Generated_Source\PSoC6/CapSense_Processing.c **** * WARRANTIES OF MERCHANTABILITY AND FITNESS FOR A PARTICULAR PURPOSE.
  32:Generated_Source\PSoC6/CapSense_Processing.c **** * Cypress reserves the right to make changes without further notice to the
  33:Generated_Source\PSoC6/CapSense_Processing.c **** * materials described herein. Cypress does not assume any liability arising out
  34:Generated_Source\PSoC6/CapSense_Processing.c **** * of the application or use of any product or circuit described herein. Cypress
  35:Generated_Source\PSoC6/CapSense_Processing.c **** * does not authorize its products for use as critical components in life-support
  36:Generated_Source\PSoC6/CapSense_Processing.c **** * systems where a malfunction or failure may reasonably be expected to result in
  37:Generated_Source\PSoC6/CapSense_Processing.c **** * significant injury to the user. The inclusion of Cypress' product in a life-
  38:Generated_Source\PSoC6/CapSense_Processing.c **** * support systems application implies that the manufacturer assumes all risk of
  39:Generated_Source\PSoC6/CapSense_Processing.c **** * such use and in doing so indemnifies Cypress against all charges. Use may be
  40:Generated_Source\PSoC6/CapSense_Processing.c **** * limited by and subject to the applicable Cypress software license agreement.
  41:Generated_Source\PSoC6/CapSense_Processing.c **** *******************************************************************************/
  42:Generated_Source\PSoC6/CapSense_Processing.c **** 
  43:Generated_Source\PSoC6/CapSense_Processing.c **** #include "syslib/cy_syslib.h"
  44:Generated_Source\PSoC6/CapSense_Processing.c **** #include <stddef.h>
  45:Generated_Source\PSoC6/CapSense_Processing.c **** #include <string.h>
  46:Generated_Source\PSoC6/CapSense_Processing.c **** #include "CapSense_Configuration.h"
  47:Generated_Source\PSoC6/CapSense_Processing.c **** #include "CapSense_Processing.h"
  48:Generated_Source\PSoC6/CapSense_Processing.c **** #include "CapSense_Filter.h"
  49:Generated_Source\PSoC6/CapSense_Processing.c **** 
  50:Generated_Source\PSoC6/CapSense_Processing.c **** #if (0u != CapSense_CENTROID_EN)
  51:Generated_Source\PSoC6/CapSense_Processing.c ****     #include "CapSense_Centroid_LL.h"
  52:Generated_Source\PSoC6/CapSense_Processing.c **** #endif /* (0 != CapSense_CENTROID_EN) */
  53:Generated_Source\PSoC6/CapSense_Processing.c **** 
  54:Generated_Source\PSoC6/CapSense_Processing.c **** #if (0 != (CapSense_CSD_AUTOTUNE & CapSense_CSD_SS_TH_EN))
  55:Generated_Source\PSoC6/CapSense_Processing.c ****     #include "CapSense_SmartSense_LL.h"
  56:Generated_Source\PSoC6/CapSense_Processing.c **** #endif /* (0 != (CapSense_CSD_AUTOTUNE & CapSense_CSD_SS_TH_EN)) */
  57:Generated_Source\PSoC6/CapSense_Processing.c **** 
  58:Generated_Source\PSoC6/CapSense_Processing.c **** #if (CapSense_ENABLE == CapSense_SELF_TEST_EN)
  59:Generated_Source\PSoC6/CapSense_Processing.c ****     #include "CapSense_SelfTest.h"
  60:Generated_Source\PSoC6/CapSense_Processing.c **** #endif
  61:Generated_Source\PSoC6/CapSense_Processing.c **** 
  62:Generated_Source\PSoC6/CapSense_Processing.c **** #if (CapSense_ENABLE == CapSense_CENTROID_5X5_CSD_EN)
  63:Generated_Source\PSoC6/CapSense_Processing.c ****     #include "CapSense_AdvancedCentroid_LL.h"
  64:Generated_Source\PSoC6/CapSense_Processing.c **** #endif
  65:Generated_Source\PSoC6/CapSense_Processing.c **** 
  66:Generated_Source\PSoC6/CapSense_Processing.c **** #if (CapSense_ENABLE == CapSense_POS_ADAPTIVE_IIR_FILTER_EN)
  67:Generated_Source\PSoC6/CapSense_Processing.c ****     #include "CapSense_AdaptiveFilter_LL.h"
  68:Generated_Source\PSoC6/CapSense_Processing.c **** #endif
  69:Generated_Source\PSoC6/CapSense_Processing.c **** 
  70:Generated_Source\PSoC6/CapSense_Processing.c **** #if(CapSense_ENABLE == CapSense_BALLISTIC_MULTIPLIER_EN)
  71:Generated_Source\PSoC6/CapSense_Processing.c ****     #include "CapSense_Gesture.h"
  72:Generated_Source\PSoC6/CapSense_Processing.c **** #endif
  73:Generated_Source\PSoC6/CapSense_Processing.c **** 
  74:Generated_Source\PSoC6/CapSense_Processing.c **** /**************************************************************************************************
  75:Generated_Source\PSoC6/CapSense_Processing.c **** * Local definition
  76:Generated_Source\PSoC6/CapSense_Processing.c **** ***************************************************************************************************
  77:Generated_Source\PSoC6/CapSense_Processing.c **** 
  78:Generated_Source\PSoC6/CapSense_Processing.c **** /* UINT32 constant with all odd bits set. It is used by the processing function of the Proximity wi
  79:Generated_Source\PSoC6/CapSense_Processing.c **** *  determine type of the status bit: odd bits report proximity status; even bits report touch statu
  80:Generated_Source\PSoC6/CapSense_Processing.c **** */
  81:Generated_Source\PSoC6/CapSense_Processing.c **** #define UINT32_ODD_BITS_CONST       (0x55555555u)
  82:Generated_Source\PSoC6/CapSense_Processing.c **** 
  83:Generated_Source\PSoC6/CapSense_Processing.c **** /* Default value for the Off Debounce counter when the Off Debounce is disabled */
  84:Generated_Source\PSoC6/CapSense_Processing.c **** #define DEFAULT_OFF_DEBOUNCE_VALUE  (1u)
  85:Generated_Source\PSoC6/CapSense_Processing.c **** #define PERCENTAGE_100              (100u)
  86:Generated_Source\PSoC6/CapSense_Processing.c **** #define TEMP_BUFFER_MSB_SHIFT       (16)
ARM GAS  C:\Users\Austina\AppData\Local\Temp\ccLgwUrp.s 			page 3


  87:Generated_Source\PSoC6/CapSense_Processing.c **** 
  88:Generated_Source\PSoC6/CapSense_Processing.c **** /**************************************************************************************************
  89:Generated_Source\PSoC6/CapSense_Processing.c **** * Local variables
  90:Generated_Source\PSoC6/CapSense_Processing.c **** ***************************************************************************************************
  91:Generated_Source\PSoC6/CapSense_Processing.c **** #if (0u != CapSense_CSX_MULTIPHASE_TX_EN)
  92:Generated_Source\PSoC6/CapSense_Processing.c ****     static uint16 deconvRowData[CapSense_CSX_MAX_TX_PHASE_LENGTH];
  93:Generated_Source\PSoC6/CapSense_Processing.c **** #endif
  94:Generated_Source\PSoC6/CapSense_Processing.c **** 
  95:Generated_Source\PSoC6/CapSense_Processing.c **** 
  96:Generated_Source\PSoC6/CapSense_Processing.c **** /**************************************************************************************************
  97:Generated_Source\PSoC6/CapSense_Processing.c **** * Static Function Prototypes
  98:Generated_Source\PSoC6/CapSense_Processing.c **** ***************************************************************************************************
  99:Generated_Source\PSoC6/CapSense_Processing.c **** /**
 100:Generated_Source\PSoC6/CapSense_Processing.c **** * \cond SECTION_CYSENSE_INTERNAL
 101:Generated_Source\PSoC6/CapSense_Processing.c **** * \addtogroup group_cysense_internal
 102:Generated_Source\PSoC6/CapSense_Processing.c **** * \{
 103:Generated_Source\PSoC6/CapSense_Processing.c **** */
 104:Generated_Source\PSoC6/CapSense_Processing.c **** #if (0u != CapSense_TOTAL_LINEAR_SLIDERS)
 105:Generated_Source\PSoC6/CapSense_Processing.c ****     __STATIC_INLINE void DpUpdateLinSlider(
 106:Generated_Source\PSoC6/CapSense_Processing.c ****                         const uint16 newPos[], uint32 numTouches,
 107:Generated_Source\PSoC6/CapSense_Processing.c ****                         CapSense_FLASH_WD_STRUCT const *ptrFlashWdgt,
 108:Generated_Source\PSoC6/CapSense_Processing.c ****                         CapSense_RAM_WD_SLIDER_STRUCT *ptrRamWdgt);
 109:Generated_Source\PSoC6/CapSense_Processing.c **** #endif /* #if (0u != CapSense_TOTAL_LINEAR_SLIDERS) */
 110:Generated_Source\PSoC6/CapSense_Processing.c **** 
 111:Generated_Source\PSoC6/CapSense_Processing.c **** #if (0u != CapSense_TOTAL_RADIAL_SLIDERS)
 112:Generated_Source\PSoC6/CapSense_Processing.c ****     __STATIC_INLINE void DpUpdateRadSlider(
 113:Generated_Source\PSoC6/CapSense_Processing.c ****                         const uint16 newPos[], uint32 numTouches,
 114:Generated_Source\PSoC6/CapSense_Processing.c ****                         CapSense_FLASH_WD_STRUCT const * ptrFlashWdgt,
 115:Generated_Source\PSoC6/CapSense_Processing.c ****                         CapSense_RAM_WD_SLIDER_STRUCT *ptrRamWdgt);
 116:Generated_Source\PSoC6/CapSense_Processing.c **** #endif /* #if (0u != CapSense_TOTAL_RADIAL_SLIDERS) */
 117:Generated_Source\PSoC6/CapSense_Processing.c **** 
 118:Generated_Source\PSoC6/CapSense_Processing.c **** #if (0u != CapSense_CSD_TOUCHPAD_WIDGET_EN)
 119:Generated_Source\PSoC6/CapSense_Processing.c ****     __STATIC_INLINE void CapSense_DpInitCsdTouchpad(CapSense_FLASH_WD_STRUCT const * ptrFlashWdgt);
 120:Generated_Source\PSoC6/CapSense_Processing.c **** #endif /* #if (0u != CapSense_CSD_TOUCHPAD_WIDGET_EN) */
 121:Generated_Source\PSoC6/CapSense_Processing.c **** 
 122:Generated_Source\PSoC6/CapSense_Processing.c **** #if (0u != CapSense_CSX_TOUCHPAD_WIDGET_EN)
 123:Generated_Source\PSoC6/CapSense_Processing.c ****     __STATIC_INLINE void CapSense_DpInitCsxTouchpad(CapSense_FLASH_WD_STRUCT const * ptrFlashWdgt);
 124:Generated_Source\PSoC6/CapSense_Processing.c **** #endif /* #if (0u != CapSense_CSX_TOUCHPAD_WIDGET_EN) */
 125:Generated_Source\PSoC6/CapSense_Processing.c **** 
 126:Generated_Source\PSoC6/CapSense_Processing.c **** #if (0u != CapSense_SLIDER_WIDGET_EN)
 127:Generated_Source\PSoC6/CapSense_Processing.c ****     __STATIC_INLINE void CapSense_DpInitSlider(CapSense_FLASH_WD_STRUCT const * ptrFlashWdgt);
 128:Generated_Source\PSoC6/CapSense_Processing.c **** #endif /* #if (0u != CapSense_SLIDER_WIDGET_EN) */
 129:Generated_Source\PSoC6/CapSense_Processing.c **** 
 130:Generated_Source\PSoC6/CapSense_Processing.c **** #if (0u != CapSense_CSD_MATRIX_WIDGET_EN)
 131:Generated_Source\PSoC6/CapSense_Processing.c ****     __STATIC_INLINE void CapSense_DpInitCsdMatrix(CapSense_FLASH_WD_STRUCT const * ptrFlashWdgt);
 132:Generated_Source\PSoC6/CapSense_Processing.c **** #endif /* #if (0u != CapSense_CSD_MATRIX_WIDGET_EN) */
 133:Generated_Source\PSoC6/CapSense_Processing.c **** 
 134:Generated_Source\PSoC6/CapSense_Processing.c **** /** \}
 135:Generated_Source\PSoC6/CapSense_Processing.c **** * \endcond */
 136:Generated_Source\PSoC6/CapSense_Processing.c **** 
 137:Generated_Source\PSoC6/CapSense_Processing.c **** #if (0u != CapSense_CSD_TOUCHPAD_WIDGET_EN)
 138:Generated_Source\PSoC6/CapSense_Processing.c **** /*******************************************************************************
 139:Generated_Source\PSoC6/CapSense_Processing.c **** * Function Name: CapSense_DpInitCsdTouchpad
 140:Generated_Source\PSoC6/CapSense_Processing.c **** ****************************************************************************//**
 141:Generated_Source\PSoC6/CapSense_Processing.c **** *
 142:Generated_Source\PSoC6/CapSense_Processing.c **** * \brief
 143:Generated_Source\PSoC6/CapSense_Processing.c **** *  Performs initialization of the CSD touchpad widget.
ARM GAS  C:\Users\Austina\AppData\Local\Temp\ccLgwUrp.s 			page 4


 144:Generated_Source\PSoC6/CapSense_Processing.c **** *   - Resets the position data to NONE
 145:Generated_Source\PSoC6/CapSense_Processing.c **** *   - Initializes the position filter history if enabled.
 146:Generated_Source\PSoC6/CapSense_Processing.c **** *
 147:Generated_Source\PSoC6/CapSense_Processing.c **** * \details
 148:Generated_Source\PSoC6/CapSense_Processing.c **** *  The position data is always reset to the CapSense_TOUCHPAD_POS_NONE value.
 149:Generated_Source\PSoC6/CapSense_Processing.c **** *  The same happens to the position filter history data if enabled.
 150:Generated_Source\PSoC6/CapSense_Processing.c **** *
 151:Generated_Source\PSoC6/CapSense_Processing.c **** *******************************************************************************/
 152:Generated_Source\PSoC6/CapSense_Processing.c **** __STATIC_INLINE void CapSense_DpInitCsdTouchpad(CapSense_FLASH_WD_STRUCT const * ptrFlashWdgt)
 153:Generated_Source\PSoC6/CapSense_Processing.c **** {
 154:Generated_Source\PSoC6/CapSense_Processing.c ****     #if (CapSense_ENABLE == CapSense_CENTROID_5X5_CSD_EN)
 155:Generated_Source\PSoC6/CapSense_Processing.c ****         uint32 touchIndex;
 156:Generated_Source\PSoC6/CapSense_Processing.c ****     #endif
 157:Generated_Source\PSoC6/CapSense_Processing.c **** 
 158:Generated_Source\PSoC6/CapSense_Processing.c ****     CapSense_RAM_WD_CSD_TOUCHPAD_STRUCT *ptrWdTouchpad;
 159:Generated_Source\PSoC6/CapSense_Processing.c **** 
 160:Generated_Source\PSoC6/CapSense_Processing.c ****     #if (0u != CapSense_POSITION_FILTER_EN)
 161:Generated_Source\PSoC6/CapSense_Processing.c ****         CapSense_TOUCHPAD_POS_HISTORY_STRUCT *ptrHistory;
 162:Generated_Source\PSoC6/CapSense_Processing.c ****     #endif  /* #if (0u != CapSense_POSITION_FILTER_EN) */
 163:Generated_Source\PSoC6/CapSense_Processing.c **** 
 164:Generated_Source\PSoC6/CapSense_Processing.c ****     #if (0u != CapSense_POS_ADAPTIVE_IIR_FILTER_EN)
 165:Generated_Source\PSoC6/CapSense_Processing.c ****         ADAPTIVE_FILTER_CONTEXT_STRUCT adpContext;
 166:Generated_Source\PSoC6/CapSense_Processing.c ****     #endif /* (0u != CapSense_POS_ADAPTIVE_IIR_FILTER_EN) */
 167:Generated_Source\PSoC6/CapSense_Processing.c **** 
 168:Generated_Source\PSoC6/CapSense_Processing.c ****     ptrWdTouchpad = ptrFlashWdgt->ptr2WdgtRam;
 169:Generated_Source\PSoC6/CapSense_Processing.c **** 
 170:Generated_Source\PSoC6/CapSense_Processing.c ****     /* Reset position data */
 171:Generated_Source\PSoC6/CapSense_Processing.c ****     #if (CapSense_ENABLE == CapSense_CENTROID_5X5_CSD_EN)
 172:Generated_Source\PSoC6/CapSense_Processing.c ****         #if (CapSense_ENABLE == CapSense_CENTROID_3X3_CSD_EN)
 173:Generated_Source\PSoC6/CapSense_Processing.c ****             if (0u != (ptrFlashWdgt->staticConfig & CapSense_CENTROID_5X5_MASK))
 174:Generated_Source\PSoC6/CapSense_Processing.c ****             {
 175:Generated_Source\PSoC6/CapSense_Processing.c ****         #endif
 176:Generated_Source\PSoC6/CapSense_Processing.c **** 
 177:Generated_Source\PSoC6/CapSense_Processing.c ****         ptrWdTouchpad->position.touchNum = 0u;
 178:Generated_Source\PSoC6/CapSense_Processing.c **** 
 179:Generated_Source\PSoC6/CapSense_Processing.c ****         #if (0u != CapSense_POSITION_FILTER_EN)
 180:Generated_Source\PSoC6/CapSense_Processing.c ****             ptrHistory = ptrFlashWdgt->ptr2PosHistory;
 181:Generated_Source\PSoC6/CapSense_Processing.c ****         #endif /* (0u != CapSense_POSITION_FILTER_EN) */
 182:Generated_Source\PSoC6/CapSense_Processing.c **** 
 183:Generated_Source\PSoC6/CapSense_Processing.c ****         for (touchIndex = 0u; touchIndex < ADVANCED_CENTROID_MAX_TOUCHES; touchIndex++)
 184:Generated_Source\PSoC6/CapSense_Processing.c ****         {
 185:Generated_Source\PSoC6/CapSense_Processing.c ****             ptrWdTouchpad->position.pos[touchIndex].x = ADVANCED_CENTROID_POSITION_NONE;
 186:Generated_Source\PSoC6/CapSense_Processing.c ****             ptrWdTouchpad->position.pos[touchIndex].y = ADVANCED_CENTROID_POSITION_NONE;
 187:Generated_Source\PSoC6/CapSense_Processing.c ****             ptrWdTouchpad->position.pos[touchIndex].zX = ADVANCED_CENTROID_POSITION_NONE;
 188:Generated_Source\PSoC6/CapSense_Processing.c ****             ptrWdTouchpad->position.pos[touchIndex].zY = ADVANCED_CENTROID_POSITION_NONE;
 189:Generated_Source\PSoC6/CapSense_Processing.c **** 
 190:Generated_Source\PSoC6/CapSense_Processing.c ****             /* Clear position filter history data if available */
 191:Generated_Source\PSoC6/CapSense_Processing.c ****             #if (0u != CapSense_POSITION_FILTER_EN)
 192:Generated_Source\PSoC6/CapSense_Processing.c ****                 if (NULL != ptrHistory)
 193:Generated_Source\PSoC6/CapSense_Processing.c ****                 {
 194:Generated_Source\PSoC6/CapSense_Processing.c ****                     CapSense_InitPosFiltersDd(&ptrHistory[touchIndex], CapSense_TOUCHPAD_POS_NONE, 
 195:Generated_Source\PSoC6/CapSense_Processing.c ****                     #if (0u != CapSense_POS_ADAPTIVE_IIR_FILTER_EN)
 196:Generated_Source\PSoC6/CapSense_Processing.c ****                         AdaptiveFilter_Initialize(&ptrWdTouchpad->aiirConfig, &adpContext);
 197:Generated_Source\PSoC6/CapSense_Processing.c ****                         ptrHistory[touchIndex].xPos.posAIIRCoeff = adpContext.coefficient;
 198:Generated_Source\PSoC6/CapSense_Processing.c ****                         ptrHistory[touchIndex].yPos.posAIIRCoeff = adpContext.coefficient;
 199:Generated_Source\PSoC6/CapSense_Processing.c ****                     #endif /* (0u != CapSense_POS_ADAPTIVE_IIR_FILTER_EN) */
 200:Generated_Source\PSoC6/CapSense_Processing.c ****                 }
ARM GAS  C:\Users\Austina\AppData\Local\Temp\ccLgwUrp.s 			page 5


 201:Generated_Source\PSoC6/CapSense_Processing.c ****             #endif /* (0u != CapSense_POSITION_FILTER_EN) */
 202:Generated_Source\PSoC6/CapSense_Processing.c ****         }
 203:Generated_Source\PSoC6/CapSense_Processing.c **** 
 204:Generated_Source\PSoC6/CapSense_Processing.c ****         #if (CapSense_ENABLE == CapSense_CENTROID_3X3_CSD_EN)
 205:Generated_Source\PSoC6/CapSense_Processing.c ****             }
 206:Generated_Source\PSoC6/CapSense_Processing.c ****         #endif
 207:Generated_Source\PSoC6/CapSense_Processing.c ****     #endif
 208:Generated_Source\PSoC6/CapSense_Processing.c **** 
 209:Generated_Source\PSoC6/CapSense_Processing.c ****     #if (CapSense_ENABLE == CapSense_CENTROID_3X3_CSD_EN)
 210:Generated_Source\PSoC6/CapSense_Processing.c ****         if (0u != (ptrFlashWdgt->staticConfig & CapSense_CENTROID_3X3_MASK))
 211:Generated_Source\PSoC6/CapSense_Processing.c ****         {
 212:Generated_Source\PSoC6/CapSense_Processing.c ****             ptrWdTouchpad->posX = CapSense_TOUCHPAD_POS_NONE;
 213:Generated_Source\PSoC6/CapSense_Processing.c ****             ptrWdTouchpad->posY = CapSense_TOUCHPAD_POS_NONE;
 214:Generated_Source\PSoC6/CapSense_Processing.c **** 
 215:Generated_Source\PSoC6/CapSense_Processing.c ****             /* Clear position filter history data if available */
 216:Generated_Source\PSoC6/CapSense_Processing.c ****             #if (0u != CapSense_POSITION_FILTER_EN)
 217:Generated_Source\PSoC6/CapSense_Processing.c ****                 ptrHistory = ptrFlashWdgt->ptr2PosHistory;
 218:Generated_Source\PSoC6/CapSense_Processing.c ****                 CapSense_InitPosFiltersDd(ptrHistory, CapSense_TOUCHPAD_POS_NONE, CapSense_TOUCHPAD
 219:Generated_Source\PSoC6/CapSense_Processing.c **** 
 220:Generated_Source\PSoC6/CapSense_Processing.c ****                 #if (0u != CapSense_POS_ADAPTIVE_IIR_FILTER_EN)
 221:Generated_Source\PSoC6/CapSense_Processing.c ****                     if (NULL != ptrHistory)
 222:Generated_Source\PSoC6/CapSense_Processing.c ****                     {
 223:Generated_Source\PSoC6/CapSense_Processing.c ****                         AdaptiveFilter_Initialize(&ptrWdTouchpad->aiirConfig, &adpContext);
 224:Generated_Source\PSoC6/CapSense_Processing.c ****                         ptrHistory->xPos.posAIIRCoeff = adpContext.coefficient;
 225:Generated_Source\PSoC6/CapSense_Processing.c ****                         ptrHistory->yPos.posAIIRCoeff = adpContext.coefficient;
 226:Generated_Source\PSoC6/CapSense_Processing.c ****                     }
 227:Generated_Source\PSoC6/CapSense_Processing.c ****                 #endif /* (0u != CapSense_POS_ADAPTIVE_IIR_FILTER_EN) */
 228:Generated_Source\PSoC6/CapSense_Processing.c ****             #endif /* (0u != CapSense_POSITION_FILTER_EN) */
 229:Generated_Source\PSoC6/CapSense_Processing.c ****         }
 230:Generated_Source\PSoC6/CapSense_Processing.c ****     #endif
 231:Generated_Source\PSoC6/CapSense_Processing.c **** }
 232:Generated_Source\PSoC6/CapSense_Processing.c **** #endif /* #if (0u != CapSense_CSD_TOUCHPAD_WIDGET_EN) */
 233:Generated_Source\PSoC6/CapSense_Processing.c **** 
 234:Generated_Source\PSoC6/CapSense_Processing.c **** #if (0u != CapSense_CSX_TOUCHPAD_WIDGET_EN)
 235:Generated_Source\PSoC6/CapSense_Processing.c **** /*******************************************************************************
 236:Generated_Source\PSoC6/CapSense_Processing.c **** * Function Name: CapSense_DpInitCsxTouchpad
 237:Generated_Source\PSoC6/CapSense_Processing.c **** ****************************************************************************//**
 238:Generated_Source\PSoC6/CapSense_Processing.c **** *
 239:Generated_Source\PSoC6/CapSense_Processing.c **** * \brief
 240:Generated_Source\PSoC6/CapSense_Processing.c **** *  Performs initialization of the CSX touchpad widget i.e. Resets the position data to NONE.
 241:Generated_Source\PSoC6/CapSense_Processing.c **** *
 242:Generated_Source\PSoC6/CapSense_Processing.c **** * \details
 243:Generated_Source\PSoC6/CapSense_Processing.c **** *  The position data is always reset to the CapSense_TOUCHPAD_POS_NONE value.
 244:Generated_Source\PSoC6/CapSense_Processing.c **** *
 245:Generated_Source\PSoC6/CapSense_Processing.c **** *******************************************************************************/
 246:Generated_Source\PSoC6/CapSense_Processing.c **** __STATIC_INLINE void CapSense_DpInitCsxTouchpad(CapSense_FLASH_WD_STRUCT const * ptrFlashWdgt)
 247:Generated_Source\PSoC6/CapSense_Processing.c **** {
 248:Generated_Source\PSoC6/CapSense_Processing.c ****     CapSense_RAM_WD_CSX_TOUCHPAD_STRUCT *ptrWdTouchpad;
 249:Generated_Source\PSoC6/CapSense_Processing.c **** 
 250:Generated_Source\PSoC6/CapSense_Processing.c ****     #if (0u != CapSense_POSITION_FILTER_EN)
 251:Generated_Source\PSoC6/CapSense_Processing.c ****         uint32 touchIndex;
 252:Generated_Source\PSoC6/CapSense_Processing.c ****         CapSense_TOUCHPAD_POS_HISTORY_STRUCT *ptrHistory;
 253:Generated_Source\PSoC6/CapSense_Processing.c ****     #endif  /* #if (0u != CapSense_POSITION_FILTER_EN) */
 254:Generated_Source\PSoC6/CapSense_Processing.c **** 
 255:Generated_Source\PSoC6/CapSense_Processing.c ****     #if (0u != CapSense_POS_ADAPTIVE_IIR_FILTER_EN)
 256:Generated_Source\PSoC6/CapSense_Processing.c ****         ADAPTIVE_FILTER_CONTEXT_STRUCT adpContext;
 257:Generated_Source\PSoC6/CapSense_Processing.c ****     #endif /* (0u != CapSense_POS_ADAPTIVE_IIR_FILTER_EN) */
ARM GAS  C:\Users\Austina\AppData\Local\Temp\ccLgwUrp.s 			page 6


 258:Generated_Source\PSoC6/CapSense_Processing.c **** 
 259:Generated_Source\PSoC6/CapSense_Processing.c ****     ptrWdTouchpad = ptrFlashWdgt->ptr2WdgtRam;
 260:Generated_Source\PSoC6/CapSense_Processing.c **** 
 261:Generated_Source\PSoC6/CapSense_Processing.c ****     #if (0u != CapSense_POSITION_FILTER_EN)
 262:Generated_Source\PSoC6/CapSense_Processing.c ****         ptrHistory = ptrFlashWdgt->ptr2PosHistory;
 263:Generated_Source\PSoC6/CapSense_Processing.c ****     #endif /* (0u != CapSense_POSITION_FILTER_EN) */
 264:Generated_Source\PSoC6/CapSense_Processing.c **** 
 265:Generated_Source\PSoC6/CapSense_Processing.c ****     /* Reset position data for finger */
 266:Generated_Source\PSoC6/CapSense_Processing.c ****     ptrWdTouchpad->touch[0u].x = CapSense_TOUCHPAD_POS_NONE;
 267:Generated_Source\PSoC6/CapSense_Processing.c ****     ptrWdTouchpad->touch[0u].y = CapSense_TOUCHPAD_POS_NONE;
 268:Generated_Source\PSoC6/CapSense_Processing.c ****     ptrWdTouchpad->touch[0u].z = CY_LO8(CapSense_TOUCHPAD_POS_NONE);
 269:Generated_Source\PSoC6/CapSense_Processing.c **** 
 270:Generated_Source\PSoC6/CapSense_Processing.c ****     #if (CapSense_CSX_MAX_FINGERS > 1u)
 271:Generated_Source\PSoC6/CapSense_Processing.c ****         ptrWdTouchpad->touch[1u].x = CapSense_TOUCHPAD_POS_NONE;
 272:Generated_Source\PSoC6/CapSense_Processing.c ****         ptrWdTouchpad->touch[1u].y = CapSense_TOUCHPAD_POS_NONE;
 273:Generated_Source\PSoC6/CapSense_Processing.c ****         ptrWdTouchpad->touch[1u].z = CY_LO8(CapSense_TOUCHPAD_POS_NONE);
 274:Generated_Source\PSoC6/CapSense_Processing.c ****     #endif /* #if (CapSense_CSX_MAX_FINGERS > 1u) */
 275:Generated_Source\PSoC6/CapSense_Processing.c **** 
 276:Generated_Source\PSoC6/CapSense_Processing.c ****     #if (CapSense_CSX_MAX_FINGERS > 2u)
 277:Generated_Source\PSoC6/CapSense_Processing.c ****         ptrWdTouchpad->touch[2u].x = CapSense_TOUCHPAD_POS_NONE;
 278:Generated_Source\PSoC6/CapSense_Processing.c ****         ptrWdTouchpad->touch[2u].y = CapSense_TOUCHPAD_POS_NONE;
 279:Generated_Source\PSoC6/CapSense_Processing.c ****         ptrWdTouchpad->touch[2u].z = CY_LO8(CapSense_TOUCHPAD_POS_NONE);
 280:Generated_Source\PSoC6/CapSense_Processing.c ****     #endif /* #if (CapSense_CSX_MAX_FINGERS > 2u) */
 281:Generated_Source\PSoC6/CapSense_Processing.c **** 
 282:Generated_Source\PSoC6/CapSense_Processing.c ****     #if (0u != CapSense_POSITION_FILTER_EN)
 283:Generated_Source\PSoC6/CapSense_Processing.c ****         for (touchIndex = 0u; touchIndex < CapSense_CSX_MAX_FINGERS; touchIndex++)
 284:Generated_Source\PSoC6/CapSense_Processing.c ****         {
 285:Generated_Source\PSoC6/CapSense_Processing.c ****             if (NULL != ptrHistory)
 286:Generated_Source\PSoC6/CapSense_Processing.c ****             {
 287:Generated_Source\PSoC6/CapSense_Processing.c ****                 /* Clear position filter history data if available */
 288:Generated_Source\PSoC6/CapSense_Processing.c ****                 CapSense_InitPosFiltersDd(&ptrHistory[touchIndex], CapSense_TOUCHPAD_POS_NONE, CapS
 289:Generated_Source\PSoC6/CapSense_Processing.c ****                 #if (0u != CapSense_POS_ADAPTIVE_IIR_FILTER_EN)
 290:Generated_Source\PSoC6/CapSense_Processing.c ****                     AdaptiveFilter_Initialize(&ptrWdTouchpad->aiirConfig, &adpContext);
 291:Generated_Source\PSoC6/CapSense_Processing.c ****                     ptrHistory[touchIndex].xPos.posAIIRCoeff = adpContext.coefficient;
 292:Generated_Source\PSoC6/CapSense_Processing.c ****                     ptrHistory[touchIndex].yPos.posAIIRCoeff = adpContext.coefficient;
 293:Generated_Source\PSoC6/CapSense_Processing.c ****                 #endif /* (0u != CapSense_POS_ADAPTIVE_IIR_FILTER_EN) */
 294:Generated_Source\PSoC6/CapSense_Processing.c ****             }
 295:Generated_Source\PSoC6/CapSense_Processing.c ****         }
 296:Generated_Source\PSoC6/CapSense_Processing.c ****     #endif /* (0u != CapSense_POSITION_FILTER_EN) */
 297:Generated_Source\PSoC6/CapSense_Processing.c **** }
 298:Generated_Source\PSoC6/CapSense_Processing.c **** #endif /* #if (0u != CapSense_CSX_TOUCHPAD_WIDGET_EN) */
 299:Generated_Source\PSoC6/CapSense_Processing.c **** 
 300:Generated_Source\PSoC6/CapSense_Processing.c **** #if (0u != CapSense_SLIDER_WIDGET_EN)
 301:Generated_Source\PSoC6/CapSense_Processing.c **** /*******************************************************************************
 302:Generated_Source\PSoC6/CapSense_Processing.c **** * Function Name: CapSense_DpInitSlider
 303:Generated_Source\PSoC6/CapSense_Processing.c **** ****************************************************************************//**
 304:Generated_Source\PSoC6/CapSense_Processing.c **** *
 305:Generated_Source\PSoC6/CapSense_Processing.c **** * \brief
 306:Generated_Source\PSoC6/CapSense_Processing.c **** *  Performs initialization of the Radial and Linear Slider widget.
 307:Generated_Source\PSoC6/CapSense_Processing.c **** *   - Resets the position data to NONE
 308:Generated_Source\PSoC6/CapSense_Processing.c **** *   - Initializes the position filter history to NONE if enabled.
 309:Generated_Source\PSoC6/CapSense_Processing.c **** *
 310:Generated_Source\PSoC6/CapSense_Processing.c **** * \details
 311:Generated_Source\PSoC6/CapSense_Processing.c **** *  Position data is always reset to the CapSense_SLIDER_POS_NONE value.
 312:Generated_Source\PSoC6/CapSense_Processing.c **** *  The same happens to the position filter history data if enabled.
 313:Generated_Source\PSoC6/CapSense_Processing.c **** *
 314:Generated_Source\PSoC6/CapSense_Processing.c **** *******************************************************************************/
ARM GAS  C:\Users\Austina\AppData\Local\Temp\ccLgwUrp.s 			page 7


 315:Generated_Source\PSoC6/CapSense_Processing.c **** __STATIC_INLINE void CapSense_DpInitSlider(CapSense_FLASH_WD_STRUCT const * ptrFlashWdgt)
 316:Generated_Source\PSoC6/CapSense_Processing.c **** {
 317:Generated_Source\PSoC6/CapSense_Processing.c ****     uint32 idx;
 318:Generated_Source\PSoC6/CapSense_Processing.c ****     CapSense_RAM_WD_SLIDER_STRUCT *ptrWdSlider;
 319:Generated_Source\PSoC6/CapSense_Processing.c **** 
 320:Generated_Source\PSoC6/CapSense_Processing.c ****     #if (0u != CapSense_POSITION_FILTER_EN)
 321:Generated_Source\PSoC6/CapSense_Processing.c ****         CapSense_SLIDER_POS_HISTORY_STRUCT *ptrHistory;
 322:Generated_Source\PSoC6/CapSense_Processing.c ****     #endif /* #if (0u != CapSense_POSITION_FILTER_EN) */
 323:Generated_Source\PSoC6/CapSense_Processing.c **** 
 324:Generated_Source\PSoC6/CapSense_Processing.c ****     #if (0u != CapSense_POS_ADAPTIVE_IIR_FILTER_EN)
 325:Generated_Source\PSoC6/CapSense_Processing.c ****         ADAPTIVE_FILTER_CONTEXT_STRUCT context;
 326:Generated_Source\PSoC6/CapSense_Processing.c ****     #endif /* (0u != CapSense_POS_ADAPTIVE_IIR_FILTER_EN) */
 327:Generated_Source\PSoC6/CapSense_Processing.c **** 
 328:Generated_Source\PSoC6/CapSense_Processing.c ****     ptrWdSlider = ptrFlashWdgt->ptr2WdgtRam;
 329:Generated_Source\PSoC6/CapSense_Processing.c **** 
 330:Generated_Source\PSoC6/CapSense_Processing.c ****     /* Reset slider position data to NONE */
 331:Generated_Source\PSoC6/CapSense_Processing.c ****     for (idx = 0u; idx < CapSense_NUM_CENTROIDS; idx++)
 332:Generated_Source\PSoC6/CapSense_Processing.c ****     {
 333:Generated_Source\PSoC6/CapSense_Processing.c ****         ptrWdSlider->position[idx] = CapSense_SLIDER_POS_NONE;
 334:Generated_Source\PSoC6/CapSense_Processing.c **** 
 335:Generated_Source\PSoC6/CapSense_Processing.c ****         #if (0u != CapSense_POSITION_FILTER_EN)
 336:Generated_Source\PSoC6/CapSense_Processing.c ****             ptrHistory = ptrFlashWdgt->ptr2PosHistory;
 337:Generated_Source\PSoC6/CapSense_Processing.c ****             if (NULL != ptrHistory)
 338:Generated_Source\PSoC6/CapSense_Processing.c ****             {
 339:Generated_Source\PSoC6/CapSense_Processing.c ****                 CapSense_InitPosFiltersSd(&ptrHistory[idx], CapSense_SLIDER_POS_NONE);
 340:Generated_Source\PSoC6/CapSense_Processing.c ****                 #if (0u != CapSense_POS_ADAPTIVE_IIR_FILTER_EN)
 341:Generated_Source\PSoC6/CapSense_Processing.c ****                     AdaptiveFilter_Initialize(&ptrWdSlider->aiirConfig, &context);
 342:Generated_Source\PSoC6/CapSense_Processing.c ****                     ptrHistory->posAIIRCoeff = context.coefficient;
 343:Generated_Source\PSoC6/CapSense_Processing.c ****                 #endif /* (0u != CapSense_POS_ADAPTIVE_IIR_FILTER_EN) */
 344:Generated_Source\PSoC6/CapSense_Processing.c ****             }
 345:Generated_Source\PSoC6/CapSense_Processing.c **** 
 346:Generated_Source\PSoC6/CapSense_Processing.c ****         #endif /* #if (0u != CapSense_POSITION_FILTER_EN) */
 347:Generated_Source\PSoC6/CapSense_Processing.c ****     }
 348:Generated_Source\PSoC6/CapSense_Processing.c **** }
 349:Generated_Source\PSoC6/CapSense_Processing.c **** #endif /* #if (0u != CapSense_SLIDER_WIDGET_EN) */
 350:Generated_Source\PSoC6/CapSense_Processing.c **** 
 351:Generated_Source\PSoC6/CapSense_Processing.c **** #if (0u != CapSense_CSD_MATRIX_WIDGET_EN)
 352:Generated_Source\PSoC6/CapSense_Processing.c **** /*******************************************************************************
 353:Generated_Source\PSoC6/CapSense_Processing.c **** * Function Name: CapSense_DpInitCsdMatrix
 354:Generated_Source\PSoC6/CapSense_Processing.c **** ****************************************************************************//**
 355:Generated_Source\PSoC6/CapSense_Processing.c **** *
 356:Generated_Source\PSoC6/CapSense_Processing.c **** * \brief
 357:Generated_Source\PSoC6/CapSense_Processing.c **** *  Performs initialization of the CSD Matrix Buttons widget.
 358:Generated_Source\PSoC6/CapSense_Processing.c **** *   - Resets the active button position data to NONE.
 359:Generated_Source\PSoC6/CapSense_Processing.c **** *
 360:Generated_Source\PSoC6/CapSense_Processing.c **** * \details
 361:Generated_Source\PSoC6/CapSense_Processing.c **** *  Position data is always reset to the CapSense_MATRIX_POS_NONE value.
 362:Generated_Source\PSoC6/CapSense_Processing.c **** *
 363:Generated_Source\PSoC6/CapSense_Processing.c **** *******************************************************************************/
 364:Generated_Source\PSoC6/CapSense_Processing.c **** __STATIC_INLINE void CapSense_DpInitCsdMatrix(CapSense_FLASH_WD_STRUCT const * ptrFlashWdgt)
 365:Generated_Source\PSoC6/CapSense_Processing.c **** {
 366:Generated_Source\PSoC6/CapSense_Processing.c ****     CapSense_RAM_WD_CSD_MATRIX_STRUCT *ptrRamWdgt;
 367:Generated_Source\PSoC6/CapSense_Processing.c **** 
 368:Generated_Source\PSoC6/CapSense_Processing.c ****     ptrRamWdgt = (CapSense_RAM_WD_CSD_MATRIX_STRUCT *)ptrFlashWdgt->ptr2WdgtRam;
 369:Generated_Source\PSoC6/CapSense_Processing.c **** 
 370:Generated_Source\PSoC6/CapSense_Processing.c ****     /* Reset sensor id, row and col registers in data structure */
 371:Generated_Source\PSoC6/CapSense_Processing.c ****     ptrRamWdgt->posRow   = CapSense_MATRIX_POS_NONE;
ARM GAS  C:\Users\Austina\AppData\Local\Temp\ccLgwUrp.s 			page 8


 372:Generated_Source\PSoC6/CapSense_Processing.c ****     ptrRamWdgt->posCol   = CapSense_MATRIX_POS_NONE;
 373:Generated_Source\PSoC6/CapSense_Processing.c ****     ptrRamWdgt->posSnsId = CapSense_MATRIX_POS_NONE;
 374:Generated_Source\PSoC6/CapSense_Processing.c **** }
 375:Generated_Source\PSoC6/CapSense_Processing.c **** #endif /* #if (0u != CapSense_CSD_MATRIX_WIDGET_EN) */
 376:Generated_Source\PSoC6/CapSense_Processing.c **** 
 377:Generated_Source\PSoC6/CapSense_Processing.c **** /*******************************************************************************
 378:Generated_Source\PSoC6/CapSense_Processing.c **** * Function Name: CapSense_DpInitialize
 379:Generated_Source\PSoC6/CapSense_Processing.c **** ****************************************************************************//**
 380:Generated_Source\PSoC6/CapSense_Processing.c **** *
 381:Generated_Source\PSoC6/CapSense_Processing.c **** * \brief
 382:Generated_Source\PSoC6/CapSense_Processing.c **** *  Performs initialization of the data processing FW module:
 383:Generated_Source\PSoC6/CapSense_Processing.c **** *   - Resets the de-bounce counters of all the widgets
 384:Generated_Source\PSoC6/CapSense_Processing.c **** *   - Resets the position filter history for slider and touchpad widgets
 385:Generated_Source\PSoC6/CapSense_Processing.c **** *   - Clears widget and sensor statuses
 386:Generated_Source\PSoC6/CapSense_Processing.c **** *   - Enables all the widgets.
 387:Generated_Source\PSoC6/CapSense_Processing.c **** *
 388:Generated_Source\PSoC6/CapSense_Processing.c **** * \details
 389:Generated_Source\PSoC6/CapSense_Processing.c **** *  The Button and Matrix Button widgets have individual de-bounce counter per
 390:Generated_Source\PSoC6/CapSense_Processing.c **** *  sensor for the CSD widgets and per node for the CSX widgets.
 391:Generated_Source\PSoC6/CapSense_Processing.c **** *
 392:Generated_Source\PSoC6/CapSense_Processing.c **** *  The Slider and Touchpad widgets have a single de-bounce counter per widget.
 393:Generated_Source\PSoC6/CapSense_Processing.c **** *
 394:Generated_Source\PSoC6/CapSense_Processing.c **** *  The Proximity widget has two de-bounce counters per sensor. One for the
 395:Generated_Source\PSoC6/CapSense_Processing.c **** *  proximity event and second for the touch event.
 396:Generated_Source\PSoC6/CapSense_Processing.c **** *
 397:Generated_Source\PSoC6/CapSense_Processing.c **** *  All debounce counters during initialization are set to the value of the
 398:Generated_Source\PSoC6/CapSense_Processing.c **** *  onDebounce widget parameter.
 399:Generated_Source\PSoC6/CapSense_Processing.c **** *
 400:Generated_Source\PSoC6/CapSense_Processing.c **** *******************************************************************************/
 401:Generated_Source\PSoC6/CapSense_Processing.c **** void CapSense_DpInitialize(void)
 402:Generated_Source\PSoC6/CapSense_Processing.c **** {
  29              		.loc 1 402 0
  30              		.cfi_startproc
  31              		@ args = 0, pretend = 0, frame = 0
  32              		@ frame_needed = 0, uses_anonymous_args = 0
  33 0000 70B5     		push	{r4, r5, r6, lr}
  34              		.cfi_def_cfa_offset 16
  35              		.cfi_offset 4, -16
  36              		.cfi_offset 5, -12
  37              		.cfi_offset 6, -8
  38              		.cfi_offset 14, -4
  39              	.LVL0:
 403:Generated_Source\PSoC6/CapSense_Processing.c ****     uint32 wdgtId;
 404:Generated_Source\PSoC6/CapSense_Processing.c ****     CapSense_WD_TYPE_ENUM widgetType;
 405:Generated_Source\PSoC6/CapSense_Processing.c ****     CapSense_RAM_WD_BASE_STRUCT * ptrRamWdgt;
 406:Generated_Source\PSoC6/CapSense_Processing.c ****     CapSense_FLASH_WD_STRUCT const * ptrFlashWdgt;
 407:Generated_Source\PSoC6/CapSense_Processing.c **** 
 408:Generated_Source\PSoC6/CapSense_Processing.c ****     for (wdgtId = 0u; wdgtId < CapSense_WDGT_STATUS_WORDS; wdgtId++)
  40              		.loc 1 408 0
  41 0002 0023     		movs	r3, #0
  42 0004 0AE0     		b	.L2
  43              	.LVL1:
  44              	.L3:
 409:Generated_Source\PSoC6/CapSense_Processing.c ****     {
 410:Generated_Source\PSoC6/CapSense_Processing.c ****         /* Clear widget status */
 411:Generated_Source\PSoC6/CapSense_Processing.c ****         CapSense_dsRam.wdgtStatus[wdgtId] = 0u;
  45              		.loc 1 411 0 discriminator 3
ARM GAS  C:\Users\Austina\AppData\Local\Temp\ccLgwUrp.s 			page 9


  46 0006 204A     		ldr	r2, .L15
  47 0008 191D     		adds	r1, r3, #4
  48 000a 02EB8100 		add	r0, r2, r1, lsl #2
  49 000e 0024     		movs	r4, #0
  50 0010 4460     		str	r4, [r0, #4]
 412:Generated_Source\PSoC6/CapSense_Processing.c **** 
 413:Generated_Source\PSoC6/CapSense_Processing.c ****         /* Enable all the widgets */
 414:Generated_Source\PSoC6/CapSense_Processing.c ****         CapSense_dsRam.wdgtEnable[wdgtId] = 0xFFFFFFFFLu;
  51              		.loc 1 414 0 discriminator 3
  52 0012 4FF0FF30 		mov	r0, #-1
  53 0016 42F82100 		str	r0, [r2, r1, lsl #2]
 408:Generated_Source\PSoC6/CapSense_Processing.c ****     {
  54              		.loc 1 408 0 discriminator 3
  55 001a 0133     		adds	r3, r3, #1
  56              	.LVL2:
  57              	.L2:
 408:Generated_Source\PSoC6/CapSense_Processing.c ****     {
  58              		.loc 1 408 0 is_stmt 0 discriminator 1
  59 001c 002B     		cmp	r3, #0
  60 001e F2D0     		beq	.L3
  61 0020 1A4C     		ldr	r4, .L15+4
  62 0022 0323     		movs	r3, #3
  63              	.LVL3:
  64 0024 2CE0     		b	.L4
  65              	.LVL4:
  66              	.L13:
 415:Generated_Source\PSoC6/CapSense_Processing.c **** 
 416:Generated_Source\PSoC6/CapSense_Processing.c ****         /* Set all the widgets to working state if the Self-Test is not enabled */
 417:Generated_Source\PSoC6/CapSense_Processing.c ****         #if (0u != CapSense_SELF_TEST_EN)
 418:Generated_Source\PSoC6/CapSense_Processing.c ****             CapSense_dsRam.wdgtWorking[wdgtId] = 0xFFFFFFFFLu;
 419:Generated_Source\PSoC6/CapSense_Processing.c ****         #endif /* #if (0u == CapSense_SELF_TEST_EN) */
 420:Generated_Source\PSoC6/CapSense_Processing.c ****     }
 421:Generated_Source\PSoC6/CapSense_Processing.c **** 
 422:Generated_Source\PSoC6/CapSense_Processing.c ****     ptrFlashWdgt = CapSense_dsFlash.wdgtArray;
 423:Generated_Source\PSoC6/CapSense_Processing.c **** 
 424:Generated_Source\PSoC6/CapSense_Processing.c ****     for (wdgtId = CapSense_TOTAL_WIDGETS; wdgtId-- > 0u; )
 425:Generated_Source\PSoC6/CapSense_Processing.c ****     {
 426:Generated_Source\PSoC6/CapSense_Processing.c ****         ptrRamWdgt = (CapSense_RAM_WD_BASE_STRUCT *)ptrFlashWdgt->ptr2WdgtRam;
  67              		.loc 1 426 0 is_stmt 1
  68 0026 6668     		ldr	r6, [r4, #4]
  69              	.LVL5:
 427:Generated_Source\PSoC6/CapSense_Processing.c ****         widgetType = (CapSense_WD_TYPE_ENUM)ptrFlashWdgt->wdgtType;
  70              		.loc 1 427 0
  71 0028 A37E     		ldrb	r3, [r4, #26]	@ zero_extendqisi2
  72              	.LVL6:
 428:Generated_Source\PSoC6/CapSense_Processing.c **** 
 429:Generated_Source\PSoC6/CapSense_Processing.c ****         /* Clear all sensor statuses */
 430:Generated_Source\PSoC6/CapSense_Processing.c ****         CapSense_dsRam.snsStatus[wdgtId] = 0u;
  73              		.loc 1 430 0
  74 002a 174A     		ldr	r2, .L15
  75 002c 2A44     		add	r2, r2, r5
  76 002e 0021     		movs	r1, #0
  77 0030 1176     		strb	r1, [r2, #24]
 431:Generated_Source\PSoC6/CapSense_Processing.c **** 
 432:Generated_Source\PSoC6/CapSense_Processing.c ****         /* Reset de-bounce counters */
 433:Generated_Source\PSoC6/CapSense_Processing.c ****         switch (widgetType)
  78              		.loc 1 433 0
ARM GAS  C:\Users\Austina\AppData\Local\Temp\ccLgwUrp.s 			page 10


  79 0032 013B     		subs	r3, r3, #1
  80              	.LVL7:
  81 0034 042B     		cmp	r3, #4
  82 0036 21D8     		bhi	.L5
  83 0038 DFE803F0 		tbb	[pc, r3]
  84              	.L7:
  85 003c 03       		.byte	(.L6-.L7)/2
  86 003d 0A       		.byte	(.L8-.L7)/2
  87 003e 0A       		.byte	(.L8-.L7)/2
  88 003f 20       		.byte	(.L5-.L7)/2
  89 0040 1C       		.byte	(.L9-.L7)/2
  90 0041 00       		.p2align 1
  91              	.L6:
 434:Generated_Source\PSoC6/CapSense_Processing.c ****         {
 435:Generated_Source\PSoC6/CapSense_Processing.c ****         #if (0u != CapSense_MATRIX_WIDGET_EN)
 436:Generated_Source\PSoC6/CapSense_Processing.c ****             case CapSense_WD_MATRIX_BUTTON_E:
 437:Generated_Source\PSoC6/CapSense_Processing.c ****                 #if (0u != CapSense_CSD_MATRIX_WIDGET_EN)
 438:Generated_Source\PSoC6/CapSense_Processing.c ****                     if (CapSense_SENSE_METHOD_CSD_E == CapSense_GET_SENSE_METHOD(ptrFlashWdgt))
 439:Generated_Source\PSoC6/CapSense_Processing.c ****                     {
 440:Generated_Source\PSoC6/CapSense_Processing.c ****                         CapSense_DpInitCsdMatrix(ptrFlashWdgt);
 441:Generated_Source\PSoC6/CapSense_Processing.c ****                     }
 442:Generated_Source\PSoC6/CapSense_Processing.c ****                 #endif /* #if (0u != CapSense_CSD_MATRIX_WIDGET_EN) */
 443:Generated_Source\PSoC6/CapSense_Processing.c **** 
 444:Generated_Source\PSoC6/CapSense_Processing.c ****                 if (NULL != ptrFlashWdgt->ptr2DebounceArr)
 445:Generated_Source\PSoC6/CapSense_Processing.c ****                 {
 446:Generated_Source\PSoC6/CapSense_Processing.c ****                     /* Initialize array of debounce counters */
 447:Generated_Source\PSoC6/CapSense_Processing.c ****                     (void)memset(ptrFlashWdgt->ptr2DebounceArr,
 448:Generated_Source\PSoC6/CapSense_Processing.c ****                                  (int32)ptrRamWdgt->onDebounce,
 449:Generated_Source\PSoC6/CapSense_Processing.c ****                                  (size_t)ptrFlashWdgt->totalNumSns);
 450:Generated_Source\PSoC6/CapSense_Processing.c ****                 }
 451:Generated_Source\PSoC6/CapSense_Processing.c ****                 break;
 452:Generated_Source\PSoC6/CapSense_Processing.c ****         #endif /* #if (0u != CapSense_MATRIX_WIDGET_EN) */
 453:Generated_Source\PSoC6/CapSense_Processing.c **** 
 454:Generated_Source\PSoC6/CapSense_Processing.c ****         #if (0u != CapSense_BUTTON_WIDGET_EN)
 455:Generated_Source\PSoC6/CapSense_Processing.c ****             case CapSense_WD_BUTTON_E:
 456:Generated_Source\PSoC6/CapSense_Processing.c ****                 if (NULL != ptrFlashWdgt->ptr2DebounceArr)
  92              		.loc 1 456 0
  93 0042 2069     		ldr	r0, [r4, #16]
  94 0044 D0B1     		cbz	r0, .L5
 457:Generated_Source\PSoC6/CapSense_Processing.c ****                 {
 458:Generated_Source\PSoC6/CapSense_Processing.c ****                     /* Initialize array of debounce counters */
 459:Generated_Source\PSoC6/CapSense_Processing.c ****                     (void)memset(ptrFlashWdgt->ptr2DebounceArr,
  95              		.loc 1 459 0
  96 0046 228B     		ldrh	r2, [r4, #24]
  97 0048 F179     		ldrb	r1, [r6, #7]	@ zero_extendqisi2
  98 004a FFF7FEFF 		bl	memset
  99              	.LVL8:
 100 004e 15E0     		b	.L5
 101              	.LVL9:
 102              	.L8:
 460:Generated_Source\PSoC6/CapSense_Processing.c ****                                  (int32)ptrRamWdgt->onDebounce,
 461:Generated_Source\PSoC6/CapSense_Processing.c ****                                  (size_t)ptrFlashWdgt->totalNumSns);
 462:Generated_Source\PSoC6/CapSense_Processing.c ****                 }
 463:Generated_Source\PSoC6/CapSense_Processing.c ****                 break;
 464:Generated_Source\PSoC6/CapSense_Processing.c ****         #endif /* #if (0u != CapSense_BUTTON_WIDGET_EN) */
 465:Generated_Source\PSoC6/CapSense_Processing.c **** 
 466:Generated_Source\PSoC6/CapSense_Processing.c ****         #if (0u != CapSense_SLIDER_WIDGET_EN)
ARM GAS  C:\Users\Austina\AppData\Local\Temp\ccLgwUrp.s 			page 11


 467:Generated_Source\PSoC6/CapSense_Processing.c ****             case CapSense_WD_LINEAR_SLIDER_E:
 468:Generated_Source\PSoC6/CapSense_Processing.c ****             case CapSense_WD_RADIAL_SLIDER_E:
 469:Generated_Source\PSoC6/CapSense_Processing.c ****                 if (NULL != ptrFlashWdgt->ptr2DebounceArr)
 103              		.loc 1 469 0
 104 0050 2369     		ldr	r3, [r4, #16]
 105              	.LVL10:
 106 0052 0BB1     		cbz	r3, .L10
 470:Generated_Source\PSoC6/CapSense_Processing.c ****                 {
 471:Generated_Source\PSoC6/CapSense_Processing.c ****                     /* Initialize single debounce counter of slider */
 472:Generated_Source\PSoC6/CapSense_Processing.c ****                     *(uint8 *)(ptrFlashWdgt->ptr2DebounceArr) = ptrRamWdgt->onDebounce;
 107              		.loc 1 472 0
 108 0054 F279     		ldrb	r2, [r6, #7]	@ zero_extendqisi2
 109 0056 1A70     		strb	r2, [r3]
 110              	.L10:
 111              	.LVL11:
 112              	.LBB6:
 113              	.LBB7:
 328:Generated_Source\PSoC6/CapSense_Processing.c **** 
 114              		.loc 1 328 0
 115 0058 6168     		ldr	r1, [r4, #4]
 116              	.LVL12:
 331:Generated_Source\PSoC6/CapSense_Processing.c ****     {
 117              		.loc 1 331 0
 118 005a 0023     		movs	r3, #0
 119 005c 07E0     		b	.L11
 120              	.LVL13:
 121              	.L12:
 333:Generated_Source\PSoC6/CapSense_Processing.c **** 
 122              		.loc 1 333 0
 123 005e 03F10802 		add	r2, r3, #8
 124 0062 01EB4202 		add	r2, r1, r2, lsl #1
 125 0066 4FF6FF70 		movw	r0, #65535
 126 006a 9080     		strh	r0, [r2, #4]	@ movhi
 331:Generated_Source\PSoC6/CapSense_Processing.c ****     {
 127              		.loc 1 331 0
 128 006c 0133     		adds	r3, r3, #1
 129              	.LVL14:
 130              	.L11:
 131 006e 002B     		cmp	r3, #0
 132 0070 F5D0     		beq	.L12
 133 0072 03E0     		b	.L5
 134              	.LVL15:
 135              	.L9:
 136              	.LBE7:
 137              	.LBE6:
 473:Generated_Source\PSoC6/CapSense_Processing.c ****                 }
 474:Generated_Source\PSoC6/CapSense_Processing.c **** 
 475:Generated_Source\PSoC6/CapSense_Processing.c ****                 CapSense_DpInitSlider(ptrFlashWdgt);
 476:Generated_Source\PSoC6/CapSense_Processing.c **** 
 477:Generated_Source\PSoC6/CapSense_Processing.c ****                 break;
 478:Generated_Source\PSoC6/CapSense_Processing.c ****         #endif /* #if (0u != CapSense_SLIDER_WIDGET_EN) */
 479:Generated_Source\PSoC6/CapSense_Processing.c **** 
 480:Generated_Source\PSoC6/CapSense_Processing.c ****         #if (0u != CapSense_TOUCHPAD_WIDGET_EN)
 481:Generated_Source\PSoC6/CapSense_Processing.c ****             case CapSense_WD_TOUCHPAD_E:
 482:Generated_Source\PSoC6/CapSense_Processing.c ****                 if (NULL != ptrFlashWdgt->ptr2DebounceArr)
 138              		.loc 1 482 0
 139 0074 2369     		ldr	r3, [r4, #16]
ARM GAS  C:\Users\Austina\AppData\Local\Temp\ccLgwUrp.s 			page 12


 140              	.LVL16:
 141 0076 0BB1     		cbz	r3, .L5
 483:Generated_Source\PSoC6/CapSense_Processing.c ****                 {
 484:Generated_Source\PSoC6/CapSense_Processing.c ****                     /* Initialize single debounce counter of touchpad */
 485:Generated_Source\PSoC6/CapSense_Processing.c ****                     *(uint8 *)(ptrFlashWdgt->ptr2DebounceArr) = ptrRamWdgt->onDebounce;
 142              		.loc 1 485 0
 143 0078 F279     		ldrb	r2, [r6, #7]	@ zero_extendqisi2
 144 007a 1A70     		strb	r2, [r3]
 145              	.L5:
 486:Generated_Source\PSoC6/CapSense_Processing.c ****                 }
 487:Generated_Source\PSoC6/CapSense_Processing.c **** 
 488:Generated_Source\PSoC6/CapSense_Processing.c ****                 #if (0u != CapSense_CSD_TOUCHPAD_WIDGET_EN)
 489:Generated_Source\PSoC6/CapSense_Processing.c ****                     if (CapSense_SENSE_METHOD_CSD_E == CapSense_GET_SENSE_METHOD(ptrFlashWdgt))
 490:Generated_Source\PSoC6/CapSense_Processing.c ****                     {
 491:Generated_Source\PSoC6/CapSense_Processing.c ****                         CapSense_DpInitCsdTouchpad(ptrFlashWdgt);
 492:Generated_Source\PSoC6/CapSense_Processing.c ****                     }
 493:Generated_Source\PSoC6/CapSense_Processing.c ****                 #endif /* #if (0u != CapSense_CSD_TOUCHPAD_WIDGET_EN) */
 494:Generated_Source\PSoC6/CapSense_Processing.c **** 
 495:Generated_Source\PSoC6/CapSense_Processing.c ****                 #if (0u != CapSense_CSX_TOUCHPAD_WIDGET_EN)
 496:Generated_Source\PSoC6/CapSense_Processing.c ****                     if (CapSense_SENSE_METHOD_CSX_E == CapSense_GET_SENSE_METHOD(ptrFlashWdgt))
 497:Generated_Source\PSoC6/CapSense_Processing.c ****                     {
 498:Generated_Source\PSoC6/CapSense_Processing.c ****                         CapSense_DpInitCsxTouchpad(ptrFlashWdgt);
 499:Generated_Source\PSoC6/CapSense_Processing.c ****                     }
 500:Generated_Source\PSoC6/CapSense_Processing.c ****                 #endif /* #if (0u != CapSense_CSX_TOUCHPAD_WIDGET_EN) */
 501:Generated_Source\PSoC6/CapSense_Processing.c **** 
 502:Generated_Source\PSoC6/CapSense_Processing.c ****                 break;
 503:Generated_Source\PSoC6/CapSense_Processing.c ****         #endif /* #if (0u != CapSense_TOUCHPAD_WIDGET_EN) */
 504:Generated_Source\PSoC6/CapSense_Processing.c **** 
 505:Generated_Source\PSoC6/CapSense_Processing.c ****         #if (0u != CapSense_PROXIMITY_WIDGET_EN)
 506:Generated_Source\PSoC6/CapSense_Processing.c ****             case CapSense_WD_PROXIMITY_E:
 507:Generated_Source\PSoC6/CapSense_Processing.c ****                 if (NULL != ptrFlashWdgt->ptr2DebounceArr)
 508:Generated_Source\PSoC6/CapSense_Processing.c ****                 {
 509:Generated_Source\PSoC6/CapSense_Processing.c ****                     /* Proximity widgets have 2 de-bounce counters per sensor.
 510:Generated_Source\PSoC6/CapSense_Processing.c ****                      * Therefore the number of sensors is multiplied by 2.
 511:Generated_Source\PSoC6/CapSense_Processing.c ****                      */
 512:Generated_Source\PSoC6/CapSense_Processing.c ****                    (void)memset(ptrFlashWdgt->ptr2DebounceArr,
 513:Generated_Source\PSoC6/CapSense_Processing.c ****                                 (int32)ptrRamWdgt->onDebounce,
 514:Generated_Source\PSoC6/CapSense_Processing.c ****                                 (size_t)ptrFlashWdgt->totalNumSns * 2u);
 515:Generated_Source\PSoC6/CapSense_Processing.c ****                 }
 516:Generated_Source\PSoC6/CapSense_Processing.c ****                 break;
 517:Generated_Source\PSoC6/CapSense_Processing.c ****         #endif /* #if (0u != CapSense_PROXIMITY_WIDGET_EN) */
 518:Generated_Source\PSoC6/CapSense_Processing.c **** 
 519:Generated_Source\PSoC6/CapSense_Processing.c ****             default:
 520:Generated_Source\PSoC6/CapSense_Processing.c ****                 break;
 521:Generated_Source\PSoC6/CapSense_Processing.c ****         }
 522:Generated_Source\PSoC6/CapSense_Processing.c **** 
 523:Generated_Source\PSoC6/CapSense_Processing.c ****         /* Move to next widget */
 524:Generated_Source\PSoC6/CapSense_Processing.c ****         ptrFlashWdgt++;
 146              		.loc 1 524 0
 147 007c 2C34     		adds	r4, r4, #44
 148              	.LVL17:
 424:Generated_Source\PSoC6/CapSense_Processing.c ****     {
 149              		.loc 1 424 0
 150 007e 2B46     		mov	r3, r5
 151              	.LVL18:
 152              	.L4:
 424:Generated_Source\PSoC6/CapSense_Processing.c ****     {
ARM GAS  C:\Users\Austina\AppData\Local\Temp\ccLgwUrp.s 			page 13


 153              		.loc 1 424 0 is_stmt 0 discriminator 1
 154 0080 5D1E     		subs	r5, r3, #1
 155              	.LVL19:
 156 0082 002B     		cmp	r3, #0
 157 0084 CFD1     		bne	.L13
 525:Generated_Source\PSoC6/CapSense_Processing.c ****     }
 526:Generated_Source\PSoC6/CapSense_Processing.c **** }
 158              		.loc 1 526 0 is_stmt 1
 159 0086 70BD     		pop	{r4, r5, r6, pc}
 160              	.LVL20:
 161              	.L16:
 162              		.align	2
 163              	.L15:
 164 0088 00000000 		.word	CapSense_dsRam
 165 008c 00000000 		.word	CapSense_dsFlash
 166              		.cfi_endproc
 167              	.LFE126:
 168              		.size	CapSense_DpInitialize, .-CapSense_DpInitialize
 169              		.section	.text.CapSense_DpUpdateThresholds,"ax",%progbits
 170              		.align	2
 171              		.global	CapSense_DpUpdateThresholds
 172              		.thumb
 173              		.thumb_func
 174              		.type	CapSense_DpUpdateThresholds, %function
 175              	CapSense_DpUpdateThresholds:
 176              	.LFB133:
 527:Generated_Source\PSoC6/CapSense_Processing.c **** 
 528:Generated_Source\PSoC6/CapSense_Processing.c **** #if (0u != CapSense_TOTAL_CSX_WIDGETS)
 529:Generated_Source\PSoC6/CapSense_Processing.c **** /*******************************************************************************
 530:Generated_Source\PSoC6/CapSense_Processing.c **** * Function Name: CapSense_DpProcessCsxWidgetRawCounts
 531:Generated_Source\PSoC6/CapSense_Processing.c **** ****************************************************************************//**
 532:Generated_Source\PSoC6/CapSense_Processing.c **** *
 533:Generated_Source\PSoC6/CapSense_Processing.c **** * \brief
 534:Generated_Source\PSoC6/CapSense_Processing.c **** *  Performs default processing of the CSX raw counts.
 535:Generated_Source\PSoC6/CapSense_Processing.c **** *
 536:Generated_Source\PSoC6/CapSense_Processing.c **** * \details
 537:Generated_Source\PSoC6/CapSense_Processing.c **** *  Performs default processing of the CSX raw counts:
 538:Generated_Source\PSoC6/CapSense_Processing.c **** *   - Run Filters
 539:Generated_Source\PSoC6/CapSense_Processing.c **** *   - Update Baselines
 540:Generated_Source\PSoC6/CapSense_Processing.c **** *   - Update Differences
 541:Generated_Source\PSoC6/CapSense_Processing.c **** *   - Update Status.
 542:Generated_Source\PSoC6/CapSense_Processing.c **** *  The same process is applied to all the sensors of the specified widget.
 543:Generated_Source\PSoC6/CapSense_Processing.c **** *
 544:Generated_Source\PSoC6/CapSense_Processing.c **** * \param ptrFlashWdgt The pointer to the Flash widget structure.
 545:Generated_Source\PSoC6/CapSense_Processing.c **** *
 546:Generated_Source\PSoC6/CapSense_Processing.c **** * \return
 547:Generated_Source\PSoC6/CapSense_Processing.c **** *  Returns the status of the specified widget processing operation:
 548:Generated_Source\PSoC6/CapSense_Processing.c **** *  - CY_RET_SUCCESS if operation was successfully completed;
 549:Generated_Source\PSoC6/CapSense_Processing.c **** *  - CapSense_PROCESS_BASELINE_FAILED if baseline processing of any
 550:Generated_Source\PSoC6/CapSense_Processing.c **** *    sensor of the specified widget failed. The result is concatenated with the index
 551:Generated_Source\PSoC6/CapSense_Processing.c **** *    of failed sensor.
 552:Generated_Source\PSoC6/CapSense_Processing.c **** *
 553:Generated_Source\PSoC6/CapSense_Processing.c **** *******************************************************************************/
 554:Generated_Source\PSoC6/CapSense_Processing.c **** uint32 CapSense_DpProcessCsxWidgetRawCounts(CapSense_FLASH_WD_STRUCT const *ptrFlashWdgt)
 555:Generated_Source\PSoC6/CapSense_Processing.c **** {
 556:Generated_Source\PSoC6/CapSense_Processing.c ****     uint32 result = CY_RET_SUCCESS;
 557:Generated_Source\PSoC6/CapSense_Processing.c ****     uint32 widgetType;
ARM GAS  C:\Users\Austina\AppData\Local\Temp\ccLgwUrp.s 			page 14


 558:Generated_Source\PSoC6/CapSense_Processing.c ****     uint32 snsCount;
 559:Generated_Source\PSoC6/CapSense_Processing.c ****     CapSense_RAM_SNS_STRUCT *ptrSnsTmp;
 560:Generated_Source\PSoC6/CapSense_Processing.c ****     CapSense_RAM_WD_BASE_STRUCT *ptrRamWdgt;
 561:Generated_Source\PSoC6/CapSense_Processing.c **** 
 562:Generated_Source\PSoC6/CapSense_Processing.c ****     #if (CapSense_ENABLE == CapSense_RC_FILTER_EN)
 563:Generated_Source\PSoC6/CapSense_Processing.c ****         CapSense_PTR_FILTER_VARIANT fltrHistV;
 564:Generated_Source\PSoC6/CapSense_Processing.c **** 
 565:Generated_Source\PSoC6/CapSense_Processing.c ****         fltrHistV.ptr = ptrFlashWdgt->ptr2FltrHistory;
 566:Generated_Source\PSoC6/CapSense_Processing.c ****     #endif /* #if (CapSense_ENABLE == CapSense_RC_FILTER_EN) */
 567:Generated_Source\PSoC6/CapSense_Processing.c **** 
 568:Generated_Source\PSoC6/CapSense_Processing.c ****     ptrSnsTmp = ptrFlashWdgt->ptr2SnsRam;
 569:Generated_Source\PSoC6/CapSense_Processing.c ****     snsCount = ptrFlashWdgt->totalNumSns;
 570:Generated_Source\PSoC6/CapSense_Processing.c ****     ptrRamWdgt = (CapSense_RAM_WD_BASE_STRUCT *)ptrFlashWdgt->ptr2WdgtRam;
 571:Generated_Source\PSoC6/CapSense_Processing.c ****     widgetType = ptrFlashWdgt->wdgtType;
 572:Generated_Source\PSoC6/CapSense_Processing.c **** 
 573:Generated_Source\PSoC6/CapSense_Processing.c ****     /* Run deconvolution algorithm for the widgets with multiphase TX support */
 574:Generated_Source\PSoC6/CapSense_Processing.c ****     #if (0u != CapSense_CSX_MULTIPHASE_TX_EN)
 575:Generated_Source\PSoC6/CapSense_Processing.c ****         if (0u != (ptrFlashWdgt->staticConfig & CapSense_MULTIPHASE_TX_MASK))
 576:Generated_Source\PSoC6/CapSense_Processing.c ****         {
 577:Generated_Source\PSoC6/CapSense_Processing.c ****             CapSense_DpDeconvolution(ptrFlashWdgt);
 578:Generated_Source\PSoC6/CapSense_Processing.c ****         }
 579:Generated_Source\PSoC6/CapSense_Processing.c ****     #endif  /* #if (0u != CapSense_CSX_MULTIPHASE_TX_EN) */
 580:Generated_Source\PSoC6/CapSense_Processing.c **** 
 581:Generated_Source\PSoC6/CapSense_Processing.c ****     for (;snsCount-- > 0u;)
 582:Generated_Source\PSoC6/CapSense_Processing.c ****     {
 583:Generated_Source\PSoC6/CapSense_Processing.c ****         #if (CapSense_ENABLE == CapSense_RC_FILTER_EN)
 584:Generated_Source\PSoC6/CapSense_Processing.c ****             CapSense_FtRunEnabledFiltersInternal(fltrHistV, ptrSnsTmp, widgetType);
 585:Generated_Source\PSoC6/CapSense_Processing.c ****             #if (CapSense_ALP_FILTER_EN)
 586:Generated_Source\PSoC6/CapSense_Processing.c ****                 CapSense_ConfigRunALPInternal(fltrHistV, ptrRamWdgt, ptrSnsTmp, widgetType);
 587:Generated_Source\PSoC6/CapSense_Processing.c ****             #endif
 588:Generated_Source\PSoC6/CapSense_Processing.c ****         #endif /* #if (CapSense_ENABLE == CapSense_RC_FILTER_EN) */
 589:Generated_Source\PSoC6/CapSense_Processing.c **** 
 590:Generated_Source\PSoC6/CapSense_Processing.c ****         result = CapSense_FtUpdateBaseline(ptrRamWdgt, ptrSnsTmp, widgetType);
 591:Generated_Source\PSoC6/CapSense_Processing.c **** 
 592:Generated_Source\PSoC6/CapSense_Processing.c ****         #if (CapSense_ENABLE == CapSense_TST_BSLN_DUPLICATION_EN)
 593:Generated_Source\PSoC6/CapSense_Processing.c ****             if (CY_RET_SUCCESS != result)
 594:Generated_Source\PSoC6/CapSense_Processing.c ****             {
 595:Generated_Source\PSoC6/CapSense_Processing.c ****                 result = snsCount | CapSense_PROCESS_BASELINE_FAILED;
 596:Generated_Source\PSoC6/CapSense_Processing.c ****             }
 597:Generated_Source\PSoC6/CapSense_Processing.c ****         #endif /* (CapSense_ENABLE == CapSense_TST_BSLN_DUPLICATION_EN) */
 598:Generated_Source\PSoC6/CapSense_Processing.c **** 
 599:Generated_Source\PSoC6/CapSense_Processing.c ****         CapSense_DpUpdateDifferences(ptrRamWdgt, ptrSnsTmp);
 600:Generated_Source\PSoC6/CapSense_Processing.c **** 
 601:Generated_Source\PSoC6/CapSense_Processing.c ****         /* Move pointers to the next sensor and filter history objects */
 602:Generated_Source\PSoC6/CapSense_Processing.c ****         ptrSnsTmp++;
 603:Generated_Source\PSoC6/CapSense_Processing.c ****         
 604:Generated_Source\PSoC6/CapSense_Processing.c ****         #if (CapSense_ENABLE == CapSense_RC_FILTER_EN)
 605:Generated_Source\PSoC6/CapSense_Processing.c ****             CapSense_INC_REG_FLTR_OBJ(fltrHistV);
 606:Generated_Source\PSoC6/CapSense_Processing.c ****         #endif /* #if (CapSense_ENABLE == CapSense_RC_FILTER_EN) */
 607:Generated_Source\PSoC6/CapSense_Processing.c ****     }
 608:Generated_Source\PSoC6/CapSense_Processing.c ****     return result;
 609:Generated_Source\PSoC6/CapSense_Processing.c **** }
 610:Generated_Source\PSoC6/CapSense_Processing.c **** 
 611:Generated_Source\PSoC6/CapSense_Processing.c **** /*******************************************************************************
 612:Generated_Source\PSoC6/CapSense_Processing.c **** * Function Name: CapSense_DpProcessCsxSensorRawCountsExt
 613:Generated_Source\PSoC6/CapSense_Processing.c **** ****************************************************************************//**
 614:Generated_Source\PSoC6/CapSense_Processing.c **** *
ARM GAS  C:\Users\Austina\AppData\Local\Temp\ccLgwUrp.s 			page 15


 615:Generated_Source\PSoC6/CapSense_Processing.c **** * \brief
 616:Generated_Source\PSoC6/CapSense_Processing.c **** *   Performs customized processing of the CSX sensor raw counts.
 617:Generated_Source\PSoC6/CapSense_Processing.c **** *
 618:Generated_Source\PSoC6/CapSense_Processing.c **** * \details
 619:Generated_Source\PSoC6/CapSense_Processing.c **** *   Performs customized processing of the CSX sensor raw counts.
 620:Generated_Source\PSoC6/CapSense_Processing.c **** *
 621:Generated_Source\PSoC6/CapSense_Processing.c **** *   If all bits are set at once the default processing order will take place.
 622:Generated_Source\PSoC6/CapSense_Processing.c **** *   For the custom order this API can be called multiple times and execute one task at a time.
 623:Generated_Source\PSoC6/CapSense_Processing.c **** *
 624:Generated_Source\PSoC6/CapSense_Processing.c **** * \param ptrFlashWdgt The pointer to the Flash Widget Object.
 625:Generated_Source\PSoC6/CapSense_Processing.c **** * \param curSnsPtr    The pointer to the specific RAM Sensor Object.
 626:Generated_Source\PSoC6/CapSense_Processing.c **** * \param fltrHistV    The pointer to the Filter History Object in RAM associated with specific sens
 627:Generated_Source\PSoC6/CapSense_Processing.c **** * \param mode         The bit-mask with the data processing tasks to be executed.
 628:Generated_Source\PSoC6/CapSense_Processing.c **** *   The mode parameters can take the following values:
 629:Generated_Source\PSoC6/CapSense_Processing.c **** *    - CapSense_PROCESS_FILTER     (0x01) Run Firmware Filter
 630:Generated_Source\PSoC6/CapSense_Processing.c **** *    - CapSense_PROCESS_BASELINE   (0x02) Update Baselines
 631:Generated_Source\PSoC6/CapSense_Processing.c **** *    - CapSense_PROCESS_DIFFCOUNTS (0x04) Update Difference Counts
 632:Generated_Source\PSoC6/CapSense_Processing.c **** *    - CapSense_PROCESS_ALL               Execute all tasks
 633:Generated_Source\PSoC6/CapSense_Processing.c **** *
 634:Generated_Source\PSoC6/CapSense_Processing.c **** * \return
 635:Generated_Source\PSoC6/CapSense_Processing.c **** *  Returns the status of the specified sensor processing operation:
 636:Generated_Source\PSoC6/CapSense_Processing.c **** *  - CY_RET_SUCCESS if operation was successfully completed;
 637:Generated_Source\PSoC6/CapSense_Processing.c **** *  - CapSense_PROCESS_BASELINE_FAILED if baseline processing of any
 638:Generated_Source\PSoC6/CapSense_Processing.c **** *    sensor of the specified widget failed. The result is concatenated with the index
 639:Generated_Source\PSoC6/CapSense_Processing.c **** *    of failed sensor.
 640:Generated_Source\PSoC6/CapSense_Processing.c **** *
 641:Generated_Source\PSoC6/CapSense_Processing.c **** *******************************************************************************/
 642:Generated_Source\PSoC6/CapSense_Processing.c **** uint32 CapSense_DpProcessCsxSensorRawCountsExt(
 643:Generated_Source\PSoC6/CapSense_Processing.c ****                 CapSense_FLASH_WD_STRUCT const *ptrFlashWdgt,
 644:Generated_Source\PSoC6/CapSense_Processing.c ****                 CapSense_RAM_SNS_STRUCT *curSnsPtr,
 645:Generated_Source\PSoC6/CapSense_Processing.c ****                 CapSense_PTR_FILTER_VARIANT fltrHistV,
 646:Generated_Source\PSoC6/CapSense_Processing.c ****                 uint32 mode)
 647:Generated_Source\PSoC6/CapSense_Processing.c **** {
 648:Generated_Source\PSoC6/CapSense_Processing.c ****     uint32  result = CY_RET_SUCCESS;
 649:Generated_Source\PSoC6/CapSense_Processing.c ****     uint32  widgetType;
 650:Generated_Source\PSoC6/CapSense_Processing.c ****     CapSense_RAM_WD_BASE_STRUCT *ptrRamWdgt;
 651:Generated_Source\PSoC6/CapSense_Processing.c **** 
 652:Generated_Source\PSoC6/CapSense_Processing.c ****     widgetType = ptrFlashWdgt->wdgtType;
 653:Generated_Source\PSoC6/CapSense_Processing.c ****     ptrRamWdgt = (CapSense_RAM_WD_BASE_STRUCT *)ptrFlashWdgt->ptr2WdgtRam;
 654:Generated_Source\PSoC6/CapSense_Processing.c **** 
 655:Generated_Source\PSoC6/CapSense_Processing.c ****     #if (CapSense_ENABLE == CapSense_RC_FILTER_EN)
 656:Generated_Source\PSoC6/CapSense_Processing.c ****         if (0u != (mode & CapSense_PROCESS_FILTER))
 657:Generated_Source\PSoC6/CapSense_Processing.c ****         {
 658:Generated_Source\PSoC6/CapSense_Processing.c ****             CapSense_FtRunEnabledFiltersInternal(fltrHistV, curSnsPtr, widgetType);
 659:Generated_Source\PSoC6/CapSense_Processing.c ****             #if (CapSense_ALP_FILTER_EN)
 660:Generated_Source\PSoC6/CapSense_Processing.c ****                 CapSense_ConfigRunALPInternal(fltrHistV, ptrRamWdgt, curSnsPtr, widgetType);
 661:Generated_Source\PSoC6/CapSense_Processing.c ****             #endif
 662:Generated_Source\PSoC6/CapSense_Processing.c ****         }
 663:Generated_Source\PSoC6/CapSense_Processing.c ****     #else
 664:Generated_Source\PSoC6/CapSense_Processing.c ****         (void)fltrHistV; /* This parameter is unused in such configurations */
 665:Generated_Source\PSoC6/CapSense_Processing.c ****     #endif /* #if (CapSense_ENABLE == CapSense_RC_FILTER_EN) */
 666:Generated_Source\PSoC6/CapSense_Processing.c **** 
 667:Generated_Source\PSoC6/CapSense_Processing.c ****     if (0u != (mode & CapSense_PROCESS_BASELINE))
 668:Generated_Source\PSoC6/CapSense_Processing.c ****     {
 669:Generated_Source\PSoC6/CapSense_Processing.c ****         result = CapSense_FtUpdateBaseline(ptrRamWdgt, curSnsPtr, widgetType);
 670:Generated_Source\PSoC6/CapSense_Processing.c ****     }
 671:Generated_Source\PSoC6/CapSense_Processing.c **** 
ARM GAS  C:\Users\Austina\AppData\Local\Temp\ccLgwUrp.s 			page 16


 672:Generated_Source\PSoC6/CapSense_Processing.c ****     if (0u != (mode & CapSense_PROCESS_DIFFCOUNTS))
 673:Generated_Source\PSoC6/CapSense_Processing.c ****     {
 674:Generated_Source\PSoC6/CapSense_Processing.c ****         CapSense_DpUpdateDifferences(ptrRamWdgt, curSnsPtr);
 675:Generated_Source\PSoC6/CapSense_Processing.c ****     }
 676:Generated_Source\PSoC6/CapSense_Processing.c ****     return result;
 677:Generated_Source\PSoC6/CapSense_Processing.c **** }
 678:Generated_Source\PSoC6/CapSense_Processing.c **** 
 679:Generated_Source\PSoC6/CapSense_Processing.c **** 
 680:Generated_Source\PSoC6/CapSense_Processing.c **** /*******************************************************************************
 681:Generated_Source\PSoC6/CapSense_Processing.c **** * Function Name: CapSense_DpProcessCsxWidgetStatus
 682:Generated_Source\PSoC6/CapSense_Processing.c **** ****************************************************************************//**
 683:Generated_Source\PSoC6/CapSense_Processing.c **** *
 684:Generated_Source\PSoC6/CapSense_Processing.c **** * \brief
 685:Generated_Source\PSoC6/CapSense_Processing.c **** *   Updates the status of the CSX widget in the Data Structure.
 686:Generated_Source\PSoC6/CapSense_Processing.c **** *
 687:Generated_Source\PSoC6/CapSense_Processing.c **** * \details
 688:Generated_Source\PSoC6/CapSense_Processing.c **** *  This API determines the type of widget and runs the appropriate function
 689:Generated_Source\PSoC6/CapSense_Processing.c **** *  that implements the status update algorithm for this type of widget.
 690:Generated_Source\PSoC6/CapSense_Processing.c **** *
 691:Generated_Source\PSoC6/CapSense_Processing.c **** *  When the widget-specific processing completes this API updates the snsStatus
 692:Generated_Source\PSoC6/CapSense_Processing.c **** *  and wdgtStatus registers in the data structure. The wdgtStatus register
 693:Generated_Source\PSoC6/CapSense_Processing.c **** *  is a bitmask were each bit corresponds to the specific widget identified by
 694:Generated_Source\PSoC6/CapSense_Processing.c **** *  the widget index. When the bit is set the widget is active (touched);
 695:Generated_Source\PSoC6/CapSense_Processing.c **** *
 696:Generated_Source\PSoC6/CapSense_Processing.c **** *  Depending on the type of widget the snsStatus register may contain either
 697:Generated_Source\PSoC6/CapSense_Processing.c **** *  status of each widget node (active/non-active) or in case of the CSX Touchpad
 698:Generated_Source\PSoC6/CapSense_Processing.c **** *  is contains the number of touches. In both cases 0 means that widget is not
 699:Generated_Source\PSoC6/CapSense_Processing.c **** *  active.
 700:Generated_Source\PSoC6/CapSense_Processing.c **** *
 701:Generated_Source\PSoC6/CapSense_Processing.c **** * \param widgetId     The widget ID number.
 702:Generated_Source\PSoC6/CapSense_Processing.c **** * \param ptrFlashWdgt The pointer to the Flash Widget Object.
 703:Generated_Source\PSoC6/CapSense_Processing.c **** *
 704:Generated_Source\PSoC6/CapSense_Processing.c **** *******************************************************************************/
 705:Generated_Source\PSoC6/CapSense_Processing.c **** void CapSense_DpProcessCsxWidgetStatus(uint32 widgetId, CapSense_FLASH_WD_STRUCT const *ptrFlashWdg
 706:Generated_Source\PSoC6/CapSense_Processing.c **** {
 707:Generated_Source\PSoC6/CapSense_Processing.c ****     uint32 sensorStatus;
 708:Generated_Source\PSoC6/CapSense_Processing.c ****     uint32 wdStatusIndex;
 709:Generated_Source\PSoC6/CapSense_Processing.c ****     uint32 wdStatusMask;
 710:Generated_Source\PSoC6/CapSense_Processing.c ****     CapSense_WD_TYPE_ENUM widgetType;
 711:Generated_Source\PSoC6/CapSense_Processing.c **** 
 712:Generated_Source\PSoC6/CapSense_Processing.c ****     widgetType = (CapSense_WD_TYPE_ENUM)ptrFlashWdgt->wdgtType;
 713:Generated_Source\PSoC6/CapSense_Processing.c ****     sensorStatus = CapSense_dsRam.snsStatus[widgetId];
 714:Generated_Source\PSoC6/CapSense_Processing.c **** 
 715:Generated_Source\PSoC6/CapSense_Processing.c ****     switch (widgetType)
 716:Generated_Source\PSoC6/CapSense_Processing.c ****     {
 717:Generated_Source\PSoC6/CapSense_Processing.c ****     #if (0u != CapSense_BUTTON_WIDGET_EN)
 718:Generated_Source\PSoC6/CapSense_Processing.c ****         case CapSense_WD_BUTTON_E:
 719:Generated_Source\PSoC6/CapSense_Processing.c ****             sensorStatus = CapSense_DpProcessButton(sensorStatus, ptrFlashWdgt);
 720:Generated_Source\PSoC6/CapSense_Processing.c ****             break;
 721:Generated_Source\PSoC6/CapSense_Processing.c ****     #endif /* #if (0u != CapSense_BUTTON_WIDGET_EN) */
 722:Generated_Source\PSoC6/CapSense_Processing.c **** 
 723:Generated_Source\PSoC6/CapSense_Processing.c ****     #if (0u != CapSense_CSX_MATRIX_WIDGET_EN)
 724:Generated_Source\PSoC6/CapSense_Processing.c ****         case CapSense_WD_MATRIX_BUTTON_E:
 725:Generated_Source\PSoC6/CapSense_Processing.c ****             sensorStatus = CapSense_DpProcessButton(sensorStatus, ptrFlashWdgt);
 726:Generated_Source\PSoC6/CapSense_Processing.c ****             break;
 727:Generated_Source\PSoC6/CapSense_Processing.c ****     #endif /* #if (0u != CapSense_CSX_MATRIX_WIDGET_EN) */
 728:Generated_Source\PSoC6/CapSense_Processing.c **** 
ARM GAS  C:\Users\Austina\AppData\Local\Temp\ccLgwUrp.s 			page 17


 729:Generated_Source\PSoC6/CapSense_Processing.c ****     #if (0u != CapSense_CSX_TOUCHPAD_WIDGET_EN)
 730:Generated_Source\PSoC6/CapSense_Processing.c ****         case CapSense_WD_TOUCHPAD_E:
 731:Generated_Source\PSoC6/CapSense_Processing.c ****             sensorStatus = CapSense_DpProcessCsxTouchpad(sensorStatus, ptrFlashWdgt);
 732:Generated_Source\PSoC6/CapSense_Processing.c ****             break;
 733:Generated_Source\PSoC6/CapSense_Processing.c ****     #endif /* #if (0u != CapSense_CSX_TOUCHPAD_WIDGET_EN) */
 734:Generated_Source\PSoC6/CapSense_Processing.c **** 
 735:Generated_Source\PSoC6/CapSense_Processing.c ****     default:
 736:Generated_Source\PSoC6/CapSense_Processing.c ****         CY_ASSERT(0 != 0);
 737:Generated_Source\PSoC6/CapSense_Processing.c ****         break;
 738:Generated_Source\PSoC6/CapSense_Processing.c ****     }
 739:Generated_Source\PSoC6/CapSense_Processing.c **** 
 740:Generated_Source\PSoC6/CapSense_Processing.c ****     /* Update sensor status in the data structure */
 741:Generated_Source\PSoC6/CapSense_Processing.c ****     CapSense_dsRam.snsStatus[widgetId] = (CapSense_SNS_STS_TYPE)sensorStatus;
 742:Generated_Source\PSoC6/CapSense_Processing.c **** 
 743:Generated_Source\PSoC6/CapSense_Processing.c ****     /* The next two lines calculate index and bitmask of the widget status bit in the wdgtStatus ar
 744:Generated_Source\PSoC6/CapSense_Processing.c ****     wdStatusIndex = CapSense_GET_WDGT_STATUS_INDEX(widgetId);
 745:Generated_Source\PSoC6/CapSense_Processing.c ****     wdStatusMask = CapSense_GET_WDGT_STATUS_MASK(widgetId);
 746:Generated_Source\PSoC6/CapSense_Processing.c **** 
 747:Generated_Source\PSoC6/CapSense_Processing.c ****     /* Check if there are active sensors and update widget status accordingly */
 748:Generated_Source\PSoC6/CapSense_Processing.c ****     if (0u == sensorStatus)
 749:Generated_Source\PSoC6/CapSense_Processing.c ****     {
 750:Generated_Source\PSoC6/CapSense_Processing.c ****         CapSense_dsRam.wdgtStatus[wdStatusIndex] &= ~wdStatusMask;
 751:Generated_Source\PSoC6/CapSense_Processing.c ****     }
 752:Generated_Source\PSoC6/CapSense_Processing.c ****     else
 753:Generated_Source\PSoC6/CapSense_Processing.c ****     {
 754:Generated_Source\PSoC6/CapSense_Processing.c ****         CapSense_dsRam.wdgtStatus[wdStatusIndex] |= wdStatusMask;
 755:Generated_Source\PSoC6/CapSense_Processing.c ****     }
 756:Generated_Source\PSoC6/CapSense_Processing.c **** }
 757:Generated_Source\PSoC6/CapSense_Processing.c **** #endif /* #if CapSense_TOTAL_CSX_WIDGETS */
 758:Generated_Source\PSoC6/CapSense_Processing.c **** 
 759:Generated_Source\PSoC6/CapSense_Processing.c **** #if (0u != CapSense_TOTAL_CSD_WIDGETS)
 760:Generated_Source\PSoC6/CapSense_Processing.c **** /*******************************************************************************
 761:Generated_Source\PSoC6/CapSense_Processing.c **** * Function Name: CapSense_DpProcessCsdWidgetRawCounts
 762:Generated_Source\PSoC6/CapSense_Processing.c **** ****************************************************************************//**
 763:Generated_Source\PSoC6/CapSense_Processing.c **** *
 764:Generated_Source\PSoC6/CapSense_Processing.c **** * \brief
 765:Generated_Source\PSoC6/CapSense_Processing.c **** *   Performs default processing for the CSD widget raw counts.
 766:Generated_Source\PSoC6/CapSense_Processing.c **** *
 767:Generated_Source\PSoC6/CapSense_Processing.c **** * \details
 768:Generated_Source\PSoC6/CapSense_Processing.c **** *   Performs default processing for the CSD widget raw counts:
 769:Generated_Source\PSoC6/CapSense_Processing.c **** *    - Run Filters
 770:Generated_Source\PSoC6/CapSense_Processing.c **** *    - Update Thresholds (FW Auto-tuning)
 771:Generated_Source\PSoC6/CapSense_Processing.c **** *    - Update Baselines
 772:Generated_Source\PSoC6/CapSense_Processing.c **** *    - Update Differences.
 773:Generated_Source\PSoC6/CapSense_Processing.c **** *   The process is applied to all widget's sensors.
 774:Generated_Source\PSoC6/CapSense_Processing.c **** *
 775:Generated_Source\PSoC6/CapSense_Processing.c **** * \param ptrFlashWdgt The pointer to the Flash Widget Object.
 776:Generated_Source\PSoC6/CapSense_Processing.c **** *
 777:Generated_Source\PSoC6/CapSense_Processing.c **** * \return
 778:Generated_Source\PSoC6/CapSense_Processing.c **** *  Returns the status of the specified widget processing operation:
 779:Generated_Source\PSoC6/CapSense_Processing.c **** *  - CY_RET_SUCCESS if operation was successfully completed;
 780:Generated_Source\PSoC6/CapSense_Processing.c **** *  - CapSense_PROCESS_BASELINE_FAILED if baseline processing of any
 781:Generated_Source\PSoC6/CapSense_Processing.c **** *    sensor of the specified widget failed. The result is concatenated with the index
 782:Generated_Source\PSoC6/CapSense_Processing.c **** *    of failed sensor.
 783:Generated_Source\PSoC6/CapSense_Processing.c **** *
 784:Generated_Source\PSoC6/CapSense_Processing.c **** *******************************************************************************/
 785:Generated_Source\PSoC6/CapSense_Processing.c **** uint32 CapSense_DpProcessCsdWidgetRawCounts(CapSense_FLASH_WD_STRUCT const *ptrFlashWdgt)
ARM GAS  C:\Users\Austina\AppData\Local\Temp\ccLgwUrp.s 			page 18


 786:Generated_Source\PSoC6/CapSense_Processing.c **** {
 787:Generated_Source\PSoC6/CapSense_Processing.c ****     uint32  result = CY_RET_SUCCESS;
 788:Generated_Source\PSoC6/CapSense_Processing.c **** 
 789:Generated_Source\PSoC6/CapSense_Processing.c ****     #if (CapSense_ENABLE == CapSense_TST_BSLN_DUPLICATION_EN)
 790:Generated_Source\PSoC6/CapSense_Processing.c ****         uint32 bslnTstResult = CY_RET_SUCCESS;
 791:Generated_Source\PSoC6/CapSense_Processing.c ****     #endif /* (CapSense_ENABLE == CapSense_TST_BSLN_DUPLICATION_EN) */
 792:Generated_Source\PSoC6/CapSense_Processing.c **** 
 793:Generated_Source\PSoC6/CapSense_Processing.c ****     uint32  widgetType;
 794:Generated_Source\PSoC6/CapSense_Processing.c ****     uint32  snsId;
 795:Generated_Source\PSoC6/CapSense_Processing.c ****     CapSense_RAM_SNS_STRUCT *ptrSnsTmp;
 796:Generated_Source\PSoC6/CapSense_Processing.c ****     CapSense_RAM_WD_BASE_STRUCT *ptrRamWdgt;
 797:Generated_Source\PSoC6/CapSense_Processing.c **** 
 798:Generated_Source\PSoC6/CapSense_Processing.c ****     #if (0u != (CapSense_CSD_AUTOTUNE & CapSense_CSD_SS_TH_EN))
 799:Generated_Source\PSoC6/CapSense_Processing.c ****         /* The noise envelope data is available only when Full CSD Auto-Tuning is enabled */
 800:Generated_Source\PSoC6/CapSense_Processing.c ****         SMARTSENSE_CSD_NOISE_ENVELOPE_STRUCT *ptrNoiseEnvelope;
 801:Generated_Source\PSoC6/CapSense_Processing.c ****         #if (CapSense_ENABLE == CapSense_PROXIMITY_WIDGET_EN)
 802:Generated_Source\PSoC6/CapSense_Processing.c ****             uint32  proximityThreshold;
 803:Generated_Source\PSoC6/CapSense_Processing.c ****         #endif /* (0 != CapSense_PROXIMITY_WIDGET_EN) */
 804:Generated_Source\PSoC6/CapSense_Processing.c ****     #endif /* #if (0u != (CapSense_CSD_AUTOTUNE & CapSense_CSD_SS_TH_EN)) */
 805:Generated_Source\PSoC6/CapSense_Processing.c **** 
 806:Generated_Source\PSoC6/CapSense_Processing.c ****     #if (CapSense_ENABLE == CapSense_RC_FILTER_EN)
 807:Generated_Source\PSoC6/CapSense_Processing.c ****         CapSense_PTR_FILTER_VARIANT fltrHistV;
 808:Generated_Source\PSoC6/CapSense_Processing.c **** 
 809:Generated_Source\PSoC6/CapSense_Processing.c ****         /* Determine if widget type is proximity */
 810:Generated_Source\PSoC6/CapSense_Processing.c ****         uint32 isProxWdgt = (CapSense_GET_WIDGET_TYPE(ptrFlashWdgt) == CapSense_WD_PROXIMITY_E) ? 1
 811:Generated_Source\PSoC6/CapSense_Processing.c **** 
 812:Generated_Source\PSoC6/CapSense_Processing.c ****         /* Get pointer to the filter history object */
 813:Generated_Source\PSoC6/CapSense_Processing.c ****         fltrHistV.ptr = ptrFlashWdgt->ptr2FltrHistory;
 814:Generated_Source\PSoC6/CapSense_Processing.c ****     #endif /* #if (CapSense_ENABLE == CapSense_RC_FILTER_EN) */
 815:Generated_Source\PSoC6/CapSense_Processing.c **** 
 816:Generated_Source\PSoC6/CapSense_Processing.c ****     ptrSnsTmp = ptrFlashWdgt->ptr2SnsRam;
 817:Generated_Source\PSoC6/CapSense_Processing.c ****     ptrRamWdgt = (CapSense_RAM_WD_BASE_STRUCT *)ptrFlashWdgt->ptr2WdgtRam;
 818:Generated_Source\PSoC6/CapSense_Processing.c ****     widgetType = ptrFlashWdgt->wdgtType;
 819:Generated_Source\PSoC6/CapSense_Processing.c **** 
 820:Generated_Source\PSoC6/CapSense_Processing.c ****     #if (0u != (CapSense_CSD_AUTOTUNE & CapSense_CSD_SS_TH_EN))
 821:Generated_Source\PSoC6/CapSense_Processing.c ****         ptrNoiseEnvelope = ptrFlashWdgt->ptr2NoiseEnvlp;
 822:Generated_Source\PSoC6/CapSense_Processing.c ****     #endif /* #if (0u != (CapSense_CSD_AUTOTUNE & CapSense_CSD_SS_TH_EN)) */
 823:Generated_Source\PSoC6/CapSense_Processing.c **** 
 824:Generated_Source\PSoC6/CapSense_Processing.c ****     /* Iterate through all widget's sensors */
 825:Generated_Source\PSoC6/CapSense_Processing.c ****     for(snsId = 0u; snsId < ptrFlashWdgt->totalNumSns; snsId++)
 826:Generated_Source\PSoC6/CapSense_Processing.c ****     {
 827:Generated_Source\PSoC6/CapSense_Processing.c ****         /* Run all enabled filter on specified widget's sensor */
 828:Generated_Source\PSoC6/CapSense_Processing.c ****         #if (CapSense_ENABLE == CapSense_RC_FILTER_EN)
 829:Generated_Source\PSoC6/CapSense_Processing.c ****             CapSense_FtRunEnabledFiltersInternal(fltrHistV, ptrSnsTmp, widgetType);
 830:Generated_Source\PSoC6/CapSense_Processing.c ****             #if (CapSense_ALP_FILTER_EN)
 831:Generated_Source\PSoC6/CapSense_Processing.c ****                 CapSense_ConfigRunALPInternal(fltrHistV, ptrRamWdgt, ptrSnsTmp, widgetType);
 832:Generated_Source\PSoC6/CapSense_Processing.c ****             #endif
 833:Generated_Source\PSoC6/CapSense_Processing.c ****         #endif /* #if (CapSense_ENABLE == CapSense_RC_FILTER_EN) */
 834:Generated_Source\PSoC6/CapSense_Processing.c **** 
 835:Generated_Source\PSoC6/CapSense_Processing.c ****         /* Run auto-tuning activities */
 836:Generated_Source\PSoC6/CapSense_Processing.c ****         #if (0u != (CapSense_CSD_AUTOTUNE & CapSense_CSD_SS_TH_EN))
 837:Generated_Source\PSoC6/CapSense_Processing.c ****             SmartSense_RunNoiseEnvelope(ptrSnsTmp->raw[0u], ptrRamWdgt->sigPFC, ptrNoiseEnvelope);
 838:Generated_Source\PSoC6/CapSense_Processing.c ****             CapSense_DpUpdateThresholds(ptrRamWdgt, ptrNoiseEnvelope, snsId);
 839:Generated_Source\PSoC6/CapSense_Processing.c **** 
 840:Generated_Source\PSoC6/CapSense_Processing.c ****             /* Calculate Proximity Touch Threshold in SmartSense mode based on Finger Threshold and
 841:Generated_Source\PSoC6/CapSense_Processing.c ****             #if (CapSense_ENABLE == CapSense_PROXIMITY_WIDGET_EN)
 842:Generated_Source\PSoC6/CapSense_Processing.c ****                 if (CapSense_WD_PROXIMITY_E == CapSense_GET_WIDGET_TYPE(ptrFlashWdgt))
ARM GAS  C:\Users\Austina\AppData\Local\Temp\ccLgwUrp.s 			page 19


 843:Generated_Source\PSoC6/CapSense_Processing.c ****                 {
 844:Generated_Source\PSoC6/CapSense_Processing.c ****                     proximityThreshold = ((uint32)ptrRamWdgt->fingerTh * CapSense_PROX_TOUCH_COEFF)
 845:Generated_Source\PSoC6/CapSense_Processing.c ****                     if ((((1Lu) << CapSense_THRESHOLD_SIZE) - 1u) < proximityThreshold)
 846:Generated_Source\PSoC6/CapSense_Processing.c ****                     {
 847:Generated_Source\PSoC6/CapSense_Processing.c ****                         proximityThreshold = ((1Lu) << CapSense_THRESHOLD_SIZE) - 1u;
 848:Generated_Source\PSoC6/CapSense_Processing.c ****                     }
 849:Generated_Source\PSoC6/CapSense_Processing.c ****                     ((CapSense_RAM_WD_PROXIMITY_STRUCT *)ptrFlashWdgt->ptr2WdgtRam)->proxTouchTh =
 850:Generated_Source\PSoC6/CapSense_Processing.c ****                         (CapSense_THRESHOLD_TYPE)proximityThreshold;
 851:Generated_Source\PSoC6/CapSense_Processing.c ****                 }
 852:Generated_Source\PSoC6/CapSense_Processing.c ****             #endif /* (0 != CapSense_PROXIMITY_WIDGET_EN) */
 853:Generated_Source\PSoC6/CapSense_Processing.c **** 
 854:Generated_Source\PSoC6/CapSense_Processing.c ****             /* Move to next noise-envelope object */
 855:Generated_Source\PSoC6/CapSense_Processing.c ****             ptrNoiseEnvelope++;
 856:Generated_Source\PSoC6/CapSense_Processing.c ****         #endif /* (0u != (CapSense_CSD_AUTOTUNE & CapSense_CSD_SS_TH_EN)) */
 857:Generated_Source\PSoC6/CapSense_Processing.c **** 
 858:Generated_Source\PSoC6/CapSense_Processing.c ****         #if (CapSense_ENABLE == CapSense_TST_BSLN_DUPLICATION_EN)
 859:Generated_Source\PSoC6/CapSense_Processing.c ****             bslnTstResult = CapSense_FtUpdateBaseline(ptrRamWdgt, ptrSnsTmp, widgetType);
 860:Generated_Source\PSoC6/CapSense_Processing.c ****             if ((CY_RET_SUCCESS != bslnTstResult) && (CY_RET_SUCCESS == result))
 861:Generated_Source\PSoC6/CapSense_Processing.c ****             {
 862:Generated_Source\PSoC6/CapSense_Processing.c ****                 result = snsId | CapSense_PROCESS_BASELINE_FAILED;
 863:Generated_Source\PSoC6/CapSense_Processing.c ****             }
 864:Generated_Source\PSoC6/CapSense_Processing.c ****         #else /* (CapSense_ENABLE == CapSense_TST_BSLN_DUPLICATION_EN) */
 865:Generated_Source\PSoC6/CapSense_Processing.c ****             result = CapSense_FtUpdateBaseline(ptrRamWdgt, ptrSnsTmp, widgetType);
 866:Generated_Source\PSoC6/CapSense_Processing.c ****         #endif /* (CapSense_ENABLE == CapSense_TST_BSLN_DUPLICATION_EN) */
 867:Generated_Source\PSoC6/CapSense_Processing.c **** 
 868:Generated_Source\PSoC6/CapSense_Processing.c ****         CapSense_DpUpdateDifferences(ptrRamWdgt, ptrSnsTmp);
 869:Generated_Source\PSoC6/CapSense_Processing.c **** 
 870:Generated_Source\PSoC6/CapSense_Processing.c ****         /* Move to next sensor object */
 871:Generated_Source\PSoC6/CapSense_Processing.c ****         ptrSnsTmp++;
 872:Generated_Source\PSoC6/CapSense_Processing.c **** 
 873:Generated_Source\PSoC6/CapSense_Processing.c ****         #if (CapSense_ENABLE == CapSense_RC_FILTER_EN)
 874:Generated_Source\PSoC6/CapSense_Processing.c ****             /* Move to the next filter history object */
 875:Generated_Source\PSoC6/CapSense_Processing.c ****             CapSense_INC_FLTR_OBJ_VARIANT(isProxWdgt, fltrHistV);
 876:Generated_Source\PSoC6/CapSense_Processing.c ****         #endif /* #if (CapSense_ENABLE == CapSense_RC_FILTER_EN) */
 877:Generated_Source\PSoC6/CapSense_Processing.c ****     }
 878:Generated_Source\PSoC6/CapSense_Processing.c ****     return result;
 879:Generated_Source\PSoC6/CapSense_Processing.c **** }
 880:Generated_Source\PSoC6/CapSense_Processing.c **** 
 881:Generated_Source\PSoC6/CapSense_Processing.c **** 
 882:Generated_Source\PSoC6/CapSense_Processing.c **** /*******************************************************************************
 883:Generated_Source\PSoC6/CapSense_Processing.c **** * Function Name: CapSense_DpProcessCsdSensorRawCountsExt
 884:Generated_Source\PSoC6/CapSense_Processing.c **** ****************************************************************************//**
 885:Generated_Source\PSoC6/CapSense_Processing.c **** *
 886:Generated_Source\PSoC6/CapSense_Processing.c **** * \brief
 887:Generated_Source\PSoC6/CapSense_Processing.c **** *   Performs customized processing of the CSD sensor raw counts.
 888:Generated_Source\PSoC6/CapSense_Processing.c **** *
 889:Generated_Source\PSoC6/CapSense_Processing.c **** * \details
 890:Generated_Source\PSoC6/CapSense_Processing.c **** *   Performs customized processing of the CSD sensor raw counts.
 891:Generated_Source\PSoC6/CapSense_Processing.c **** *
 892:Generated_Source\PSoC6/CapSense_Processing.c **** *   Note that this API updates data associated only with the sensor. It cannot be used to update
 893:Generated_Source\PSoC6/CapSense_Processing.c **** *   widget status.
 894:Generated_Source\PSoC6/CapSense_Processing.c **** *
 895:Generated_Source\PSoC6/CapSense_Processing.c **** * \param ptrFlashWdgt The pointer to the Flash widget structure.
 896:Generated_Source\PSoC6/CapSense_Processing.c **** * \param curSnsPtr    The pointer to the sensor object in RAM.
 897:Generated_Source\PSoC6/CapSense_Processing.c **** * \param fltrHistV    The pointer to the Filter History Object in RAM.
 898:Generated_Source\PSoC6/CapSense_Processing.c **** * \param mode         The bit-mask with the data processing tasks to be executed.
 899:Generated_Source\PSoC6/CapSense_Processing.c **** *   The mode parameters can take the following values:
ARM GAS  C:\Users\Austina\AppData\Local\Temp\ccLgwUrp.s 			page 20


 900:Generated_Source\PSoC6/CapSense_Processing.c **** *    - CapSense_PROCESS_FILTER     (0x01) Run Firmware Filter
 901:Generated_Source\PSoC6/CapSense_Processing.c **** *    - CapSense_PROCESS_BASELINE   (0x02) Update Baselines
 902:Generated_Source\PSoC6/CapSense_Processing.c **** *    - CapSense_PROCESS_DIFFCOUNTS (0x04) Update Difference Counts
 903:Generated_Source\PSoC6/CapSense_Processing.c **** *    - CapSense_PROCESS_CALC_NOISE (0x08) Calculate Noise (only if FW Tuning is enabled)
 904:Generated_Source\PSoC6/CapSense_Processing.c **** *    - CapSense_PROCESS_THRESHOLDS (0x10) Update Thresholds (only if FW Tuning is enabled)
 905:Generated_Source\PSoC6/CapSense_Processing.c **** *    - CapSense_PROCESS_ALL               Execute all tasks
 906:Generated_Source\PSoC6/CapSense_Processing.c **** *
 907:Generated_Source\PSoC6/CapSense_Processing.c **** * \return
 908:Generated_Source\PSoC6/CapSense_Processing.c **** *  Returns the status of the specified sensor processing operation:
 909:Generated_Source\PSoC6/CapSense_Processing.c **** *  - CY_RET_SUCCESS if operation was successfully completed;
 910:Generated_Source\PSoC6/CapSense_Processing.c **** *  - CapSense_PROCESS_BASELINE_FAILED if baseline processing of any
 911:Generated_Source\PSoC6/CapSense_Processing.c **** *    sensor of the specified widget failed. The result is concatenated with the index
 912:Generated_Source\PSoC6/CapSense_Processing.c **** *    of failed sensor.
 913:Generated_Source\PSoC6/CapSense_Processing.c **** *
 914:Generated_Source\PSoC6/CapSense_Processing.c **** *******************************************************************************/
 915:Generated_Source\PSoC6/CapSense_Processing.c **** uint32 CapSense_DpProcessCsdSensorRawCountsExt(
 916:Generated_Source\PSoC6/CapSense_Processing.c ****                 CapSense_FLASH_WD_STRUCT const *ptrFlashWdgt,
 917:Generated_Source\PSoC6/CapSense_Processing.c ****                 CapSense_RAM_SNS_STRUCT *curSnsPtr,
 918:Generated_Source\PSoC6/CapSense_Processing.c ****                 CapSense_PTR_FILTER_VARIANT fltrHistV,
 919:Generated_Source\PSoC6/CapSense_Processing.c ****                  uint32 mode)
 920:Generated_Source\PSoC6/CapSense_Processing.c **** {
 921:Generated_Source\PSoC6/CapSense_Processing.c ****     uint32 result = CY_RET_SUCCESS;
 922:Generated_Source\PSoC6/CapSense_Processing.c ****     uint32  widgetType;
 923:Generated_Source\PSoC6/CapSense_Processing.c ****     CapSense_RAM_WD_BASE_STRUCT *ptrRamWdgt;
 924:Generated_Source\PSoC6/CapSense_Processing.c **** 
 925:Generated_Source\PSoC6/CapSense_Processing.c ****     #if (0u != (CapSense_CSD_AUTOTUNE & CapSense_CSD_SS_TH_EN))
 926:Generated_Source\PSoC6/CapSense_Processing.c ****         SMARTSENSE_CSD_NOISE_ENVELOPE_STRUCT *ptrNoiseEnvelope;
 927:Generated_Source\PSoC6/CapSense_Processing.c ****         #if (CapSense_ENABLE == CapSense_PROXIMITY_WIDGET_EN)
 928:Generated_Source\PSoC6/CapSense_Processing.c ****             uint32  proximityThreshold;
 929:Generated_Source\PSoC6/CapSense_Processing.c ****         #endif /* (0 != CapSense_PROXIMITY_WIDGET_EN) */
 930:Generated_Source\PSoC6/CapSense_Processing.c **** 
 931:Generated_Source\PSoC6/CapSense_Processing.c ****         /* Need to specify pointer to corresponding sensor's noise-envelope object.*/
 932:Generated_Source\PSoC6/CapSense_Processing.c ****         ptrNoiseEnvelope = ptrFlashWdgt->ptr2NoiseEnvlp;
 933:Generated_Source\PSoC6/CapSense_Processing.c ****     #endif /* (0u != (CapSense_CSD_AUTOTUNE & CapSense_CSD_SS_TH_EN)) */
 934:Generated_Source\PSoC6/CapSense_Processing.c **** 
 935:Generated_Source\PSoC6/CapSense_Processing.c ****     widgetType = ptrFlashWdgt->wdgtType;
 936:Generated_Source\PSoC6/CapSense_Processing.c ****     ptrRamWdgt = (CapSense_RAM_WD_BASE_STRUCT *)ptrFlashWdgt->ptr2WdgtRam;
 937:Generated_Source\PSoC6/CapSense_Processing.c **** 
 938:Generated_Source\PSoC6/CapSense_Processing.c ****     #if (CapSense_ENABLE == CapSense_RC_FILTER_EN)
 939:Generated_Source\PSoC6/CapSense_Processing.c ****         if (0u != (mode & CapSense_PROCESS_FILTER))
 940:Generated_Source\PSoC6/CapSense_Processing.c ****         {
 941:Generated_Source\PSoC6/CapSense_Processing.c ****             CapSense_FtRunEnabledFiltersInternal(fltrHistV, curSnsPtr, widgetType);
 942:Generated_Source\PSoC6/CapSense_Processing.c ****             #if (CapSense_ALP_FILTER_EN)
 943:Generated_Source\PSoC6/CapSense_Processing.c ****                 CapSense_ConfigRunALPInternal(fltrHistV, ptrRamWdgt, curSnsPtr, widgetType);
 944:Generated_Source\PSoC6/CapSense_Processing.c ****             #endif
 945:Generated_Source\PSoC6/CapSense_Processing.c ****         }
 946:Generated_Source\PSoC6/CapSense_Processing.c ****     #else
 947:Generated_Source\PSoC6/CapSense_Processing.c ****         (void)fltrHistV; /* This parameter is unused in such configurations */
 948:Generated_Source\PSoC6/CapSense_Processing.c ****     #endif /* #if (CapSense_ENABLE == CapSense_RC_FILTER_EN) */
 949:Generated_Source\PSoC6/CapSense_Processing.c **** 
 950:Generated_Source\PSoC6/CapSense_Processing.c ****     #if (0u != (CapSense_CSD_AUTOTUNE & CapSense_CSD_SS_TH_EN))
 951:Generated_Source\PSoC6/CapSense_Processing.c ****         if (0u != (mode & CapSense_PROCESS_CALC_NOISE))
 952:Generated_Source\PSoC6/CapSense_Processing.c ****         {
 953:Generated_Source\PSoC6/CapSense_Processing.c ****             SmartSense_RunNoiseEnvelope(curSnsPtr->raw[0u], ptrRamWdgt->sigPFC, ptrNoiseEnvelope);
 954:Generated_Source\PSoC6/CapSense_Processing.c ****         }
 955:Generated_Source\PSoC6/CapSense_Processing.c **** 
 956:Generated_Source\PSoC6/CapSense_Processing.c ****         if (0u != (mode & CapSense_PROCESS_THRESHOLDS))
ARM GAS  C:\Users\Austina\AppData\Local\Temp\ccLgwUrp.s 			page 21


 957:Generated_Source\PSoC6/CapSense_Processing.c ****         {
 958:Generated_Source\PSoC6/CapSense_Processing.c ****             CapSense_DpUpdateThresholds(ptrRamWdgt, ptrNoiseEnvelope, 0u);
 959:Generated_Source\PSoC6/CapSense_Processing.c **** 
 960:Generated_Source\PSoC6/CapSense_Processing.c ****             /* Calculate Proximity Touch Threshold in SmartSense mode based on Finger Threshold and
 961:Generated_Source\PSoC6/CapSense_Processing.c ****             #if (CapSense_ENABLE == CapSense_PROXIMITY_WIDGET_EN)
 962:Generated_Source\PSoC6/CapSense_Processing.c ****                 if (CapSense_WD_PROXIMITY_E == CapSense_GET_WIDGET_TYPE(ptrFlashWdgt))
 963:Generated_Source\PSoC6/CapSense_Processing.c ****                 {
 964:Generated_Source\PSoC6/CapSense_Processing.c ****                     proximityThreshold = ((uint32)ptrRamWdgt->fingerTh * CapSense_PROX_TOUCH_COEFF)
 965:Generated_Source\PSoC6/CapSense_Processing.c ****                     if ((((1Lu) << CapSense_THRESHOLD_SIZE) - 1u) < proximityThreshold)
 966:Generated_Source\PSoC6/CapSense_Processing.c ****                     {
 967:Generated_Source\PSoC6/CapSense_Processing.c ****                         proximityThreshold = ((1Lu) << CapSense_THRESHOLD_SIZE) - 1u;
 968:Generated_Source\PSoC6/CapSense_Processing.c ****                     }
 969:Generated_Source\PSoC6/CapSense_Processing.c ****                     ((CapSense_RAM_WD_PROXIMITY_STRUCT *)ptrFlashWdgt->ptr2WdgtRam)->proxTouchTh =
 970:Generated_Source\PSoC6/CapSense_Processing.c ****                         (CapSense_THRESHOLD_TYPE)proximityThreshold;
 971:Generated_Source\PSoC6/CapSense_Processing.c ****                 }
 972:Generated_Source\PSoC6/CapSense_Processing.c ****             #endif /* (0 != CapSense_PROXIMITY_WIDGET_EN) */
 973:Generated_Source\PSoC6/CapSense_Processing.c ****         }
 974:Generated_Source\PSoC6/CapSense_Processing.c ****     #endif /* #if (0u != (CapSense_CSD_AUTOTUNE & CapSense_CSD_SS_TH_EN)) */
 975:Generated_Source\PSoC6/CapSense_Processing.c **** 
 976:Generated_Source\PSoC6/CapSense_Processing.c ****     if (0u != (mode & CapSense_PROCESS_BASELINE))
 977:Generated_Source\PSoC6/CapSense_Processing.c ****     {
 978:Generated_Source\PSoC6/CapSense_Processing.c ****         result = CapSense_FtUpdateBaseline(ptrRamWdgt, curSnsPtr, widgetType);
 979:Generated_Source\PSoC6/CapSense_Processing.c ****     }
 980:Generated_Source\PSoC6/CapSense_Processing.c **** 
 981:Generated_Source\PSoC6/CapSense_Processing.c ****     if (0u != (mode & CapSense_PROCESS_DIFFCOUNTS))
 982:Generated_Source\PSoC6/CapSense_Processing.c ****     {
 983:Generated_Source\PSoC6/CapSense_Processing.c ****         CapSense_DpUpdateDifferences(ptrRamWdgt, curSnsPtr);
 984:Generated_Source\PSoC6/CapSense_Processing.c ****     }
 985:Generated_Source\PSoC6/CapSense_Processing.c ****     return result;
 986:Generated_Source\PSoC6/CapSense_Processing.c **** }
 987:Generated_Source\PSoC6/CapSense_Processing.c **** 
 988:Generated_Source\PSoC6/CapSense_Processing.c **** /*******************************************************************************
 989:Generated_Source\PSoC6/CapSense_Processing.c **** * Function Name: CapSense_DpProcessCsdWidgetStatus
 990:Generated_Source\PSoC6/CapSense_Processing.c **** ****************************************************************************//**
 991:Generated_Source\PSoC6/CapSense_Processing.c **** *
 992:Generated_Source\PSoC6/CapSense_Processing.c **** * \brief
 993:Generated_Source\PSoC6/CapSense_Processing.c **** *  Runs the status processing of the CSD widget and updates it in the Data Structure.
 994:Generated_Source\PSoC6/CapSense_Processing.c **** *
 995:Generated_Source\PSoC6/CapSense_Processing.c **** * \details
 996:Generated_Source\PSoC6/CapSense_Processing.c **** *  This API determines the widget type and calls the appropriate low-level processing
 997:Generated_Source\PSoC6/CapSense_Processing.c **** *  function. Based on the returned results it updates the widget and sensor
 998:Generated_Source\PSoC6/CapSense_Processing.c **** *  status in the data structure. Any widget specific registers like the centroid
 999:Generated_Source\PSoC6/CapSense_Processing.c **** *  position are updated directly in the low-level processing function.
1000:Generated_Source\PSoC6/CapSense_Processing.c **** *
1001:Generated_Source\PSoC6/CapSense_Processing.c **** *  When the widget-specific processing completes this API updates the snsStatus
1002:Generated_Source\PSoC6/CapSense_Processing.c **** *  and wdgtStatus registers in the data structure. The wdgtStatus register
1003:Generated_Source\PSoC6/CapSense_Processing.c **** *  is a bitmask were each bit corresponds to the specific widget identified by
1004:Generated_Source\PSoC6/CapSense_Processing.c **** *  the widget index. When the bit is set the widget is active (touched);
1005:Generated_Source\PSoC6/CapSense_Processing.c **** *
1006:Generated_Source\PSoC6/CapSense_Processing.c **** *  The snsStatus register for CSD widgets contains status of each widget sensor
1007:Generated_Source\PSoC6/CapSense_Processing.c **** *  (active/non-active). Each bit corresponds to one sensor. In case of the
1008:Generated_Source\PSoC6/CapSense_Processing.c **** *  Proximity widget two bits are used per sensor: one for proximity status and
1009:Generated_Source\PSoC6/CapSense_Processing.c **** *  second for the touch status.
1010:Generated_Source\PSoC6/CapSense_Processing.c **** *
1011:Generated_Source\PSoC6/CapSense_Processing.c **** * \param widgetId      The widget index number.
1012:Generated_Source\PSoC6/CapSense_Processing.c **** * \param ptrFlashWdgt  The pointer to the Flash widget structure.
1013:Generated_Source\PSoC6/CapSense_Processing.c **** *
ARM GAS  C:\Users\Austina\AppData\Local\Temp\ccLgwUrp.s 			page 22


1014:Generated_Source\PSoC6/CapSense_Processing.c **** *******************************************************************************/
1015:Generated_Source\PSoC6/CapSense_Processing.c **** void CapSense_DpProcessCsdWidgetStatus(uint32 widgetId, CapSense_FLASH_WD_STRUCT const *ptrFlashWdg
1016:Generated_Source\PSoC6/CapSense_Processing.c **** {
1017:Generated_Source\PSoC6/CapSense_Processing.c ****     uint32 sensorStatus;
1018:Generated_Source\PSoC6/CapSense_Processing.c ****     uint32 wdStatusIndex;
1019:Generated_Source\PSoC6/CapSense_Processing.c ****     uint32 wdStatusMask;
1020:Generated_Source\PSoC6/CapSense_Processing.c ****     CapSense_WD_TYPE_ENUM widgetType;
1021:Generated_Source\PSoC6/CapSense_Processing.c **** 
1022:Generated_Source\PSoC6/CapSense_Processing.c ****     widgetType = (CapSense_WD_TYPE_ENUM)ptrFlashWdgt->wdgtType;
1023:Generated_Source\PSoC6/CapSense_Processing.c ****     sensorStatus = CapSense_dsRam.snsStatus[widgetId];
1024:Generated_Source\PSoC6/CapSense_Processing.c **** 
1025:Generated_Source\PSoC6/CapSense_Processing.c ****     switch (widgetType)
1026:Generated_Source\PSoC6/CapSense_Processing.c ****     {
1027:Generated_Source\PSoC6/CapSense_Processing.c ****     #if (0u != CapSense_BUTTON_WIDGET_EN)
1028:Generated_Source\PSoC6/CapSense_Processing.c ****         case CapSense_WD_BUTTON_E:
1029:Generated_Source\PSoC6/CapSense_Processing.c ****             sensorStatus = CapSense_DpProcessButton(sensorStatus, ptrFlashWdgt);
1030:Generated_Source\PSoC6/CapSense_Processing.c ****             break;
1031:Generated_Source\PSoC6/CapSense_Processing.c ****     #endif /* #if (0u != CapSense_BUTTON_WIDGET_EN) */
1032:Generated_Source\PSoC6/CapSense_Processing.c **** 
1033:Generated_Source\PSoC6/CapSense_Processing.c ****     #if (0u != CapSense_SLIDER_WIDGET_EN)
1034:Generated_Source\PSoC6/CapSense_Processing.c ****         case CapSense_WD_LINEAR_SLIDER_E:
1035:Generated_Source\PSoC6/CapSense_Processing.c ****         case CapSense_WD_RADIAL_SLIDER_E:
1036:Generated_Source\PSoC6/CapSense_Processing.c ****             sensorStatus = CapSense_DpProcessSlider(sensorStatus, ptrFlashWdgt);
1037:Generated_Source\PSoC6/CapSense_Processing.c ****             break;
1038:Generated_Source\PSoC6/CapSense_Processing.c ****     #endif /* #if (0u != CapSense_SLIDER_WIDGET_EN) */
1039:Generated_Source\PSoC6/CapSense_Processing.c **** 
1040:Generated_Source\PSoC6/CapSense_Processing.c ****     #if (0u != CapSense_CSD_MATRIX_WIDGET_EN)
1041:Generated_Source\PSoC6/CapSense_Processing.c ****         case CapSense_WD_MATRIX_BUTTON_E:
1042:Generated_Source\PSoC6/CapSense_Processing.c ****             sensorStatus = CapSense_DpProcessCsdMatrix(sensorStatus, ptrFlashWdgt);
1043:Generated_Source\PSoC6/CapSense_Processing.c ****             break;
1044:Generated_Source\PSoC6/CapSense_Processing.c ****     #endif /* #if (0u != CapSense_CSD_MATRIX_WIDGET_EN) */
1045:Generated_Source\PSoC6/CapSense_Processing.c **** 
1046:Generated_Source\PSoC6/CapSense_Processing.c ****     #if (0u != CapSense_CSD_TOUCHPAD_WIDGET_EN)
1047:Generated_Source\PSoC6/CapSense_Processing.c ****         case CapSense_WD_TOUCHPAD_E:
1048:Generated_Source\PSoC6/CapSense_Processing.c ****             sensorStatus = CapSense_DpProcessCsdTouchpad(sensorStatus, ptrFlashWdgt);
1049:Generated_Source\PSoC6/CapSense_Processing.c ****             #if (0u != CapSense_BALLISTIC_MULTIPLIER_EN)
1050:Generated_Source\PSoC6/CapSense_Processing.c ****                 CapSense_RunBallisticMultiplier(widgetId);
1051:Generated_Source\PSoC6/CapSense_Processing.c ****             #endif /* (0u != CapSense_BALLISTIC_MULTIPLIER_EN) */
1052:Generated_Source\PSoC6/CapSense_Processing.c ****             break;
1053:Generated_Source\PSoC6/CapSense_Processing.c ****     #endif /* #if (0u != CapSense_CSD_TOUCHPAD_WIDGET_EN) */
1054:Generated_Source\PSoC6/CapSense_Processing.c **** 
1055:Generated_Source\PSoC6/CapSense_Processing.c ****     #if (0u != CapSense_PROXIMITY_WIDGET_EN)
1056:Generated_Source\PSoC6/CapSense_Processing.c ****         case CapSense_WD_PROXIMITY_E:
1057:Generated_Source\PSoC6/CapSense_Processing.c ****             sensorStatus = CapSense_DpProcessProximity(sensorStatus, ptrFlashWdgt);
1058:Generated_Source\PSoC6/CapSense_Processing.c ****             break;
1059:Generated_Source\PSoC6/CapSense_Processing.c ****     #endif /* #if (0u != CapSense_PROXIMITY_WIDGET_EN) */
1060:Generated_Source\PSoC6/CapSense_Processing.c **** 
1061:Generated_Source\PSoC6/CapSense_Processing.c ****     default:
1062:Generated_Source\PSoC6/CapSense_Processing.c ****         CY_ASSERT(0 != 0);
1063:Generated_Source\PSoC6/CapSense_Processing.c ****         break;
1064:Generated_Source\PSoC6/CapSense_Processing.c ****     }
1065:Generated_Source\PSoC6/CapSense_Processing.c **** 
1066:Generated_Source\PSoC6/CapSense_Processing.c ****     CapSense_dsRam.snsStatus[widgetId] = (CapSense_SNS_STS_TYPE)sensorStatus;
1067:Generated_Source\PSoC6/CapSense_Processing.c **** 
1068:Generated_Source\PSoC6/CapSense_Processing.c ****     /* The next two lines calculate index and bitmask of the widget status bit in the wdgtStatus ar
1069:Generated_Source\PSoC6/CapSense_Processing.c ****     wdStatusIndex = CapSense_GET_WDGT_STATUS_INDEX(widgetId);
1070:Generated_Source\PSoC6/CapSense_Processing.c ****     wdStatusMask = CapSense_GET_WDGT_STATUS_MASK(widgetId);
ARM GAS  C:\Users\Austina\AppData\Local\Temp\ccLgwUrp.s 			page 23


1071:Generated_Source\PSoC6/CapSense_Processing.c **** 
1072:Generated_Source\PSoC6/CapSense_Processing.c ****     /* Check if there are active sensors and update widget status accordingly */
1073:Generated_Source\PSoC6/CapSense_Processing.c ****     if (0u == sensorStatus)
1074:Generated_Source\PSoC6/CapSense_Processing.c ****     {
1075:Generated_Source\PSoC6/CapSense_Processing.c ****         CapSense_dsRam.wdgtStatus[wdStatusIndex] &= ~wdStatusMask;
1076:Generated_Source\PSoC6/CapSense_Processing.c ****     }
1077:Generated_Source\PSoC6/CapSense_Processing.c ****     else
1078:Generated_Source\PSoC6/CapSense_Processing.c ****     {
1079:Generated_Source\PSoC6/CapSense_Processing.c ****         CapSense_dsRam.wdgtStatus[wdStatusIndex] |= wdStatusMask;
1080:Generated_Source\PSoC6/CapSense_Processing.c ****     }
1081:Generated_Source\PSoC6/CapSense_Processing.c **** }
1082:Generated_Source\PSoC6/CapSense_Processing.c **** #endif /* #if (0u != CapSense_TOTAL_CSD_WIDGETS) */
1083:Generated_Source\PSoC6/CapSense_Processing.c **** 
1084:Generated_Source\PSoC6/CapSense_Processing.c **** 
1085:Generated_Source\PSoC6/CapSense_Processing.c **** #if (0 != (CapSense_CSD_AUTOTUNE & CapSense_CSD_SS_TH_EN))
1086:Generated_Source\PSoC6/CapSense_Processing.c **** /*******************************************************************************
1087:Generated_Source\PSoC6/CapSense_Processing.c **** * Function Name: CapSense_DpUpdateThresholds
1088:Generated_Source\PSoC6/CapSense_Processing.c **** ****************************************************************************//**
1089:Generated_Source\PSoC6/CapSense_Processing.c **** *
1090:Generated_Source\PSoC6/CapSense_Processing.c **** * \brief
1091:Generated_Source\PSoC6/CapSense_Processing.c **** *   Updates noise and finger thresholds for a specified widget.
1092:Generated_Source\PSoC6/CapSense_Processing.c **** *
1093:Generated_Source\PSoC6/CapSense_Processing.c **** * \details
1094:Generated_Source\PSoC6/CapSense_Processing.c **** *   Updates noise and finger thresholds for a specified widget.
1095:Generated_Source\PSoC6/CapSense_Processing.c **** *   This algorithm is a part of Auto-tuning feature.
1096:Generated_Source\PSoC6/CapSense_Processing.c **** *
1097:Generated_Source\PSoC6/CapSense_Processing.c **** * \param ptrRamWdgt       The pointer to the RAM widget object.
1098:Generated_Source\PSoC6/CapSense_Processing.c **** * \param ptrNoiseEnvelope The pointer to the noise-envelope object in RAM.
1099:Generated_Source\PSoC6/CapSense_Processing.c **** * \param startFlag        The flag indicates when new widget is processed.
1100:Generated_Source\PSoC6/CapSense_Processing.c **** *
1101:Generated_Source\PSoC6/CapSense_Processing.c **** *******************************************************************************/
1102:Generated_Source\PSoC6/CapSense_Processing.c **** void CapSense_DpUpdateThresholds(CapSense_RAM_WD_BASE_STRUCT *ptrRamWdgt,
1103:Generated_Source\PSoC6/CapSense_Processing.c ****                                          SMARTSENSE_CSD_NOISE_ENVELOPE_STRUCT *ptrNoiseEnvelope,
1104:Generated_Source\PSoC6/CapSense_Processing.c ****                                          uint32 startFlag)
1105:Generated_Source\PSoC6/CapSense_Processing.c **** {
 177              		.loc 1 1105 0
 178              		.cfi_startproc
 179              		@ args = 0, pretend = 0, frame = 8
 180              		@ frame_needed = 0, uses_anonymous_args = 0
 181              	.LVL21:
 182 0000 10B5     		push	{r4, lr}
 183              		.cfi_def_cfa_offset 8
 184              		.cfi_offset 4, -8
 185              		.cfi_offset 14, -4
 186 0002 82B0     		sub	sp, sp, #8
 187              		.cfi_def_cfa_offset 16
 188 0004 0446     		mov	r4, r0
 189 0006 0846     		mov	r0, r1
 190              	.LVL22:
1106:Generated_Source\PSoC6/CapSense_Processing.c ****     SMARTSENSE_UPDATE_THRESHOLDS_STRUCT thresholds;
1107:Generated_Source\PSoC6/CapSense_Processing.c ****     SMARTSENSE_UPDATE_THRESHOLDS_STRUCT *ptrThresholds = &thresholds;
1108:Generated_Source\PSoC6/CapSense_Processing.c ****     ptrThresholds->fingerTh = ptrRamWdgt->fingerTh;
 191              		.loc 1 1108 0
 192 0008 6388     		ldrh	r3, [r4, #2]
 193 000a 02A9     		add	r1, sp, #8
 194              	.LVL23:
 195 000c 21F8083D 		strh	r3, [r1, #-8]!	@ movhi
ARM GAS  C:\Users\Austina\AppData\Local\Temp\ccLgwUrp.s 			page 24


1109:Generated_Source\PSoC6/CapSense_Processing.c **** 
1110:Generated_Source\PSoC6/CapSense_Processing.c ****     SmartSense_UpdateThresholds(ptrNoiseEnvelope, ptrThresholds, ptrRamWdgt->sigPFC, startFlag);
 196              		.loc 1 1110 0
 197 0010 1346     		mov	r3, r2
 198 0012 228A     		ldrh	r2, [r4, #16]
 199              	.LVL24:
 200 0014 FFF7FEFF 		bl	SmartSense_UpdateThresholds
 201              	.LVL25:
1111:Generated_Source\PSoC6/CapSense_Processing.c **** 
1112:Generated_Source\PSoC6/CapSense_Processing.c ****     ptrRamWdgt->fingerTh = ptrThresholds->fingerTh;
 202              		.loc 1 1112 0
 203 0018 BDF80030 		ldrh	r3, [sp]
 204 001c 6380     		strh	r3, [r4, #2]	@ movhi
1113:Generated_Source\PSoC6/CapSense_Processing.c ****     ptrRamWdgt->noiseTh = ptrThresholds->noiseTh;
 205              		.loc 1 1113 0
 206 001e 9DF80230 		ldrb	r3, [sp, #2]	@ zero_extendqisi2
 207 0022 2371     		strb	r3, [r4, #4]
1114:Generated_Source\PSoC6/CapSense_Processing.c ****     ptrRamWdgt->nNoiseTh = ptrThresholds->nNoiseTh;
 208              		.loc 1 1114 0
 209 0024 9DF80330 		ldrb	r3, [sp, #3]	@ zero_extendqisi2
 210 0028 6371     		strb	r3, [r4, #5]
1115:Generated_Source\PSoC6/CapSense_Processing.c ****     ptrRamWdgt->hysteresis = ptrThresholds->hysteresis;
 211              		.loc 1 1115 0
 212 002a 9DF80430 		ldrb	r3, [sp, #4]	@ zero_extendqisi2
 213 002e A371     		strb	r3, [r4, #6]
1116:Generated_Source\PSoC6/CapSense_Processing.c **** }
 214              		.loc 1 1116 0
 215 0030 02B0     		add	sp, sp, #8
 216              		.cfi_def_cfa_offset 8
 217              	.LVL26:
 218              		@ sp needed
 219 0032 10BD     		pop	{r4, pc}
 220              		.cfi_endproc
 221              	.LFE133:
 222              		.size	CapSense_DpUpdateThresholds, .-CapSense_DpUpdateThresholds
 223              		.section	.text.CapSense_DpUpdateDifferences,"ax",%progbits
 224              		.align	2
 225              		.global	CapSense_DpUpdateDifferences
 226              		.thumb
 227              		.thumb_func
 228              		.type	CapSense_DpUpdateDifferences, %function
 229              	CapSense_DpUpdateDifferences:
 230              	.LFB134:
1117:Generated_Source\PSoC6/CapSense_Processing.c **** #endif /* #if (0u != (CapSense_CSD_AUTOTUNE & CapSense_CSD_SS_TH_EN)) */
1118:Generated_Source\PSoC6/CapSense_Processing.c **** 
1119:Generated_Source\PSoC6/CapSense_Processing.c **** 
1120:Generated_Source\PSoC6/CapSense_Processing.c **** /*******************************************************************************
1121:Generated_Source\PSoC6/CapSense_Processing.c **** * Function Name: CapSense_DpUpdateDifferences
1122:Generated_Source\PSoC6/CapSense_Processing.c **** ****************************************************************************//**
1123:Generated_Source\PSoC6/CapSense_Processing.c **** *
1124:Generated_Source\PSoC6/CapSense_Processing.c **** * \brief
1125:Generated_Source\PSoC6/CapSense_Processing.c **** *   Calculates new difference values.
1126:Generated_Source\PSoC6/CapSense_Processing.c **** *   Also, executes the multi-frequency scan algorithm if it is enabled.
1127:Generated_Source\PSoC6/CapSense_Processing.c **** *
1128:Generated_Source\PSoC6/CapSense_Processing.c **** * \details
1129:Generated_Source\PSoC6/CapSense_Processing.c **** *   This API calculates the difference between the baseline and raw counts.
1130:Generated_Source\PSoC6/CapSense_Processing.c **** *   If the difference is positive (raw > baseline), and higher than the widget
ARM GAS  C:\Users\Austina\AppData\Local\Temp\ccLgwUrp.s 			page 25


1131:Generated_Source\PSoC6/CapSense_Processing.c **** *   noise threshold, it is saved into the data structure for further processing.
1132:Generated_Source\PSoC6/CapSense_Processing.c **** *   Otherwise the difference is set to zero. The final difference value is saved
1133:Generated_Source\PSoC6/CapSense_Processing.c **** *   with the subtracted noise threshold value.
1134:Generated_Source\PSoC6/CapSense_Processing.c **** *
1135:Generated_Source\PSoC6/CapSense_Processing.c **** *   If the multi-frequency scan algorithm is enabled, the difference is calculated
1136:Generated_Source\PSoC6/CapSense_Processing.c **** *   for the three sets of data available for each sensor. Then
1137:Generated_Source\PSoC6/CapSense_Processing.c **** *   the median filter selects the final difference value.
1138:Generated_Source\PSoC6/CapSense_Processing.c **** *
1139:Generated_Source\PSoC6/CapSense_Processing.c **** * \param ptrRamWdgt The pointer to the RAR Widget Object.
1140:Generated_Source\PSoC6/CapSense_Processing.c **** * \param curSnsPtr  The pointer to the sensor object in RAM.
1141:Generated_Source\PSoC6/CapSense_Processing.c **** *
1142:Generated_Source\PSoC6/CapSense_Processing.c **** *******************************************************************************/
1143:Generated_Source\PSoC6/CapSense_Processing.c **** void CapSense_DpUpdateDifferences(
1144:Generated_Source\PSoC6/CapSense_Processing.c ****                         CapSense_RAM_WD_BASE_STRUCT *ptrRamWdgt,
1145:Generated_Source\PSoC6/CapSense_Processing.c ****                         CapSense_RAM_SNS_STRUCT *curSnsPtr)
1146:Generated_Source\PSoC6/CapSense_Processing.c **** {
 231              		.loc 1 1146 0
 232              		.cfi_startproc
 233              		@ args = 0, pretend = 0, frame = 0
 234              		@ frame_needed = 0, uses_anonymous_args = 0
 235              		@ link register save eliminated.
 236              	.LVL27:
 237 0000 30B4     		push	{r4, r5}
 238              		.cfi_def_cfa_offset 8
 239              		.cfi_offset 4, -8
 240              		.cfi_offset 5, -4
 241              	.LVL28:
1147:Generated_Source\PSoC6/CapSense_Processing.c ****     register int32 diffValue = 0;
1148:Generated_Source\PSoC6/CapSense_Processing.c **** 
1149:Generated_Source\PSoC6/CapSense_Processing.c ****     #if (0u != CapSense_MULTI_FREQ_SCAN_EN)
1150:Generated_Source\PSoC6/CapSense_Processing.c ****         register int32 diffValue_0 = 0;
1151:Generated_Source\PSoC6/CapSense_Processing.c ****         register int32 diffValue_2 = 0;
1152:Generated_Source\PSoC6/CapSense_Processing.c ****     #endif /* #if (0u != CapSense_MULTI_FREQ_SCAN_EN) */
1153:Generated_Source\PSoC6/CapSense_Processing.c **** 
1154:Generated_Source\PSoC6/CapSense_Processing.c ****     /* Calculate difference */
1155:Generated_Source\PSoC6/CapSense_Processing.c ****     diffValue = (int32)curSnsPtr->raw[0u] - (int32)curSnsPtr->bsln[0u];
 242              		.loc 1 1155 0
 243 0002 0B88     		ldrh	r3, [r1]
 244 0004 4A88     		ldrh	r2, [r1, #2]
 245 0006 9C1A     		subs	r4, r3, r2
 246              	.LVL29:
1156:Generated_Source\PSoC6/CapSense_Processing.c **** 
1157:Generated_Source\PSoC6/CapSense_Processing.c ****     #if (0u != CapSense_MULTI_FREQ_SCAN_EN)
1158:Generated_Source\PSoC6/CapSense_Processing.c ****         diffValue_0 = (int32)curSnsPtr->raw[1u] - (int32)curSnsPtr->bsln[1u];
1159:Generated_Source\PSoC6/CapSense_Processing.c ****         diffValue_2 = (int32)curSnsPtr->raw[2u] - (int32)curSnsPtr->bsln[2u];
1160:Generated_Source\PSoC6/CapSense_Processing.c **** 
1161:Generated_Source\PSoC6/CapSense_Processing.c ****         /* Find median and put it into [0u] element */
1162:Generated_Source\PSoC6/CapSense_Processing.c ****         if (diffValue_0 > diffValue)
1163:Generated_Source\PSoC6/CapSense_Processing.c ****         {
1164:Generated_Source\PSoC6/CapSense_Processing.c ****             register int32 swapv = diffValue_0;
1165:Generated_Source\PSoC6/CapSense_Processing.c ****             diffValue_0 = diffValue;
1166:Generated_Source\PSoC6/CapSense_Processing.c ****             diffValue = swapv;
1167:Generated_Source\PSoC6/CapSense_Processing.c ****         }
1168:Generated_Source\PSoC6/CapSense_Processing.c **** 
1169:Generated_Source\PSoC6/CapSense_Processing.c ****         if (diffValue > diffValue_2)
1170:Generated_Source\PSoC6/CapSense_Processing.c ****         {
1171:Generated_Source\PSoC6/CapSense_Processing.c ****             register int32 swapv = diffValue;
ARM GAS  C:\Users\Austina\AppData\Local\Temp\ccLgwUrp.s 			page 26


1172:Generated_Source\PSoC6/CapSense_Processing.c ****             diffValue = diffValue_2;
1173:Generated_Source\PSoC6/CapSense_Processing.c ****             diffValue_2 = swapv;
1174:Generated_Source\PSoC6/CapSense_Processing.c ****         }
1175:Generated_Source\PSoC6/CapSense_Processing.c **** 
1176:Generated_Source\PSoC6/CapSense_Processing.c ****         if (diffValue_0 > diffValue)
1177:Generated_Source\PSoC6/CapSense_Processing.c ****         {
1178:Generated_Source\PSoC6/CapSense_Processing.c ****             register int32 swapv = diffValue_0;
1179:Generated_Source\PSoC6/CapSense_Processing.c ****             diffValue_0 = diffValue;
1180:Generated_Source\PSoC6/CapSense_Processing.c ****             diffValue = swapv;
1181:Generated_Source\PSoC6/CapSense_Processing.c ****         }
1182:Generated_Source\PSoC6/CapSense_Processing.c ****     #endif /* #if (0u != CapSense_MULTI_FREQ_SCAN_EN) */
1183:Generated_Source\PSoC6/CapSense_Processing.c **** 
1184:Generated_Source\PSoC6/CapSense_Processing.c ****     curSnsPtr->diff = 0u;
 247              		.loc 1 1184 0
 248 0008 0025     		movs	r5, #0
 249 000a CD80     		strh	r5, [r1, #6]	@ movhi
1185:Generated_Source\PSoC6/CapSense_Processing.c **** 
1186:Generated_Source\PSoC6/CapSense_Processing.c ****     if (diffValue > (int32)ptrRamWdgt->noiseTh)
 250              		.loc 1 1186 0
 251 000c 0079     		ldrb	r0, [r0, #4]	@ zero_extendqisi2
 252              	.LVL30:
 253 000e 8442     		cmp	r4, r0
 254 0010 00DD     		ble	.L19
1187:Generated_Source\PSoC6/CapSense_Processing.c ****     {
1188:Generated_Source\PSoC6/CapSense_Processing.c ****         curSnsPtr->diff = (CapSense_THRESHOLD_TYPE) diffValue;
 255              		.loc 1 1188 0
 256 0012 CC80     		strh	r4, [r1, #6]	@ movhi
 257              	.L19:
1189:Generated_Source\PSoC6/CapSense_Processing.c ****     }
1190:Generated_Source\PSoC6/CapSense_Processing.c **** }
 258              		.loc 1 1190 0
 259 0014 30BC     		pop	{r4, r5}
 260              		.cfi_restore 5
 261              		.cfi_restore 4
 262              		.cfi_def_cfa_offset 0
 263              	.LVL31:
 264 0016 7047     		bx	lr
 265              		.cfi_endproc
 266              	.LFE134:
 267              		.size	CapSense_DpUpdateDifferences, .-CapSense_DpUpdateDifferences
 268              		.section	.text.CapSense_DpProcessCsxWidgetRawCounts,"ax",%progbits
 269              		.align	2
 270              		.global	CapSense_DpProcessCsxWidgetRawCounts
 271              		.thumb
 272              		.thumb_func
 273              		.type	CapSense_DpProcessCsxWidgetRawCounts, %function
 274              	CapSense_DpProcessCsxWidgetRawCounts:
 275              	.LFB127:
 555:Generated_Source\PSoC6/CapSense_Processing.c ****     uint32 result = CY_RET_SUCCESS;
 276              		.loc 1 555 0
 277              		.cfi_startproc
 278              		@ args = 0, pretend = 0, frame = 0
 279              		@ frame_needed = 0, uses_anonymous_args = 0
 280              	.LVL32:
 281 0000 2DE9F041 		push	{r4, r5, r6, r7, r8, lr}
 282              		.cfi_def_cfa_offset 24
 283              		.cfi_offset 4, -24
ARM GAS  C:\Users\Austina\AppData\Local\Temp\ccLgwUrp.s 			page 27


 284              		.cfi_offset 5, -20
 285              		.cfi_offset 6, -16
 286              		.cfi_offset 7, -12
 287              		.cfi_offset 8, -8
 288              		.cfi_offset 14, -4
 289              	.LVL33:
 568:Generated_Source\PSoC6/CapSense_Processing.c ****     snsCount = ptrFlashWdgt->totalNumSns;
 290              		.loc 1 568 0
 291 0004 8468     		ldr	r4, [r0, #8]
 292              	.LVL34:
 569:Generated_Source\PSoC6/CapSense_Processing.c ****     ptrRamWdgt = (CapSense_RAM_WD_BASE_STRUCT *)ptrFlashWdgt->ptr2WdgtRam;
 293              		.loc 1 569 0
 294 0006 038B     		ldrh	r3, [r0, #24]
 295              	.LVL35:
 570:Generated_Source\PSoC6/CapSense_Processing.c ****     widgetType = ptrFlashWdgt->wdgtType;
 296              		.loc 1 570 0
 297 0008 4568     		ldr	r5, [r0, #4]
 298              	.LVL36:
 571:Generated_Source\PSoC6/CapSense_Processing.c **** 
 299              		.loc 1 571 0
 300 000a 90F81A80 		ldrb	r8, [r0, #26]	@ zero_extendqisi2
 301              	.LVL37:
 556:Generated_Source\PSoC6/CapSense_Processing.c ****     uint32 widgetType;
 302              		.loc 1 556 0
 303 000e 0027     		movs	r7, #0
 581:Generated_Source\PSoC6/CapSense_Processing.c ****     {
 304              		.loc 1 581 0
 305 0010 0BE0     		b	.L23
 306              	.LVL38:
 307              	.L24:
 590:Generated_Source\PSoC6/CapSense_Processing.c **** 
 308              		.loc 1 590 0
 309 0012 4246     		mov	r2, r8
 310 0014 2146     		mov	r1, r4
 311 0016 2846     		mov	r0, r5
 312 0018 FFF7FEFF 		bl	CapSense_FtUpdateBaseline
 313              	.LVL39:
 314 001c 0746     		mov	r7, r0
 315              	.LVL40:
 599:Generated_Source\PSoC6/CapSense_Processing.c **** 
 316              		.loc 1 599 0
 317 001e 2146     		mov	r1, r4
 318 0020 2846     		mov	r0, r5
 319              	.LVL41:
 320 0022 FFF7FEFF 		bl	CapSense_DpUpdateDifferences
 321              	.LVL42:
 602:Generated_Source\PSoC6/CapSense_Processing.c ****         
 322              		.loc 1 602 0
 323 0026 0A34     		adds	r4, r4, #10
 324              	.LVL43:
 581:Generated_Source\PSoC6/CapSense_Processing.c ****     {
 325              		.loc 1 581 0
 326 0028 3346     		mov	r3, r6
 327              	.LVL44:
 328              	.L23:
 329 002a 5E1E     		subs	r6, r3, #1
 330              	.LVL45:
ARM GAS  C:\Users\Austina\AppData\Local\Temp\ccLgwUrp.s 			page 28


 331 002c 002B     		cmp	r3, #0
 332 002e F0D1     		bne	.L24
 609:Generated_Source\PSoC6/CapSense_Processing.c **** 
 333              		.loc 1 609 0
 334 0030 3846     		mov	r0, r7
 335 0032 BDE8F081 		pop	{r4, r5, r6, r7, r8, pc}
 336              		.cfi_endproc
 337              	.LFE127:
 338              		.size	CapSense_DpProcessCsxWidgetRawCounts, .-CapSense_DpProcessCsxWidgetRawCounts
 339 0036 00BF     		.section	.text.CapSense_DpProcessCsxSensorRawCountsExt,"ax",%progbits
 340              		.align	2
 341              		.global	CapSense_DpProcessCsxSensorRawCountsExt
 342              		.thumb
 343              		.thumb_func
 344              		.type	CapSense_DpProcessCsxSensorRawCountsExt, %function
 345              	CapSense_DpProcessCsxSensorRawCountsExt:
 346              	.LFB128:
 647:Generated_Source\PSoC6/CapSense_Processing.c ****     uint32  result = CY_RET_SUCCESS;
 347              		.loc 1 647 0
 348              		.cfi_startproc
 349              		@ args = 0, pretend = 0, frame = 0
 350              		@ frame_needed = 0, uses_anonymous_args = 0
 351              	.LVL46:
 352 0000 F8B5     		push	{r3, r4, r5, r6, r7, lr}
 353              		.cfi_def_cfa_offset 24
 354              		.cfi_offset 3, -24
 355              		.cfi_offset 4, -20
 356              		.cfi_offset 5, -16
 357              		.cfi_offset 6, -12
 358              		.cfi_offset 7, -8
 359              		.cfi_offset 14, -4
 360 0002 0F46     		mov	r7, r1
 361 0004 1C46     		mov	r4, r3
 362              	.LVL47:
 652:Generated_Source\PSoC6/CapSense_Processing.c ****     ptrRamWdgt = (CapSense_RAM_WD_BASE_STRUCT *)ptrFlashWdgt->ptr2WdgtRam;
 363              		.loc 1 652 0
 364 0006 827E     		ldrb	r2, [r0, #26]	@ zero_extendqisi2
 365              	.LVL48:
 653:Generated_Source\PSoC6/CapSense_Processing.c **** 
 366              		.loc 1 653 0
 367 0008 4668     		ldr	r6, [r0, #4]
 368              	.LVL49:
 667:Generated_Source\PSoC6/CapSense_Processing.c ****     {
 369              		.loc 1 667 0
 370 000a 13F0020F 		tst	r3, #2
 371 000e 04D0     		beq	.L29
 669:Generated_Source\PSoC6/CapSense_Processing.c ****     }
 372              		.loc 1 669 0
 373 0010 3046     		mov	r0, r6
 374              	.LVL50:
 375 0012 FFF7FEFF 		bl	CapSense_FtUpdateBaseline
 376              	.LVL51:
 377 0016 0546     		mov	r5, r0
 378              	.LVL52:
 379 0018 00E0     		b	.L27
 380              	.LVL53:
 381              	.L29:
ARM GAS  C:\Users\Austina\AppData\Local\Temp\ccLgwUrp.s 			page 29


 648:Generated_Source\PSoC6/CapSense_Processing.c ****     uint32  widgetType;
 382              		.loc 1 648 0
 383 001a 0025     		movs	r5, #0
 384              	.LVL54:
 385              	.L27:
 672:Generated_Source\PSoC6/CapSense_Processing.c ****     {
 386              		.loc 1 672 0
 387 001c 14F0040F 		tst	r4, #4
 388 0020 03D0     		beq	.L28
 674:Generated_Source\PSoC6/CapSense_Processing.c ****     }
 389              		.loc 1 674 0
 390 0022 3946     		mov	r1, r7
 391 0024 3046     		mov	r0, r6
 392 0026 FFF7FEFF 		bl	CapSense_DpUpdateDifferences
 393              	.LVL55:
 394              	.L28:
 677:Generated_Source\PSoC6/CapSense_Processing.c **** 
 395              		.loc 1 677 0
 396 002a 2846     		mov	r0, r5
 397 002c F8BD     		pop	{r3, r4, r5, r6, r7, pc}
 398              		.cfi_endproc
 399              	.LFE128:
 400              		.size	CapSense_DpProcessCsxSensorRawCountsExt, .-CapSense_DpProcessCsxSensorRawCountsExt
 401 002e 00BF     		.section	.text.CapSense_DpProcessCsdWidgetRawCounts,"ax",%progbits
 402              		.align	2
 403              		.global	CapSense_DpProcessCsdWidgetRawCounts
 404              		.thumb
 405              		.thumb_func
 406              		.type	CapSense_DpProcessCsdWidgetRawCounts, %function
 407              	CapSense_DpProcessCsdWidgetRawCounts:
 408              	.LFB130:
 786:Generated_Source\PSoC6/CapSense_Processing.c ****     uint32  result = CY_RET_SUCCESS;
 409              		.loc 1 786 0
 410              		.cfi_startproc
 411              		@ args = 0, pretend = 0, frame = 0
 412              		@ frame_needed = 0, uses_anonymous_args = 0
 413              	.LVL56:
 414 0000 2DE9F047 		push	{r4, r5, r6, r7, r8, r9, r10, lr}
 415              		.cfi_def_cfa_offset 32
 416              		.cfi_offset 4, -32
 417              		.cfi_offset 5, -28
 418              		.cfi_offset 6, -24
 419              		.cfi_offset 7, -20
 420              		.cfi_offset 8, -16
 421              		.cfi_offset 9, -12
 422              		.cfi_offset 10, -8
 423              		.cfi_offset 14, -4
 424 0004 8046     		mov	r8, r0
 425              	.LVL57:
 816:Generated_Source\PSoC6/CapSense_Processing.c ****     ptrRamWdgt = (CapSense_RAM_WD_BASE_STRUCT *)ptrFlashWdgt->ptr2WdgtRam;
 426              		.loc 1 816 0
 427 0006 8468     		ldr	r4, [r0, #8]
 428              	.LVL58:
 817:Generated_Source\PSoC6/CapSense_Processing.c ****     widgetType = ptrFlashWdgt->wdgtType;
 429              		.loc 1 817 0
 430 0008 4768     		ldr	r7, [r0, #4]
 431              	.LVL59:
ARM GAS  C:\Users\Austina\AppData\Local\Temp\ccLgwUrp.s 			page 30


 818:Generated_Source\PSoC6/CapSense_Processing.c **** 
 432              		.loc 1 818 0
 433 000a 90F81AA0 		ldrb	r10, [r0, #26]	@ zero_extendqisi2
 434              	.LVL60:
 821:Generated_Source\PSoC6/CapSense_Processing.c ****     #endif /* #if (0u != (CapSense_CSD_AUTOTUNE & CapSense_CSD_SS_TH_EN)) */
 435              		.loc 1 821 0
 436 000e 466A     		ldr	r6, [r0, #36]
 437              	.LVL61:
 825:Generated_Source\PSoC6/CapSense_Processing.c ****     {
 438              		.loc 1 825 0
 439 0010 0025     		movs	r5, #0
 787:Generated_Source\PSoC6/CapSense_Processing.c **** 
 440              		.loc 1 787 0
 441 0012 A946     		mov	r9, r5
 825:Generated_Source\PSoC6/CapSense_Processing.c ****     {
 442              		.loc 1 825 0
 443 0014 16E0     		b	.L32
 444              	.LVL62:
 445              	.L33:
 837:Generated_Source\PSoC6/CapSense_Processing.c ****             CapSense_DpUpdateThresholds(ptrRamWdgt, ptrNoiseEnvelope, snsId);
 446              		.loc 1 837 0 discriminator 3
 447 0016 3246     		mov	r2, r6
 448 0018 398A     		ldrh	r1, [r7, #16]
 449 001a 2088     		ldrh	r0, [r4]
 450 001c FFF7FEFF 		bl	SmartSense_RunNoiseEnvelope
 451              	.LVL63:
 838:Generated_Source\PSoC6/CapSense_Processing.c **** 
 452              		.loc 1 838 0 discriminator 3
 453 0020 2A46     		mov	r2, r5
 454 0022 3146     		mov	r1, r6
 455 0024 3846     		mov	r0, r7
 456 0026 FFF7FEFF 		bl	CapSense_DpUpdateThresholds
 457              	.LVL64:
 855:Generated_Source\PSoC6/CapSense_Processing.c ****         #endif /* (0u != (CapSense_CSD_AUTOTUNE & CapSense_CSD_SS_TH_EN)) */
 458              		.loc 1 855 0 discriminator 3
 459 002a 0C36     		adds	r6, r6, #12
 460              	.LVL65:
 865:Generated_Source\PSoC6/CapSense_Processing.c ****         #endif /* (CapSense_ENABLE == CapSense_TST_BSLN_DUPLICATION_EN) */
 461              		.loc 1 865 0 discriminator 3
 462 002c 5246     		mov	r2, r10
 463 002e 2146     		mov	r1, r4
 464 0030 3846     		mov	r0, r7
 465 0032 FFF7FEFF 		bl	CapSense_FtUpdateBaseline
 466              	.LVL66:
 467 0036 8146     		mov	r9, r0
 468              	.LVL67:
 868:Generated_Source\PSoC6/CapSense_Processing.c **** 
 469              		.loc 1 868 0 discriminator 3
 470 0038 2146     		mov	r1, r4
 471 003a 3846     		mov	r0, r7
 472              	.LVL68:
 473 003c FFF7FEFF 		bl	CapSense_DpUpdateDifferences
 474              	.LVL69:
 871:Generated_Source\PSoC6/CapSense_Processing.c **** 
 475              		.loc 1 871 0 discriminator 3
 476 0040 0A34     		adds	r4, r4, #10
 477              	.LVL70:
ARM GAS  C:\Users\Austina\AppData\Local\Temp\ccLgwUrp.s 			page 31


 825:Generated_Source\PSoC6/CapSense_Processing.c ****     {
 478              		.loc 1 825 0 discriminator 3
 479 0042 0135     		adds	r5, r5, #1
 480              	.LVL71:
 481              	.L32:
 825:Generated_Source\PSoC6/CapSense_Processing.c ****     {
 482              		.loc 1 825 0 is_stmt 0 discriminator 1
 483 0044 B8F81830 		ldrh	r3, [r8, #24]
 484 0048 9D42     		cmp	r5, r3
 485 004a E4D3     		bcc	.L33
 879:Generated_Source\PSoC6/CapSense_Processing.c **** 
 486              		.loc 1 879 0 is_stmt 1
 487 004c 4846     		mov	r0, r9
 488 004e BDE8F087 		pop	{r4, r5, r6, r7, r8, r9, r10, pc}
 489              		.cfi_endproc
 490              	.LFE130:
 491              		.size	CapSense_DpProcessCsdWidgetRawCounts, .-CapSense_DpProcessCsdWidgetRawCounts
 492 0052 00BF     		.section	.text.CapSense_DpProcessCsdSensorRawCountsExt,"ax",%progbits
 493              		.align	2
 494              		.global	CapSense_DpProcessCsdSensorRawCountsExt
 495              		.thumb
 496              		.thumb_func
 497              		.type	CapSense_DpProcessCsdSensorRawCountsExt, %function
 498              	CapSense_DpProcessCsdSensorRawCountsExt:
 499              	.LFB131:
 920:Generated_Source\PSoC6/CapSense_Processing.c ****     uint32 result = CY_RET_SUCCESS;
 500              		.loc 1 920 0
 501              		.cfi_startproc
 502              		@ args = 0, pretend = 0, frame = 0
 503              		@ frame_needed = 0, uses_anonymous_args = 0
 504              	.LVL72:
 505 0000 2DE9F041 		push	{r4, r5, r6, r7, r8, lr}
 506              		.cfi_def_cfa_offset 24
 507              		.cfi_offset 4, -24
 508              		.cfi_offset 5, -20
 509              		.cfi_offset 6, -16
 510              		.cfi_offset 7, -12
 511              		.cfi_offset 8, -8
 512              		.cfi_offset 14, -4
 513 0004 0F46     		mov	r7, r1
 514 0006 1C46     		mov	r4, r3
 515              	.LVL73:
 932:Generated_Source\PSoC6/CapSense_Processing.c ****     #endif /* (0u != (CapSense_CSD_AUTOTUNE & CapSense_CSD_SS_TH_EN)) */
 516              		.loc 1 932 0
 517 0008 466A     		ldr	r6, [r0, #36]
 518              	.LVL74:
 935:Generated_Source\PSoC6/CapSense_Processing.c ****     ptrRamWdgt = (CapSense_RAM_WD_BASE_STRUCT *)ptrFlashWdgt->ptr2WdgtRam;
 519              		.loc 1 935 0
 520 000a 90F81A80 		ldrb	r8, [r0, #26]	@ zero_extendqisi2
 521              	.LVL75:
 936:Generated_Source\PSoC6/CapSense_Processing.c **** 
 522              		.loc 1 936 0
 523 000e 4568     		ldr	r5, [r0, #4]
 524              	.LVL76:
 951:Generated_Source\PSoC6/CapSense_Processing.c ****         {
 525              		.loc 1 951 0
 526 0010 13F0080F 		tst	r3, #8
ARM GAS  C:\Users\Austina\AppData\Local\Temp\ccLgwUrp.s 			page 32


 527 0014 04D0     		beq	.L36
 953:Generated_Source\PSoC6/CapSense_Processing.c ****         }
 528              		.loc 1 953 0
 529 0016 3246     		mov	r2, r6
 530              	.LVL77:
 531 0018 298A     		ldrh	r1, [r5, #16]
 532              	.LVL78:
 533 001a 3888     		ldrh	r0, [r7]
 534              	.LVL79:
 535 001c FFF7FEFF 		bl	SmartSense_RunNoiseEnvelope
 536              	.LVL80:
 537              	.L36:
 956:Generated_Source\PSoC6/CapSense_Processing.c ****         {
 538              		.loc 1 956 0
 539 0020 14F0100F 		tst	r4, #16
 540 0024 04D0     		beq	.L37
 958:Generated_Source\PSoC6/CapSense_Processing.c **** 
 541              		.loc 1 958 0
 542 0026 0022     		movs	r2, #0
 543              	.LVL81:
 544 0028 3146     		mov	r1, r6
 545 002a 2846     		mov	r0, r5
 546 002c FFF7FEFF 		bl	CapSense_DpUpdateThresholds
 547              	.LVL82:
 548              	.L37:
 976:Generated_Source\PSoC6/CapSense_Processing.c ****     {
 549              		.loc 1 976 0
 550 0030 14F0020F 		tst	r4, #2
 551 0034 06D0     		beq	.L40
 978:Generated_Source\PSoC6/CapSense_Processing.c ****     }
 552              		.loc 1 978 0
 553 0036 4246     		mov	r2, r8
 554              	.LVL83:
 555 0038 3946     		mov	r1, r7
 556 003a 2846     		mov	r0, r5
 557 003c FFF7FEFF 		bl	CapSense_FtUpdateBaseline
 558              	.LVL84:
 559 0040 0646     		mov	r6, r0
 560              	.LVL85:
 561 0042 00E0     		b	.L38
 562              	.LVL86:
 563              	.L40:
 921:Generated_Source\PSoC6/CapSense_Processing.c ****     uint32  widgetType;
 564              		.loc 1 921 0
 565 0044 0026     		movs	r6, #0
 566              	.LVL87:
 567              	.L38:
 981:Generated_Source\PSoC6/CapSense_Processing.c ****     {
 568              		.loc 1 981 0
 569 0046 14F0040F 		tst	r4, #4
 570 004a 03D0     		beq	.L39
 983:Generated_Source\PSoC6/CapSense_Processing.c ****     }
 571              		.loc 1 983 0
 572 004c 3946     		mov	r1, r7
 573 004e 2846     		mov	r0, r5
 574 0050 FFF7FEFF 		bl	CapSense_DpUpdateDifferences
 575              	.LVL88:
ARM GAS  C:\Users\Austina\AppData\Local\Temp\ccLgwUrp.s 			page 33


 576              	.L39:
 986:Generated_Source\PSoC6/CapSense_Processing.c **** 
 577              		.loc 1 986 0
 578 0054 3046     		mov	r0, r6
 579 0056 BDE8F081 		pop	{r4, r5, r6, r7, r8, pc}
 580              		.cfi_endproc
 581              	.LFE131:
 582              		.size	CapSense_DpProcessCsdSensorRawCountsExt, .-CapSense_DpProcessCsdSensorRawCountsExt
 583 005a 00BF     		.section	.text.CapSense_DpProcessButton,"ax",%progbits
 584              		.align	2
 585              		.global	CapSense_DpProcessButton
 586              		.thumb
 587              		.thumb_func
 588              		.type	CapSense_DpProcessButton, %function
 589              	CapSense_DpProcessButton:
 590              	.LFB135:
1191:Generated_Source\PSoC6/CapSense_Processing.c **** 
1192:Generated_Source\PSoC6/CapSense_Processing.c **** 
1193:Generated_Source\PSoC6/CapSense_Processing.c **** #if ((0u != CapSense_BUTTON_WIDGET_EN) || (0u != CapSense_CSX_MATRIX_WIDGET_EN))
1194:Generated_Source\PSoC6/CapSense_Processing.c **** /*******************************************************************************
1195:Generated_Source\PSoC6/CapSense_Processing.c **** * Function Name: CapSense_DpProcessButton
1196:Generated_Source\PSoC6/CapSense_Processing.c **** ****************************************************************************//**
1197:Generated_Source\PSoC6/CapSense_Processing.c **** *
1198:Generated_Source\PSoC6/CapSense_Processing.c **** * \brief
1199:Generated_Source\PSoC6/CapSense_Processing.c **** *   Processes the status of the Button widget.
1200:Generated_Source\PSoC6/CapSense_Processing.c **** *
1201:Generated_Source\PSoC6/CapSense_Processing.c **** * \details
1202:Generated_Source\PSoC6/CapSense_Processing.c **** *   This API processes the status of the CSD/CSX Button widget and
1203:Generated_Source\PSoC6/CapSense_Processing.c **** *   CSX Matrix Button widget. It applies the hysteresis and de-bounce algorithm
1204:Generated_Source\PSoC6/CapSense_Processing.c **** *   to each sensor difference value. This API is expected to be called
1205:Generated_Source\PSoC6/CapSense_Processing.c **** *   after each new widget scan. If it is called multiple times for the same
1206:Generated_Source\PSoC6/CapSense_Processing.c **** *   scan data, the de-bounce algorithm will not work properly.
1207:Generated_Source\PSoC6/CapSense_Processing.c **** *
1208:Generated_Source\PSoC6/CapSense_Processing.c **** *   This API does not update any Data Structure registers
1209:Generated_Source\PSoC6/CapSense_Processing.c **** *   except the de-bounce counters.
1210:Generated_Source\PSoC6/CapSense_Processing.c **** *
1211:Generated_Source\PSoC6/CapSense_Processing.c **** * \param currStatus   The current status of the widget sensors.
1212:Generated_Source\PSoC6/CapSense_Processing.c **** * \param ptrFlashWdgt The pointer to the Flash Widget Object.
1213:Generated_Source\PSoC6/CapSense_Processing.c **** *
1214:Generated_Source\PSoC6/CapSense_Processing.c **** * \return Returns the status of the widget's sensors. Bit #0 - corresponds to Sensor #0.
1215:Generated_Source\PSoC6/CapSense_Processing.c **** *
1216:Generated_Source\PSoC6/CapSense_Processing.c **** *******************************************************************************/
1217:Generated_Source\PSoC6/CapSense_Processing.c **** uint32 CapSense_DpProcessButton(uint32 currStatus, CapSense_FLASH_WD_STRUCT const *ptrFlashWdgt)
1218:Generated_Source\PSoC6/CapSense_Processing.c **** {
 591              		.loc 1 1218 0
 592              		.cfi_startproc
 593              		@ args = 0, pretend = 0, frame = 0
 594              		@ frame_needed = 0, uses_anonymous_args = 0
 595              	.LVL89:
 596 0000 F0B5     		push	{r4, r5, r6, r7, lr}
 597              		.cfi_def_cfa_offset 20
 598              		.cfi_offset 4, -20
 599              		.cfi_offset 5, -16
 600              		.cfi_offset 6, -12
 601              		.cfi_offset 7, -8
 602              		.cfi_offset 14, -4
1219:Generated_Source\PSoC6/CapSense_Processing.c ****     uint32 snsCnt;
ARM GAS  C:\Users\Austina\AppData\Local\Temp\ccLgwUrp.s 			page 34


1220:Generated_Source\PSoC6/CapSense_Processing.c ****     uint32 snsMask;
1221:Generated_Source\PSoC6/CapSense_Processing.c ****     uint32 newStatus;
1222:Generated_Source\PSoC6/CapSense_Processing.c ****     uint32 touchTh;
1223:Generated_Source\PSoC6/CapSense_Processing.c ****     CapSense_RAM_SNS_STRUCT *ptrSnsTmp;
1224:Generated_Source\PSoC6/CapSense_Processing.c ****     CapSense_RAM_WD_BASE_STRUCT *ptrRamWdgt;
1225:Generated_Source\PSoC6/CapSense_Processing.c ****     uint8 * ptrDebounceCnt;
1226:Generated_Source\PSoC6/CapSense_Processing.c **** 
1227:Generated_Source\PSoC6/CapSense_Processing.c ****     snsCnt = ptrFlashWdgt->totalNumSns;
 603              		.loc 1 1227 0
 604 0002 0C8B     		ldrh	r4, [r1, #24]
 605              	.LVL90:
1228:Generated_Source\PSoC6/CapSense_Processing.c ****     ptrSnsTmp = ptrFlashWdgt->ptr2SnsRam;
 606              		.loc 1 1228 0
 607 0004 8D68     		ldr	r5, [r1, #8]
 608              	.LVL91:
1229:Generated_Source\PSoC6/CapSense_Processing.c ****     ptrRamWdgt = (CapSense_RAM_WD_BASE_STRUCT *)ptrFlashWdgt->ptr2WdgtRam;
 609              		.loc 1 1229 0
 610 0006 4F68     		ldr	r7, [r1, #4]
 611              	.LVL92:
1230:Generated_Source\PSoC6/CapSense_Processing.c ****     ptrDebounceCnt = ptrFlashWdgt->ptr2DebounceArr;
 612              		.loc 1 1230 0
 613 0008 0A69     		ldr	r2, [r1, #16]
 614              	.LVL93:
1231:Generated_Source\PSoC6/CapSense_Processing.c **** 
1232:Generated_Source\PSoC6/CapSense_Processing.c ****     /* Go through all widget's sensors */
1233:Generated_Source\PSoC6/CapSense_Processing.c ****     snsMask = 1Lu;
 615              		.loc 1 1233 0
 616 000a 0123     		movs	r3, #1
1234:Generated_Source\PSoC6/CapSense_Processing.c ****     for (; snsCnt-- > 0u; )
 617              		.loc 1 1234 0
 618 000c 24E0     		b	.L43
 619              	.LVL94:
 620              	.L51:
1235:Generated_Source\PSoC6/CapSense_Processing.c ****     {
1236:Generated_Source\PSoC6/CapSense_Processing.c ****         /* Calculate touch threshold taking into account hysteresis
1237:Generated_Source\PSoC6/CapSense_Processing.c ****            and current sensor state. */
1238:Generated_Source\PSoC6/CapSense_Processing.c ****         touchTh = (0u == (currStatus & snsMask)) ?
1239:Generated_Source\PSoC6/CapSense_Processing.c ****                   ((uint32)ptrRamWdgt->fingerTh + ptrRamWdgt->hysteresis) :
 621              		.loc 1 1239 0
 622 000e 10EA0304 		ands	r4, r0, r3
 623 0012 03D1     		bne	.L44
 624              		.loc 1 1239 0 is_stmt 0 discriminator 1
 625 0014 7E88     		ldrh	r6, [r7, #2]
 626 0016 B979     		ldrb	r1, [r7, #6]	@ zero_extendqisi2
 627 0018 3144     		add	r1, r1, r6
 628 001a 02E0     		b	.L45
 629              	.L44:
1240:Generated_Source\PSoC6/CapSense_Processing.c ****                   ((uint32)ptrRamWdgt->fingerTh - ptrRamWdgt->hysteresis);
 630              		.loc 1 1240 0 is_stmt 1 discriminator 2
 631 001c 7988     		ldrh	r1, [r7, #2]
 632 001e BE79     		ldrb	r6, [r7, #6]	@ zero_extendqisi2
1239:Generated_Source\PSoC6/CapSense_Processing.c ****                   ((uint32)ptrRamWdgt->fingerTh - ptrRamWdgt->hysteresis);
 633              		.loc 1 1239 0 discriminator 2
 634 0020 891B     		subs	r1, r1, r6
 635              	.L45:
 636              	.LVL95:
1241:Generated_Source\PSoC6/CapSense_Processing.c **** 
ARM GAS  C:\Users\Austina\AppData\Local\Temp\ccLgwUrp.s 			page 35


1242:Generated_Source\PSoC6/CapSense_Processing.c ****         /* Determine new potential sensor state */
1243:Generated_Source\PSoC6/CapSense_Processing.c ****         newStatus = (ptrSnsTmp->diff > touchTh) ? snsMask : 0u;
 637              		.loc 1 1243 0
 638 0022 EE88     		ldrh	r6, [r5, #6]
 639 0024 B142     		cmp	r1, r6
 640 0026 01D3     		bcc	.L52
 641 0028 0021     		movs	r1, #0
 642              	.LVL96:
 643 002a 00E0     		b	.L46
 644              	.LVL97:
 645              	.L52:
 646 002c 1946     		mov	r1, r3
 647              	.LVL98:
 648              	.L46:
1244:Generated_Source\PSoC6/CapSense_Processing.c **** 
1245:Generated_Source\PSoC6/CapSense_Processing.c ****         /* Sensor state changed ? */
1246:Generated_Source\PSoC6/CapSense_Processing.c ****         if (newStatus != (currStatus & snsMask))
 649              		.loc 1 1246 0 discriminator 4
 650 002e A142     		cmp	r1, r4
 651 0030 02D0     		beq	.L47
1247:Generated_Source\PSoC6/CapSense_Processing.c ****         {
1248:Generated_Source\PSoC6/CapSense_Processing.c ****             /* Decrement de-bounce counter */
1249:Generated_Source\PSoC6/CapSense_Processing.c ****             (*ptrDebounceCnt)--;
 652              		.loc 1 1249 0
 653 0032 1678     		ldrb	r6, [r2]	@ zero_extendqisi2
 654 0034 013E     		subs	r6, r6, #1
 655 0036 1670     		strb	r6, [r2]
 656              	.L47:
1250:Generated_Source\PSoC6/CapSense_Processing.c ****         }
1251:Generated_Source\PSoC6/CapSense_Processing.c **** 
1252:Generated_Source\PSoC6/CapSense_Processing.c ****         /*
1253:Generated_Source\PSoC6/CapSense_Processing.c ****         *  This piece of code has two objectives:
1254:Generated_Source\PSoC6/CapSense_Processing.c ****         *  1. Reset de-bounce counter if the sensor state did not change.
1255:Generated_Source\PSoC6/CapSense_Processing.c ****         *     (It is possible that during previous processing cycles sensor
1256:Generated_Source\PSoC6/CapSense_Processing.c ****         *     was active and de-bounce counter was decremented.)
1257:Generated_Source\PSoC6/CapSense_Processing.c ****         *  2. Set new sensor state after successful de-bounce.
1258:Generated_Source\PSoC6/CapSense_Processing.c ****         */
1259:Generated_Source\PSoC6/CapSense_Processing.c ****         if ((newStatus == (currStatus & snsMask)) || (0u == (*ptrDebounceCnt)))
 657              		.loc 1 1259 0
 658 0038 A142     		cmp	r1, r4
 659 003a 01D0     		beq	.L48
 660              		.loc 1 1259 0 is_stmt 0 discriminator 1
 661 003c 1478     		ldrb	r4, [r2]	@ zero_extendqisi2
 662 003e 3CB9     		cbnz	r4, .L49
 663              	.L48:
1260:Generated_Source\PSoC6/CapSense_Processing.c ****         {
1261:Generated_Source\PSoC6/CapSense_Processing.c ****             /* Set new sensor status */
1262:Generated_Source\PSoC6/CapSense_Processing.c ****             currStatus &= ~snsMask;
 664              		.loc 1 1262 0 is_stmt 1
 665 0040 20EA0300 		bic	r0, r0, r3
 666              	.LVL99:
1263:Generated_Source\PSoC6/CapSense_Processing.c ****             currStatus |= newStatus;
 667              		.loc 1 1263 0
 668 0044 0843     		orrs	r0, r0, r1
 669              	.LVL100:
1264:Generated_Source\PSoC6/CapSense_Processing.c **** 
1265:Generated_Source\PSoC6/CapSense_Processing.c ****             /* Reset de-bounce counter */
ARM GAS  C:\Users\Austina\AppData\Local\Temp\ccLgwUrp.s 			page 36


1266:Generated_Source\PSoC6/CapSense_Processing.c ****             #if (0u != CapSense_OFF_DEBOUNCE_EN)
1267:Generated_Source\PSoC6/CapSense_Processing.c ****                 *ptrDebounceCnt = (0Lu == newStatus) ? ptrRamWdgt->onDebounce : ptrRamWdgt->offDebo
1268:Generated_Source\PSoC6/CapSense_Processing.c ****             #else
1269:Generated_Source\PSoC6/CapSense_Processing.c ****                 *ptrDebounceCnt = (0Lu == newStatus) ? ptrRamWdgt->onDebounce : DEFAULT_OFF_DEBOUNC
 670              		.loc 1 1269 0
 671 0046 09B9     		cbnz	r1, .L53
 672              		.loc 1 1269 0 is_stmt 0 discriminator 1
 673 0048 F979     		ldrb	r1, [r7, #7]	@ zero_extendqisi2
 674              	.LVL101:
 675 004a 00E0     		b	.L50
 676              	.LVL102:
 677              	.L53:
 678              		.loc 1 1269 0
 679 004c 0121     		movs	r1, #1
 680              	.LVL103:
 681              	.L50:
 682              		.loc 1 1269 0 discriminator 4
 683 004e 1170     		strb	r1, [r2]
 684              	.L49:
1270:Generated_Source\PSoC6/CapSense_Processing.c ****             #endif /* #if (0u != CapSense_OFF_DEBOUNCE_EN) */
1271:Generated_Source\PSoC6/CapSense_Processing.c ****         }
1272:Generated_Source\PSoC6/CapSense_Processing.c **** 
1273:Generated_Source\PSoC6/CapSense_Processing.c ****         /* Move mask to the next sensor */
1274:Generated_Source\PSoC6/CapSense_Processing.c ****         snsMask <<= 1u;
 685              		.loc 1 1274 0 is_stmt 1
 686 0050 5B00     		lsls	r3, r3, #1
 687              	.LVL104:
1275:Generated_Source\PSoC6/CapSense_Processing.c **** 
1276:Generated_Source\PSoC6/CapSense_Processing.c ****         ptrSnsTmp++;
 688              		.loc 1 1276 0
 689 0052 0A35     		adds	r5, r5, #10
 690              	.LVL105:
1277:Generated_Source\PSoC6/CapSense_Processing.c ****         ptrDebounceCnt++;
 691              		.loc 1 1277 0
 692 0054 0132     		adds	r2, r2, #1
 693              	.LVL106:
1234:Generated_Source\PSoC6/CapSense_Processing.c ****     {
 694              		.loc 1 1234 0
 695 0056 7446     		mov	r4, lr
 696              	.LVL107:
 697              	.L43:
 698 0058 04F1FF3E 		add	lr, r4, #-1
 699              	.LVL108:
 700 005c 002C     		cmp	r4, #0
 701 005e D6D1     		bne	.L51
1278:Generated_Source\PSoC6/CapSense_Processing.c ****     }
1279:Generated_Source\PSoC6/CapSense_Processing.c **** 
1280:Generated_Source\PSoC6/CapSense_Processing.c ****     return currStatus;
1281:Generated_Source\PSoC6/CapSense_Processing.c **** }
 702              		.loc 1 1281 0
 703 0060 F0BD     		pop	{r4, r5, r6, r7, pc}
 704              		.cfi_endproc
 705              	.LFE135:
 706              		.size	CapSense_DpProcessButton, .-CapSense_DpProcessButton
 707 0062 00BF     		.section	.text.CapSense_DpProcessCsxWidgetStatus,"ax",%progbits
 708              		.align	2
 709              		.global	CapSense_DpProcessCsxWidgetStatus
ARM GAS  C:\Users\Austina\AppData\Local\Temp\ccLgwUrp.s 			page 37


 710              		.thumb
 711              		.thumb_func
 712              		.type	CapSense_DpProcessCsxWidgetStatus, %function
 713              	CapSense_DpProcessCsxWidgetStatus:
 714              	.LFB129:
 706:Generated_Source\PSoC6/CapSense_Processing.c ****     uint32 sensorStatus;
 715              		.loc 1 706 0
 716              		.cfi_startproc
 717              		@ args = 0, pretend = 0, frame = 0
 718              		@ frame_needed = 0, uses_anonymous_args = 0
 719              	.LVL109:
 720 0000 38B5     		push	{r3, r4, r5, lr}
 721              		.cfi_def_cfa_offset 16
 722              		.cfi_offset 3, -16
 723              		.cfi_offset 4, -12
 724              		.cfi_offset 5, -8
 725              		.cfi_offset 14, -4
 726 0002 0446     		mov	r4, r0
 712:Generated_Source\PSoC6/CapSense_Processing.c ****     sensorStatus = CapSense_dsRam.snsStatus[widgetId];
 727              		.loc 1 712 0
 728 0004 8A7E     		ldrb	r2, [r1, #26]	@ zero_extendqisi2
 729              	.LVL110:
 713:Generated_Source\PSoC6/CapSense_Processing.c **** 
 730              		.loc 1 713 0
 731 0006 154B     		ldr	r3, .L63
 732 0008 0344     		add	r3, r3, r0
 733 000a 1D7E     		ldrb	r5, [r3, #24]	@ zero_extendqisi2
 734              	.LVL111:
 715:Generated_Source\PSoC6/CapSense_Processing.c ****     {
 735              		.loc 1 715 0
 736 000c 012A     		cmp	r2, #1
 737 000e 04D1     		bne	.L61
 719:Generated_Source\PSoC6/CapSense_Processing.c ****             break;
 738              		.loc 1 719 0
 739 0010 2846     		mov	r0, r5
 740              	.LVL112:
 741 0012 FFF7FEFF 		bl	CapSense_DpProcessButton
 742              	.LVL113:
 743 0016 0546     		mov	r5, r0
 744              	.LVL114:
 720:Generated_Source\PSoC6/CapSense_Processing.c ****     #endif /* #if (0u != CapSense_BUTTON_WIDGET_EN) */
 745              		.loc 1 720 0
 746 0018 04E0     		b	.L58
 747              	.LVL115:
 748              	.L61:
 736:Generated_Source\PSoC6/CapSense_Processing.c ****         break;
 749              		.loc 1 736 0 discriminator 1
 750 001a 4FF43871 		mov	r1, #736
 751              	.LVL116:
 752 001e 1048     		ldr	r0, .L63+4
 753              	.LVL117:
 754 0020 FFF7FEFF 		bl	Cy_SysLib_AssertFailed
 755              	.LVL118:
 756              	.L58:
 741:Generated_Source\PSoC6/CapSense_Processing.c **** 
 757              		.loc 1 741 0
 758 0024 0D4B     		ldr	r3, .L63
ARM GAS  C:\Users\Austina\AppData\Local\Temp\ccLgwUrp.s 			page 38


 759 0026 2344     		add	r3, r3, r4
 760 0028 1D76     		strb	r5, [r3, #24]
 744:Generated_Source\PSoC6/CapSense_Processing.c ****     wdStatusMask = CapSense_GET_WDGT_STATUS_MASK(widgetId);
 761              		.loc 1 744 0
 762 002a 6209     		lsrs	r2, r4, #5
 763              	.LVL119:
 745:Generated_Source\PSoC6/CapSense_Processing.c **** 
 764              		.loc 1 745 0
 765 002c 04F01F04 		and	r4, r4, #31
 766              	.LVL120:
 767 0030 0123     		movs	r3, #1
 768 0032 03FA04F4 		lsl	r4, r3, r4
 769              	.LVL121:
 748:Generated_Source\PSoC6/CapSense_Processing.c ****     {
 770              		.loc 1 748 0
 771 0036 45B9     		cbnz	r5, .L59
 750:Generated_Source\PSoC6/CapSense_Processing.c ****     }
 772              		.loc 1 750 0
 773 0038 0432     		adds	r2, r2, #4
 774              	.LVL122:
 775 003a 084B     		ldr	r3, .L63
 776 003c 03EB8202 		add	r2, r3, r2, lsl #2
 777              	.LVL123:
 778 0040 5368     		ldr	r3, [r2, #4]
 779 0042 23EA0404 		bic	r4, r3, r4
 780              	.LVL124:
 781 0046 5460     		str	r4, [r2, #4]
 782 0048 38BD     		pop	{r3, r4, r5, pc}
 783              	.LVL125:
 784              	.L59:
 754:Generated_Source\PSoC6/CapSense_Processing.c ****     }
 785              		.loc 1 754 0
 786 004a 0432     		adds	r2, r2, #4
 787              	.LVL126:
 788 004c 034B     		ldr	r3, .L63
 789 004e 03EB8202 		add	r2, r3, r2, lsl #2
 790              	.LVL127:
 791 0052 5368     		ldr	r3, [r2, #4]
 792 0054 1C43     		orrs	r4, r4, r3
 793              	.LVL128:
 794 0056 5460     		str	r4, [r2, #4]
 795 0058 38BD     		pop	{r3, r4, r5, pc}
 796              	.LVL129:
 797              	.L64:
 798 005a 00BF     		.align	2
 799              	.L63:
 800 005c 00000000 		.word	CapSense_dsRam
 801 0060 00000000 		.word	.LC0
 802              		.cfi_endproc
 803              	.LFE129:
 804              		.size	CapSense_DpProcessCsxWidgetStatus, .-CapSense_DpProcessCsxWidgetStatus
 805              		.section	.text.CapSense_DpProcessSlider,"ax",%progbits
 806              		.align	2
 807              		.global	CapSense_DpProcessSlider
 808              		.thumb
 809              		.thumb_func
 810              		.type	CapSense_DpProcessSlider, %function
ARM GAS  C:\Users\Austina\AppData\Local\Temp\ccLgwUrp.s 			page 39


 811              	CapSense_DpProcessSlider:
 812              	.LFB136:
1282:Generated_Source\PSoC6/CapSense_Processing.c **** #endif /* #if ((0u != CapSense_BUTTON_WIDGET_EN) || (0u != CapSense_CSX_MATRIX_WIDGET_EN)) */
1283:Generated_Source\PSoC6/CapSense_Processing.c **** 
1284:Generated_Source\PSoC6/CapSense_Processing.c **** 
1285:Generated_Source\PSoC6/CapSense_Processing.c **** #if (0u != CapSense_PROXIMITY_WIDGET_EN)
1286:Generated_Source\PSoC6/CapSense_Processing.c **** /*******************************************************************************
1287:Generated_Source\PSoC6/CapSense_Processing.c **** * Function Name: CapSense_DpProcessProximity
1288:Generated_Source\PSoC6/CapSense_Processing.c **** ****************************************************************************//**
1289:Generated_Source\PSoC6/CapSense_Processing.c **** *
1290:Generated_Source\PSoC6/CapSense_Processing.c **** * \brief
1291:Generated_Source\PSoC6/CapSense_Processing.c **** *   Processes the status of the Proximity widget.
1292:Generated_Source\PSoC6/CapSense_Processing.c **** *
1293:Generated_Source\PSoC6/CapSense_Processing.c **** * \details
1294:Generated_Source\PSoC6/CapSense_Processing.c **** *   This API processes the status of the CSD Proximity widget. It applies the
1295:Generated_Source\PSoC6/CapSense_Processing.c **** *   hysteresis and debounce algorithm to each sensor difference value.
1296:Generated_Source\PSoC6/CapSense_Processing.c **** *   The proximity and touch events are considered independently so debounce and
1297:Generated_Source\PSoC6/CapSense_Processing.c **** *   hysteresis are also applied independently.
1298:Generated_Source\PSoC6/CapSense_Processing.c **** *
1299:Generated_Source\PSoC6/CapSense_Processing.c **** *   This API is expected to be called after each new widget scan. If it is
1300:Generated_Source\PSoC6/CapSense_Processing.c **** *   called multiple times for the same scan data the debounce algorithm
1301:Generated_Source\PSoC6/CapSense_Processing.c **** *   will not work properly.
1302:Generated_Source\PSoC6/CapSense_Processing.c **** *
1303:Generated_Source\PSoC6/CapSense_Processing.c **** *   This API does not update any Data Structure registers
1304:Generated_Source\PSoC6/CapSense_Processing.c **** *   except the debounce counters.
1305:Generated_Source\PSoC6/CapSense_Processing.c **** *
1306:Generated_Source\PSoC6/CapSense_Processing.c **** * \param currStatus   The value with the current widget status.
1307:Generated_Source\PSoC6/CapSense_Processing.c **** * \param ptrFlashWdgt The pointer to the Flash Widget Object.
1308:Generated_Source\PSoC6/CapSense_Processing.c **** *
1309:Generated_Source\PSoC6/CapSense_Processing.c **** * \return
1310:Generated_Source\PSoC6/CapSense_Processing.c **** *  Returns the status of the proximity sensors. Each sensor is represented by two bits
1311:Generated_Source\PSoC6/CapSense_Processing.c **** *  that can take the following values:
1312:Generated_Source\PSoC6/CapSense_Processing.c **** *   - 00b not active
1313:Generated_Source\PSoC6/CapSense_Processing.c **** *   - 01b proximity is detected (signal is above finger threshold)
1314:Generated_Source\PSoC6/CapSense_Processing.c **** *   - 11b finger touch is detected (signal is above the touch threshold)
1315:Generated_Source\PSoC6/CapSense_Processing.c **** *
1316:Generated_Source\PSoC6/CapSense_Processing.c **** *******************************************************************************/
1317:Generated_Source\PSoC6/CapSense_Processing.c **** uint32 CapSense_DpProcessProximity(uint32 currStatus, CapSense_FLASH_WD_STRUCT const *ptrFlashWdgt)
1318:Generated_Source\PSoC6/CapSense_Processing.c **** {
1319:Generated_Source\PSoC6/CapSense_Processing.c ****     uint32 currTh;
1320:Generated_Source\PSoC6/CapSense_Processing.c ****     uint32 snsCnt;
1321:Generated_Source\PSoC6/CapSense_Processing.c ****     uint32 snsMask;
1322:Generated_Source\PSoC6/CapSense_Processing.c ****     uint32 newStatus;
1323:Generated_Source\PSoC6/CapSense_Processing.c ****     uint32 difference;
1324:Generated_Source\PSoC6/CapSense_Processing.c **** 
1325:Generated_Source\PSoC6/CapSense_Processing.c ****     uint8 *ptrDebounceCnt;
1326:Generated_Source\PSoC6/CapSense_Processing.c ****     CapSense_RAM_SNS_STRUCT *ptrSnsTmp;
1327:Generated_Source\PSoC6/CapSense_Processing.c ****     CapSense_RAM_WD_PROXIMITY_STRUCT *ptrRamWdgt;
1328:Generated_Source\PSoC6/CapSense_Processing.c **** 
1329:Generated_Source\PSoC6/CapSense_Processing.c ****     /* Mask for proximity status bits. (All odd bits.) */
1330:Generated_Source\PSoC6/CapSense_Processing.c ****     const uint32 proxMask = UINT32_ODD_BITS_CONST;
1331:Generated_Source\PSoC6/CapSense_Processing.c **** 
1332:Generated_Source\PSoC6/CapSense_Processing.c ****     ptrSnsTmp = ptrFlashWdgt->ptr2SnsRam;
1333:Generated_Source\PSoC6/CapSense_Processing.c ****     ptrRamWdgt = (CapSense_RAM_WD_PROXIMITY_STRUCT *)ptrFlashWdgt->ptr2WdgtRam;
1334:Generated_Source\PSoC6/CapSense_Processing.c ****     ptrDebounceCnt = ptrFlashWdgt->ptr2DebounceArr;
1335:Generated_Source\PSoC6/CapSense_Processing.c **** 
1336:Generated_Source\PSoC6/CapSense_Processing.c ****     /* Get number of sensors and multiply it by 2 - proximity and touch statuses per sensor. */
ARM GAS  C:\Users\Austina\AppData\Local\Temp\ccLgwUrp.s 			page 40


1337:Generated_Source\PSoC6/CapSense_Processing.c ****     snsCnt = (uint32)ptrFlashWdgt->totalNumSns << 1u;
1338:Generated_Source\PSoC6/CapSense_Processing.c **** 
1339:Generated_Source\PSoC6/CapSense_Processing.c ****     /* Go through all sensor's status bits */
1340:Generated_Source\PSoC6/CapSense_Processing.c ****     snsMask = 1Lu;
1341:Generated_Source\PSoC6/CapSense_Processing.c ****     for (; snsCnt-- > 0u;)
1342:Generated_Source\PSoC6/CapSense_Processing.c ****     {
1343:Generated_Source\PSoC6/CapSense_Processing.c ****         difference = ptrSnsTmp->diff;
1344:Generated_Source\PSoC6/CapSense_Processing.c **** 
1345:Generated_Source\PSoC6/CapSense_Processing.c ****         /* Determine current event (proximity - odd; touch - even) and get appropriate threshold. *
1346:Generated_Source\PSoC6/CapSense_Processing.c ****         currTh = ptrRamWdgt->fingerTh;
1347:Generated_Source\PSoC6/CapSense_Processing.c **** 
1348:Generated_Source\PSoC6/CapSense_Processing.c ****         if (0u == (snsMask & proxMask))
1349:Generated_Source\PSoC6/CapSense_Processing.c ****         {
1350:Generated_Source\PSoC6/CapSense_Processing.c ****             currTh = ptrRamWdgt->proxTouchTh;
1351:Generated_Source\PSoC6/CapSense_Processing.c ****             ptrSnsTmp++;
1352:Generated_Source\PSoC6/CapSense_Processing.c ****         }
1353:Generated_Source\PSoC6/CapSense_Processing.c **** 
1354:Generated_Source\PSoC6/CapSense_Processing.c ****         /* Calculate finger threshold applying hysteresis based on current sensor state. */
1355:Generated_Source\PSoC6/CapSense_Processing.c ****         currTh = (0u == (currStatus & snsMask)) ? (currTh + ptrRamWdgt->hysteresis) : (currTh - ptr
1356:Generated_Source\PSoC6/CapSense_Processing.c **** 
1357:Generated_Source\PSoC6/CapSense_Processing.c ****         /* Determine new potential sensor state before de-bounce */
1358:Generated_Source\PSoC6/CapSense_Processing.c ****         newStatus = (difference > currTh) ? snsMask : 0Lu;
1359:Generated_Source\PSoC6/CapSense_Processing.c **** 
1360:Generated_Source\PSoC6/CapSense_Processing.c ****         /* Sensor state changed ? */
1361:Generated_Source\PSoC6/CapSense_Processing.c ****         if (newStatus != (currStatus & snsMask))
1362:Generated_Source\PSoC6/CapSense_Processing.c ****         {
1363:Generated_Source\PSoC6/CapSense_Processing.c ****             /* Decrement de-bounce counter */
1364:Generated_Source\PSoC6/CapSense_Processing.c ****             (*ptrDebounceCnt)--;
1365:Generated_Source\PSoC6/CapSense_Processing.c ****         }
1366:Generated_Source\PSoC6/CapSense_Processing.c **** 
1367:Generated_Source\PSoC6/CapSense_Processing.c ****         /*
1368:Generated_Source\PSoC6/CapSense_Processing.c ****         *  This piece of code has two objectives:
1369:Generated_Source\PSoC6/CapSense_Processing.c ****         *  1. Reset de-bounce counter if new sensor state has not changed.
1370:Generated_Source\PSoC6/CapSense_Processing.c ****         *     (It is possible that during previous processing cycles the sensor
1371:Generated_Source\PSoC6/CapSense_Processing.c ****         *     state was different which caused de-bounce counter change.)
1372:Generated_Source\PSoC6/CapSense_Processing.c ****         *  2. Set new sensor state after successful de-bounce.
1373:Generated_Source\PSoC6/CapSense_Processing.c ****         */
1374:Generated_Source\PSoC6/CapSense_Processing.c ****         if ((newStatus == (currStatus & snsMask)) || (0u == (*ptrDebounceCnt)))
1375:Generated_Source\PSoC6/CapSense_Processing.c ****         {
1376:Generated_Source\PSoC6/CapSense_Processing.c ****             /* Set new sensor status */
1377:Generated_Source\PSoC6/CapSense_Processing.c ****             currStatus &= ~snsMask;
1378:Generated_Source\PSoC6/CapSense_Processing.c ****             currStatus |= newStatus;
1379:Generated_Source\PSoC6/CapSense_Processing.c **** 
1380:Generated_Source\PSoC6/CapSense_Processing.c ****             /* Reset de-bounce counter */
1381:Generated_Source\PSoC6/CapSense_Processing.c ****             #if (0u != CapSense_OFF_DEBOUNCE_EN)
1382:Generated_Source\PSoC6/CapSense_Processing.c ****                 *ptrDebounceCnt = (0Lu == newStatus) ? ptrRamWdgt->onDebounce : ptrRamWdgt->offDebo
1383:Generated_Source\PSoC6/CapSense_Processing.c ****             #else
1384:Generated_Source\PSoC6/CapSense_Processing.c ****                 *ptrDebounceCnt = (0Lu == newStatus) ? ptrRamWdgt->onDebounce : DEFAULT_OFF_DEBOUNC
1385:Generated_Source\PSoC6/CapSense_Processing.c ****             #endif /* #if (0u != CapSense_OFF_DEBOUNCE_EN) */
1386:Generated_Source\PSoC6/CapSense_Processing.c ****         }
1387:Generated_Source\PSoC6/CapSense_Processing.c **** 
1388:Generated_Source\PSoC6/CapSense_Processing.c ****         ptrDebounceCnt++;
1389:Generated_Source\PSoC6/CapSense_Processing.c **** 
1390:Generated_Source\PSoC6/CapSense_Processing.c ****         /* Move sensor mask to the next sensor */
1391:Generated_Source\PSoC6/CapSense_Processing.c ****         snsMask <<= 1u;
1392:Generated_Source\PSoC6/CapSense_Processing.c ****     }
1393:Generated_Source\PSoC6/CapSense_Processing.c **** 
ARM GAS  C:\Users\Austina\AppData\Local\Temp\ccLgwUrp.s 			page 41


1394:Generated_Source\PSoC6/CapSense_Processing.c ****     return currStatus;
1395:Generated_Source\PSoC6/CapSense_Processing.c **** }
1396:Generated_Source\PSoC6/CapSense_Processing.c **** #endif /* #if (0u != CapSense_PROXIMITY_WIDGET_EN) */
1397:Generated_Source\PSoC6/CapSense_Processing.c **** 
1398:Generated_Source\PSoC6/CapSense_Processing.c **** 
1399:Generated_Source\PSoC6/CapSense_Processing.c **** #if (0u != CapSense_SLIDER_WIDGET_EN)
1400:Generated_Source\PSoC6/CapSense_Processing.c **** /*******************************************************************************
1401:Generated_Source\PSoC6/CapSense_Processing.c **** * Function Name: CapSense_DpProcessSlider
1402:Generated_Source\PSoC6/CapSense_Processing.c **** ****************************************************************************//**
1403:Generated_Source\PSoC6/CapSense_Processing.c **** *
1404:Generated_Source\PSoC6/CapSense_Processing.c **** * \brief
1405:Generated_Source\PSoC6/CapSense_Processing.c **** *   Processes the status of the Linear/Radial Slider widget.
1406:Generated_Source\PSoC6/CapSense_Processing.c **** *   The process involves running the Linear/Radial Centroid algorithm.
1407:Generated_Source\PSoC6/CapSense_Processing.c **** *
1408:Generated_Source\PSoC6/CapSense_Processing.c **** * \details
1409:Generated_Source\PSoC6/CapSense_Processing.c **** *   This API processes the status of the CSD Slider widget (Linear and Radial).
1410:Generated_Source\PSoC6/CapSense_Processing.c **** *   It applies the hysteresis and de-bounce algorithm to the widget ignoring
1411:Generated_Source\PSoC6/CapSense_Processing.c **** *   the individual states of the sensors.
1412:Generated_Source\PSoC6/CapSense_Processing.c **** *
1413:Generated_Source\PSoC6/CapSense_Processing.c **** *   This API is expected to be called after each new widget scan. If it is
1414:Generated_Source\PSoC6/CapSense_Processing.c **** *   called multiple times for the same scan data, the debounce algorithm
1415:Generated_Source\PSoC6/CapSense_Processing.c **** *   will not work properly.
1416:Generated_Source\PSoC6/CapSense_Processing.c **** *
1417:Generated_Source\PSoC6/CapSense_Processing.c **** *   Slider widgets do not support the ON to OFF debounce.
1418:Generated_Source\PSoC6/CapSense_Processing.c **** *
1419:Generated_Source\PSoC6/CapSense_Processing.c **** *   This API does not update any Data Structure registers
1420:Generated_Source\PSoC6/CapSense_Processing.c **** *   except the debounce counters.
1421:Generated_Source\PSoC6/CapSense_Processing.c **** *
1422:Generated_Source\PSoC6/CapSense_Processing.c **** * \param currStatus   The current sensor status of the Slider widget.
1423:Generated_Source\PSoC6/CapSense_Processing.c **** * \param ptrFlashWdgt The pointer to the Flash Widget Object.
1424:Generated_Source\PSoC6/CapSense_Processing.c **** *
1425:Generated_Source\PSoC6/CapSense_Processing.c **** * \return Returns the status of the widget's sensors. Bit #0 - corresponds to Sensor #0.
1426:Generated_Source\PSoC6/CapSense_Processing.c **** *
1427:Generated_Source\PSoC6/CapSense_Processing.c **** *******************************************************************************/
1428:Generated_Source\PSoC6/CapSense_Processing.c **** uint32 CapSense_DpProcessSlider(uint32 currStatus, CapSense_FLASH_WD_STRUCT const *ptrFlashWdgt)
1429:Generated_Source\PSoC6/CapSense_Processing.c **** {
 813              		.loc 1 1429 0
 814              		.cfi_startproc
 815              		@ args = 0, pretend = 0, frame = 8
 816              		@ frame_needed = 0, uses_anonymous_args = 0
 817              	.LVL130:
 818 0000 F0B5     		push	{r4, r5, r6, r7, lr}
 819              		.cfi_def_cfa_offset 20
 820              		.cfi_offset 4, -20
 821              		.cfi_offset 5, -16
 822              		.cfi_offset 6, -12
 823              		.cfi_offset 7, -8
 824              		.cfi_offset 14, -4
 825 0002 83B0     		sub	sp, sp, #12
 826              		.cfi_def_cfa_offset 32
 827              	.LVL131:
1430:Generated_Source\PSoC6/CapSense_Processing.c ****     uint32 snsCnt;
1431:Generated_Source\PSoC6/CapSense_Processing.c ****     uint32 snsMask;
1432:Generated_Source\PSoC6/CapSense_Processing.c ****     uint32 touchTh;
1433:Generated_Source\PSoC6/CapSense_Processing.c ****     uint32 newStatus = 0Lu;
1434:Generated_Source\PSoC6/CapSense_Processing.c ****     uint8 * ptrDebounceCnt;
1435:Generated_Source\PSoC6/CapSense_Processing.c ****     CapSense_RAM_SNS_STRUCT *ptrSnsTmp;
ARM GAS  C:\Users\Austina\AppData\Local\Temp\ccLgwUrp.s 			page 42


1436:Generated_Source\PSoC6/CapSense_Processing.c ****     CapSense_RAM_WD_SLIDER_STRUCT *ptrRamWdgt;
1437:Generated_Source\PSoC6/CapSense_Processing.c **** 
1438:Generated_Source\PSoC6/CapSense_Processing.c ****     #if (0u != CapSense_POSITION_FILTER_EN)
1439:Generated_Source\PSoC6/CapSense_Processing.c ****         CapSense_SLIDER_POS_HISTORY_STRUCT *ptrHistory;
1440:Generated_Source\PSoC6/CapSense_Processing.c ****     #endif /* #if (0u != CapSense_POSITION_FILTER_EN) */
1441:Generated_Source\PSoC6/CapSense_Processing.c **** 
1442:Generated_Source\PSoC6/CapSense_Processing.c ****     uint32 touchIdx;
1443:Generated_Source\PSoC6/CapSense_Processing.c ****     uint32 touchCnt = 0Lu;
1444:Generated_Source\PSoC6/CapSense_Processing.c ****     uint16 newPos[CapSense_NUM_CENTROIDS];
1445:Generated_Source\PSoC6/CapSense_Processing.c **** 
1446:Generated_Source\PSoC6/CapSense_Processing.c ****     snsCnt = ptrFlashWdgt->totalNumSns;
 828              		.loc 1 1446 0
 829 0004 0B8B     		ldrh	r3, [r1, #24]
 830              	.LVL132:
1447:Generated_Source\PSoC6/CapSense_Processing.c ****     ptrSnsTmp = ptrFlashWdgt->ptr2SnsRam;
 831              		.loc 1 1447 0
 832 0006 8A68     		ldr	r2, [r1, #8]
 833              	.LVL133:
1448:Generated_Source\PSoC6/CapSense_Processing.c ****     ptrRamWdgt = (CapSense_RAM_WD_SLIDER_STRUCT *)ptrFlashWdgt->ptr2WdgtRam;
 834              		.loc 1 1448 0
 835 0008 4D68     		ldr	r5, [r1, #4]
 836              	.LVL134:
1449:Generated_Source\PSoC6/CapSense_Processing.c ****     ptrDebounceCnt = ptrFlashWdgt->ptr2DebounceArr;
 837              		.loc 1 1449 0
 838 000a D1F810E0 		ldr	lr, [r1, #16]
 839              	.LVL135:
1450:Generated_Source\PSoC6/CapSense_Processing.c **** 
1451:Generated_Source\PSoC6/CapSense_Processing.c ****     #if (0u != CapSense_POSITION_FILTER_EN)
1452:Generated_Source\PSoC6/CapSense_Processing.c ****         ptrHistory = ptrFlashWdgt->ptr2PosHistory;
1453:Generated_Source\PSoC6/CapSense_Processing.c ****     #endif /* #if (0u != CapSense_POSITION_FILTER_EN) */
1454:Generated_Source\PSoC6/CapSense_Processing.c **** 
1455:Generated_Source\PSoC6/CapSense_Processing.c ****     /* Calculate touch threshold based on current slider state */
1456:Generated_Source\PSoC6/CapSense_Processing.c ****     touchTh = (0Lu == currStatus ) ?
1457:Generated_Source\PSoC6/CapSense_Processing.c ****               ((uint32)ptrRamWdgt->fingerTh + ptrRamWdgt->hysteresis) :
 840              		.loc 1 1457 0
 841 000e 8446     		mov	ip, r0
 842 0010 18B9     		cbnz	r0, .L66
 843              		.loc 1 1457 0 is_stmt 0 discriminator 1
 844 0012 6F88     		ldrh	r7, [r5, #2]
 845 0014 A879     		ldrb	r0, [r5, #6]	@ zero_extendqisi2
 846              	.LVL136:
 847 0016 0744     		add	r7, r7, r0
 848 0018 02E0     		b	.L67
 849              	.LVL137:
 850              	.L66:
1458:Generated_Source\PSoC6/CapSense_Processing.c ****               ((uint32)ptrRamWdgt->fingerTh - ptrRamWdgt->hysteresis);
 851              		.loc 1 1458 0 is_stmt 1 discriminator 2
 852 001a 6888     		ldrh	r0, [r5, #2]
 853              	.LVL138:
 854 001c AF79     		ldrb	r7, [r5, #6]	@ zero_extendqisi2
1457:Generated_Source\PSoC6/CapSense_Processing.c ****               ((uint32)ptrRamWdgt->fingerTh - ptrRamWdgt->hysteresis);
 855              		.loc 1 1457 0 discriminator 2
 856 001e C71B     		subs	r7, r0, r7
 857              	.L67:
 858              	.LVL139:
1433:Generated_Source\PSoC6/CapSense_Processing.c ****     uint8 * ptrDebounceCnt;
 859              		.loc 1 1433 0
ARM GAS  C:\Users\Austina\AppData\Local\Temp\ccLgwUrp.s 			page 43


 860 0020 0024     		movs	r4, #0
1459:Generated_Source\PSoC6/CapSense_Processing.c **** 
1460:Generated_Source\PSoC6/CapSense_Processing.c ****     /* Go through all widget's sensors */
1461:Generated_Source\PSoC6/CapSense_Processing.c ****     snsMask = 1Lu;
 861              		.loc 1 1461 0
 862 0022 0120     		movs	r0, #1
1462:Generated_Source\PSoC6/CapSense_Processing.c ****     for (; snsCnt-- > 0Lu; )
 863              		.loc 1 1462 0
 864 0024 09E0     		b	.L68
 865              	.LVL140:
 866              	.L70:
1463:Generated_Source\PSoC6/CapSense_Processing.c ****     {
1464:Generated_Source\PSoC6/CapSense_Processing.c ****         /* Determine new potential sensor state */
1465:Generated_Source\PSoC6/CapSense_Processing.c ****         newStatus |= (ptrSnsTmp->diff > touchTh) ? snsMask : 0Lu;
 867              		.loc 1 1465 0
 868 0026 D388     		ldrh	r3, [r2, #6]
 869 0028 9F42     		cmp	r7, r3
 870 002a 01D3     		bcc	.L80
 871 002c 0023     		movs	r3, #0
 872 002e 00E0     		b	.L69
 873              	.L80:
 874 0030 0346     		mov	r3, r0
 875              	.L69:
 876              		.loc 1 1465 0 is_stmt 0 discriminator 4
 877 0032 1C43     		orrs	r4, r4, r3
 878              	.LVL141:
1466:Generated_Source\PSoC6/CapSense_Processing.c ****         ptrSnsTmp++;
 879              		.loc 1 1466 0 is_stmt 1 discriminator 4
 880 0034 0A32     		adds	r2, r2, #10
 881              	.LVL142:
1467:Generated_Source\PSoC6/CapSense_Processing.c **** 
1468:Generated_Source\PSoC6/CapSense_Processing.c ****         snsMask <<= 1u;
 882              		.loc 1 1468 0 discriminator 4
 883 0036 4000     		lsls	r0, r0, #1
 884              	.LVL143:
1462:Generated_Source\PSoC6/CapSense_Processing.c ****     {
 885              		.loc 1 1462 0 discriminator 4
 886 0038 3346     		mov	r3, r6
 887              	.LVL144:
 888              	.L68:
1462:Generated_Source\PSoC6/CapSense_Processing.c ****     {
 889              		.loc 1 1462 0 is_stmt 0
 890 003a 5E1E     		subs	r6, r3, #1
 891              	.LVL145:
 892 003c 002B     		cmp	r3, #0
 893 003e F2D1     		bne	.L70
1469:Generated_Source\PSoC6/CapSense_Processing.c ****     }
1470:Generated_Source\PSoC6/CapSense_Processing.c **** 
1471:Generated_Source\PSoC6/CapSense_Processing.c ****     /* If widget is active, check whether debounce is needed */
1472:Generated_Source\PSoC6/CapSense_Processing.c ****     if (0Lu != newStatus)
 894              		.loc 1 1472 0 is_stmt 1
 895 0040 54B1     		cbz	r4, .L71
1473:Generated_Source\PSoC6/CapSense_Processing.c ****     {
1474:Generated_Source\PSoC6/CapSense_Processing.c ****         if (0u < (*ptrDebounceCnt))
 896              		.loc 1 1474 0
 897 0042 9EF80030 		ldrb	r3, [lr]	@ zero_extendqisi2
 898 0046 13B1     		cbz	r3, .L72
ARM GAS  C:\Users\Austina\AppData\Local\Temp\ccLgwUrp.s 			page 44


1475:Generated_Source\PSoC6/CapSense_Processing.c ****         {
1476:Generated_Source\PSoC6/CapSense_Processing.c ****             /* Decrement debounce counter */
1477:Generated_Source\PSoC6/CapSense_Processing.c ****             (*ptrDebounceCnt)--;
 899              		.loc 1 1477 0
 900 0048 013B     		subs	r3, r3, #1
 901 004a 8EF80030 		strb	r3, [lr]
 902              	.L72:
1478:Generated_Source\PSoC6/CapSense_Processing.c ****         }
1479:Generated_Source\PSoC6/CapSense_Processing.c **** 
1480:Generated_Source\PSoC6/CapSense_Processing.c ****         if (0u == (*ptrDebounceCnt))
 903              		.loc 1 1480 0
 904 004e 9EF80030 		ldrb	r3, [lr]	@ zero_extendqisi2
 905 0052 23B1     		cbz	r3, .L73
 906 0054 6446     		mov	r4, ip
 907              	.LVL146:
 908 0056 02E0     		b	.L73
 909              	.LVL147:
 910              	.L71:
1481:Generated_Source\PSoC6/CapSense_Processing.c ****         {
1482:Generated_Source\PSoC6/CapSense_Processing.c ****             /* Update slider sensor state when debounce completes */
1483:Generated_Source\PSoC6/CapSense_Processing.c ****             currStatus = newStatus;
1484:Generated_Source\PSoC6/CapSense_Processing.c ****         }
1485:Generated_Source\PSoC6/CapSense_Processing.c ****     }
1486:Generated_Source\PSoC6/CapSense_Processing.c ****     else
1487:Generated_Source\PSoC6/CapSense_Processing.c ****     {
1488:Generated_Source\PSoC6/CapSense_Processing.c ****         /* Reset debounce counter */
1489:Generated_Source\PSoC6/CapSense_Processing.c ****         *ptrDebounceCnt = ptrRamWdgt->onDebounce;
 911              		.loc 1 1489 0
 912 0058 EB79     		ldrb	r3, [r5, #7]	@ zero_extendqisi2
 913 005a 8EF80030 		strb	r3, [lr]
 914              	.LVL148:
 915              	.L73:
1490:Generated_Source\PSoC6/CapSense_Processing.c **** 
1491:Generated_Source\PSoC6/CapSense_Processing.c ****         /* Clear slider sensor state */
1492:Generated_Source\PSoC6/CapSense_Processing.c ****         currStatus = 0Lu;
1493:Generated_Source\PSoC6/CapSense_Processing.c ****     }
1494:Generated_Source\PSoC6/CapSense_Processing.c **** 
1495:Generated_Source\PSoC6/CapSense_Processing.c ****     /* Centroid processing */
1496:Generated_Source\PSoC6/CapSense_Processing.c ****     /* If there are active sensors after debounce run the centroid algorithm */
1497:Generated_Source\PSoC6/CapSense_Processing.c ****     if (0u != currStatus)
 916              		.loc 1 1497 0
 917 005e 5CB1     		cbz	r4, .L81
 918 0060 0E46     		mov	r6, r1
 919              	.LVL149:
1498:Generated_Source\PSoC6/CapSense_Processing.c ****     {
1499:Generated_Source\PSoC6/CapSense_Processing.c ****         /* Centroid always uses the lowest finger threshold (minus hysteresis)
1500:Generated_Source\PSoC6/CapSense_Processing.c ****          * to produce same results for first and all consecutive invocations */
1501:Generated_Source\PSoC6/CapSense_Processing.c ****         touchTh = (uint32)ptrRamWdgt->fingerTh - ptrRamWdgt->hysteresis;
 920              		.loc 1 1501 0
 921 0062 6A88     		ldrh	r2, [r5, #2]
 922              	.LVL150:
 923 0064 AB79     		ldrb	r3, [r5, #6]	@ zero_extendqisi2
 924              	.LVL151:
1502:Generated_Source\PSoC6/CapSense_Processing.c ****         snsCnt = ptrFlashWdgt->totalNumSns;
 925              		.loc 1 1502 0
 926 0066 0F8B     		ldrh	r7, [r1, #24]
 927              	.LVL152:
ARM GAS  C:\Users\Austina\AppData\Local\Temp\ccLgwUrp.s 			page 45


1503:Generated_Source\PSoC6/CapSense_Processing.c **** 
1504:Generated_Source\PSoC6/CapSense_Processing.c ****         #if (0u != CapSense_TOTAL_DIPLEXED_SLIDERS)
1505:Generated_Source\PSoC6/CapSense_Processing.c ****             if ((0u != (ptrFlashWdgt->staticConfig & CapSense_DIPLEXING_MASK)))
1506:Generated_Source\PSoC6/CapSense_Processing.c ****             {
1507:Generated_Source\PSoC6/CapSense_Processing.c ****                 /* Run local maximum search for duplexed slider */
1508:Generated_Source\PSoC6/CapSense_Processing.c ****                 touchCnt = CapSense_DpFindLocalMaxDiplex(
1509:Generated_Source\PSoC6/CapSense_Processing.c ****                                 ptrFlashWdgt->ptr2SnsRam, snsCnt, ptrFlashWdgt->ptr2DiplexTable, to
1510:Generated_Source\PSoC6/CapSense_Processing.c **** 
1511:Generated_Source\PSoC6/CapSense_Processing.c ****                 /* Centroid calculation API requires double sensor count for the diplexed sliders. 
1512:Generated_Source\PSoC6/CapSense_Processing.c ****                 snsCnt *= 2u;
1513:Generated_Source\PSoC6/CapSense_Processing.c ****             }
1514:Generated_Source\PSoC6/CapSense_Processing.c ****             else
1515:Generated_Source\PSoC6/CapSense_Processing.c ****             {
1516:Generated_Source\PSoC6/CapSense_Processing.c ****                 /* Run local maximum search for NON-duplexed slider */
1517:Generated_Source\PSoC6/CapSense_Processing.c ****                 #if (CapSense_ENABLE == CapSense_4PTS_LOCAL_MAX_EN)
1518:Generated_Source\PSoC6/CapSense_Processing.c ****                     touchCnt = CapSense_DpFindLocalMaxSd4pts(ptrFlashWdgt, ptrFlashWdgt->ptr2SnsRam
1519:Generated_Source\PSoC6/CapSense_Processing.c ****                 #else
1520:Generated_Source\PSoC6/CapSense_Processing.c ****                     touchCnt = CapSense_DpFindLocalMaxSd(ptrFlashWdgt->ptr2SnsRam, snsCnt, touchTh)
1521:Generated_Source\PSoC6/CapSense_Processing.c ****                 #endif
1522:Generated_Source\PSoC6/CapSense_Processing.c ****             }
1523:Generated_Source\PSoC6/CapSense_Processing.c ****         #else
1524:Generated_Source\PSoC6/CapSense_Processing.c ****             /* Run local maximum search for NON-duplexed slider */
1525:Generated_Source\PSoC6/CapSense_Processing.c ****             #if (CapSense_ENABLE == CapSense_4PTS_LOCAL_MAX_EN)
1526:Generated_Source\PSoC6/CapSense_Processing.c ****                 touchCnt = CapSense_DpFindLocalMaxSd4pts(ptrFlashWdgt, ptrFlashWdgt->ptr2SnsRam, sn
1527:Generated_Source\PSoC6/CapSense_Processing.c ****             #else
1528:Generated_Source\PSoC6/CapSense_Processing.c ****                 touchCnt = CapSense_DpFindLocalMaxSd(ptrFlashWdgt->ptr2SnsRam, snsCnt, touchTh);
 928              		.loc 1 1528 0
 929 0068 D21A     		subs	r2, r2, r3
 930              	.LVL153:
 931 006a 3946     		mov	r1, r7
 932              	.LVL154:
 933 006c B068     		ldr	r0, [r6, #8]
 934              	.LVL155:
 935 006e FFF7FEFF 		bl	CapSense_DpFindLocalMaxSd
 936              	.LVL156:
1529:Generated_Source\PSoC6/CapSense_Processing.c ****             #endif
1530:Generated_Source\PSoC6/CapSense_Processing.c ****         #endif /* #if (0u != CapSense_TOTAL_DIPLEXED_SLIDERS) */
1531:Generated_Source\PSoC6/CapSense_Processing.c **** 
1532:Generated_Source\PSoC6/CapSense_Processing.c ****         /* If at least one touch is detected */
1533:Generated_Source\PSoC6/CapSense_Processing.c ****         if (0u != touchCnt)
 937              		.loc 1 1533 0
 938 0072 0346     		mov	r3, r0
 939 0074 10B9     		cbnz	r0, .L75
 940 0076 23E0     		b	.L76
 941              	.LVL157:
 942              	.L81:
1443:Generated_Source\PSoC6/CapSense_Processing.c ****     uint16 newPos[CapSense_NUM_CENTROIDS];
 943              		.loc 1 1443 0
 944 0078 0023     		movs	r3, #0
 945 007a 21E0     		b	.L76
 946              	.LVL158:
 947              	.L75:
1534:Generated_Source\PSoC6/CapSense_Processing.c ****         {
1535:Generated_Source\PSoC6/CapSense_Processing.c ****             /* Determine slider type and calculate new position(s) */
1536:Generated_Source\PSoC6/CapSense_Processing.c ****             #if (0u != CapSense_TOTAL_LINEAR_SLIDERS)
1537:Generated_Source\PSoC6/CapSense_Processing.c ****                 if ((CapSense_WD_TYPE_ENUM)ptrFlashWdgt->wdgtType == CapSense_WD_LINEAR_SLIDER_E)
 948              		.loc 1 1537 0
ARM GAS  C:\Users\Austina\AppData\Local\Temp\ccLgwUrp.s 			page 46


 949 007c B27E     		ldrb	r2, [r6, #26]	@ zero_extendqisi2
 950 007e 022A     		cmp	r2, #2
 951 0080 1ED1     		bne	.L76
1538:Generated_Source\PSoC6/CapSense_Processing.c ****                 {
1539:Generated_Source\PSoC6/CapSense_Processing.c ****                     #if (CapSense_ENABLE == CapSense_SLIDER_MULT_METHOD)
1540:Generated_Source\PSoC6/CapSense_Processing.c ****                         touchCnt = CapSense_DpCalcLinearCentroid(newPos, (uint32)ptrFlashWdgt->xCen
1541:Generated_Source\PSoC6/CapSense_Processing.c ****                                     snsCnt, (uint32)(ptrFlashWdgt->xCentroidMultiplier >> 1));
1542:Generated_Source\PSoC6/CapSense_Processing.c ****                     #else
1543:Generated_Source\PSoC6/CapSense_Processing.c ****                         touchCnt = CapSense_DpCalcLinearCentroid(
 952              		.loc 1 1543 0
 953 0082 0023     		movs	r3, #0
 954 0084 3A46     		mov	r2, r7
 955 0086 316A     		ldr	r1, [r6, #32]
 956 0088 01A8     		add	r0, sp, #4
 957              	.LVL159:
 958 008a FFF7FEFF 		bl	CapSense_DpCalcLinearCentroid
 959              	.LVL160:
 960 008e 0346     		mov	r3, r0
 961              	.LVL161:
 962              	.LBB8:
 963              	.LBB9:
1544:Generated_Source\PSoC6/CapSense_Processing.c ****                                         newPos, (uint32)ptrFlashWdgt->xCentroidMultiplier, snsCnt, 
1545:Generated_Source\PSoC6/CapSense_Processing.c ****                     #endif
1546:Generated_Source\PSoC6/CapSense_Processing.c ****                     DpUpdateLinSlider(newPos, touchCnt, ptrFlashWdgt, ptrRamWdgt);
1547:Generated_Source\PSoC6/CapSense_Processing.c ****                 }
1548:Generated_Source\PSoC6/CapSense_Processing.c ****             #endif /* #if (0u != CapSense_TOTAL_LINEAR_SLIDERS) */
1549:Generated_Source\PSoC6/CapSense_Processing.c **** 
1550:Generated_Source\PSoC6/CapSense_Processing.c ****             #if (0u != CapSense_TOTAL_RADIAL_SLIDERS)
1551:Generated_Source\PSoC6/CapSense_Processing.c ****                 if ((CapSense_WD_TYPE_ENUM)ptrFlashWdgt->wdgtType == CapSense_WD_RADIAL_SLIDER_E)
1552:Generated_Source\PSoC6/CapSense_Processing.c ****                 {
1553:Generated_Source\PSoC6/CapSense_Processing.c ****                     touchCnt = CapSense_DpCalcRadialCentroid(
1554:Generated_Source\PSoC6/CapSense_Processing.c ****                                     newPos, (uint32)ptrFlashWdgt->xCentroidMultiplier, snsCnt);
1555:Generated_Source\PSoC6/CapSense_Processing.c ****                     DpUpdateRadSlider(newPos, touchCnt, ptrFlashWdgt, ptrRamWdgt);
1556:Generated_Source\PSoC6/CapSense_Processing.c ****                 }
1557:Generated_Source\PSoC6/CapSense_Processing.c ****             #endif /* #if (0u != CapSense_TOTAL_RADIAL_SLIDERS) */
1558:Generated_Source\PSoC6/CapSense_Processing.c ****         }
1559:Generated_Source\PSoC6/CapSense_Processing.c ****     }
1560:Generated_Source\PSoC6/CapSense_Processing.c **** 
1561:Generated_Source\PSoC6/CapSense_Processing.c ****     /* Clear not active position data slots */
1562:Generated_Source\PSoC6/CapSense_Processing.c ****     for (touchIdx = touchCnt; touchIdx < CapSense_NUM_CENTROIDS; touchIdx++)
1563:Generated_Source\PSoC6/CapSense_Processing.c ****     {
1564:Generated_Source\PSoC6/CapSense_Processing.c ****         ptrRamWdgt->position[touchIdx] = CapSense_SLIDER_POS_NONE;
1565:Generated_Source\PSoC6/CapSense_Processing.c **** 
1566:Generated_Source\PSoC6/CapSense_Processing.c ****         #if (0u != CapSense_POSITION_FILTER_EN)
1567:Generated_Source\PSoC6/CapSense_Processing.c ****             if (NULL != ptrHistory)
1568:Generated_Source\PSoC6/CapSense_Processing.c ****             {
1569:Generated_Source\PSoC6/CapSense_Processing.c ****                 CapSense_InitPosFiltersSd(&ptrHistory[touchIdx], CapSense_SLIDER_POS_NONE);
1570:Generated_Source\PSoC6/CapSense_Processing.c ****             }
1571:Generated_Source\PSoC6/CapSense_Processing.c ****         #endif /* #if (0u != CapSense_POSITION_FILTER_EN) */
1572:Generated_Source\PSoC6/CapSense_Processing.c ****     }
1573:Generated_Source\PSoC6/CapSense_Processing.c **** 
1574:Generated_Source\PSoC6/CapSense_Processing.c ****     return currStatus;
1575:Generated_Source\PSoC6/CapSense_Processing.c **** }
1576:Generated_Source\PSoC6/CapSense_Processing.c **** #endif /* #if (0u != CapSense_SLIDER_WIDGET_EN) */
1577:Generated_Source\PSoC6/CapSense_Processing.c **** 
1578:Generated_Source\PSoC6/CapSense_Processing.c **** #if (0u != CapSense_TOTAL_LINEAR_SLIDERS)
1579:Generated_Source\PSoC6/CapSense_Processing.c **** /*******************************************************************************
ARM GAS  C:\Users\Austina\AppData\Local\Temp\ccLgwUrp.s 			page 47


1580:Generated_Source\PSoC6/CapSense_Processing.c **** * Function Name: DpUpdateLinSlider
1581:Generated_Source\PSoC6/CapSense_Processing.c **** ****************************************************************************//**
1582:Generated_Source\PSoC6/CapSense_Processing.c **** *
1583:Generated_Source\PSoC6/CapSense_Processing.c **** * \brief
1584:Generated_Source\PSoC6/CapSense_Processing.c **** *   Updates the touch status of the Linear Slider widget.
1585:Generated_Source\PSoC6/CapSense_Processing.c **** *
1586:Generated_Source\PSoC6/CapSense_Processing.c **** * \details
1587:Generated_Source\PSoC6/CapSense_Processing.c **** *   This function updates the position data of the Linear Slider
1588:Generated_Source\PSoC6/CapSense_Processing.c **** *   in the Data Structure. Also, this function runs position filters for the
1589:Generated_Source\PSoC6/CapSense_Processing.c **** *   position data if any enabled.
1590:Generated_Source\PSoC6/CapSense_Processing.c **** *
1591:Generated_Source\PSoC6/CapSense_Processing.c **** * \param newPos       The pointer to the array with the new finger position coordinates.
1592:Generated_Source\PSoC6/CapSense_Processing.c **** * \param numTouches   The number of the coordinates in the newPos array.
1593:Generated_Source\PSoC6/CapSense_Processing.c **** * \param ptrFlashWdgt The pointer to the Flash Widget Object.
1594:Generated_Source\PSoC6/CapSense_Processing.c **** * \param ptrRamWdgt   The pointer to the RAM Widget Object.
1595:Generated_Source\PSoC6/CapSense_Processing.c **** *
1596:Generated_Source\PSoC6/CapSense_Processing.c **** *******************************************************************************/
1597:Generated_Source\PSoC6/CapSense_Processing.c **** __STATIC_INLINE void DpUpdateLinSlider(
1598:Generated_Source\PSoC6/CapSense_Processing.c ****                         const uint16 newPos[],
1599:Generated_Source\PSoC6/CapSense_Processing.c ****                         uint32 numTouches,
1600:Generated_Source\PSoC6/CapSense_Processing.c ****                         CapSense_FLASH_WD_STRUCT const *ptrFlashWdgt,
1601:Generated_Source\PSoC6/CapSense_Processing.c ****                         CapSense_RAM_WD_SLIDER_STRUCT *ptrRamWdgt)
1602:Generated_Source\PSoC6/CapSense_Processing.c **** {
1603:Generated_Source\PSoC6/CapSense_Processing.c ****     uint32 touchIdx;
1604:Generated_Source\PSoC6/CapSense_Processing.c **** 
1605:Generated_Source\PSoC6/CapSense_Processing.c ****     #if (0u != CapSense_POS_AVERAGE_FILTER_EN)
1606:Generated_Source\PSoC6/CapSense_Processing.c ****         uint16 tempPosition;
1607:Generated_Source\PSoC6/CapSense_Processing.c ****     #endif /* (0u != CapSense_POS_AVERAGE_FILTER_EN) */
1608:Generated_Source\PSoC6/CapSense_Processing.c **** 
1609:Generated_Source\PSoC6/CapSense_Processing.c ****     #if (0u == CapSense_POSITION_FILTER_EN)
1610:Generated_Source\PSoC6/CapSense_Processing.c ****         /* This parameter is unused in such configurations */
1611:Generated_Source\PSoC6/CapSense_Processing.c ****         (void)ptrFlashWdgt;
1612:Generated_Source\PSoC6/CapSense_Processing.c ****     #else
1613:Generated_Source\PSoC6/CapSense_Processing.c ****         uint16 filteredPosition;
1614:Generated_Source\PSoC6/CapSense_Processing.c ****         /* Get bitmask with the enabled filters */
1615:Generated_Source\PSoC6/CapSense_Processing.c ****         uint32 filterConfig = (uint32)ptrFlashWdgt->staticConfig;
1616:Generated_Source\PSoC6/CapSense_Processing.c ****         /* Get pointer to the position filter history */
1617:Generated_Source\PSoC6/CapSense_Processing.c ****         CapSense_SLIDER_POS_HISTORY_STRUCT *ptrHistory = ptrFlashWdgt->ptr2PosHistory;
1618:Generated_Source\PSoC6/CapSense_Processing.c ****     #endif /* #if (0u == CapSense_POSITION_FILTER_EN) */
1619:Generated_Source\PSoC6/CapSense_Processing.c **** 
1620:Generated_Source\PSoC6/CapSense_Processing.c ****     #if (0u != CapSense_POS_ADAPTIVE_IIR_FILTER_EN)
1621:Generated_Source\PSoC6/CapSense_Processing.c ****         ADAPTIVE_FILTER_CONTEXT_STRUCT contextAIIR;
1622:Generated_Source\PSoC6/CapSense_Processing.c ****         uint16 emptyPosition = 0;
1623:Generated_Source\PSoC6/CapSense_Processing.c ****     #endif /* (0u != CapSense_POS_ADAPTIVE_IIR_FILTER_EN) */
1624:Generated_Source\PSoC6/CapSense_Processing.c **** 
1625:Generated_Source\PSoC6/CapSense_Processing.c ****     /* Run Filter and update the position registers with the filtered data */
1626:Generated_Source\PSoC6/CapSense_Processing.c ****     for (touchIdx = 0u; touchIdx < numTouches; touchIdx++)
 964              		.loc 1 1626 0
 965 0090 0022     		movs	r2, #0
 966 0092 0AE0     		b	.L77
 967              	.LVL162:
 968              	.L78:
1627:Generated_Source\PSoC6/CapSense_Processing.c ****     {
1628:Generated_Source\PSoC6/CapSense_Processing.c ****         #if (0u == CapSense_POSITION_FILTER_EN)
1629:Generated_Source\PSoC6/CapSense_Processing.c ****             /* If filters are not enabled just copy the position data */
1630:Generated_Source\PSoC6/CapSense_Processing.c ****             ptrRamWdgt->position[touchIdx] = newPos[touchIdx];
 969              		.loc 1 1630 0
ARM GAS  C:\Users\Austina\AppData\Local\Temp\ccLgwUrp.s 			page 48


 970 0094 02A9     		add	r1, sp, #8
 971 0096 01EB4201 		add	r1, r1, r2, lsl #1
 972 009a 31F8040C 		ldrh	r0, [r1, #-4]
 973 009e 02F10801 		add	r1, r2, #8
 974 00a2 05EB4101 		add	r1, r5, r1, lsl #1
 975 00a6 8880     		strh	r0, [r1, #4]	@ movhi
1626:Generated_Source\PSoC6/CapSense_Processing.c ****     {
 976              		.loc 1 1626 0
 977 00a8 0132     		adds	r2, r2, #1
 978              	.LVL163:
 979              	.L77:
 980 00aa 9342     		cmp	r3, r2
 981 00ac F2D8     		bhi	.L78
 982 00ae 07E0     		b	.L76
 983              	.LVL164:
 984              	.L79:
 985              	.LBE9:
 986              	.LBE8:
1564:Generated_Source\PSoC6/CapSense_Processing.c **** 
 987              		.loc 1 1564 0 discriminator 3
 988 00b0 03F10802 		add	r2, r3, #8
 989 00b4 05EB4202 		add	r2, r5, r2, lsl #1
 990 00b8 4FF6FF71 		movw	r1, #65535
 991 00bc 9180     		strh	r1, [r2, #4]	@ movhi
1562:Generated_Source\PSoC6/CapSense_Processing.c ****     {
 992              		.loc 1 1562 0 discriminator 3
 993 00be 0133     		adds	r3, r3, #1
 994              	.LVL165:
 995              	.L76:
1562:Generated_Source\PSoC6/CapSense_Processing.c ****     {
 996              		.loc 1 1562 0 is_stmt 0 discriminator 1
 997 00c0 002B     		cmp	r3, #0
 998 00c2 F5D0     		beq	.L79
1575:Generated_Source\PSoC6/CapSense_Processing.c **** #endif /* #if (0u != CapSense_SLIDER_WIDGET_EN) */
 999              		.loc 1 1575 0 is_stmt 1
 1000 00c4 2046     		mov	r0, r4
 1001 00c6 03B0     		add	sp, sp, #12
 1002              		.cfi_def_cfa_offset 20
 1003              		@ sp needed
 1004 00c8 F0BD     		pop	{r4, r5, r6, r7, pc}
 1005              		.cfi_endproc
 1006              	.LFE136:
 1007              		.size	CapSense_DpProcessSlider, .-CapSense_DpProcessSlider
 1008 00ca 00BF     		.section	.text.CapSense_DpProcessCsdWidgetStatus,"ax",%progbits
 1009              		.align	2
 1010              		.global	CapSense_DpProcessCsdWidgetStatus
 1011              		.thumb
 1012              		.thumb_func
 1013              		.type	CapSense_DpProcessCsdWidgetStatus, %function
 1014              	CapSense_DpProcessCsdWidgetStatus:
 1015              	.LFB132:
1016:Generated_Source\PSoC6/CapSense_Processing.c ****     uint32 sensorStatus;
 1016              		.loc 1 1016 0
 1017              		.cfi_startproc
 1018              		@ args = 0, pretend = 0, frame = 0
 1019              		@ frame_needed = 0, uses_anonymous_args = 0
 1020              	.LVL166:
ARM GAS  C:\Users\Austina\AppData\Local\Temp\ccLgwUrp.s 			page 49


 1021 0000 38B5     		push	{r3, r4, r5, lr}
 1022              		.cfi_def_cfa_offset 16
 1023              		.cfi_offset 3, -16
 1024              		.cfi_offset 4, -12
 1025              		.cfi_offset 5, -8
 1026              		.cfi_offset 14, -4
 1027 0002 0446     		mov	r4, r0
1022:Generated_Source\PSoC6/CapSense_Processing.c ****     sensorStatus = CapSense_dsRam.snsStatus[widgetId];
 1028              		.loc 1 1022 0
 1029 0004 8A7E     		ldrb	r2, [r1, #26]	@ zero_extendqisi2
 1030              	.LVL167:
1023:Generated_Source\PSoC6/CapSense_Processing.c **** 
 1031              		.loc 1 1023 0
 1032 0006 194B     		ldr	r3, .L92
 1033 0008 0344     		add	r3, r3, r0
 1034 000a 1D7E     		ldrb	r5, [r3, #24]	@ zero_extendqisi2
 1035              	.LVL168:
1025:Generated_Source\PSoC6/CapSense_Processing.c ****     {
 1036              		.loc 1 1025 0
 1037 000c 012A     		cmp	r2, #1
 1038 000e 03D0     		beq	.L85
 1039 0010 62B1     		cbz	r2, .L84
 1040 0012 032A     		cmp	r2, #3
 1041 0014 05D9     		bls	.L90
 1042 0016 09E0     		b	.L84
 1043              	.L85:
1029:Generated_Source\PSoC6/CapSense_Processing.c ****             break;
 1044              		.loc 1 1029 0
 1045 0018 2846     		mov	r0, r5
 1046              	.LVL169:
 1047 001a FFF7FEFF 		bl	CapSense_DpProcessButton
 1048              	.LVL170:
 1049 001e 0546     		mov	r5, r0
 1050              	.LVL171:
1030:Generated_Source\PSoC6/CapSense_Processing.c ****     #endif /* #if (0u != CapSense_BUTTON_WIDGET_EN) */
 1051              		.loc 1 1030 0
 1052 0020 09E0     		b	.L87
 1053              	.LVL172:
 1054              	.L90:
1036:Generated_Source\PSoC6/CapSense_Processing.c ****             break;
 1055              		.loc 1 1036 0
 1056 0022 2846     		mov	r0, r5
 1057              	.LVL173:
 1058 0024 FFF7FEFF 		bl	CapSense_DpProcessSlider
 1059              	.LVL174:
 1060 0028 0546     		mov	r5, r0
 1061              	.LVL175:
1037:Generated_Source\PSoC6/CapSense_Processing.c ****     #endif /* #if (0u != CapSense_SLIDER_WIDGET_EN) */
 1062              		.loc 1 1037 0
 1063 002a 04E0     		b	.L87
 1064              	.LVL176:
 1065              	.L84:
1062:Generated_Source\PSoC6/CapSense_Processing.c ****         break;
 1066              		.loc 1 1062 0 discriminator 1
 1067 002c 40F22641 		movw	r1, #1062
 1068              	.LVL177:
 1069 0030 0F48     		ldr	r0, .L92+4
ARM GAS  C:\Users\Austina\AppData\Local\Temp\ccLgwUrp.s 			page 50


 1070              	.LVL178:
 1071 0032 FFF7FEFF 		bl	Cy_SysLib_AssertFailed
 1072              	.LVL179:
 1073              	.L87:
1066:Generated_Source\PSoC6/CapSense_Processing.c **** 
 1074              		.loc 1 1066 0
 1075 0036 0D4B     		ldr	r3, .L92
 1076 0038 2344     		add	r3, r3, r4
 1077 003a 1D76     		strb	r5, [r3, #24]
1069:Generated_Source\PSoC6/CapSense_Processing.c ****     wdStatusMask = CapSense_GET_WDGT_STATUS_MASK(widgetId);
 1078              		.loc 1 1069 0
 1079 003c 6209     		lsrs	r2, r4, #5
 1080              	.LVL180:
1070:Generated_Source\PSoC6/CapSense_Processing.c **** 
 1081              		.loc 1 1070 0
 1082 003e 04F01F04 		and	r4, r4, #31
 1083              	.LVL181:
 1084 0042 0123     		movs	r3, #1
 1085 0044 03FA04F4 		lsl	r4, r3, r4
 1086              	.LVL182:
1073:Generated_Source\PSoC6/CapSense_Processing.c ****     {
 1087              		.loc 1 1073 0
 1088 0048 45B9     		cbnz	r5, .L88
1075:Generated_Source\PSoC6/CapSense_Processing.c ****     }
 1089              		.loc 1 1075 0
 1090 004a 0432     		adds	r2, r2, #4
 1091              	.LVL183:
 1092 004c 074B     		ldr	r3, .L92
 1093 004e 03EB8202 		add	r2, r3, r2, lsl #2
 1094              	.LVL184:
 1095 0052 5368     		ldr	r3, [r2, #4]
 1096 0054 23EA0404 		bic	r4, r3, r4
 1097              	.LVL185:
 1098 0058 5460     		str	r4, [r2, #4]
 1099 005a 38BD     		pop	{r3, r4, r5, pc}
 1100              	.LVL186:
 1101              	.L88:
1079:Generated_Source\PSoC6/CapSense_Processing.c ****     }
 1102              		.loc 1 1079 0
 1103 005c 0432     		adds	r2, r2, #4
 1104              	.LVL187:
 1105 005e 034B     		ldr	r3, .L92
 1106 0060 03EB8202 		add	r2, r3, r2, lsl #2
 1107              	.LVL188:
 1108 0064 5368     		ldr	r3, [r2, #4]
 1109 0066 1C43     		orrs	r4, r4, r3
 1110              	.LVL189:
 1111 0068 5460     		str	r4, [r2, #4]
 1112 006a 38BD     		pop	{r3, r4, r5, pc}
 1113              	.LVL190:
 1114              	.L93:
 1115              		.align	2
 1116              	.L92:
 1117 006c 00000000 		.word	CapSense_dsRam
 1118 0070 00000000 		.word	.LC0
 1119              		.cfi_endproc
 1120              	.LFE132:
ARM GAS  C:\Users\Austina\AppData\Local\Temp\ccLgwUrp.s 			page 51


 1121              		.size	CapSense_DpProcessCsdWidgetStatus, .-CapSense_DpProcessCsdWidgetStatus
 1122              		.section	.rodata.str1.4,"aMS",%progbits,1
 1123              		.align	2
 1124              	.LC0:
 1125 0000 47656E65 		.ascii	"Generated_Source\\PSoC6\\CapSense_Processing.c\000"
 1125      72617465 
 1125      645F536F 
 1125      75726365 
 1125      5C50536F 
 1126              		.text
 1127              	.Letext0:
 1128              		.file 2 "c:\\program files (x86)\\cypress\\psoc creator\\4.2\\psoc creator\\import\\gnu\\arm\\5.4.
 1129              		.file 3 "c:\\program files (x86)\\cypress\\psoc creator\\4.2\\psoc creator\\import\\gnu\\arm\\5.4.
 1130              		.file 4 "Generated_Source\\PSoC6\\pdl\\drivers/peripheral/syslib/cy_syslib.h"
 1131              		.file 5 "c:\\program files (x86)\\cypress\\psoc creator\\4.2\\psoc creator\\import\\gnu\\arm\\5.4.
 1132              		.file 6 "Generated_Source\\PSoC6\\CapSense_Configuration.h"
 1133              		.file 7 "Generated_Source\\PSoC6\\CapSense_SmartSense_LL.h"
 1134              		.file 8 "Generated_Source\\PSoC6\\CapSense_TMG.h"
 1135              		.file 9 "Generated_Source\\PSoC6\\CapSense_Structure.h"
 1136              		.file 10 "Generated_Source\\PSoC6\\pdl\\cmsis/include/core_cm4.h"
 1137              		.file 11 "c:\\program files (x86)\\cypress\\psoc creator\\4.2\\psoc creator\\import\\gnu\\arm\\5.4
 1138              		.file 12 "Generated_Source\\PSoC6\\CapSense_Filter.h"
 1139              		.file 13 "Generated_Source\\PSoC6\\CapSense_Centroid_LL.h"